
FPV_demo.elf:     file format elf32-littleriscv
FPV_demo.elf
architecture: riscv:rv32, flags 0x00000112:
EXEC_P, HAS_SYMS, D_PAGED
start address 0x00000000

Program Header:
    LOAD off    0x00001000 vaddr 0x00000000 paddr 0x00000000 align 2**12
         filesz 0x00009dfc memsz 0x00009dfc flags r-x
    LOAD off    0x0000b000 vaddr 0x20000000 paddr 0x00009dfc align 2**12
         filesz 0x000000e0 memsz 0x00000998 flags rw-
    LOAD off    0x0000b800 vaddr 0x20007800 paddr 0x20007800 align 2**12
         filesz 0x00000000 memsz 0x00000800 flags rw-

Sections:
Idx Name          Size      VMA       LMA       File off  Algn
  0 .init         00000038  00000000  00000000  00001000  2**1
                  CONTENTS, ALLOC, LOAD, READONLY, CODE
  1 .vector       000001c8  00000038  00000038  00001038  2**1
                  CONTENTS, ALLOC, LOAD, READONLY, CODE
  2 .text         00009bfc  00000200  00000200  00001200  2**3
                  CONTENTS, ALLOC, LOAD, READONLY, CODE
  3 .fini         00000000  00009dfc  00009dfc  0000b0e0  2**0
                  CONTENTS, ALLOC, LOAD, CODE
  4 .dalign       00000000  20000000  20000000  0000b0e0  2**0
                  CONTENTS
  5 .dlalign      00000000  00009dfc  00009dfc  0000b0e0  2**0
                  CONTENTS
  6 .data         000000e0  20000000  00009dfc  0000b000  2**2
                  CONTENTS, ALLOC, LOAD, DATA
  7 .bss          000008b8  200000e0  00009edc  0000b0e0  2**2
                  ALLOC
  8 .stack        00000800  20007800  20007800  0000b800  2**0
                  ALLOC
  9 .debug_info   00021977  00000000  00000000  0000b0e0  2**0
                  CONTENTS, READONLY, DEBUGGING
 10 .debug_abbrev 000054c6  00000000  00000000  0002ca57  2**0
                  CONTENTS, READONLY, DEBUGGING
 11 .debug_aranges 00001080  00000000  00000000  00031f20  2**3
                  CONTENTS, READONLY, DEBUGGING
 12 .debug_ranges 00001768  00000000  00000000  00032fa0  2**3
                  CONTENTS, READONLY, DEBUGGING
 13 .debug_line   0001a9ec  00000000  00000000  00034708  2**0
                  CONTENTS, READONLY, DEBUGGING
 14 .debug_str    00005304  00000000  00000000  0004f0f4  2**0
                  CONTENTS, READONLY, DEBUGGING
 15 .comment      00000033  00000000  00000000  000543f8  2**0
                  CONTENTS, READONLY
 16 .debug_frame  00002e48  00000000  00000000  0005442c  2**2
                  CONTENTS, READONLY, DEBUGGING
 17 .debug_loc    0000a13e  00000000  00000000  00057274  2**0
                  CONTENTS, READONLY, DEBUGGING
SYMBOL TABLE:
00000000 l    d  .init	00000000 .init
00000038 l    d  .vector	00000000 .vector
00000200 l    d  .text	00000000 .text
00009dfc l    d  .fini	00000000 .fini
20000000 l    d  .dalign	00000000 .dalign
00009dfc l    d  .dlalign	00000000 .dlalign
20000000 l    d  .data	00000000 .data
200000e0 l    d  .bss	00000000 .bss
20007800 l    d  .stack	00000000 .stack
00000000 l    d  .debug_info	00000000 .debug_info
00000000 l    d  .debug_abbrev	00000000 .debug_abbrev
00000000 l    d  .debug_aranges	00000000 .debug_aranges
00000000 l    d  .debug_ranges	00000000 .debug_ranges
00000000 l    d  .debug_line	00000000 .debug_line
00000000 l    d  .debug_str	00000000 .debug_str
00000000 l    d  .comment	00000000 .comment
00000000 l    d  .debug_frame	00000000 .debug_frame
00000000 l    d  .debug_loc	00000000 .debug_loc
00000000 l    df *ABS*	00000000 ./Startup/startup_ch32v30x_D8C.o
00000038 l       .vector	00000000 _vector_base
00000000 l    df *ABS*	00000000 ch32v30x_it.c
00000000 l    df *ABS*	00000000 main.c
00000000 l    df *ABS*	00000000 system_ch32v30x.c
00000000 l    df *ABS*	00000000 ch32v30x_adc.c
00000000 l    df *ABS*	00000000 ch32v30x_dma.c
00000000 l    df *ABS*	00000000 ch32v30x_gpio.c
00000000 l    df *ABS*	00000000 ch32v30x_i2c.c
00000000 l    df *ABS*	00000000 ch32v30x_misc.c
00000000 l    df *ABS*	00000000 ch32v30x_rcc.c
20000000 l     O .data	00000010 APBAHBPrescTable
200000c4 l     O .data	00000004 ADCPrescTable
00000000 l    df *ABS*	00000000 ch32v30x_tim.c
00000000 l    df *ABS*	00000000 ch32v30x_usart.c
00000000 l    df *ABS*	00000000 inv_mpu.c
00001768 l     F .text	00000402 get_st_biases
00001b6a l     F .text	0000006a set_int_enable
20000010 l     O .data	00000009 gyro_orientation
2000001c l     O .data	0000002c st
00000000 l    df *ABS*	00000000 inv_mpu_dmp_motion_driver.c
00002eba l     F .text	00000032 dmp_enable_gyro_cal.part.0
00008e10 l     O .text	00000bf6 dmp_memory
20000108 l     O .bss	00000010 dmp
00000000 l    df *ABS*	00000000 BMP280.c
00000000 l    df *ABS*	00000000 MPU6050.c
00003cf8 l     F .text	0000001c MPU6050_WriteByte
00000000 l    df *ABS*	00000000 MyI2C.c
00000000 l    df *ABS*	00000000 adc.c
00000000 l    df *ABS*	00000000 bsp_filter.c
00000000 l    df *ABS*	00000000 gpio.c
00000000 l    df *ABS*	00000000 pwm.c
00000000 l    df *ABS*	00000000 tim.c
00000000 l    df *ABS*	00000000 uart.c
00000000 l    df *ABS*	00000000 CRC.c
00000000 l    df *ABS*	00000000 CRSF.c
00000000 l    df *ABS*	00000000 control.c
00000000 l    df *ABS*	00000000 pid.c
00000000 l    df *ABS*	00000000 system.c
00000000 l    df *ABS*	00000000 debug.c
20000104 l     O .bss	00000002 p_ms
20000106 l     O .bss	00000001 p_us
00000000 l    df *ABS*	00000000 wf_asin.c
00000000 l    df *ABS*	00000000 wf_atan2.c
00000000 l    df *ABS*	00000000 ef_asin.c
00000000 l    df *ABS*	00000000 ef_atan2.c
00000000 l    df *ABS*	00000000 ef_sqrt.c
00000000 l    df *ABS*	00000000 s_matherr.c
00000000 l    df *ABS*	00000000 s_nan.c
00000000 l    df *ABS*	00000000 sf_atan.c
00009c94 l     O .text	00000010 atanhi
00009ca4 l     O .text	00000010 atanlo
00000000 l    df *ABS*	00000000 sf_fabs.c
00000000 l    df *ABS*	00000000 printfloat.c
00000000 l    df *ABS*	00000000 libgcc2.c
00000000 l    df *ABS*	00000000 libgcc2.c
00000000 l    df *ABS*	00000000 libgcc2.c
00000000 l    df *ABS*	00000000 ledf2.c
00000000 l    df *ABS*	00000000 muldf3.c
00000000 l    df *ABS*	00000000 subdf3.c
00000000 l    df *ABS*	00000000 fixdfdi.c
00000000 l    df *ABS*	00000000 floatdidf.c
00000000 l    df *ABS*	00000000 extendsfdf2.c
00000000 l    df *ABS*	00000000 truncdfsf2.c
00000000 l    df *ABS*	00000000 libgcc2.c
00000000 l    df *ABS*	00000000 errno.c
00000000 l    df *ABS*	00000000 memcmp.c
00000000 l    df *ABS*	00000000 memcpy.c
00000000 l    df *ABS*	00000000 libgcc2.c
00000000 l    df *ABS*	00000000 impure.c
20000058 l     O .data	00000060 impure_data
00000000 l    df *ABS*	00000000 s_lib_ver.c
0000621e  w    F .text	00000100 printDouble
00000518  w      .text	00000000 EXTI2_IRQHandler
00000562  w      .text	00000000 TIM8_TRG_COM_IRQHandler
00000564  w      .text	00000000 TIM8_CC_IRQHandler
20000100 g     O .bss	00000004 Yaw
00001594 g     F .text	00000006 TIM_SetCompare2
00000b26 g     F .text	00000014 DMA_Cmd
0000059a  w      .text	00000000 UART8_IRQHandler
00003a4a g     F .text	0000003a BMP280_Write_Byte
000066ee g     F .text	000003d8 .hidden __divdi3
000020fe g     F .text	000000c2 mpu_read_fifo_stream
0000631e  w    F .text	00000358 print
000084b4 g     F .text	0000021c .hidden __floatdidf
000034e2 g     F .text	00000042 dmp_set_shake_reject_thresh
2000018c g     O .bss	00000014 MPU6050_para_filted
00006676  w    F .text	00000024 printf
200008b8 g       .data	00000000 __global_pointer$
0000053e  w      .text	00000000 TIM1_CC_IRQHandler
00000e7c g     F .text	0000000a I2C_ReceiveData
200007b8 g     O .bss	00000050 PID_roll_innerloop
0000289a g     F .text	0000008a mpu_set_dmp_state
000002ac g     F .text	00000002 HardFault_Handler
00002f04 g     F .text	00000124 dmp_set_orientation
00004ca2 g     F .text	00000038 ShiftRxBuffer
00001d92 g     F .text	0000008e mpu_set_gyro_fsr
00002328 g     F .text	000000c6 mpu_lp_accel_mode
00006004  w    F .text	000000f4 printInt
0000324a g     F .text	0000005a dmp_set_fifo_rate
000006f6 g     F .text	00000012 ADC_DMACmd
00000574  w      .text	00000000 TIM6_IRQHandler
00001536 g     F .text	00000012 TIM_OC1PreloadConfig
00001e20 g     F .text	00000050 mpu_get_accel_fsr
00000504  w      .text	00000000 SysTick_Handler
0000071a g     F .text	0000000a ADC_StartCalibration
00008dcc g     O .text	0000001b reg
00000eec g     F .text	000000b8 NVIC_Init
0000050a  w      .text	00000000 PVD_IRQHandler
0000056a  w      .text	00000000 SDIO_IRQHandler
000022b8 g     F .text	00000070 mpu_set_int_latched
0000059c  w      .text	00000000 TIM9_BRK_IRQHandler
000052a8 g     F .text	0000019c Flight_control
000005b0  w      .text	00000000 DMA2_Channel8_IRQHandler
000002a8 g     F .text	00000004 NMI_Handler
0000058a  w      .text	00000000 CAN2_RX1_IRQHandler
0000051a  w      .text	00000000 EXTI3_IRQHandler
000051dc g     F .text	0000001e Yaw_innerloop_ctr
00008b4c g     F .text	00000008 __errno
00005154 g     F .text	0000002e ELRS_Convert_flight_mode
00000592  w      .text	00000000 USBHS_IRQHandler
200000b8 g     O .data	00000004 Motor_speed_set
000026d0 g     F .text	0000007a mpu_write_mem
0000170a g     F .text	0000000c USART_GetFlagStatus
000005b2  w      .text	00000000 DMA2_Channel9_IRQHandler
000005aa  w      .text	00000000 TIM10_CC_IRQHandler
200000e0 g       .bss	00000000 _sbss
00000800 g       *ABS*	00000000 __stack_size
0000405a g     F .text	00000040 MyI2C_Init
200000e8 g     O .bss	00000004 Mech_zero_yaw
00004a1a g     F .text	00000044 UART_RxCpltCallback
00001f42 g     F .text	00000090 mpu_set_lpf
0000566a g     F .text	0000005e USART_Printf_Init
200000ee g     O .bss	00000002 PWM_Out2
00000aee g     F .text	00000038 DMA_Init
000044c8 g     F .text	00000052 PWM_Init
0000203c g     F .text	00000058 mpu_get_accel_sens
00005474 g     F .text	0000002e pid_reset
0000249a g     F .text	000000de mpu_set_sensors
000014ec g     F .text	00000016 TIM_CtrlPWMOutputs
00008b7a g     F .text	000000b6 memcpy
000006e6 g     F .text	00000010 ADC_Cmd
000046ea g     F .text	00000062 TIM4_Init
00000c22 g     F .text	000000c4 GPIO_PinRemapConfig
000060f8  w    F .text	00000126 printLongLongInt
000071ec g     F .text	000000b6 .hidden __ltdf2
00000514  w      .text	00000000 EXTI0_IRQHandler
0000054a  w      .text	00000000 I2C2_EV_IRQHandler
000005a8  w      .text	00000000 TIM10_TRG_COM_IRQHandler
200000e4 g     O .bss	00000002 Calibrattion_Val
000014d0 g     F .text	0000001c TIM_Cmd
0000669a  w    F .text	00000054 puts
00001574 g     F .text	0000001a TIM_OC4PreloadConfig
200000c0 g     O .data	00000004 SystemCoreClock
00001700 g     F .text	0000000a USART_ReceiveData
200000fc g     O .bss	00000002 Throttle
000015be g     F .text	0000000e TIM_ClearFlag
00000038 g       .init	00000000 _einit
200000ec g     O .bss	00000002 PWM_Out1
0000523e g     F .text	00000020 Check_control_mode
000010e2 g     F .text	0000001e RCC_APB2PeriphClockCmd
000015b2 g     F .text	00000006 TIM_GetCapture3
0000058c  w      .text	00000000 CAN2_SCE_IRQHandler
0000052c  w      .text	00000000 ADC1_2_IRQHandler
00003ff2 g     F .text	00000020 MyI2C_W_SCL
200000d5 g     O .data	00000001 is_locked
00000b48 g     F .text	000000c2 GPIO_Init
00003464 g     F .text	0000002e dmp_set_tap_count
00000fa4 g     F .text	00000012 RCC_ADCCLKConfig
00000502  w      .text	00000000 Break_Point_Handler
200000e0 g     O .bss	00000004 NVIC_Priority_Group
0000054e  w      .text	00000000 SPI1_IRQHandler
00000708 g     F .text	0000000a ADC_ResetCalibration
000016a4 g     F .text	0000001c USART_Cmd
000015a6 g     F .text	00000006 TIM_GetCapture1
000045c4 g     F .text	00000078 Motor_ctr_SOFT_START
0000050c  w      .text	00000000 TAMPER_IRQHandler
0000437a g     F .text	00000048 LED_Init
00005eca g     F .text	0000000e fabsf
00001368 g     F .text	000000ca TIM_OC3Init
00000588  w      .text	00000000 CAN2_RX0_IRQHandler
00005220 g     F .text	0000001e Pitch_innerloop_ctr
000086d0 g     F .text	000000e8 .hidden __extendsfdf2
00000560  w      .text	00000000 TIM8_UP_IRQHandler
00001100 g     F .text	0000001e RCC_APB1PeriphClockCmd
000004fe  w      .text	00000000 Ecall_M_Mode_Handler
20007800 g       .stack	00000000 _heap_end
20000188 g     O .bss	00000002 TxBuf
00006e5e g     F .text	0000038e .hidden __umoddi3
00002ca0 g     F .text	00000030 inv_row_2_scale
200000d8 g     O .data	00000004 __fdlib_version
000055fe g     F .text	00000036 Delay_Us
200000f8 g     O .bss	00000004 Roll
00002dae g     F .text	0000010c mpu_dmp_get_data
00001d52 g     F .text	00000040 mpu_get_gyro_fsr
00000b3a g     F .text	0000000e GPIO_TogglePin
0000057a  w      .text	00000000 DMA2_Channel2_IRQHandler
000010c4 g     F .text	0000001e RCC_AHBPeriphClockCmd
00006ac6 g     F .text	00000398 .hidden __udivdi3
000040c6 g     F .text	0000003c MyI2C_SendByte
00000524  w      .text	00000000 DMA1_Channel4_IRQHandler
00000744 g     F .text	000000b8 ADC_RegularChannelConfig
00000e76 g     F .text	00000006 I2C_SendData
000027c4 g     F .text	000000d6 mpu_load_firmware
00000ce6 g     F .text	0000011a I2C_Init
0000059e  w      .text	00000000 TIM9_UP_IRQHandler
00000556  w      .text	00000000 USART3_IRQHandler
000021c0 g     F .text	000000f8 mpu_set_bypass
000051a4 g     F .text	0000001a Roll_innerloop_ctr
0000050e  w      .text	00000000 RTC_IRQHandler
00000724 g     F .text	00000008 ADC_GetCalibrationStatus
20000998 g       .bss	00000000 _ebss
00001724 g     F .text	00000044 USART_GetITStatus
0000052a  w      .text	00000000 DMA1_Channel7_IRQHandler
000011fc g     F .text	000000a0 TIM_OC1Init
0000072c g     F .text	00000018 ADC_SoftwareStartConvCmd
00001562 g     F .text	00000012 TIM_OC3PreloadConfig
00000712 g     F .text	00000008 ADC_GetResetCalibrationStatus
00003604 g     F .text	000001fe dmp_enable_feature
00004e9c g     F .text	00000080 HandleByteReceived
00000532  w      .text	00000000 CAN1_RX1_IRQHandler
000055d8 g     F .text	00000026 Delay_Init
00000594  w      .text	00000000 DVP_IRQHandler
00000572  w      .text	00000000 UART5_IRQHandler
20000808 g     O .bss	00000050 PID_yaw_outerloop
000043c2 g     F .text	00000106 TIM9_PWMOut_Init
200000f2 g     O .bss	00000002 PWM_Out4
00000c14 g     F .text	00000004 GPIO_SetBits
00002924 g     F .text	000002fa mpu_run_self_test
0000474c g     F .text	00000078 TIM4_IRQHandler
000071ec g     F .text	000000b6 .hidden __ledf2
00001518 g     F .text	0000001e TIM_ARRPreloadConfig
00000c18 g     F .text	0000000a GPIO_WriteBit
00000578  w      .text	00000000 DMA2_Channel1_IRQHandler
20000118 g     O .bss	00000014 MPU6050_para
000057d8 g     F .text	00000252 __ieee754_asinf
00000e1c g     F .text	0000001e I2C_GenerateSTART
20000048 g     O .data	00000010 pid_func
00000546  w      .text	00000000 I2C1_EV_IRQHandler
0000463c g     F .text	00000026 TIM3_Interrupt_Init
00005106 g     F .text	00000038 ELRS_Convert_throttle
000054fe g     F .text	0000008a pid_calc
00000fb6 g     F .text	0000010e RCC_GetClocksFreq
00003028 g     F .text	00000110 dmp_set_gyro_bias
0000513e g     F .text	00000016 ELRS_Convert_lock
00000528  w      .text	00000000 DMA1_Channel6_IRQHandler
00008ad6 g     F .text	00000076 .hidden __clzsi2
20000858 g     O .bss	00000050 PID_pitch_outerloop
00000570  w      .text	00000000 UART4_IRQHandler
0000057e  w      .text	00000000 DMA2_Channel4_IRQHandler
000040b2 g     F .text	00000014 MyI2C_Stop
000015cc g     F .text	000000d8 USART_Init
0000489e g     F .text	000000c8 TIM3_IRQHandler
00000512  w      .text	00000000 RCC_IRQHandler
00004032 g     F .text	00000028 MyI2C_R_SDA
200000f0 g     O .bss	00000002 PWM_Out3
0000053c  w      .text	00000000 TIM1_TRG_COM_IRQHandler
000047c4 g     F .text	0000006c load_filter_data
00008de8 g     O .text	00000028 test
00001ff0 g     F .text	0000004c mpu_get_gyro_sens
0000051e  w      .text	00000000 DMA1_Channel1_IRQHandler
00000000 g       .init	00000000 _start
000005ae  w      .text	00000000 DMA2_Channel7_IRQHandler
00000eb4 g     F .text	00000032 I2C_GetFlagStatus
00003416 g     F .text	0000004e dmp_set_tap_axes
0000274a g     F .text	0000007a mpu_read_mem
00001548 g     F .text	0000001a TIM_OC2PreloadConfig
00005f24  w    F .text	000000e0 prints
00000558  w      .text	00000000 EXTI15_10_IRQHandler
00001502 g     F .text	00000016 TIM_ITConfig
00001e70 g     F .text	00000086 mpu_set_accel_fsr
0000129c g     F .text	000000cc TIM_OC2Init
000016c0 g     F .text	00000036 USART_ITConfig
00005444 g     F .text	00000030 Stop_motor
200008a8 g     O .bss	00000050 PID_yaw_innerloop
200001a0 g     O .bss	000004c8 gyro_filter
200000d0 g     O .data	00000004 MOTOR_MODE
00000e00 g     F .text	0000001c I2C_Cmd
00000576  w      .text	00000000 TIM7_IRQHandler
00000586  w      .text	00000000 CAN2_TX_IRQHandler
20000000 g       .dalign	00000000 _data_vma
00004966 g     F .text	000000b4 USARTx_CFG
20000768 g     O .bss	00000001 RxBuf_Index
0000056c  w      .text	00000000 TIM5_IRQHandler
0000159a g     F .text	00000006 TIM_SetCompare3
00008b54 g     F .text	00000026 memcmp
000002ae g     F .text	0000010a Motor_sort_start
00001432 g     F .text	0000009e TIM_OC4Init
2000012c g     O .bss	00000040 CrsfChannels
00004ae2 g     F .text	0000016a print_status
00003802 g     F .text	00000202 dmp_read_fifo
00000536  w      .text	00000000 EXTI9_5_IRQHandler
2000076c g     O .bss	0000000a LinkStatistics
000072a2 g     F .text	00000656 .hidden __muldf3
00000e86 g     F .text	00000014 I2C_Send7bitAddress
00000584  w      .text	00000000 ETH_WKUP_IRQHandler
000035d2 g     F .text	00000032 dmp_enable_6x_lp_quat
00005182 g     F .text	00000022 Roll_outerloop_ctr
0000430c g     F .text	0000004c FilterSample
00000550  w      .text	00000000 SPI2_IRQHandler
00000200 g     F .text	000000a8 memset
00005be8 g     F .text	000000cc __ieee754_sqrtf
00004244 g     F .text	0000006a DMA_Tx_Init
00002c1e g     F .text	00000002 mget_ms
000003b8 g     F .text	00000048 main
00004662 g     F .text	00000062 TIM3_Init
00002c20 g     F .text	00000080 run_self_test
000005a4  w      .text	00000000 TIM10_BRK_IRQHandler
00003e1a g     F .text	0000014a MPU6050_I2C_Mem_Read
000005a2  w      .text	00000000 TIM9_CC_IRQHandler
00005588 g     F .text	0000004e System_Init
000032a4 g     F .text	00000172 dmp_set_tap_thresh
00005cb4 g     F .text	00000004 matherr
00000580  w      .text	00000000 DMA2_Channel5_IRQHandler
000087b8 g     F .text	0000031e .hidden __truncdfsf2
200000cc g     O .data	00000004 CONTROL_MODE
00004358 g     F .text	00000022 FilterAverage
0000409a g     F .text	00000018 MyI2C_Start
00004102 g     F .text	0000004a MyI2C_ReceiveByte
000054cc g     F .text	00000032 pid_clc
00000814 g     F .text	0000016e Get_CalibrationValue
00000526  w      .text	00000000 DMA1_Channel5_IRQHandler
00003574 g     F .text	0000002c dmp_enable_gyro_cal
0000051c  w      .text	00000000 EXTI4_IRQHandler
00005634 g     F .text	00000036 Delay_Ms
00000530  w      .text	00000000 USB_LP_CAN1_RX0_IRQHandler
00003fa2 g     F .text	00000050 MPU6050_MPU_DMP_GetData
000015a0 g     F .text	00000006 TIM_SetCompare4
0000451a g     F .text	000000aa Motor_ctr
000007fc g     F .text	00000018 ADC_BufferCmd
000015ac g     F .text	00000006 TIM_GetCapture2
000042ae g     F .text	0000005e BAT_ADC_Init
00004cda g     F .text	0000015c PacketChannelsPacked
00001716 g     F .text	0000000e USART_ClearFlag
00000400 g     F .text	000000fa SystemInit
00008ccc g     O .text	0000000c hw
000046c4 g     F .text	00000026 TIM4_Interrupt_Init
00000566  w      .text	00000000 RNG_IRQHandler
000051be g     F .text	0000001e Yaw_outerloop_ctr
00002eec g     F .text	00000018 dmp_load_motion_driver_firmware
00005ed8  w    F .text	0000004c printchar
200000bc g     O .data	00000004 last_RC_lock_state
00003a04 g     F .text	00000046 BMP280_Read_Byte
0000052e  w      .text	00000000 USB_HP_CAN1_TX_IRQHandler
00009cfc g     O .text	00000100 .hidden __clz_tab
00004e6a g     F .text	00000032 ProcessPacketIn
00000000 g       .init	00000000 _sinit
00008384 g     F .text	00000130 .hidden __fixdfdi
00003f64 g     F .text	0000003e MPU6050_Get_Data
00000522  w      .text	00000000 DMA1_Channel3_IRQHandler
000023ee g     F .text	000000ac mpu_set_sample_rate
00000568  w      .text	00000000 FSMC_IRQHandler
00001ef6 g     F .text	0000004c mpu_get_lpf
00000582  w      .text	00000000 ETH_IRQHandler
200000dc g     O .data	00000004 _impure_ptr
00004170 g     F .text	000000d4 ADC_Function_Init
0000053a  w      .text	00000000 TIM1_UP_IRQHandler
000057d6 g     F .text	00000002 atan2f
00000508  w      .text	00000000 WWDG_IRQHandler
20000778 g     O .bss	00000040 RxBuf
00000590  w      .text	00000000 USBHSWakeup_IRQHandler
00003ab4 g     F .text	0000015c Bmp_Init
000005b6  w      .text	00000000 DMA2_Channel11_IRQHandler
00000500  w      .text	00000000 Ecall_U_Mode_Handler
000005ac  w      .text	00000000 DMA2_Channel6_IRQHandler
000050d6 g     F .text	00000030 ELRS_Convert_angle
00000540  w      .text	00000000 TIM2_IRQHandler
20008000 g       .stack	00000000 _eusrstack
00000506  w      .text	00000000 SW_Handler
0000414c g     F .text	00000024 MyI2C_ReceiveAck
00002578 g     F .text	00000158 mpu_init
2000016c g     O .bss	00000018 bmp280_inst
00005cb8 g     F .text	0000000e nan
00002d0a g     F .text	000000a4 mpu_dmp_init
00000642 g     F .text	0000004c ADC_DeInit
00004e36 g     F .text	00000034 PacketLinkStatistics
00000538  w      .text	00000000 TIM1_BRK_IRQHandler
0000068e g     F .text	00000058 ADC_Init
000016f6 g     F .text	0000000a USART_SendData
000005b4  w      .text	00000000 DMA2_Channel10_IRQHandler
00004012 g     F .text	00000020 MyI2C_W_SDA
00000516  w      .text	00000000 EXTI1_IRQHandler
00003a84 g     F .text	00000018 BMP280_Set_TemOversamp
000056c8 g     F .text	00000050 _write
200000c8 g     O .data	00000004 bmp280
200000e0 g       .data	00000000 _edata
000015b8 g     F .text	00000006 TIM_GetCapture4
20000998 g       .bss	00000000 _end
00002cd0 g     F .text	0000003a inv_orientation_matrix_to_scalar
0000113c g     F .text	000000c0 TIM_TimeBaseInit
0000055a  w      .text	00000000 RTCAlarm_IRQHandler
00003a9c g     F .text	00000018 BMP280_Set_Standby_FILTER
00009dfc g       .dlalign	00000000 _data_lma
000005a6  w      .text	00000000 TIM10_UP_IRQHandler
000054a2 g     F .text	0000002a pid_init
000005a0  w      .text	00000000 TIM9_TRG_COM_IRQHandler
00000598  w      .text	00000000 UART7_IRQHandler
200000d4 g     O .data	00000001 flight_mode
000051fa g     F .text	00000026 Pitch_outerloop_ctr
00004a5e g     F .text	00000084 USART2_IRQHandler
00000596  w      .text	00000000 UART6_IRQHandler
00004c82 g     F .text	00000020 Calc
00003c10 g     F .text	000000e8 MPU6050_I2C_Mem_Write
00001fd2 g     F .text	0000001e mpu_get_sample_rate
00004830 g     F .text	0000006e calc_IMU_filter
0000054c  w      .text	00000000 I2C2_ER_IRQHandler
00000520  w      .text	00000000 DMA1_Channel2_IRQHandler
00005cc6 g     F .text	00000204 atanf
000034ba g     F .text	00000028 dmp_set_tap_time_multi
0000055e  w      .text	00000000 TIM8_BRK_IRQHandler
000005b8  w      .text	00000000 handle_reset
200008f8 g     O .bss	00000050 PID_roll_outerloop
00000534  w      .text	00000000 CAN1_SCE_IRQHandler
00000510  w      .text	00000000 FLASH_IRQHandler
00003138 g     F .text	00000112 dmp_set_accel_bias
00000552  w      .text	00000000 USART1_IRQHandler
000035a0 g     F .text	00000032 dmp_enable_lp_quat
00000e58 g     F .text	0000001e I2C_AcknowledgeConfig
00003d14 g     F .text	00000106 MPU6050_Init
0000058e  w      .text	00000000 OTG_FS_IRQHandler
0000056e  w      .text	00000000 SPI3_IRQHandler
20000948 g     O .bss	00000050 PID_pitch_innerloop
00000e9a g     F .text	0000001a I2C_CheckEvent
0000111e g     F .text	0000001e RCC_APB2PeriphResetCmd
20000668 g     O .bss	00000100 _lut
00000e3a g     F .text	0000001e I2C_GenerateSTOP
00000548  w      .text	00000000 I2C1_ER_IRQHandler
00000ee6 g     F .text	00000006 NVIC_PriorityGroupConfig
00000982 g     F .text	0000016c DMA_DeInit
0000525e g     F .text	0000004a Update_ELRS
00005718 g     F .text	000000be asinf
00003492 g     F .text	00000028 dmp_set_tap_time
0000354c g     F .text	00000028 dmp_set_shake_reject_timeout
00003524 g     F .text	00000028 dmp_set_shake_reject_time
000078f8 g     F .text	00000a8c .hidden __subdf3
0000158e g     F .text	00000006 TIM_SetCompare1
00000c0a g     F .text	0000000a GPIO_ReadInputDataBit
20000184 g     O .bss	00000004 t_fine
00002094 g     F .text	0000006a mpu_configure_fifo
200000f4 g     O .bss	00000004 Pitch
000055d6 g     F .text	00000002 System_Loop
00004c4c g     F .text	00000036 Crc_init
0000055c  w      .text	00000000 USBWakeUp_IRQHandler
00001bd4 g     F .text	0000017e mpu_reset_fifo
00004f1c g     F .text	000001ba PIDSTRUCT_Init
0000057c  w      .text	00000000 DMA2_Channel3_IRQHandler
00005a2a g     F .text	000001be __ieee754_atan2f



Disassembly of section .init:

00000000 <_sinit>:
   0:	5b80006f          	j	5b8 <handle_reset>
   4:	00000013          	nop
   8:	00000013          	nop
   c:	00000013          	nop
  10:	00000013          	nop
  14:	00000013          	nop
  18:	00000013          	nop
  1c:	00000013          	nop
  20:	00000013          	nop
  24:	00000013          	nop
  28:	00000013          	nop
  2c:	00000013          	nop
  30:	00000013          	nop
  34:	00100073          	ebreak

Disassembly of section .vector:

00000038 <_vector_base>:
	...
  40:	02a8                	addi	a0,sp,328
  42:	0000                	unimp
  44:	02ac                	addi	a1,sp,328
  46:	0000                	unimp
  48:	0000                	unimp
  4a:	0000                	unimp
  4c:	04fe                	slli	s1,s1,0x1f
	...
  56:	0000                	unimp
  58:	0500                	addi	s0,sp,640
  5a:	0000                	unimp
  5c:	0502                	c.slli64	a0
	...
  66:	0000                	unimp
  68:	0504                	addi	s1,sp,640
  6a:	0000                	unimp
  6c:	0000                	unimp
  6e:	0000                	unimp
  70:	0506                	slli	a0,a0,0x1
  72:	0000                	unimp
  74:	0000                	unimp
  76:	0000                	unimp
  78:	0508                	addi	a0,sp,640
  7a:	0000                	unimp
  7c:	050a                	slli	a0,a0,0x2
  7e:	0000                	unimp
  80:	050c                	addi	a1,sp,640
  82:	0000                	unimp
  84:	050e                	slli	a0,a0,0x3
  86:	0000                	unimp
  88:	0510                	addi	a2,sp,640
  8a:	0000                	unimp
  8c:	0512                	slli	a0,a0,0x4
  8e:	0000                	unimp
  90:	0514                	addi	a3,sp,640
  92:	0000                	unimp
  94:	0516                	slli	a0,a0,0x5
  96:	0000                	unimp
  98:	0518                	addi	a4,sp,640
  9a:	0000                	unimp
  9c:	051a                	slli	a0,a0,0x6
  9e:	0000                	unimp
  a0:	051c                	addi	a5,sp,640
  a2:	0000                	unimp
  a4:	051e                	slli	a0,a0,0x7
  a6:	0000                	unimp
  a8:	0520                	addi	s0,sp,648
  aa:	0000                	unimp
  ac:	0522                	slli	a0,a0,0x8
  ae:	0000                	unimp
  b0:	0524                	addi	s1,sp,648
  b2:	0000                	unimp
  b4:	0526                	slli	a0,a0,0x9
  b6:	0000                	unimp
  b8:	0528                	addi	a0,sp,648
  ba:	0000                	unimp
  bc:	052a                	slli	a0,a0,0xa
  be:	0000                	unimp
  c0:	052c                	addi	a1,sp,648
  c2:	0000                	unimp
  c4:	052e                	slli	a0,a0,0xb
  c6:	0000                	unimp
  c8:	0530                	addi	a2,sp,648
  ca:	0000                	unimp
  cc:	0532                	slli	a0,a0,0xc
  ce:	0000                	unimp
  d0:	0534                	addi	a3,sp,648
  d2:	0000                	unimp
  d4:	0536                	slli	a0,a0,0xd
  d6:	0000                	unimp
  d8:	0538                	addi	a4,sp,648
  da:	0000                	unimp
  dc:	053a                	slli	a0,a0,0xe
  de:	0000                	unimp
  e0:	053c                	addi	a5,sp,648
  e2:	0000                	unimp
  e4:	053e                	slli	a0,a0,0xf
  e6:	0000                	unimp
  e8:	0540                	addi	s0,sp,644
  ea:	0000                	unimp
  ec:	489e                	lw	a7,196(sp)
  ee:	0000                	unimp
  f0:	474c                	lw	a1,12(a4)
  f2:	0000                	unimp
  f4:	0546                	slli	a0,a0,0x11
  f6:	0000                	unimp
  f8:	0548                	addi	a0,sp,644
  fa:	0000                	unimp
  fc:	054a                	slli	a0,a0,0x12
  fe:	0000                	unimp
 100:	054c                	addi	a1,sp,644
 102:	0000                	unimp
 104:	054e                	slli	a0,a0,0x13
 106:	0000                	unimp
 108:	0550                	addi	a2,sp,644
 10a:	0000                	unimp
 10c:	0552                	slli	a0,a0,0x14
 10e:	0000                	unimp
 110:	4a5e                	lw	s4,212(sp)
 112:	0000                	unimp
 114:	0556                	slli	a0,a0,0x15
 116:	0000                	unimp
 118:	0558                	addi	a4,sp,644
 11a:	0000                	unimp
 11c:	055a                	slli	a0,a0,0x16
 11e:	0000                	unimp
 120:	055c                	addi	a5,sp,644
 122:	0000                	unimp
 124:	055e                	slli	a0,a0,0x17
 126:	0000                	unimp
 128:	0560                	addi	s0,sp,652
 12a:	0000                	unimp
 12c:	0562                	slli	a0,a0,0x18
 12e:	0000                	unimp
 130:	0564                	addi	s1,sp,652
 132:	0000                	unimp
 134:	0566                	slli	a0,a0,0x19
 136:	0000                	unimp
 138:	0568                	addi	a0,sp,652
 13a:	0000                	unimp
 13c:	056a                	slli	a0,a0,0x1a
 13e:	0000                	unimp
 140:	056c                	addi	a1,sp,652
 142:	0000                	unimp
 144:	056e                	slli	a0,a0,0x1b
 146:	0000                	unimp
 148:	0570                	addi	a2,sp,652
 14a:	0000                	unimp
 14c:	0572                	slli	a0,a0,0x1c
 14e:	0000                	unimp
 150:	0574                	addi	a3,sp,652
 152:	0000                	unimp
 154:	0576                	slli	a0,a0,0x1d
 156:	0000                	unimp
 158:	0578                	addi	a4,sp,652
 15a:	0000                	unimp
 15c:	057a                	slli	a0,a0,0x1e
 15e:	0000                	unimp
 160:	057c                	addi	a5,sp,652
 162:	0000                	unimp
 164:	057e                	slli	a0,a0,0x1f
 166:	0000                	unimp
 168:	0580                	addi	s0,sp,704
 16a:	0000                	unimp
 16c:	0582                	c.slli64	a1
 16e:	0000                	unimp
 170:	0584                	addi	s1,sp,704
 172:	0000                	unimp
 174:	0586                	slli	a1,a1,0x1
 176:	0000                	unimp
 178:	0588                	addi	a0,sp,704
 17a:	0000                	unimp
 17c:	058a                	slli	a1,a1,0x2
 17e:	0000                	unimp
 180:	058c                	addi	a1,sp,704
 182:	0000                	unimp
 184:	058e                	slli	a1,a1,0x3
 186:	0000                	unimp
 188:	0590                	addi	a2,sp,704
 18a:	0000                	unimp
 18c:	0592                	slli	a1,a1,0x4
 18e:	0000                	unimp
 190:	0594                	addi	a3,sp,704
 192:	0000                	unimp
 194:	0596                	slli	a1,a1,0x5
 196:	0000                	unimp
 198:	0598                	addi	a4,sp,704
 19a:	0000                	unimp
 19c:	059a                	slli	a1,a1,0x6
 19e:	0000                	unimp
 1a0:	059c                	addi	a5,sp,704
 1a2:	0000                	unimp
 1a4:	059e                	slli	a1,a1,0x7
 1a6:	0000                	unimp
 1a8:	05a0                	addi	s0,sp,712
 1aa:	0000                	unimp
 1ac:	05a2                	slli	a1,a1,0x8
 1ae:	0000                	unimp
 1b0:	05a4                	addi	s1,sp,712
 1b2:	0000                	unimp
 1b4:	05a6                	slli	a1,a1,0x9
 1b6:	0000                	unimp
 1b8:	05a8                	addi	a0,sp,712
 1ba:	0000                	unimp
 1bc:	05aa                	slli	a1,a1,0xa
 1be:	0000                	unimp
 1c0:	05ac                	addi	a1,sp,712
 1c2:	0000                	unimp
 1c4:	05ae                	slli	a1,a1,0xb
 1c6:	0000                	unimp
 1c8:	05b0                	addi	a2,sp,712
 1ca:	0000                	unimp
 1cc:	05b2                	slli	a1,a1,0xc
 1ce:	0000                	unimp
 1d0:	05b4                	addi	a3,sp,712
 1d2:	0000                	unimp
 1d4:	05b6                	slli	a1,a1,0xd
	...

Disassembly of section .text:

00000200 <memset>:
     200:	433d                	li	t1,15
     202:	872a                	mv	a4,a0
     204:	02c37363          	bgeu	t1,a2,22a <memset+0x2a>
     208:	00f77793          	andi	a5,a4,15
     20c:	efbd                	bnez	a5,28a <memset+0x8a>
     20e:	e5ad                	bnez	a1,278 <memset+0x78>
     210:	ff067693          	andi	a3,a2,-16
     214:	8a3d                	andi	a2,a2,15
     216:	96ba                	add	a3,a3,a4
     218:	c30c                	sw	a1,0(a4)
     21a:	c34c                	sw	a1,4(a4)
     21c:	c70c                	sw	a1,8(a4)
     21e:	c74c                	sw	a1,12(a4)
     220:	0741                	addi	a4,a4,16
     222:	fed76be3          	bltu	a4,a3,218 <memset+0x18>
     226:	e211                	bnez	a2,22a <memset+0x2a>
     228:	8082                	ret
     22a:	40c306b3          	sub	a3,t1,a2
     22e:	068a                	slli	a3,a3,0x2
     230:	00000297          	auipc	t0,0x0
     234:	9696                	add	a3,a3,t0
     236:	00a68067          	jr	10(a3)
     23a:	00b70723          	sb	a1,14(a4)
     23e:	00b706a3          	sb	a1,13(a4)
     242:	00b70623          	sb	a1,12(a4)
     246:	00b705a3          	sb	a1,11(a4)
     24a:	00b70523          	sb	a1,10(a4)
     24e:	00b704a3          	sb	a1,9(a4)
     252:	00b70423          	sb	a1,8(a4)
     256:	00b703a3          	sb	a1,7(a4)
     25a:	00b70323          	sb	a1,6(a4)
     25e:	00b702a3          	sb	a1,5(a4)
     262:	00b70223          	sb	a1,4(a4)
     266:	00b701a3          	sb	a1,3(a4)
     26a:	00b70123          	sb	a1,2(a4)
     26e:	00b700a3          	sb	a1,1(a4)
     272:	00b70023          	sb	a1,0(a4)
     276:	8082                	ret
     278:	0ff5f593          	andi	a1,a1,255
     27c:	00859693          	slli	a3,a1,0x8
     280:	8dd5                	or	a1,a1,a3
     282:	01059693          	slli	a3,a1,0x10
     286:	8dd5                	or	a1,a1,a3
     288:	b761                	j	210 <memset+0x10>
     28a:	00279693          	slli	a3,a5,0x2
     28e:	00000297          	auipc	t0,0x0
     292:	9696                	add	a3,a3,t0
     294:	8286                	mv	t0,ra
     296:	fa8680e7          	jalr	-88(a3)
     29a:	8096                	mv	ra,t0
     29c:	17c1                	addi	a5,a5,-16
     29e:	8f1d                	sub	a4,a4,a5
     2a0:	963e                	add	a2,a2,a5
     2a2:	f8c374e3          	bgeu	t1,a2,22a <memset+0x2a>
     2a6:	b7a5                	j	20e <memset+0xe>

000002a8 <NMI_Handler>:
     2a8:	30200073          	mret

000002ac <HardFault_Handler>:
     2ac:	a001                	j	2ac <HardFault_Handler>

000002ae <Motor_sort_start>:
     2ae:	7179                	addi	sp,sp,-48
     2b0:	d422                	sw	s0,40(sp)
     2b2:	81d1c783          	lbu	a5,-2019(gp) # 200000d5 <is_locked>
     2b6:	d606                	sw	ra,44(sp)
     2b8:	d226                	sw	s1,36(sp)
     2ba:	d04a                	sw	s2,32(sp)
     2bc:	ce4e                	sw	s3,28(sp)
     2be:	cc52                	sw	s4,24(sp)
     2c0:	ca56                	sw	s5,20(sp)
     2c2:	e622                	fsw	fs0,12(sp)
     2c4:	e426                	fsw	fs1,8(sp)
     2c6:	ebcd                	bnez	a5,378 <Motor_sort_start+0xca>
     2c8:	80418493          	addi	s1,gp,-2044 # 200000bc <last_RC_lock_state>
     2cc:	4098                	lw	a4,0(s1)
     2ce:	4785                	li	a5,1
     2d0:	0cf71963          	bne	a4,a5,3a2 <Motor_sort_start+0xf4>
     2d4:	00009537          	lui	a0,0x9
     2d8:	c6850513          	addi	a0,a0,-920 # 8c68 <memcpy+0xee>
     2dc:	3be060ef          	jal	ra,669a <puts>
     2e0:	4709                	li	a4,2
     2e2:	80e1ac23          	sw	a4,-2024(gp) # 200000d0 <MOTOR_MODE>
     2e6:	89be                	mv	s3,a5
     2e8:	000097b7          	lui	a5,0x9
     2ec:	c607a487          	flw	fs1,-928(a5) # 8c60 <memcpy+0xe6>
     2f0:	000097b7          	lui	a5,0x9
     2f4:	c647a407          	flw	fs0,-924(a5) # 8c64 <memcpy+0xea>
     2f8:	0004a023          	sw	zero,0(s1)
     2fc:	20000ab7          	lui	s5,0x20000
     300:	4481                	li	s1,0
     302:	3e800a13          	li	s4,1000
     306:	d004f7d3          	fcvt.s.w	fa5,s1
     30a:	0b8a8913          	addi	s2,s5,184 # 200000b8 <Motor_speed_set>
     30e:	4585                	li	a1,1
     310:	4097f7c3          	fmadd.s	fa5,fa5,fs1,fs0
     314:	0485                	addi	s1,s1,1
     316:	c0179553          	fcvt.wu.s	a0,fa5,rtz
     31a:	00f92027          	fsw	fa5,0(s2)
     31e:	0542                	slli	a0,a0,0x10
     320:	8141                	srli	a0,a0,0x10
     322:	2a2040ef          	jal	ra,45c4 <Motor_ctr_SOFT_START>
     326:	00092787          	flw	fa5,0(s2)
     32a:	4589                	li	a1,2
     32c:	c0179553          	fcvt.wu.s	a0,fa5,rtz
     330:	0542                	slli	a0,a0,0x10
     332:	8141                	srli	a0,a0,0x10
     334:	290040ef          	jal	ra,45c4 <Motor_ctr_SOFT_START>
     338:	00092787          	flw	fa5,0(s2)
     33c:	458d                	li	a1,3
     33e:	c0179553          	fcvt.wu.s	a0,fa5,rtz
     342:	0542                	slli	a0,a0,0x10
     344:	8141                	srli	a0,a0,0x10
     346:	27e040ef          	jal	ra,45c4 <Motor_ctr_SOFT_START>
     34a:	00092787          	flw	fa5,0(s2)
     34e:	4591                	li	a1,4
     350:	c0179553          	fcvt.wu.s	a0,fa5,rtz
     354:	0542                	slli	a0,a0,0x10
     356:	8141                	srli	a0,a0,0x10
     358:	26c040ef          	jal	ra,45c4 <Motor_ctr_SOFT_START>
     35c:	4505                	li	a0,1
     35e:	2d6050ef          	jal	ra,5634 <Delay_Ms>
     362:	fb4492e3          	bne	s1,s4,306 <Motor_sort_start+0x58>
     366:	00009537          	lui	a0,0x9
     36a:	c7c50513          	addi	a0,a0,-900 # 8c7c <memcpy+0x102>
     36e:	32c060ef          	jal	ra,669a <puts>
     372:	4785                	li	a5,1
     374:	80f1ac23          	sw	a5,-2024(gp) # 200000d0 <MOTOR_MODE>
     378:	81d1c783          	lbu	a5,-2019(gp) # 200000d5 <is_locked>
     37c:	4705                	li	a4,1
     37e:	02e79263          	bne	a5,a4,3a2 <Motor_sort_start+0xf4>
     382:	5422                	lw	s0,40(sp)
     384:	80f1a223          	sw	a5,-2044(gp) # 200000bc <last_RC_lock_state>
     388:	50b2                	lw	ra,44(sp)
     38a:	5492                	lw	s1,36(sp)
     38c:	5902                	lw	s2,32(sp)
     38e:	49f2                	lw	s3,28(sp)
     390:	4a62                	lw	s4,24(sp)
     392:	4ad2                	lw	s5,20(sp)
     394:	6432                	flw	fs0,12(sp)
     396:	64a2                	flw	fs1,8(sp)
     398:	80f1ac23          	sw	a5,-2024(gp) # 200000d0 <MOTOR_MODE>
     39c:	6145                	addi	sp,sp,48
     39e:	0a60506f          	j	5444 <Stop_motor>
     3a2:	50b2                	lw	ra,44(sp)
     3a4:	5422                	lw	s0,40(sp)
     3a6:	5492                	lw	s1,36(sp)
     3a8:	5902                	lw	s2,32(sp)
     3aa:	49f2                	lw	s3,28(sp)
     3ac:	4a62                	lw	s4,24(sp)
     3ae:	4ad2                	lw	s5,20(sp)
     3b0:	6432                	flw	fs0,12(sp)
     3b2:	64a2                	flw	fs1,8(sp)
     3b4:	6145                	addi	sp,sp,48
     3b6:	8082                	ret

000003b8 <main>:
     3b8:	1141                	addi	sp,sp,-16
     3ba:	4509                	li	a0,2
     3bc:	c606                	sw	ra,12(sp)
     3be:	329000ef          	jal	ra,ee6 <NVIC_PriorityGroupConfig>
     3c2:	216050ef          	jal	ra,55d8 <Delay_Init>
     3c6:	0d500513          	li	a0,213
     3ca:	083040ef          	jal	ra,4c4c <Crc_init>
     3ce:	6571                	lui	a0,0x1c
     3d0:	20050513          	addi	a0,a0,512 # 1c200 <_data_lma+0x12404>
     3d4:	296050ef          	jal	ra,566a <USART_Printf_Init>
     3d8:	8081a583          	lw	a1,-2040(gp) # 200000c0 <SystemCoreClock>
     3dc:	00009537          	lui	a0,0x9
     3e0:	c8c50513          	addi	a0,a0,-884 # 8c8c <memcpy+0x112>
     3e4:	292060ef          	jal	ra,6676 <printf>
     3e8:	00009537          	lui	a0,0x9
     3ec:	c9c50513          	addi	a0,a0,-868 # 8c9c <memcpy+0x122>
     3f0:	2aa060ef          	jal	ra,669a <puts>
     3f4:	194050ef          	jal	ra,5588 <System_Init>
     3f8:	1de050ef          	jal	ra,55d6 <System_Loop>
     3fc:	3d4d                	jal	2ae <Motor_sort_start>
     3fe:	bfed                	j	3f8 <main+0x40>

00000400 <SystemInit>:
     400:	400217b7          	lui	a5,0x40021
     404:	4398                	lw	a4,0(a5)
     406:	f0ff06b7          	lui	a3,0xf0ff0
     40a:	1141                	addi	sp,sp,-16
     40c:	00176713          	ori	a4,a4,1
     410:	c398                	sw	a4,0(a5)
     412:	43d8                	lw	a4,4(a5)
     414:	00020637          	lui	a2,0x20
     418:	8f75                	and	a4,a4,a3
     41a:	c3d8                	sw	a4,4(a5)
     41c:	4398                	lw	a4,0(a5)
     41e:	fef706b7          	lui	a3,0xfef70
     422:	16fd                	addi	a3,a3,-1
     424:	8f75                	and	a4,a4,a3
     426:	c398                	sw	a4,0(a5)
     428:	4398                	lw	a4,0(a5)
     42a:	fffc06b7          	lui	a3,0xfffc0
     42e:	16fd                	addi	a3,a3,-1
     430:	8f75                	and	a4,a4,a3
     432:	c398                	sw	a4,0(a5)
     434:	43d8                	lw	a4,4(a5)
     436:	ff0106b7          	lui	a3,0xff010
     43a:	16fd                	addi	a3,a3,-1
     43c:	8f75                	and	a4,a4,a3
     43e:	c3d8                	sw	a4,4(a5)
     440:	4398                	lw	a4,0(a5)
     442:	ec0006b7          	lui	a3,0xec000
     446:	16fd                	addi	a3,a3,-1
     448:	8f75                	and	a4,a4,a3
     44a:	c398                	sw	a4,0(a5)
     44c:	00ff0737          	lui	a4,0xff0
     450:	c798                	sw	a4,8(a5)
     452:	0207a623          	sw	zero,44(a5) # 4002102c <_eusrstack+0x2001902c>
     456:	c402                	sw	zero,8(sp)
     458:	c602                	sw	zero,12(sp)
     45a:	4398                	lw	a4,0(a5)
     45c:	66c1                	lui	a3,0x10
     45e:	8f55                	or	a4,a4,a3
     460:	c398                	sw	a4,0(a5)
     462:	400216b7          	lui	a3,0x40021
     466:	6705                	lui	a4,0x1
     468:	429c                	lw	a5,0(a3)
     46a:	8ff1                	and	a5,a5,a2
     46c:	c63e                	sw	a5,12(sp)
     46e:	47a2                	lw	a5,8(sp)
     470:	0785                	addi	a5,a5,1
     472:	c43e                	sw	a5,8(sp)
     474:	47b2                	lw	a5,12(sp)
     476:	e781                	bnez	a5,47e <SystemInit+0x7e>
     478:	47a2                	lw	a5,8(sp)
     47a:	fee797e3          	bne	a5,a4,468 <SystemInit+0x68>
     47e:	400217b7          	lui	a5,0x40021
     482:	439c                	lw	a5,0(a5)
     484:	00e79713          	slli	a4,a5,0xe
     488:	06075763          	bgez	a4,4f6 <SystemInit+0xf6>
     48c:	4785                	li	a5,1
     48e:	c63e                	sw	a5,12(sp)
     490:	4732                	lw	a4,12(sp)
     492:	4785                	li	a5,1
     494:	04f71f63          	bne	a4,a5,4f2 <SystemInit+0xf2>
     498:	400217b7          	lui	a5,0x40021
     49c:	43d8                	lw	a4,4(a5)
     49e:	ffc106b7          	lui	a3,0xffc10
     4a2:	16fd                	addi	a3,a3,-1
     4a4:	c3d8                	sw	a4,4(a5)
     4a6:	43d8                	lw	a4,4(a5)
     4a8:	c3d8                	sw	a4,4(a5)
     4aa:	43d8                	lw	a4,4(a5)
     4ac:	40076713          	ori	a4,a4,1024
     4b0:	c3d8                	sw	a4,4(a5)
     4b2:	43d8                	lw	a4,4(a5)
     4b4:	8f75                	and	a4,a4,a3
     4b6:	c3d8                	sw	a4,4(a5)
     4b8:	43d8                	lw	a4,4(a5)
     4ba:	001d06b7          	lui	a3,0x1d0
     4be:	8f55                	or	a4,a4,a3
     4c0:	c3d8                	sw	a4,4(a5)
     4c2:	4398                	lw	a4,0(a5)
     4c4:	010006b7          	lui	a3,0x1000
     4c8:	8f55                	or	a4,a4,a3
     4ca:	c398                	sw	a4,0(a5)
     4cc:	4398                	lw	a4,0(a5)
     4ce:	00671693          	slli	a3,a4,0x6
     4d2:	fe06dde3          	bgez	a3,4cc <SystemInit+0xcc>
     4d6:	43d8                	lw	a4,4(a5)
     4d8:	400216b7          	lui	a3,0x40021
     4dc:	9b71                	andi	a4,a4,-4
     4de:	c3d8                	sw	a4,4(a5)
     4e0:	43d8                	lw	a4,4(a5)
     4e2:	00276713          	ori	a4,a4,2
     4e6:	c3d8                	sw	a4,4(a5)
     4e8:	4721                	li	a4,8
     4ea:	42dc                	lw	a5,4(a3)
     4ec:	8bb1                	andi	a5,a5,12
     4ee:	fee79ee3          	bne	a5,a4,4ea <SystemInit+0xea>
     4f2:	0141                	addi	sp,sp,16
     4f4:	8082                	ret
     4f6:	c602                	sw	zero,12(sp)
     4f8:	bf61                	j	490 <SystemInit+0x90>
     4fa:	a001                	j	4fa <SystemInit+0xfa>
     4fc:	a001                	j	4fc <SystemInit+0xfc>

000004fe <Ecall_M_Mode_Handler>:
     4fe:	a001                	j	4fe <Ecall_M_Mode_Handler>

00000500 <Ecall_U_Mode_Handler>:
     500:	a001                	j	500 <Ecall_U_Mode_Handler>

00000502 <Break_Point_Handler>:
     502:	a001                	j	502 <Break_Point_Handler>

00000504 <SysTick_Handler>:
     504:	a001                	j	504 <SysTick_Handler>

00000506 <SW_Handler>:
     506:	a001                	j	506 <SW_Handler>

00000508 <WWDG_IRQHandler>:
     508:	a001                	j	508 <WWDG_IRQHandler>

0000050a <PVD_IRQHandler>:
     50a:	a001                	j	50a <PVD_IRQHandler>

0000050c <TAMPER_IRQHandler>:
     50c:	a001                	j	50c <TAMPER_IRQHandler>

0000050e <RTC_IRQHandler>:
     50e:	a001                	j	50e <RTC_IRQHandler>

00000510 <FLASH_IRQHandler>:
     510:	a001                	j	510 <FLASH_IRQHandler>

00000512 <RCC_IRQHandler>:
     512:	a001                	j	512 <RCC_IRQHandler>

00000514 <EXTI0_IRQHandler>:
     514:	a001                	j	514 <EXTI0_IRQHandler>

00000516 <EXTI1_IRQHandler>:
     516:	a001                	j	516 <EXTI1_IRQHandler>

00000518 <EXTI2_IRQHandler>:
     518:	a001                	j	518 <EXTI2_IRQHandler>

0000051a <EXTI3_IRQHandler>:
     51a:	a001                	j	51a <EXTI3_IRQHandler>

0000051c <EXTI4_IRQHandler>:
     51c:	a001                	j	51c <EXTI4_IRQHandler>

0000051e <DMA1_Channel1_IRQHandler>:
     51e:	a001                	j	51e <DMA1_Channel1_IRQHandler>

00000520 <DMA1_Channel2_IRQHandler>:
     520:	a001                	j	520 <DMA1_Channel2_IRQHandler>

00000522 <DMA1_Channel3_IRQHandler>:
     522:	a001                	j	522 <DMA1_Channel3_IRQHandler>

00000524 <DMA1_Channel4_IRQHandler>:
     524:	a001                	j	524 <DMA1_Channel4_IRQHandler>

00000526 <DMA1_Channel5_IRQHandler>:
     526:	a001                	j	526 <DMA1_Channel5_IRQHandler>

00000528 <DMA1_Channel6_IRQHandler>:
     528:	a001                	j	528 <DMA1_Channel6_IRQHandler>

0000052a <DMA1_Channel7_IRQHandler>:
     52a:	a001                	j	52a <DMA1_Channel7_IRQHandler>

0000052c <ADC1_2_IRQHandler>:
     52c:	a001                	j	52c <ADC1_2_IRQHandler>

0000052e <USB_HP_CAN1_TX_IRQHandler>:
     52e:	a001                	j	52e <USB_HP_CAN1_TX_IRQHandler>

00000530 <USB_LP_CAN1_RX0_IRQHandler>:
     530:	a001                	j	530 <USB_LP_CAN1_RX0_IRQHandler>

00000532 <CAN1_RX1_IRQHandler>:
     532:	a001                	j	532 <CAN1_RX1_IRQHandler>

00000534 <CAN1_SCE_IRQHandler>:
     534:	a001                	j	534 <CAN1_SCE_IRQHandler>

00000536 <EXTI9_5_IRQHandler>:
     536:	a001                	j	536 <EXTI9_5_IRQHandler>

00000538 <TIM1_BRK_IRQHandler>:
     538:	a001                	j	538 <TIM1_BRK_IRQHandler>

0000053a <TIM1_UP_IRQHandler>:
     53a:	a001                	j	53a <TIM1_UP_IRQHandler>

0000053c <TIM1_TRG_COM_IRQHandler>:
     53c:	a001                	j	53c <TIM1_TRG_COM_IRQHandler>

0000053e <TIM1_CC_IRQHandler>:
     53e:	a001                	j	53e <TIM1_CC_IRQHandler>

00000540 <TIM2_IRQHandler>:
     540:	a001                	j	540 <TIM2_IRQHandler>
     542:	a001                	j	542 <TIM2_IRQHandler+0x2>
     544:	a001                	j	544 <TIM2_IRQHandler+0x4>

00000546 <I2C1_EV_IRQHandler>:
     546:	a001                	j	546 <I2C1_EV_IRQHandler>

00000548 <I2C1_ER_IRQHandler>:
     548:	a001                	j	548 <I2C1_ER_IRQHandler>

0000054a <I2C2_EV_IRQHandler>:
     54a:	a001                	j	54a <I2C2_EV_IRQHandler>

0000054c <I2C2_ER_IRQHandler>:
     54c:	a001                	j	54c <I2C2_ER_IRQHandler>

0000054e <SPI1_IRQHandler>:
     54e:	a001                	j	54e <SPI1_IRQHandler>

00000550 <SPI2_IRQHandler>:
     550:	a001                	j	550 <SPI2_IRQHandler>

00000552 <USART1_IRQHandler>:
     552:	a001                	j	552 <USART1_IRQHandler>
     554:	a001                	j	554 <USART1_IRQHandler+0x2>

00000556 <USART3_IRQHandler>:
     556:	a001                	j	556 <USART3_IRQHandler>

00000558 <EXTI15_10_IRQHandler>:
     558:	a001                	j	558 <EXTI15_10_IRQHandler>

0000055a <RTCAlarm_IRQHandler>:
     55a:	a001                	j	55a <RTCAlarm_IRQHandler>

0000055c <USBWakeUp_IRQHandler>:
     55c:	a001                	j	55c <USBWakeUp_IRQHandler>

0000055e <TIM8_BRK_IRQHandler>:
     55e:	a001                	j	55e <TIM8_BRK_IRQHandler>

00000560 <TIM8_UP_IRQHandler>:
     560:	a001                	j	560 <TIM8_UP_IRQHandler>

00000562 <TIM8_TRG_COM_IRQHandler>:
     562:	a001                	j	562 <TIM8_TRG_COM_IRQHandler>

00000564 <TIM8_CC_IRQHandler>:
     564:	a001                	j	564 <TIM8_CC_IRQHandler>

00000566 <RNG_IRQHandler>:
     566:	a001                	j	566 <RNG_IRQHandler>

00000568 <FSMC_IRQHandler>:
     568:	a001                	j	568 <FSMC_IRQHandler>

0000056a <SDIO_IRQHandler>:
     56a:	a001                	j	56a <SDIO_IRQHandler>

0000056c <TIM5_IRQHandler>:
     56c:	a001                	j	56c <TIM5_IRQHandler>

0000056e <SPI3_IRQHandler>:
     56e:	a001                	j	56e <SPI3_IRQHandler>

00000570 <UART4_IRQHandler>:
     570:	a001                	j	570 <UART4_IRQHandler>

00000572 <UART5_IRQHandler>:
     572:	a001                	j	572 <UART5_IRQHandler>

00000574 <TIM6_IRQHandler>:
     574:	a001                	j	574 <TIM6_IRQHandler>

00000576 <TIM7_IRQHandler>:
     576:	a001                	j	576 <TIM7_IRQHandler>

00000578 <DMA2_Channel1_IRQHandler>:
     578:	a001                	j	578 <DMA2_Channel1_IRQHandler>

0000057a <DMA2_Channel2_IRQHandler>:
     57a:	a001                	j	57a <DMA2_Channel2_IRQHandler>

0000057c <DMA2_Channel3_IRQHandler>:
     57c:	a001                	j	57c <DMA2_Channel3_IRQHandler>

0000057e <DMA2_Channel4_IRQHandler>:
     57e:	a001                	j	57e <DMA2_Channel4_IRQHandler>

00000580 <DMA2_Channel5_IRQHandler>:
     580:	a001                	j	580 <DMA2_Channel5_IRQHandler>

00000582 <ETH_IRQHandler>:
     582:	a001                	j	582 <ETH_IRQHandler>

00000584 <ETH_WKUP_IRQHandler>:
     584:	a001                	j	584 <ETH_WKUP_IRQHandler>

00000586 <CAN2_TX_IRQHandler>:
     586:	a001                	j	586 <CAN2_TX_IRQHandler>

00000588 <CAN2_RX0_IRQHandler>:
     588:	a001                	j	588 <CAN2_RX0_IRQHandler>

0000058a <CAN2_RX1_IRQHandler>:
     58a:	a001                	j	58a <CAN2_RX1_IRQHandler>

0000058c <CAN2_SCE_IRQHandler>:
     58c:	a001                	j	58c <CAN2_SCE_IRQHandler>

0000058e <OTG_FS_IRQHandler>:
     58e:	a001                	j	58e <OTG_FS_IRQHandler>

00000590 <USBHSWakeup_IRQHandler>:
     590:	a001                	j	590 <USBHSWakeup_IRQHandler>

00000592 <USBHS_IRQHandler>:
     592:	a001                	j	592 <USBHS_IRQHandler>

00000594 <DVP_IRQHandler>:
     594:	a001                	j	594 <DVP_IRQHandler>

00000596 <UART6_IRQHandler>:
     596:	a001                	j	596 <UART6_IRQHandler>

00000598 <UART7_IRQHandler>:
     598:	a001                	j	598 <UART7_IRQHandler>

0000059a <UART8_IRQHandler>:
     59a:	a001                	j	59a <UART8_IRQHandler>

0000059c <TIM9_BRK_IRQHandler>:
     59c:	a001                	j	59c <TIM9_BRK_IRQHandler>

0000059e <TIM9_UP_IRQHandler>:
     59e:	a001                	j	59e <TIM9_UP_IRQHandler>

000005a0 <TIM9_TRG_COM_IRQHandler>:
     5a0:	a001                	j	5a0 <TIM9_TRG_COM_IRQHandler>

000005a2 <TIM9_CC_IRQHandler>:
     5a2:	a001                	j	5a2 <TIM9_CC_IRQHandler>

000005a4 <TIM10_BRK_IRQHandler>:
     5a4:	a001                	j	5a4 <TIM10_BRK_IRQHandler>

000005a6 <TIM10_UP_IRQHandler>:
     5a6:	a001                	j	5a6 <TIM10_UP_IRQHandler>

000005a8 <TIM10_TRG_COM_IRQHandler>:
     5a8:	a001                	j	5a8 <TIM10_TRG_COM_IRQHandler>

000005aa <TIM10_CC_IRQHandler>:
     5aa:	a001                	j	5aa <TIM10_CC_IRQHandler>

000005ac <DMA2_Channel6_IRQHandler>:
     5ac:	a001                	j	5ac <DMA2_Channel6_IRQHandler>

000005ae <DMA2_Channel7_IRQHandler>:
     5ae:	a001                	j	5ae <DMA2_Channel7_IRQHandler>

000005b0 <DMA2_Channel8_IRQHandler>:
     5b0:	a001                	j	5b0 <DMA2_Channel8_IRQHandler>

000005b2 <DMA2_Channel9_IRQHandler>:
     5b2:	a001                	j	5b2 <DMA2_Channel9_IRQHandler>

000005b4 <DMA2_Channel10_IRQHandler>:
     5b4:	a001                	j	5b4 <DMA2_Channel10_IRQHandler>

000005b6 <DMA2_Channel11_IRQHandler>:
     5b6:	a001                	j	5b6 <DMA2_Channel11_IRQHandler>

000005b8 <handle_reset>:
     5b8:	20000197          	auipc	gp,0x20000
     5bc:	30018193          	addi	gp,gp,768 # 200008b8 <__global_pointer$>
     5c0:	20008117          	auipc	sp,0x20008
     5c4:	a4010113          	addi	sp,sp,-1472 # 20008000 <_eusrstack>
     5c8:	0000a517          	auipc	a0,0xa
     5cc:	83450513          	addi	a0,a0,-1996 # 9dfc <_data_lma>
     5d0:	20000597          	auipc	a1,0x20000
     5d4:	a3058593          	addi	a1,a1,-1488 # 20000000 <_data_vma>
     5d8:	82818613          	addi	a2,gp,-2008 # 200000e0 <_edata>
     5dc:	00c5fa63          	bgeu	a1,a2,5f0 <handle_reset+0x38>
     5e0:	00052283          	lw	t0,0(a0)
     5e4:	0055a023          	sw	t0,0(a1)
     5e8:	0511                	addi	a0,a0,4
     5ea:	0591                	addi	a1,a1,4
     5ec:	fec5eae3          	bltu	a1,a2,5e0 <handle_reset+0x28>
     5f0:	82818513          	addi	a0,gp,-2008 # 200000e0 <_edata>
     5f4:	0e018593          	addi	a1,gp,224 # 20000998 <_ebss>
     5f8:	00b57763          	bgeu	a0,a1,606 <handle_reset+0x4e>
     5fc:	00052023          	sw	zero,0(a0)
     600:	0511                	addi	a0,a0,4
     602:	feb56de3          	bltu	a0,a1,5fc <handle_reset+0x44>
     606:	42fd                	li	t0,31
     608:	bc029073          	csrw	0xbc0,t0
     60c:	42ed                	li	t0,27
     60e:	80429073          	csrw	0x804,t0
     612:	000062b7          	lui	t0,0x6
     616:	08828293          	addi	t0,t0,136 # 6088 <printInt+0x84>
     61a:	3002a073          	csrs	mstatus,t0
     61e:	00000297          	auipc	t0,0x0
     622:	a1a28293          	addi	t0,t0,-1510 # 38 <_einit>
     626:	0032e293          	ori	t0,t0,3
     62a:	30529073          	csrw	mtvec,t0
     62e:	dd3ff0ef          	jal	ra,400 <SystemInit>
     632:	00000297          	auipc	t0,0x0
     636:	d8628293          	addi	t0,t0,-634 # 3b8 <main>
     63a:	34129073          	csrw	mepc,t0
     63e:	30200073          	mret

00000642 <ADC_DeInit>:
     642:	1141                	addi	sp,sp,-16
     644:	400127b7          	lui	a5,0x40012
     648:	c606                	sw	ra,12(sp)
     64a:	40078793          	addi	a5,a5,1024 # 40012400 <_eusrstack+0x2000a400>
     64e:	00f51e63          	bne	a0,a5,66a <ADC_DeInit+0x28>
     652:	4585                	li	a1,1
     654:	20000513          	li	a0,512
     658:	2c7000ef          	jal	ra,111e <RCC_APB2PeriphResetCmd>
     65c:	4581                	li	a1,0
     65e:	20000513          	li	a0,512
     662:	40b2                	lw	ra,12(sp)
     664:	0141                	addi	sp,sp,16
     666:	2b90006f          	j	111e <RCC_APB2PeriphResetCmd>
     66a:	400137b7          	lui	a5,0x40013
     66e:	80078793          	addi	a5,a5,-2048 # 40012800 <_eusrstack+0x2000a800>
     672:	00f51b63          	bne	a0,a5,688 <ADC_DeInit+0x46>
     676:	4585                	li	a1,1
     678:	40000513          	li	a0,1024
     67c:	2a3000ef          	jal	ra,111e <RCC_APB2PeriphResetCmd>
     680:	4581                	li	a1,0
     682:	40000513          	li	a0,1024
     686:	bff1                	j	662 <ADC_DeInit+0x20>
     688:	40b2                	lw	ra,12(sp)
     68a:	0141                	addi	sp,sp,16
     68c:	8082                	ret

0000068e <ADC_Init>:
     68e:	415c                	lw	a5,4(a0)
     690:	e0f10737          	lui	a4,0xe0f10
     694:	eff70713          	addi	a4,a4,-257 # e0f0feff <_eusrstack+0xc0f07eff>
     698:	4d94                	lw	a3,24(a1)
     69a:	8f7d                	and	a4,a4,a5
     69c:	419c                	lw	a5,0(a1)
     69e:	8fd5                	or	a5,a5,a3
     6a0:	4dd4                	lw	a3,28(a1)
     6a2:	8fd5                	or	a5,a5,a3
     6a4:	41d4                	lw	a3,4(a1)
     6a6:	06a2                	slli	a3,a3,0x8
     6a8:	8fd5                	or	a5,a5,a3
     6aa:	8fd9                	or	a5,a5,a4
     6ac:	c15c                	sw	a5,4(a0)
     6ae:	451c                	lw	a5,8(a0)
     6b0:	fff1f737          	lui	a4,0xfff1f
     6b4:	7fd70713          	addi	a4,a4,2045 # fff1f7fd <_eusrstack+0xdff177fd>
     6b8:	45d4                	lw	a3,12(a1)
     6ba:	8f7d                	and	a4,a4,a5
     6bc:	499c                	lw	a5,16(a1)
     6be:	8fd5                	or	a5,a5,a3
     6c0:	4594                	lw	a3,8(a1)
     6c2:	0686                	slli	a3,a3,0x1
     6c4:	8fd5                	or	a5,a5,a3
     6c6:	8fd9                	or	a5,a5,a4
     6c8:	c51c                	sw	a5,8(a0)
     6ca:	555c                	lw	a5,44(a0)
     6cc:	ff100737          	lui	a4,0xff100
     6d0:	177d                	addi	a4,a4,-1
     6d2:	8f7d                	and	a4,a4,a5
     6d4:	0145c783          	lbu	a5,20(a1)
     6d8:	17fd                	addi	a5,a5,-1
     6da:	0ff7f793          	andi	a5,a5,255
     6de:	07d2                	slli	a5,a5,0x14
     6e0:	8fd9                	or	a5,a5,a4
     6e2:	d55c                	sw	a5,44(a0)
     6e4:	8082                	ret

000006e6 <ADC_Cmd>:
     6e6:	451c                	lw	a5,8(a0)
     6e8:	c589                	beqz	a1,6f2 <ADC_Cmd+0xc>
     6ea:	0017e793          	ori	a5,a5,1
     6ee:	c51c                	sw	a5,8(a0)
     6f0:	8082                	ret
     6f2:	9bf9                	andi	a5,a5,-2
     6f4:	bfed                	j	6ee <ADC_Cmd+0x8>

000006f6 <ADC_DMACmd>:
     6f6:	451c                	lw	a5,8(a0)
     6f8:	c589                	beqz	a1,702 <ADC_DMACmd+0xc>
     6fa:	1007e793          	ori	a5,a5,256
     6fe:	c51c                	sw	a5,8(a0)
     700:	8082                	ret
     702:	eff7f793          	andi	a5,a5,-257
     706:	bfe5                	j	6fe <ADC_DMACmd+0x8>

00000708 <ADC_ResetCalibration>:
     708:	451c                	lw	a5,8(a0)
     70a:	0087e793          	ori	a5,a5,8
     70e:	c51c                	sw	a5,8(a0)
     710:	8082                	ret

00000712 <ADC_GetResetCalibrationStatus>:
     712:	4508                	lw	a0,8(a0)
     714:	810d                	srli	a0,a0,0x3
     716:	8905                	andi	a0,a0,1
     718:	8082                	ret

0000071a <ADC_StartCalibration>:
     71a:	451c                	lw	a5,8(a0)
     71c:	0047e793          	ori	a5,a5,4
     720:	c51c                	sw	a5,8(a0)
     722:	8082                	ret

00000724 <ADC_GetCalibrationStatus>:
     724:	4508                	lw	a0,8(a0)
     726:	8109                	srli	a0,a0,0x2
     728:	8905                	andi	a0,a0,1
     72a:	8082                	ret

0000072c <ADC_SoftwareStartConvCmd>:
     72c:	451c                	lw	a5,8(a0)
     72e:	c591                	beqz	a1,73a <ADC_SoftwareStartConvCmd+0xe>
     730:	00500737          	lui	a4,0x500
     734:	8fd9                	or	a5,a5,a4
     736:	c51c                	sw	a5,8(a0)
     738:	8082                	ret
     73a:	ffb00737          	lui	a4,0xffb00
     73e:	177d                	addi	a4,a4,-1
     740:	8ff9                	and	a5,a5,a4
     742:	bfd5                	j	736 <ADC_SoftwareStartConvCmd+0xa>

00000744 <ADC_RegularChannelConfig>:
     744:	47a5                	li	a5,9
     746:	04b7f763          	bgeu	a5,a1,794 <ADC_RegularChannelConfig+0x50>
     74a:	478d                	li	a5,3
     74c:	ff658713          	addi	a4,a1,-10
     750:	02f70733          	mul	a4,a4,a5
     754:	00c52803          	lw	a6,12(a0)
     758:	479d                	li	a5,7
     75a:	00e797b3          	sll	a5,a5,a4
     75e:	fff7c793          	not	a5,a5
     762:	0107f7b3          	and	a5,a5,a6
     766:	00e696b3          	sll	a3,a3,a4
     76a:	8edd                	or	a3,a3,a5
     76c:	c554                	sw	a3,12(a0)
     76e:	4799                	li	a5,6
     770:	04c7e363          	bltu	a5,a2,7b6 <ADC_RegularChannelConfig+0x72>
     774:	4795                	li	a5,5
     776:	167d                	addi	a2,a2,-1
     778:	02f60633          	mul	a2,a2,a5
     77c:	5958                	lw	a4,52(a0)
     77e:	47fd                	li	a5,31
     780:	00c797b3          	sll	a5,a5,a2
     784:	fff7c793          	not	a5,a5
     788:	8ff9                	and	a5,a5,a4
     78a:	00c59633          	sll	a2,a1,a2
     78e:	8e5d                	or	a2,a2,a5
     790:	d950                	sw	a2,52(a0)
     792:	8082                	ret
     794:	470d                	li	a4,3
     796:	02e58733          	mul	a4,a1,a4
     79a:	01052803          	lw	a6,16(a0)
     79e:	479d                	li	a5,7
     7a0:	00e797b3          	sll	a5,a5,a4
     7a4:	fff7c793          	not	a5,a5
     7a8:	0107f7b3          	and	a5,a5,a6
     7ac:	00e696b3          	sll	a3,a3,a4
     7b0:	8edd                	or	a3,a3,a5
     7b2:	c914                	sw	a3,16(a0)
     7b4:	bf6d                	j	76e <ADC_RegularChannelConfig+0x2a>
     7b6:	47b1                	li	a5,12
     7b8:	02c7e263          	bltu	a5,a2,7dc <ADC_RegularChannelConfig+0x98>
     7bc:	4795                	li	a5,5
     7be:	1665                	addi	a2,a2,-7
     7c0:	02f60633          	mul	a2,a2,a5
     7c4:	5918                	lw	a4,48(a0)
     7c6:	47fd                	li	a5,31
     7c8:	00c797b3          	sll	a5,a5,a2
     7cc:	fff7c793          	not	a5,a5
     7d0:	8ff9                	and	a5,a5,a4
     7d2:	00c59633          	sll	a2,a1,a2
     7d6:	8e5d                	or	a2,a2,a5
     7d8:	d910                	sw	a2,48(a0)
     7da:	8082                	ret
     7dc:	4795                	li	a5,5
     7de:	164d                	addi	a2,a2,-13
     7e0:	02f60633          	mul	a2,a2,a5
     7e4:	5558                	lw	a4,44(a0)
     7e6:	47fd                	li	a5,31
     7e8:	00c797b3          	sll	a5,a5,a2
     7ec:	fff7c793          	not	a5,a5
     7f0:	8ff9                	and	a5,a5,a4
     7f2:	00c595b3          	sll	a1,a1,a2
     7f6:	8ddd                	or	a1,a1,a5
     7f8:	d54c                	sw	a1,44(a0)
     7fa:	8082                	ret

000007fc <ADC_BufferCmd>:
     7fc:	415c                	lw	a5,4(a0)
     7fe:	c591                	beqz	a1,80a <__stack_size+0xa>
     800:	04000737          	lui	a4,0x4000
     804:	8fd9                	or	a5,a5,a4
     806:	c15c                	sw	a5,4(a0)
     808:	8082                	ret
     80a:	fc000737          	lui	a4,0xfc000
     80e:	177d                	addi	a4,a4,-1
     810:	8ff9                	and	a5,a5,a4
     812:	bfd5                	j	806 <__stack_size+0x6>

00000814 <Get_CalibrationValue>:
     814:	7179                	addi	sp,sp,-48
     816:	d422                	sw	s0,40(sp)
     818:	d226                	sw	s1,36(sp)
     81a:	d606                	sw	ra,44(sp)
     81c:	842a                	mv	s0,a0
     81e:	00010423          	sb	zero,8(sp)
     822:	44a5                	li	s1,9
     824:	00814783          	lbu	a5,8(sp)
     828:	06f4f163          	bgeu	s1,a5,88a <Get_CalibrationValue+0x76>
     82c:	00010423          	sb	zero,8(sp)
     830:	46a5                	li	a3,9
     832:	4621                	li	a2,8
     834:	00814783          	lbu	a5,8(sp)
     838:	08f6f763          	bgeu	a3,a5,8c6 <Get_CalibrationValue+0xb2>
     83c:	00011523          	sh	zero,10(sp)
     840:	00010423          	sb	zero,8(sp)
     844:	4695                	li	a3,5
     846:	00814783          	lbu	a5,8(sp)
     84a:	10f6f563          	bgeu	a3,a5,954 <Get_CalibrationValue+0x140>
     84e:	00a15703          	lhu	a4,10(sp)
     852:	00a15783          	lhu	a5,10(sp)
     856:	4699                	li	a3,6
     858:	460d                	li	a2,3
     85a:	02d7f7b3          	remu	a5,a5,a3
     85e:	6505                	lui	a0,0x1
     860:	50b2                	lw	ra,44(sp)
     862:	5422                	lw	s0,40(sp)
     864:	80050513          	addi	a0,a0,-2048 # 800 <__stack_size>
     868:	5492                	lw	s1,36(sp)
     86a:	02c7d7b3          	divu	a5,a5,a2
     86e:	02d75733          	divu	a4,a4,a3
     872:	97ba                	add	a5,a5,a4
     874:	07c2                	slli	a5,a5,0x10
     876:	83c1                	srli	a5,a5,0x10
     878:	00f11523          	sh	a5,10(sp)
     87c:	00a15783          	lhu	a5,10(sp)
     880:	6145                	addi	sp,sp,48
     882:	8d1d                	sub	a0,a0,a5
     884:	0542                	slli	a0,a0,0x10
     886:	8541                	srai	a0,a0,0x10
     888:	8082                	ret
     88a:	441c                	lw	a5,8(s0)
     88c:	0087e793          	ori	a5,a5,8
     890:	c41c                	sw	a5,8(s0)
     892:	8522                	mv	a0,s0
     894:	3dbd                	jal	712 <ADC_GetResetCalibrationStatus>
     896:	fd75                	bnez	a0,892 <Get_CalibrationValue+0x7e>
     898:	441c                	lw	a5,8(s0)
     89a:	0047e793          	ori	a5,a5,4
     89e:	c41c                	sw	a5,8(s0)
     8a0:	8522                	mv	a0,s0
     8a2:	3549                	jal	724 <ADC_GetCalibrationStatus>
     8a4:	fd75                	bnez	a0,8a0 <Get_CalibrationValue+0x8c>
     8a6:	4478                	lw	a4,76(s0)
     8a8:	00814783          	lbu	a5,8(sp)
     8ac:	1014                	addi	a3,sp,32
     8ae:	0786                	slli	a5,a5,0x1
     8b0:	97b6                	add	a5,a5,a3
     8b2:	fee79623          	sh	a4,-20(a5)
     8b6:	00814783          	lbu	a5,8(sp)
     8ba:	0785                	addi	a5,a5,1
     8bc:	0ff7f793          	andi	a5,a5,255
     8c0:	00f10423          	sb	a5,8(sp)
     8c4:	b785                	j	824 <Get_CalibrationValue+0x10>
     8c6:	000104a3          	sb	zero,9(sp)
     8ca:	00914783          	lbu	a5,9(sp)
     8ce:	00f67a63          	bgeu	a2,a5,8e2 <Get_CalibrationValue+0xce>
     8d2:	00814783          	lbu	a5,8(sp)
     8d6:	0785                	addi	a5,a5,1
     8d8:	0ff7f793          	andi	a5,a5,255
     8dc:	00f10423          	sb	a5,8(sp)
     8e0:	bf91                	j	834 <Get_CalibrationValue+0x20>
     8e2:	00914703          	lbu	a4,9(sp)
     8e6:	00914783          	lbu	a5,9(sp)
     8ea:	100c                	addi	a1,sp,32
     8ec:	0706                	slli	a4,a4,0x1
     8ee:	0785                	addi	a5,a5,1
     8f0:	0786                	slli	a5,a5,0x1
     8f2:	972e                	add	a4,a4,a1
     8f4:	97ae                	add	a5,a5,a1
     8f6:	fec75703          	lhu	a4,-20(a4) # fbffffec <_eusrstack+0xdbff7fec>
     8fa:	fec7d783          	lhu	a5,-20(a5)
     8fe:	04e7f363          	bgeu	a5,a4,944 <Get_CalibrationValue+0x130>
     902:	00914783          	lbu	a5,9(sp)
     906:	0786                	slli	a5,a5,0x1
     908:	97ae                	add	a5,a5,a1
     90a:	fec7d783          	lhu	a5,-20(a5)
     90e:	00f11523          	sh	a5,10(sp)
     912:	00914783          	lbu	a5,9(sp)
     916:	00914703          	lbu	a4,9(sp)
     91a:	0785                	addi	a5,a5,1
     91c:	0786                	slli	a5,a5,0x1
     91e:	97ae                	add	a5,a5,a1
     920:	fec7d583          	lhu	a1,-20(a5)
     924:	00171793          	slli	a5,a4,0x1
     928:	1018                	addi	a4,sp,32
     92a:	97ba                	add	a5,a5,a4
     92c:	feb79623          	sh	a1,-20(a5)
     930:	00914783          	lbu	a5,9(sp)
     934:	00a15703          	lhu	a4,10(sp)
     938:	100c                	addi	a1,sp,32
     93a:	0785                	addi	a5,a5,1
     93c:	0786                	slli	a5,a5,0x1
     93e:	97ae                	add	a5,a5,a1
     940:	fee79623          	sh	a4,-20(a5)
     944:	00914783          	lbu	a5,9(sp)
     948:	0785                	addi	a5,a5,1
     94a:	0ff7f793          	andi	a5,a5,255
     94e:	00f104a3          	sb	a5,9(sp)
     952:	bfa5                	j	8ca <Get_CalibrationValue+0xb6>
     954:	00814783          	lbu	a5,8(sp)
     958:	1010                	addi	a2,sp,32
     95a:	00a15703          	lhu	a4,10(sp)
     95e:	0789                	addi	a5,a5,2
     960:	0786                	slli	a5,a5,0x1
     962:	97b2                	add	a5,a5,a2
     964:	fec7d783          	lhu	a5,-20(a5)
     968:	97ba                	add	a5,a5,a4
     96a:	07c2                	slli	a5,a5,0x10
     96c:	83c1                	srli	a5,a5,0x10
     96e:	00f11523          	sh	a5,10(sp)
     972:	00814783          	lbu	a5,8(sp)
     976:	0785                	addi	a5,a5,1
     978:	0ff7f793          	andi	a5,a5,255
     97c:	00f10423          	sb	a5,8(sp)
     980:	b5d9                	j	846 <Get_CalibrationValue+0x32>

00000982 <DMA_DeInit>:
     982:	411c                	lw	a5,0(a0)
     984:	6741                	lui	a4,0x10
     986:	1779                	addi	a4,a4,-2
     988:	8ff9                	and	a5,a5,a4
     98a:	c11c                	sw	a5,0(a0)
     98c:	00052023          	sw	zero,0(a0)
     990:	00052223          	sw	zero,4(a0)
     994:	00052423          	sw	zero,8(a0)
     998:	400207b7          	lui	a5,0x40020
     99c:	00052623          	sw	zero,12(a0)
     9a0:	00878713          	addi	a4,a5,8 # 40020008 <_eusrstack+0x20018008>
     9a4:	00e51763          	bne	a0,a4,9b2 <DMA_DeInit+0x30>
     9a8:	43d8                	lw	a4,4(a5)
     9aa:	00f76713          	ori	a4,a4,15
     9ae:	c3d8                	sw	a4,4(a5)
     9b0:	8082                	ret
     9b2:	01c78713          	addi	a4,a5,28
     9b6:	00e51663          	bne	a0,a4,9c2 <DMA_DeInit+0x40>
     9ba:	43d8                	lw	a4,4(a5)
     9bc:	0f076713          	ori	a4,a4,240
     9c0:	b7fd                	j	9ae <DMA_DeInit+0x2c>
     9c2:	03078713          	addi	a4,a5,48
     9c6:	00e51863          	bne	a0,a4,9d6 <DMA_DeInit+0x54>
     9ca:	43d8                	lw	a4,4(a5)
     9cc:	6685                	lui	a3,0x1
     9ce:	f0068693          	addi	a3,a3,-256 # f00 <NVIC_Init+0x14>
     9d2:	8f55                	or	a4,a4,a3
     9d4:	bfe9                	j	9ae <DMA_DeInit+0x2c>
     9d6:	04478713          	addi	a4,a5,68
     9da:	00e51563          	bne	a0,a4,9e4 <DMA_DeInit+0x62>
     9de:	43d8                	lw	a4,4(a5)
     9e0:	66bd                	lui	a3,0xf
     9e2:	bfc5                	j	9d2 <DMA_DeInit+0x50>
     9e4:	05878713          	addi	a4,a5,88
     9e8:	00e51663          	bne	a0,a4,9f4 <DMA_DeInit+0x72>
     9ec:	43d8                	lw	a4,4(a5)
     9ee:	000f06b7          	lui	a3,0xf0
     9f2:	b7c5                	j	9d2 <DMA_DeInit+0x50>
     9f4:	06c78713          	addi	a4,a5,108
     9f8:	00e51663          	bne	a0,a4,a04 <DMA_DeInit+0x82>
     9fc:	43d8                	lw	a4,4(a5)
     9fe:	00f006b7          	lui	a3,0xf00
     a02:	bfc1                	j	9d2 <DMA_DeInit+0x50>
     a04:	08078713          	addi	a4,a5,128
     a08:	00e51663          	bne	a0,a4,a14 <DMA_DeInit+0x92>
     a0c:	43d8                	lw	a4,4(a5)
     a0e:	0f0006b7          	lui	a3,0xf000
     a12:	b7c1                	j	9d2 <DMA_DeInit+0x50>
     a14:	40878713          	addi	a4,a5,1032
     a18:	00e51963          	bne	a0,a4,a2a <DMA_DeInit+0xa8>
     a1c:	4047a703          	lw	a4,1028(a5)
     a20:	00f76713          	ori	a4,a4,15
     a24:	40e7a223          	sw	a4,1028(a5)
     a28:	8082                	ret
     a2a:	41c78713          	addi	a4,a5,1052
     a2e:	00e51763          	bne	a0,a4,a3c <DMA_DeInit+0xba>
     a32:	4047a703          	lw	a4,1028(a5)
     a36:	0f076713          	ori	a4,a4,240
     a3a:	b7ed                	j	a24 <DMA_DeInit+0xa2>
     a3c:	43078793          	addi	a5,a5,1072
     a40:	00f51b63          	bne	a0,a5,a56 <DMA_DeInit+0xd4>
     a44:	400207b7          	lui	a5,0x40020
     a48:	4047a703          	lw	a4,1028(a5) # 40020404 <_eusrstack+0x20018404>
     a4c:	6685                	lui	a3,0x1
     a4e:	f0068693          	addi	a3,a3,-256 # f00 <NVIC_Init+0x14>
     a52:	8f55                	or	a4,a4,a3
     a54:	bfc1                	j	a24 <DMA_DeInit+0xa2>
     a56:	400207b7          	lui	a5,0x40020
     a5a:	44478713          	addi	a4,a5,1092 # 40020444 <_eusrstack+0x20018444>
     a5e:	00e51663          	bne	a0,a4,a6a <DMA_DeInit+0xe8>
     a62:	4047a703          	lw	a4,1028(a5)
     a66:	66bd                	lui	a3,0xf
     a68:	b7ed                	j	a52 <DMA_DeInit+0xd0>
     a6a:	45878713          	addi	a4,a5,1112
     a6e:	00e51763          	bne	a0,a4,a7c <DMA_DeInit+0xfa>
     a72:	4047a703          	lw	a4,1028(a5)
     a76:	000f06b7          	lui	a3,0xf0
     a7a:	bfe1                	j	a52 <DMA_DeInit+0xd0>
     a7c:	46c78713          	addi	a4,a5,1132
     a80:	00e51763          	bne	a0,a4,a8e <DMA_DeInit+0x10c>
     a84:	4047a703          	lw	a4,1028(a5)
     a88:	00f006b7          	lui	a3,0xf00
     a8c:	b7d9                	j	a52 <DMA_DeInit+0xd0>
     a8e:	48078713          	addi	a4,a5,1152
     a92:	00e51763          	bne	a0,a4,aa0 <DMA_DeInit+0x11e>
     a96:	4047a703          	lw	a4,1028(a5)
     a9a:	0f0006b7          	lui	a3,0xf000
     a9e:	bf55                	j	a52 <DMA_DeInit+0xd0>
     aa0:	49078713          	addi	a4,a5,1168
     aa4:	00e51963          	bne	a0,a4,ab6 <DMA_DeInit+0x134>
     aa8:	4d47a703          	lw	a4,1236(a5)
     aac:	00f76713          	ori	a4,a4,15
     ab0:	4ce7aa23          	sw	a4,1236(a5)
     ab4:	8082                	ret
     ab6:	4a078713          	addi	a4,a5,1184
     aba:	00e51763          	bne	a0,a4,ac8 <DMA_DeInit+0x146>
     abe:	4d47a703          	lw	a4,1236(a5)
     ac2:	0f076713          	ori	a4,a4,240
     ac6:	b7ed                	j	ab0 <DMA_DeInit+0x12e>
     ac8:	4b078713          	addi	a4,a5,1200
     acc:	00e51963          	bne	a0,a4,ade <DMA_DeInit+0x15c>
     ad0:	4d47a703          	lw	a4,1236(a5)
     ad4:	6685                	lui	a3,0x1
     ad6:	f0068693          	addi	a3,a3,-256 # f00 <NVIC_Init+0x14>
     ada:	8f55                	or	a4,a4,a3
     adc:	bfd1                	j	ab0 <DMA_DeInit+0x12e>
     ade:	4c078713          	addi	a4,a5,1216
     ae2:	fce519e3          	bne	a0,a4,ab4 <DMA_DeInit+0x132>
     ae6:	4d47a703          	lw	a4,1236(a5)
     aea:	66bd                	lui	a3,0xf
     aec:	b7fd                	j	ada <DMA_DeInit+0x158>

00000aee <DMA_Init>:
     aee:	411c                	lw	a5,0(a0)
     af0:	7761                	lui	a4,0xffff8
     af2:	073d                	addi	a4,a4,15
     af4:	5194                	lw	a3,32(a1)
     af6:	8f7d                	and	a4,a4,a5
     af8:	459c                	lw	a5,8(a1)
     afa:	8fd5                	or	a5,a5,a3
     afc:	4994                	lw	a3,16(a1)
     afe:	8fd5                	or	a5,a5,a3
     b00:	49d4                	lw	a3,20(a1)
     b02:	8fd5                	or	a5,a5,a3
     b04:	4d94                	lw	a3,24(a1)
     b06:	8fd5                	or	a5,a5,a3
     b08:	4dd4                	lw	a3,28(a1)
     b0a:	8fd5                	or	a5,a5,a3
     b0c:	51d4                	lw	a3,36(a1)
     b0e:	8fd5                	or	a5,a5,a3
     b10:	5594                	lw	a3,40(a1)
     b12:	8fd5                	or	a5,a5,a3
     b14:	8fd9                	or	a5,a5,a4
     b16:	c11c                	sw	a5,0(a0)
     b18:	45dc                	lw	a5,12(a1)
     b1a:	c15c                	sw	a5,4(a0)
     b1c:	419c                	lw	a5,0(a1)
     b1e:	c51c                	sw	a5,8(a0)
     b20:	41dc                	lw	a5,4(a1)
     b22:	c55c                	sw	a5,12(a0)
     b24:	8082                	ret

00000b26 <DMA_Cmd>:
     b26:	411c                	lw	a5,0(a0)
     b28:	c589                	beqz	a1,b32 <DMA_Cmd+0xc>
     b2a:	0017e793          	ori	a5,a5,1
     b2e:	c11c                	sw	a5,0(a0)
     b30:	8082                	ret
     b32:	6741                	lui	a4,0x10
     b34:	1779                	addi	a4,a4,-2
     b36:	8ff9                	and	a5,a5,a4
     b38:	bfdd                	j	b2e <DMA_Cmd+0x8>

00000b3a <GPIO_TogglePin>:
     b3a:	455c                	lw	a5,12(a0)
     b3c:	8fed                	and	a5,a5,a1
     b3e:	c399                	beqz	a5,b44 <GPIO_TogglePin+0xa>
     b40:	c94c                	sw	a1,20(a0)
     b42:	8082                	ret
     b44:	c90c                	sw	a1,16(a0)
     b46:	8082                	ret

00000b48 <GPIO_Init>:
     b48:	459c                	lw	a5,8(a1)
     b4a:	0107f713          	andi	a4,a5,16
     b4e:	00f7f813          	andi	a6,a5,15
     b52:	c701                	beqz	a4,b5a <GPIO_Init+0x12>
     b54:	41d8                	lw	a4,4(a1)
     b56:	00e86833          	or	a6,a6,a4
     b5a:	0005d583          	lhu	a1,0(a1)
     b5e:	0ff5f713          	andi	a4,a1,255
     b62:	c339                	beqz	a4,ba8 <GPIO_Init+0x60>
     b64:	4118                	lw	a4,0(a0)
     b66:	4681                	li	a3,0
     b68:	4e85                	li	t4,1
     b6a:	4f3d                	li	t5,15
     b6c:	02800f93          	li	t6,40
     b70:	04800293          	li	t0,72
     b74:	4e21                	li	t3,8
     b76:	00de9633          	sll	a2,t4,a3
     b7a:	00c5f8b3          	and	a7,a1,a2
     b7e:	03161163          	bne	a2,a7,ba0 <GPIO_Init+0x58>
     b82:	00269893          	slli	a7,a3,0x2
     b86:	011f1333          	sll	t1,t5,a7
     b8a:	fff34313          	not	t1,t1
     b8e:	00e37733          	and	a4,t1,a4
     b92:	011818b3          	sll	a7,a6,a7
     b96:	00e8e733          	or	a4,a7,a4
     b9a:	05f79f63          	bne	a5,t6,bf8 <GPIO_Init+0xb0>
     b9e:	c950                	sw	a2,20(a0)
     ba0:	0685                	addi	a3,a3,1
     ba2:	fdc69ae3          	bne	a3,t3,b76 <GPIO_Init+0x2e>
     ba6:	c118                	sw	a4,0(a0)
     ba8:	0ff00713          	li	a4,255
     bac:	04b77563          	bgeu	a4,a1,bf6 <GPIO_Init+0xae>
     bb0:	4154                	lw	a3,4(a0)
     bb2:	4621                	li	a2,8
     bb4:	4e85                	li	t4,1
     bb6:	4f3d                	li	t5,15
     bb8:	02800f93          	li	t6,40
     bbc:	04800293          	li	t0,72
     bc0:	4e41                	li	t3,16
     bc2:	00ce98b3          	sll	a7,t4,a2
     bc6:	0115f733          	and	a4,a1,a7
     bca:	02e89263          	bne	a7,a4,bee <GPIO_Init+0xa6>
     bce:	00261713          	slli	a4,a2,0x2
     bd2:	1701                	addi	a4,a4,-32
     bd4:	00ef1333          	sll	t1,t5,a4
     bd8:	fff34313          	not	t1,t1
     bdc:	00d376b3          	and	a3,t1,a3
     be0:	00e81733          	sll	a4,a6,a4
     be4:	8ed9                	or	a3,a3,a4
     be6:	01f79d63          	bne	a5,t6,c00 <GPIO_Init+0xb8>
     bea:	01152a23          	sw	a7,20(a0)
     bee:	0605                	addi	a2,a2,1
     bf0:	fdc619e3          	bne	a2,t3,bc2 <GPIO_Init+0x7a>
     bf4:	c154                	sw	a3,4(a0)
     bf6:	8082                	ret
     bf8:	fa5794e3          	bne	a5,t0,ba0 <GPIO_Init+0x58>
     bfc:	c910                	sw	a2,16(a0)
     bfe:	b74d                	j	ba0 <GPIO_Init+0x58>
     c00:	fe5797e3          	bne	a5,t0,bee <GPIO_Init+0xa6>
     c04:	01152823          	sw	a7,16(a0)
     c08:	b7dd                	j	bee <GPIO_Init+0xa6>

00000c0a <GPIO_ReadInputDataBit>:
     c0a:	4508                	lw	a0,8(a0)
     c0c:	8d6d                	and	a0,a0,a1
     c0e:	00a03533          	snez	a0,a0
     c12:	8082                	ret

00000c14 <GPIO_SetBits>:
     c14:	c90c                	sw	a1,16(a0)
     c16:	8082                	ret

00000c18 <GPIO_WriteBit>:
     c18:	c219                	beqz	a2,c1e <GPIO_WriteBit+0x6>
     c1a:	c90c                	sw	a1,16(a0)
     c1c:	8082                	ret
     c1e:	c94c                	sw	a1,20(a0)
     c20:	8082                	ret

00000c22 <GPIO_PinRemapConfig>:
     c22:	400107b7          	lui	a5,0x40010
     c26:	04055763          	bgez	a0,c74 <GPIO_PinRemapConfig+0x52>
     c2a:	4fdc                	lw	a5,28(a5)
     c2c:	01055713          	srli	a4,a0,0x10
     c30:	00f77693          	andi	a3,a4,15
     c34:	01051613          	slli	a2,a0,0x10
     c38:	00300737          	lui	a4,0x300
     c3c:	8241                	srli	a2,a2,0x10
     c3e:	00e57833          	and	a6,a0,a4
     c42:	04055c63          	bgez	a0,c9a <GPIO_PinRemapConfig+0x78>
     c46:	02e81963          	bne	a6,a4,c78 <GPIO_PinRemapConfig+0x56>
     c4a:	01068713          	addi	a4,a3,16 # f010 <_data_lma+0x5214>
     c4e:	468d                	li	a3,3
     c50:	00e696b3          	sll	a3,a3,a4
     c54:	fff6c693          	not	a3,a3
     c58:	8ff5                	and	a5,a5,a3
     c5a:	c989                	beqz	a1,c6c <GPIO_PinRemapConfig+0x4a>
     c5c:	01555713          	srli	a4,a0,0x15
     c60:	0712                	slli	a4,a4,0x4
     c62:	00e61733          	sll	a4,a2,a4
     c66:	8fd9                	or	a5,a5,a4
     c68:	04055763          	bgez	a0,cb6 <GPIO_PinRemapConfig+0x94>
     c6c:	40010737          	lui	a4,0x40010
     c70:	cf5c                	sw	a5,28(a4)
     c72:	8082                	ret
     c74:	43dc                	lw	a5,4(a5)
     c76:	bf5d                	j	c2c <GPIO_PinRemapConfig+0xa>
     c78:	00b51713          	slli	a4,a0,0xb
     c7c:	00075663          	bgez	a4,c88 <GPIO_PinRemapConfig+0x66>
     c80:	470d                	li	a4,3
     c82:	00d716b3          	sll	a3,a4,a3
     c86:	b7f9                	j	c54 <GPIO_PinRemapConfig+0x32>
     c88:	01555713          	srli	a4,a0,0x15
     c8c:	0712                	slli	a4,a4,0x4
     c8e:	00e61733          	sll	a4,a2,a4
     c92:	fff74713          	not	a4,a4
     c96:	8ff9                	and	a5,a5,a4
     c98:	b7c9                	j	c5a <GPIO_PinRemapConfig+0x38>
     c9a:	02e81263          	bne	a6,a4,cbe <GPIO_PinRemapConfig+0x9c>
     c9e:	40010837          	lui	a6,0x40010
     ca2:	00482683          	lw	a3,4(a6) # 40010004 <_eusrstack+0x20008004>
     ca6:	f1000737          	lui	a4,0xf1000
     caa:	177d                	addi	a4,a4,-1
     cac:	8ff9                	and	a5,a5,a4
     cae:	8f75                	and	a4,a4,a3
     cb0:	00e82223          	sw	a4,4(a6)
     cb4:	f5c5                	bnez	a1,c5c <GPIO_PinRemapConfig+0x3a>
     cb6:	40010737          	lui	a4,0x40010
     cba:	c35c                	sw	a5,4(a4)
     cbc:	8082                	ret
     cbe:	00b51713          	slli	a4,a0,0xb
     cc2:	00075c63          	bgez	a4,cda <GPIO_PinRemapConfig+0xb8>
     cc6:	470d                	li	a4,3
     cc8:	00d71733          	sll	a4,a4,a3
     ccc:	fff74713          	not	a4,a4
     cd0:	8f7d                	and	a4,a4,a5
     cd2:	0f0007b7          	lui	a5,0xf000
     cd6:	8fd9                	or	a5,a5,a4
     cd8:	bff1                	j	cb4 <GPIO_PinRemapConfig+0x92>
     cda:	01555713          	srli	a4,a0,0x15
     cde:	0712                	slli	a4,a4,0x4
     ce0:	00e61733          	sll	a4,a2,a4
     ce4:	b7e5                	j	ccc <GPIO_PinRemapConfig+0xaa>

00000ce6 <I2C_Init>:
     ce6:	7139                	addi	sp,sp,-64
     ce8:	dc22                	sw	s0,56(sp)
     cea:	da26                	sw	s1,52(sp)
     cec:	842a                	mv	s0,a0
     cee:	00455483          	lhu	s1,4(a0)
     cf2:	0868                	addi	a0,sp,28
     cf4:	c62e                	sw	a1,12(sp)
     cf6:	de06                	sw	ra,60(sp)
     cf8:	2c7d                	jal	fb6 <RCC_GetClocksFreq>
     cfa:	5792                	lw	a5,36(sp)
     cfc:	000f4737          	lui	a4,0xf4
     d00:	24070713          	addi	a4,a4,576 # f4240 <_data_lma+0xea444>
     d04:	02e7d733          	divu	a4,a5,a4
     d08:	04c2                	slli	s1,s1,0x10
     d0a:	80c1                	srli	s1,s1,0x10
     d0c:	fc04f493          	andi	s1,s1,-64
     d10:	04c2                	slli	s1,s1,0x10
     d12:	80c1                	srli	s1,s1,0x10
     d14:	45b2                	lw	a1,12(sp)
     d16:	6561                	lui	a0,0x18
     d18:	6a050513          	addi	a0,a0,1696 # 186a0 <_data_lma+0xe8a4>
     d1c:	01071613          	slli	a2,a4,0x10
     d20:	8241                	srli	a2,a2,0x10
     d22:	8cd1                	or	s1,s1,a2
     d24:	00941223          	sh	s1,4(s0)
     d28:	00045683          	lhu	a3,0(s0)
     d2c:	06c2                	slli	a3,a3,0x10
     d2e:	82c1                	srli	a3,a3,0x10
     d30:	9af9                	andi	a3,a3,-2
     d32:	06c2                	slli	a3,a3,0x10
     d34:	82c1                	srli	a3,a3,0x10
     d36:	00d41023          	sh	a3,0(s0)
     d3a:	4194                	lw	a3,0(a1)
     d3c:	06d56663          	bltu	a0,a3,da8 <I2C_Init+0xc2>
     d40:	0686                	slli	a3,a3,0x1
     d42:	02d7d7b3          	divu	a5,a5,a3
     d46:	4691                	li	a3,4
     d48:	01079713          	slli	a4,a5,0x10
     d4c:	8341                	srli	a4,a4,0x10
     d4e:	87ba                	mv	a5,a4
     d50:	00d77363          	bgeu	a4,a3,d56 <I2C_Init+0x70>
     d54:	4791                	li	a5,4
     d56:	0605                	addi	a2,a2,1
     d58:	0642                	slli	a2,a2,0x10
     d5a:	07c2                	slli	a5,a5,0x10
     d5c:	8241                	srli	a2,a2,0x10
     d5e:	83c1                	srli	a5,a5,0x10
     d60:	02c41023          	sh	a2,32(s0)
     d64:	00f41e23          	sh	a5,28(s0)
     d68:	00045783          	lhu	a5,0(s0)
     d6c:	0045d703          	lhu	a4,4(a1)
     d70:	00a5d683          	lhu	a3,10(a1)
     d74:	0017e793          	ori	a5,a5,1
     d78:	00f41023          	sh	a5,0(s0)
     d7c:	00045783          	lhu	a5,0(s0)
     d80:	8f55                	or	a4,a4,a3
     d82:	50f2                	lw	ra,60(sp)
     d84:	07c2                	slli	a5,a5,0x10
     d86:	83c1                	srli	a5,a5,0x10
     d88:	bf57f793          	andi	a5,a5,-1035
     d8c:	8fd9                	or	a5,a5,a4
     d8e:	00f41023          	sh	a5,0(s0)
     d92:	0085d703          	lhu	a4,8(a1)
     d96:	00c5d783          	lhu	a5,12(a1)
     d9a:	54d2                	lw	s1,52(sp)
     d9c:	8fd9                	or	a5,a5,a4
     d9e:	00f41423          	sh	a5,8(s0)
     da2:	5462                	lw	s0,56(sp)
     da4:	6121                	addi	sp,sp,64
     da6:	8082                	ret
     da8:	0065d503          	lhu	a0,6(a1)
     dac:	6631                	lui	a2,0xc
     dae:	167d                	addi	a2,a2,-1
     db0:	02c51e63          	bne	a0,a2,dec <I2C_Init+0x106>
     db4:	460d                	li	a2,3
     db6:	02c686b3          	mul	a3,a3,a2
     dba:	02d7d7b3          	divu	a5,a5,a3
     dbe:	07c2                	slli	a5,a5,0x10
     dc0:	83c1                	srli	a5,a5,0x10
     dc2:	01479693          	slli	a3,a5,0x14
     dc6:	e299                	bnez	a3,dcc <I2C_Init+0xe6>
     dc8:	0017e793          	ori	a5,a5,1
     dcc:	66a1                	lui	a3,0x8
     dce:	8fd5                	or	a5,a5,a3
     dd0:	12c00693          	li	a3,300
     dd4:	02d70733          	mul	a4,a4,a3
     dd8:	3e800693          	li	a3,1000
     ddc:	02d74733          	div	a4,a4,a3
     de0:	0705                	addi	a4,a4,1
     de2:	0742                	slli	a4,a4,0x10
     de4:	8341                	srli	a4,a4,0x10
     de6:	02e41023          	sh	a4,32(s0)
     dea:	bfad                	j	d64 <I2C_Init+0x7e>
     dec:	4665                	li	a2,25
     dee:	02c686b3          	mul	a3,a3,a2
     df2:	02d7d7b3          	divu	a5,a5,a3
     df6:	6691                	lui	a3,0x4
     df8:	07c2                	slli	a5,a5,0x10
     dfa:	83c1                	srli	a5,a5,0x10
     dfc:	8fd5                	or	a5,a5,a3
     dfe:	b7d1                	j	dc2 <I2C_Init+0xdc>

00000e00 <I2C_Cmd>:
     e00:	00055783          	lhu	a5,0(a0)
     e04:	c591                	beqz	a1,e10 <I2C_Cmd+0x10>
     e06:	0017e793          	ori	a5,a5,1
     e0a:	00f51023          	sh	a5,0(a0)
     e0e:	8082                	ret
     e10:	07c2                	slli	a5,a5,0x10
     e12:	83c1                	srli	a5,a5,0x10
     e14:	9bf9                	andi	a5,a5,-2
     e16:	07c2                	slli	a5,a5,0x10
     e18:	83c1                	srli	a5,a5,0x10
     e1a:	bfc5                	j	e0a <I2C_Cmd+0xa>

00000e1c <I2C_GenerateSTART>:
     e1c:	00055783          	lhu	a5,0(a0)
     e20:	c591                	beqz	a1,e2c <I2C_GenerateSTART+0x10>
     e22:	1007e793          	ori	a5,a5,256
     e26:	00f51023          	sh	a5,0(a0)
     e2a:	8082                	ret
     e2c:	07c2                	slli	a5,a5,0x10
     e2e:	83c1                	srli	a5,a5,0x10
     e30:	eff7f793          	andi	a5,a5,-257
     e34:	07c2                	slli	a5,a5,0x10
     e36:	83c1                	srli	a5,a5,0x10
     e38:	b7fd                	j	e26 <I2C_GenerateSTART+0xa>

00000e3a <I2C_GenerateSTOP>:
     e3a:	00055783          	lhu	a5,0(a0)
     e3e:	c591                	beqz	a1,e4a <I2C_GenerateSTOP+0x10>
     e40:	2007e793          	ori	a5,a5,512
     e44:	00f51023          	sh	a5,0(a0)
     e48:	8082                	ret
     e4a:	07c2                	slli	a5,a5,0x10
     e4c:	83c1                	srli	a5,a5,0x10
     e4e:	dff7f793          	andi	a5,a5,-513
     e52:	07c2                	slli	a5,a5,0x10
     e54:	83c1                	srli	a5,a5,0x10
     e56:	b7fd                	j	e44 <I2C_GenerateSTOP+0xa>

00000e58 <I2C_AcknowledgeConfig>:
     e58:	00055783          	lhu	a5,0(a0)
     e5c:	c591                	beqz	a1,e68 <I2C_AcknowledgeConfig+0x10>
     e5e:	4007e793          	ori	a5,a5,1024
     e62:	00f51023          	sh	a5,0(a0)
     e66:	8082                	ret
     e68:	07c2                	slli	a5,a5,0x10
     e6a:	83c1                	srli	a5,a5,0x10
     e6c:	bff7f793          	andi	a5,a5,-1025
     e70:	07c2                	slli	a5,a5,0x10
     e72:	83c1                	srli	a5,a5,0x10
     e74:	b7fd                	j	e62 <I2C_AcknowledgeConfig+0xa>

00000e76 <I2C_SendData>:
     e76:	00b51823          	sh	a1,16(a0)
     e7a:	8082                	ret

00000e7c <I2C_ReceiveData>:
     e7c:	01055503          	lhu	a0,16(a0)
     e80:	0ff57513          	andi	a0,a0,255
     e84:	8082                	ret

00000e86 <I2C_Send7bitAddress>:
     e86:	0fe5f793          	andi	a5,a1,254
     e8a:	c219                	beqz	a2,e90 <I2C_Send7bitAddress+0xa>
     e8c:	0015e793          	ori	a5,a1,1
     e90:	07c2                	slli	a5,a5,0x10
     e92:	83c1                	srli	a5,a5,0x10
     e94:	00f51823          	sh	a5,16(a0)
     e98:	8082                	ret

00000e9a <I2C_CheckEvent>:
     e9a:	01455783          	lhu	a5,20(a0)
     e9e:	01855503          	lhu	a0,24(a0)
     ea2:	0542                	slli	a0,a0,0x10
     ea4:	8d5d                	or	a0,a0,a5
     ea6:	8d6d                	and	a0,a0,a1
     ea8:	0522                	slli	a0,a0,0x8
     eaa:	8121                	srli	a0,a0,0x8
     eac:	8d0d                	sub	a0,a0,a1
     eae:	00153513          	seqz	a0,a0
     eb2:	8082                	ret

00000eb4 <I2C_GetFlagStatus>:
     eb4:	1141                	addi	sp,sp,-16
     eb6:	c402                	sw	zero,8(sp)
     eb8:	c602                	sw	zero,12(sp)
     eba:	01c5d793          	srli	a5,a1,0x1c
     ebe:	c62a                	sw	a0,12(sp)
     ec0:	c43e                	sw	a5,8(sp)
     ec2:	47a2                	lw	a5,8(sp)
     ec4:	05a2                	slli	a1,a1,0x8
     ec6:	81a1                	srli	a1,a1,0x8
     ec8:	cb99                	beqz	a5,ede <I2C_GetFlagStatus+0x2a>
     eca:	47b2                	lw	a5,12(sp)
     ecc:	07d1                	addi	a5,a5,20
     ece:	c63e                	sw	a5,12(sp)
     ed0:	47b2                	lw	a5,12(sp)
     ed2:	4388                	lw	a0,0(a5)
     ed4:	0141                	addi	sp,sp,16
     ed6:	8d6d                	and	a0,a0,a1
     ed8:	00a03533          	snez	a0,a0
     edc:	8082                	ret
     ede:	47b2                	lw	a5,12(sp)
     ee0:	81c1                	srli	a1,a1,0x10
     ee2:	07e1                	addi	a5,a5,24
     ee4:	b7ed                	j	ece <I2C_GetFlagStatus+0x1a>

00000ee6 <NVIC_PriorityGroupConfig>:
     ee6:	82a1a423          	sw	a0,-2008(gp) # 200000e0 <_edata>
     eea:	8082                	ret

00000eec <NVIC_Init>:
     eec:	82818793          	addi	a5,gp,-2008 # 200000e0 <_edata>
     ef0:	4394                	lw	a3,0(a5)
     ef2:	00054703          	lbu	a4,0(a0)
     ef6:	e689                	bnez	a3,f00 <NVIC_Init+0x14>
     ef8:	00254783          	lbu	a5,2(a0)
     efc:	0792                	slli	a5,a5,0x4
     efe:	a831                	j	f1a <NVIC_Init+0x2e>
     f00:	4394                	lw	a3,0(a5)
     f02:	4605                	li	a2,1
     f04:	04c69163          	bne	a3,a2,f46 <NVIC_Init+0x5a>
     f08:	00254783          	lbu	a5,2(a0)
     f0c:	00154603          	lbu	a2,1(a0)
     f10:	0792                	slli	a5,a5,0x4
     f12:	00d61463          	bne	a2,a3,f1a <NVIC_Init+0x2e>
     f16:	f807e793          	ori	a5,a5,-128
     f1a:	e000e6b7          	lui	a3,0xe000e
     f1e:	0ff7f793          	andi	a5,a5,255
     f22:	96ba                	add	a3,a3,a4
     f24:	40f68023          	sb	a5,1024(a3) # e000e400 <_eusrstack+0xc0006400>
     f28:	4685                	li	a3,1
     f2a:	00575793          	srli	a5,a4,0x5
     f2e:	00e69733          	sll	a4,a3,a4
     f32:	4154                	lw	a3,4(a0)
     f34:	c6ad                	beqz	a3,f9e <NVIC_Init+0xb2>
     f36:	04078793          	addi	a5,a5,64 # f000040 <_data_lma+0xeff6244>
     f3a:	078a                	slli	a5,a5,0x2
     f3c:	e000e6b7          	lui	a3,0xe000e
     f40:	97b6                	add	a5,a5,a3
     f42:	c398                	sw	a4,0(a5)
     f44:	8082                	ret
     f46:	438c                	lw	a1,0(a5)
     f48:	4689                	li	a3,2
     f4a:	02d59363          	bne	a1,a3,f70 <NVIC_Init+0x84>
     f4e:	00154683          	lbu	a3,1(a0)
     f52:	00254783          	lbu	a5,2(a0)
     f56:	00d66563          	bltu	a2,a3,f60 <NVIC_Init+0x74>
     f5a:	068a                	slli	a3,a3,0x2
     f5c:	97b6                	add	a5,a5,a3
     f5e:	bf79                	j	efc <NVIC_Init+0x10>
     f60:	03e68693          	addi	a3,a3,62 # e000e03e <_eusrstack+0xc000603e>
     f64:	068a                	slli	a3,a3,0x2
     f66:	97b6                	add	a5,a5,a3
     f68:	0ff7f793          	andi	a5,a5,255
     f6c:	0792                	slli	a5,a5,0x4
     f6e:	b765                	j	f16 <NVIC_Init+0x2a>
     f70:	4390                	lw	a2,0(a5)
     f72:	468d                	li	a3,3
     f74:	00d61e63          	bne	a2,a3,f90 <NVIC_Init+0xa4>
     f78:	00154683          	lbu	a3,1(a0)
     f7c:	00254783          	lbu	a5,2(a0)
     f80:	00d66463          	bltu	a2,a3,f88 <NVIC_Init+0x9c>
     f84:	0686                	slli	a3,a3,0x1
     f86:	bfd9                	j	f5c <NVIC_Init+0x70>
     f88:	07c68693          	addi	a3,a3,124
     f8c:	0686                	slli	a3,a3,0x1
     f8e:	bfe1                	j	f66 <NVIC_Init+0x7a>
     f90:	4394                	lw	a3,0(a5)
     f92:	4791                	li	a5,4
     f94:	f8f69ae3          	bne	a3,a5,f28 <NVIC_Init+0x3c>
     f98:	00154783          	lbu	a5,1(a0)
     f9c:	b785                	j	efc <NVIC_Init+0x10>
     f9e:	06078793          	addi	a5,a5,96
     fa2:	bf61                	j	f3a <NVIC_Init+0x4e>

00000fa4 <RCC_ADCCLKConfig>:
     fa4:	400216b7          	lui	a3,0x40021
     fa8:	42dc                	lw	a5,4(a3)
     faa:	7751                	lui	a4,0xffff4
     fac:	177d                	addi	a4,a4,-1
     fae:	8ff9                	and	a5,a5,a4
     fb0:	8d5d                	or	a0,a0,a5
     fb2:	c2c8                	sw	a0,4(a3)
     fb4:	8082                	ret

00000fb6 <RCC_GetClocksFreq>:
     fb6:	40021737          	lui	a4,0x40021
     fba:	435c                	lw	a5,4(a4)
     fbc:	4691                	li	a3,4
     fbe:	8bb1                	andi	a5,a5,12
     fc0:	00d78563          	beq	a5,a3,fca <RCC_GetClocksFreq+0x14>
     fc4:	46a1                	li	a3,8
     fc6:	06d78663          	beq	a5,a3,1032 <RCC_GetClocksFreq+0x7c>
     fca:	007a17b7          	lui	a5,0x7a1
     fce:	20078793          	addi	a5,a5,512 # 7a1200 <_data_lma+0x797404>
     fd2:	c11c                	sw	a5,0(a0)
     fd4:	40021637          	lui	a2,0x40021
     fd8:	425c                	lw	a5,4(a2)
     fda:	20000737          	lui	a4,0x20000
     fde:	00070713          	mv	a4,a4
     fe2:	8391                	srli	a5,a5,0x4
     fe4:	8bbd                	andi	a5,a5,15
     fe6:	97ba                	add	a5,a5,a4
     fe8:	0007c683          	lbu	a3,0(a5)
     fec:	411c                	lw	a5,0(a0)
     fee:	00d7d7b3          	srl	a5,a5,a3
     ff2:	c15c                	sw	a5,4(a0)
     ff4:	4254                	lw	a3,4(a2)
     ff6:	82a1                	srli	a3,a3,0x8
     ff8:	8a9d                	andi	a3,a3,7
     ffa:	96ba                	add	a3,a3,a4
     ffc:	0006c683          	lbu	a3,0(a3) # 40021000 <_eusrstack+0x20019000>
    1000:	00d7d6b3          	srl	a3,a5,a3
    1004:	c514                	sw	a3,8(a0)
    1006:	4254                	lw	a3,4(a2)
    1008:	82ad                	srli	a3,a3,0xb
    100a:	8a9d                	andi	a3,a3,7
    100c:	9736                	add	a4,a4,a3
    100e:	00074703          	lbu	a4,0(a4) # 20000000 <_data_vma>
    1012:	00e7d7b3          	srl	a5,a5,a4
    1016:	c55c                	sw	a5,12(a0)
    1018:	4258                	lw	a4,4(a2)
    101a:	8339                	srli	a4,a4,0xe
    101c:	00377693          	andi	a3,a4,3
    1020:	80c18713          	addi	a4,gp,-2036 # 200000c4 <ADCPrescTable>
    1024:	9736                	add	a4,a4,a3
    1026:	00074703          	lbu	a4,0(a4)
    102a:	02e7d7b3          	divu	a5,a5,a4
    102e:	c91c                	sw	a5,16(a0)
    1030:	8082                	ret
    1032:	435c                	lw	a5,4(a4)
    1034:	4354                	lw	a3,4(a4)
    1036:	6741                	lui	a4,0x10
    1038:	83c9                	srli	a5,a5,0x12
    103a:	8ef9                	and	a3,a3,a4
    103c:	1ffff737          	lui	a4,0x1ffff
    1040:	70c72703          	lw	a4,1804(a4) # 1ffff70c <_data_lma+0x1fff5910>
    1044:	8bbd                	andi	a5,a5,15
    1046:	0789                	addi	a5,a5,2
    1048:	01171613          	slli	a2,a4,0x11
    104c:	00064863          	bltz	a2,105c <RCC_GetClocksFreq+0xa6>
    1050:	4645                	li	a2,17
    1052:	4701                	li	a4,0
    1054:	02c79263          	bne	a5,a2,1078 <RCC_GetClocksFreq+0xc2>
    1058:	47c9                	li	a5,18
    105a:	a839                	j	1078 <RCC_GetClocksFreq+0xc2>
    105c:	4709                	li	a4,2
    105e:	02e78963          	beq	a5,a4,1090 <RCC_GetClocksFreq+0xda>
    1062:	473d                	li	a4,15
    1064:	02e78863          	beq	a5,a4,1094 <RCC_GetClocksFreq+0xde>
    1068:	4741                	li	a4,16
    106a:	02e78863          	beq	a5,a4,109a <RCC_GetClocksFreq+0xe4>
    106e:	4645                	li	a2,17
    1070:	4701                	li	a4,0
    1072:	00c79363          	bne	a5,a2,1078 <RCC_GetClocksFreq+0xc2>
    1076:	47c1                	li	a5,16
    1078:	e685                	bnez	a3,10a0 <RCC_GetClocksFreq+0xea>
    107a:	400246b7          	lui	a3,0x40024
    107e:	8006a683          	lw	a3,-2048(a3) # 40023800 <_eusrstack+0x2001b800>
    1082:	8ac1                	andi	a3,a3,16
    1084:	c68d                	beqz	a3,10ae <RCC_GetClocksFreq+0xf8>
    1086:	007a16b7          	lui	a3,0x7a1
    108a:	20068693          	addi	a3,a3,512 # 7a1200 <_data_lma+0x797404>
    108e:	a025                	j	10b6 <RCC_GetClocksFreq+0x100>
    1090:	4701                	li	a4,0
    1092:	b7d9                	j	1058 <RCC_GetClocksFreq+0xa2>
    1094:	4705                	li	a4,1
    1096:	47b5                	li	a5,13
    1098:	b7c5                	j	1078 <RCC_GetClocksFreq+0xc2>
    109a:	4701                	li	a4,0
    109c:	47bd                	li	a5,15
    109e:	bfe9                	j	1078 <RCC_GetClocksFreq+0xc2>
    10a0:	400216b7          	lui	a3,0x40021
    10a4:	42d4                	lw	a3,4(a3)
    10a6:	00e69613          	slli	a2,a3,0xe
    10aa:	fc065ee3          	bgez	a2,1086 <RCC_GetClocksFreq+0xd0>
    10ae:	003d16b7          	lui	a3,0x3d1
    10b2:	90068693          	addi	a3,a3,-1792 # 3d0900 <_data_lma+0x3c6b04>
    10b6:	02d787b3          	mul	a5,a5,a3
    10ba:	c11c                	sw	a5,0(a0)
    10bc:	df01                	beqz	a4,fd4 <RCC_GetClocksFreq+0x1e>
    10be:	411c                	lw	a5,0(a0)
    10c0:	8385                	srli	a5,a5,0x1
    10c2:	bf01                	j	fd2 <RCC_GetClocksFreq+0x1c>

000010c4 <RCC_AHBPeriphClockCmd>:
    10c4:	c599                	beqz	a1,10d2 <RCC_AHBPeriphClockCmd+0xe>
    10c6:	40021737          	lui	a4,0x40021
    10ca:	4b5c                	lw	a5,20(a4)
    10cc:	8d5d                	or	a0,a0,a5
    10ce:	cb48                	sw	a0,20(a4)
    10d0:	8082                	ret
    10d2:	400217b7          	lui	a5,0x40021
    10d6:	4bd8                	lw	a4,20(a5)
    10d8:	fff54513          	not	a0,a0
    10dc:	8d79                	and	a0,a0,a4
    10de:	cbc8                	sw	a0,20(a5)
    10e0:	8082                	ret

000010e2 <RCC_APB2PeriphClockCmd>:
    10e2:	c599                	beqz	a1,10f0 <RCC_APB2PeriphClockCmd+0xe>
    10e4:	40021737          	lui	a4,0x40021
    10e8:	4f1c                	lw	a5,24(a4)
    10ea:	8d5d                	or	a0,a0,a5
    10ec:	cf08                	sw	a0,24(a4)
    10ee:	8082                	ret
    10f0:	400217b7          	lui	a5,0x40021
    10f4:	4f98                	lw	a4,24(a5)
    10f6:	fff54513          	not	a0,a0
    10fa:	8d79                	and	a0,a0,a4
    10fc:	cf88                	sw	a0,24(a5)
    10fe:	8082                	ret

00001100 <RCC_APB1PeriphClockCmd>:
    1100:	c599                	beqz	a1,110e <RCC_APB1PeriphClockCmd+0xe>
    1102:	40021737          	lui	a4,0x40021
    1106:	4f5c                	lw	a5,28(a4)
    1108:	8d5d                	or	a0,a0,a5
    110a:	cf48                	sw	a0,28(a4)
    110c:	8082                	ret
    110e:	400217b7          	lui	a5,0x40021
    1112:	4fd8                	lw	a4,28(a5)
    1114:	fff54513          	not	a0,a0
    1118:	8d79                	and	a0,a0,a4
    111a:	cfc8                	sw	a0,28(a5)
    111c:	8082                	ret

0000111e <RCC_APB2PeriphResetCmd>:
    111e:	c599                	beqz	a1,112c <RCC_APB2PeriphResetCmd+0xe>
    1120:	40021737          	lui	a4,0x40021
    1124:	475c                	lw	a5,12(a4)
    1126:	8d5d                	or	a0,a0,a5
    1128:	c748                	sw	a0,12(a4)
    112a:	8082                	ret
    112c:	400217b7          	lui	a5,0x40021
    1130:	47d8                	lw	a4,12(a5)
    1132:	fff54513          	not	a0,a0
    1136:	8d79                	and	a0,a0,a4
    1138:	c7c8                	sw	a0,12(a5)
    113a:	8082                	ret

0000113c <TIM_TimeBaseInit>:
    113c:	00055783          	lhu	a5,0(a0)
    1140:	40013737          	lui	a4,0x40013
    1144:	c0070693          	addi	a3,a4,-1024 # 40012c00 <_eusrstack+0x2000ac00>
    1148:	07c2                	slli	a5,a5,0x10
    114a:	83c1                	srli	a5,a5,0x10
    114c:	04d50063          	beq	a0,a3,118c <TIM_TimeBaseInit+0x50>
    1150:	400006b7          	lui	a3,0x40000
    1154:	02d50c63          	beq	a0,a3,118c <TIM_TimeBaseInit+0x50>
    1158:	40068693          	addi	a3,a3,1024 # 40000400 <_eusrstack+0x1fff8400>
    115c:	02d50863          	beq	a0,a3,118c <TIM_TimeBaseInit+0x50>
    1160:	400016b7          	lui	a3,0x40001
    1164:	80068613          	addi	a2,a3,-2048 # 40000800 <_eusrstack+0x1fff8800>
    1168:	02c50263          	beq	a0,a2,118c <TIM_TimeBaseInit+0x50>
    116c:	c0068693          	addi	a3,a3,-1024
    1170:	00d50e63          	beq	a0,a3,118c <TIM_TimeBaseInit+0x50>
    1174:	40070713          	addi	a4,a4,1024
    1178:	00e50a63          	beq	a0,a4,118c <TIM_TimeBaseInit+0x50>
    117c:	40015737          	lui	a4,0x40015
    1180:	c0070693          	addi	a3,a4,-1024 # 40014c00 <_eusrstack+0x2000cc00>
    1184:	00d50463          	beq	a0,a3,118c <TIM_TimeBaseInit+0x50>
    1188:	00e51763          	bne	a0,a4,1196 <TIM_TimeBaseInit+0x5a>
    118c:	0025d703          	lhu	a4,2(a1)
    1190:	f8f7f793          	andi	a5,a5,-113
    1194:	8fd9                	or	a5,a5,a4
    1196:	40001737          	lui	a4,0x40001
    119a:	00e50d63          	beq	a0,a4,11b4 <TIM_TimeBaseInit+0x78>
    119e:	40070713          	addi	a4,a4,1024 # 40001400 <_eusrstack+0x1fff9400>
    11a2:	00e50963          	beq	a0,a4,11b4 <TIM_TimeBaseInit+0x78>
    11a6:	cff7f793          	andi	a5,a5,-769
    11aa:	0065d703          	lhu	a4,6(a1)
    11ae:	07c2                	slli	a5,a5,0x10
    11b0:	83c1                	srli	a5,a5,0x10
    11b2:	8fd9                	or	a5,a5,a4
    11b4:	00f51023          	sh	a5,0(a0)
    11b8:	0045d783          	lhu	a5,4(a1)
    11bc:	02f51623          	sh	a5,44(a0)
    11c0:	0005d783          	lhu	a5,0(a1)
    11c4:	02f51423          	sh	a5,40(a0)
    11c8:	400137b7          	lui	a5,0x40013
    11cc:	c0078713          	addi	a4,a5,-1024 # 40012c00 <_eusrstack+0x2000ac00>
    11d0:	00e50e63          	beq	a0,a4,11ec <TIM_TimeBaseInit+0xb0>
    11d4:	40078793          	addi	a5,a5,1024
    11d8:	00f50a63          	beq	a0,a5,11ec <TIM_TimeBaseInit+0xb0>
    11dc:	400157b7          	lui	a5,0x40015
    11e0:	c0078713          	addi	a4,a5,-1024 # 40014c00 <_eusrstack+0x2000cc00>
    11e4:	00e50463          	beq	a0,a4,11ec <TIM_TimeBaseInit+0xb0>
    11e8:	00f51663          	bne	a0,a5,11f4 <TIM_TimeBaseInit+0xb8>
    11ec:	0085c783          	lbu	a5,8(a1)
    11f0:	02f51823          	sh	a5,48(a0)
    11f4:	4785                	li	a5,1
    11f6:	00f51a23          	sh	a5,20(a0)
    11fa:	8082                	ret

000011fc <TIM_OC1Init>:
    11fc:	02055783          	lhu	a5,32(a0)
    1200:	0005d603          	lhu	a2,0(a1)
    1204:	0025d803          	lhu	a6,2(a1)
    1208:	07c2                	slli	a5,a5,0x10
    120a:	83c1                	srli	a5,a5,0x10
    120c:	9bf9                	andi	a5,a5,-2
    120e:	07c2                	slli	a5,a5,0x10
    1210:	83c1                	srli	a5,a5,0x10
    1212:	02f51023          	sh	a5,32(a0)
    1216:	02055783          	lhu	a5,32(a0)
    121a:	00455683          	lhu	a3,4(a0)
    121e:	01855703          	lhu	a4,24(a0)
    1222:	07c2                	slli	a5,a5,0x10
    1224:	83c1                	srli	a5,a5,0x10
    1226:	0742                	slli	a4,a4,0x10
    1228:	8341                	srli	a4,a4,0x10
    122a:	f8c77713          	andi	a4,a4,-116
    122e:	8f51                	or	a4,a4,a2
    1230:	0085d603          	lhu	a2,8(a1)
    1234:	9bf5                	andi	a5,a5,-3
    1236:	06c2                	slli	a3,a3,0x10
    1238:	01066633          	or	a2,a2,a6
    123c:	8fd1                	or	a5,a5,a2
    123e:	40013637          	lui	a2,0x40013
    1242:	c0060813          	addi	a6,a2,-1024 # 40012c00 <_eusrstack+0x2000ac00>
    1246:	82c1                	srli	a3,a3,0x10
    1248:	01050e63          	beq	a0,a6,1264 <TIM_OC1Init+0x68>
    124c:	40060613          	addi	a2,a2,1024
    1250:	00c50a63          	beq	a0,a2,1264 <TIM_OC1Init+0x68>
    1254:	40015637          	lui	a2,0x40015
    1258:	c0060813          	addi	a6,a2,-1024 # 40014c00 <_eusrstack+0x2000cc00>
    125c:	01050463          	beq	a0,a6,1264 <TIM_OC1Init+0x68>
    1260:	02c51363          	bne	a0,a2,1286 <TIM_OC1Init+0x8a>
    1264:	00a5d603          	lhu	a2,10(a1)
    1268:	9bdd                	andi	a5,a5,-9
    126a:	00e5d803          	lhu	a6,14(a1)
    126e:	8fd1                	or	a5,a5,a2
    1270:	0045d603          	lhu	a2,4(a1)
    1274:	9bed                	andi	a5,a5,-5
    1276:	cff6f693          	andi	a3,a3,-769
    127a:	8fd1                	or	a5,a5,a2
    127c:	00c5d603          	lhu	a2,12(a1)
    1280:	01066633          	or	a2,a2,a6
    1284:	8ed1                	or	a3,a3,a2
    1286:	00d51223          	sh	a3,4(a0)
    128a:	00e51c23          	sh	a4,24(a0)
    128e:	0065d703          	lhu	a4,6(a1)
    1292:	02e51a23          	sh	a4,52(a0)
    1296:	02f51023          	sh	a5,32(a0)
    129a:	8082                	ret

0000129c <TIM_OC2Init>:
    129c:	02055783          	lhu	a5,32(a0)
    12a0:	7765                	lui	a4,0xffff9
    12a2:	cff70713          	addi	a4,a4,-769 # ffff8cff <_eusrstack+0xdfff0cff>
    12a6:	07c2                	slli	a5,a5,0x10
    12a8:	83c1                	srli	a5,a5,0x10
    12aa:	9bbd                	andi	a5,a5,-17
    12ac:	07c2                	slli	a5,a5,0x10
    12ae:	83c1                	srli	a5,a5,0x10
    12b0:	02f51023          	sh	a5,32(a0)
    12b4:	02055783          	lhu	a5,32(a0)
    12b8:	00455683          	lhu	a3,4(a0)
    12bc:	0085d803          	lhu	a6,8(a1)
    12c0:	07c2                	slli	a5,a5,0x10
    12c2:	01069613          	slli	a2,a3,0x10
    12c6:	01855683          	lhu	a3,24(a0)
    12ca:	83c1                	srli	a5,a5,0x10
    12cc:	fdf7f793          	andi	a5,a5,-33
    12d0:	8f75                	and	a4,a4,a3
    12d2:	0005d683          	lhu	a3,0(a1)
    12d6:	8241                	srli	a2,a2,0x10
    12d8:	06a2                	slli	a3,a3,0x8
    12da:	8f55                	or	a4,a4,a3
    12dc:	0025d683          	lhu	a3,2(a1)
    12e0:	0742                	slli	a4,a4,0x10
    12e2:	8341                	srli	a4,a4,0x10
    12e4:	0106e6b3          	or	a3,a3,a6
    12e8:	0692                	slli	a3,a3,0x4
    12ea:	8fd5                	or	a5,a5,a3
    12ec:	400136b7          	lui	a3,0x40013
    12f0:	07c2                	slli	a5,a5,0x10
    12f2:	c0068813          	addi	a6,a3,-1024 # 40012c00 <_eusrstack+0x2000ac00>
    12f6:	83c1                	srli	a5,a5,0x10
    12f8:	01050e63          	beq	a0,a6,1314 <TIM_OC2Init+0x78>
    12fc:	40068693          	addi	a3,a3,1024
    1300:	00d50a63          	beq	a0,a3,1314 <TIM_OC2Init+0x78>
    1304:	400156b7          	lui	a3,0x40015
    1308:	c0068813          	addi	a6,a3,-1024 # 40014c00 <_eusrstack+0x2000cc00>
    130c:	01050463          	beq	a0,a6,1314 <TIM_OC2Init+0x78>
    1310:	04d51163          	bne	a0,a3,1352 <TIM_OC2Init+0xb6>
    1314:	00a5d683          	lhu	a3,10(a1)
    1318:	f7f7f793          	andi	a5,a5,-129
    131c:	00c5d803          	lhu	a6,12(a1)
    1320:	0692                	slli	a3,a3,0x4
    1322:	8fd5                	or	a5,a5,a3
    1324:	0045d683          	lhu	a3,4(a1)
    1328:	07c2                	slli	a5,a5,0x10
    132a:	83c1                	srli	a5,a5,0x10
    132c:	0692                	slli	a3,a3,0x4
    132e:	fbf7f793          	andi	a5,a5,-65
    1332:	8fd5                	or	a5,a5,a3
    1334:	76fd                	lui	a3,0xfffff
    1336:	3ff68693          	addi	a3,a3,1023 # fffff3ff <_eusrstack+0xdfff73ff>
    133a:	8ef1                	and	a3,a3,a2
    133c:	00e5d603          	lhu	a2,14(a1)
    1340:	07c2                	slli	a5,a5,0x10
    1342:	83c1                	srli	a5,a5,0x10
    1344:	01066633          	or	a2,a2,a6
    1348:	060a                	slli	a2,a2,0x2
    134a:	8ed1                	or	a3,a3,a2
    134c:	01069613          	slli	a2,a3,0x10
    1350:	8241                	srli	a2,a2,0x10
    1352:	00c51223          	sh	a2,4(a0)
    1356:	00e51c23          	sh	a4,24(a0)
    135a:	0065d703          	lhu	a4,6(a1)
    135e:	02e51c23          	sh	a4,56(a0)
    1362:	02f51023          	sh	a5,32(a0)
    1366:	8082                	ret

00001368 <TIM_OC3Init>:
    1368:	02055783          	lhu	a5,32(a0)
    136c:	0085d803          	lhu	a6,8(a1)
    1370:	07c2                	slli	a5,a5,0x10
    1372:	83c1                	srli	a5,a5,0x10
    1374:	eff7f793          	andi	a5,a5,-257
    1378:	07c2                	slli	a5,a5,0x10
    137a:	83c1                	srli	a5,a5,0x10
    137c:	02f51023          	sh	a5,32(a0)
    1380:	02055783          	lhu	a5,32(a0)
    1384:	00455683          	lhu	a3,4(a0)
    1388:	01c55703          	lhu	a4,28(a0)
    138c:	07c2                	slli	a5,a5,0x10
    138e:	01069613          	slli	a2,a3,0x10
    1392:	0742                	slli	a4,a4,0x10
    1394:	0005d683          	lhu	a3,0(a1)
    1398:	8341                	srli	a4,a4,0x10
    139a:	f8c77713          	andi	a4,a4,-116
    139e:	8f55                	or	a4,a4,a3
    13a0:	0025d683          	lhu	a3,2(a1)
    13a4:	83c1                	srli	a5,a5,0x10
    13a6:	dff7f793          	andi	a5,a5,-513
    13aa:	0106e6b3          	or	a3,a3,a6
    13ae:	06a2                	slli	a3,a3,0x8
    13b0:	8fd5                	or	a5,a5,a3
    13b2:	400136b7          	lui	a3,0x40013
    13b6:	07c2                	slli	a5,a5,0x10
    13b8:	c0068813          	addi	a6,a3,-1024 # 40012c00 <_eusrstack+0x2000ac00>
    13bc:	8241                	srli	a2,a2,0x10
    13be:	83c1                	srli	a5,a5,0x10
    13c0:	01050e63          	beq	a0,a6,13dc <TIM_OC3Init+0x74>
    13c4:	40068693          	addi	a3,a3,1024
    13c8:	00d50a63          	beq	a0,a3,13dc <TIM_OC3Init+0x74>
    13cc:	400156b7          	lui	a3,0x40015
    13d0:	c0068813          	addi	a6,a3,-1024 # 40014c00 <_eusrstack+0x2000cc00>
    13d4:	01050463          	beq	a0,a6,13dc <TIM_OC3Init+0x74>
    13d8:	04d51263          	bne	a0,a3,141c <TIM_OC3Init+0xb4>
    13dc:	76fd                	lui	a3,0xfffff
    13de:	7ff68693          	addi	a3,a3,2047 # fffff7ff <_eusrstack+0xdfff77ff>
    13e2:	8ff5                	and	a5,a5,a3
    13e4:	00a5d683          	lhu	a3,10(a1)
    13e8:	00c5d803          	lhu	a6,12(a1)
    13ec:	06a2                	slli	a3,a3,0x8
    13ee:	8fd5                	or	a5,a5,a3
    13f0:	0045d683          	lhu	a3,4(a1)
    13f4:	07c2                	slli	a5,a5,0x10
    13f6:	83c1                	srli	a5,a5,0x10
    13f8:	06a2                	slli	a3,a3,0x8
    13fa:	bff7f793          	andi	a5,a5,-1025
    13fe:	8fd5                	or	a5,a5,a3
    1400:	76f5                	lui	a3,0xffffd
    1402:	16fd                	addi	a3,a3,-1
    1404:	8ef1                	and	a3,a3,a2
    1406:	00e5d603          	lhu	a2,14(a1)
    140a:	07c2                	slli	a5,a5,0x10
    140c:	83c1                	srli	a5,a5,0x10
    140e:	01066633          	or	a2,a2,a6
    1412:	0612                	slli	a2,a2,0x4
    1414:	8ed1                	or	a3,a3,a2
    1416:	01069613          	slli	a2,a3,0x10
    141a:	8241                	srli	a2,a2,0x10
    141c:	00c51223          	sh	a2,4(a0)
    1420:	00e51e23          	sh	a4,28(a0)
    1424:	0065d703          	lhu	a4,6(a1)
    1428:	02e51e23          	sh	a4,60(a0)
    142c:	02f51023          	sh	a5,32(a0)
    1430:	8082                	ret

00001432 <TIM_OC4Init>:
    1432:	02055703          	lhu	a4,32(a0)
    1436:	77fd                	lui	a5,0xfffff
    1438:	17fd                	addi	a5,a5,-1
    143a:	8ff9                	and	a5,a5,a4
    143c:	02f51023          	sh	a5,32(a0)
    1440:	02055803          	lhu	a6,32(a0)
    1444:	00455683          	lhu	a3,4(a0)
    1448:	01c55783          	lhu	a5,28(a0)
    144c:	7765                	lui	a4,0xffff9
    144e:	01069613          	slli	a2,a3,0x10
    1452:	0005d683          	lhu	a3,0(a1)
    1456:	cff70713          	addi	a4,a4,-769 # ffff8cff <_eusrstack+0xdfff0cff>
    145a:	8f7d                	and	a4,a4,a5
    145c:	77f9                	lui	a5,0xffffe
    145e:	06a2                	slli	a3,a3,0x8
    1460:	17fd                	addi	a5,a5,-1
    1462:	8f55                	or	a4,a4,a3
    1464:	0107f7b3          	and	a5,a5,a6
    1468:	0025d683          	lhu	a3,2(a1)
    146c:	0085d803          	lhu	a6,8(a1)
    1470:	0742                	slli	a4,a4,0x10
    1472:	8241                	srli	a2,a2,0x10
    1474:	0106e6b3          	or	a3,a3,a6
    1478:	06b2                	slli	a3,a3,0xc
    147a:	8fd5                	or	a5,a5,a3
    147c:	400136b7          	lui	a3,0x40013
    1480:	07c2                	slli	a5,a5,0x10
    1482:	c0068813          	addi	a6,a3,-1024 # 40012c00 <_eusrstack+0x2000ac00>
    1486:	8341                	srli	a4,a4,0x10
    1488:	83c1                	srli	a5,a5,0x10
    148a:	01050e63          	beq	a0,a6,14a6 <TIM_OC4Init+0x74>
    148e:	40068693          	addi	a3,a3,1024
    1492:	00d50a63          	beq	a0,a3,14a6 <TIM_OC4Init+0x74>
    1496:	400156b7          	lui	a3,0x40015
    149a:	c0068813          	addi	a6,a3,-1024 # 40014c00 <_eusrstack+0x2000cc00>
    149e:	01050463          	beq	a0,a6,14a6 <TIM_OC4Init+0x74>
    14a2:	00d51c63          	bne	a0,a3,14ba <TIM_OC4Init+0x88>
    14a6:	76f1                	lui	a3,0xffffc
    14a8:	16fd                	addi	a3,a3,-1
    14aa:	8ef1                	and	a3,a3,a2
    14ac:	00c5d603          	lhu	a2,12(a1)
    14b0:	061a                	slli	a2,a2,0x6
    14b2:	8ed1                	or	a3,a3,a2
    14b4:	01069613          	slli	a2,a3,0x10
    14b8:	8241                	srli	a2,a2,0x10
    14ba:	00c51223          	sh	a2,4(a0)
    14be:	00e51e23          	sh	a4,28(a0)
    14c2:	0065d703          	lhu	a4,6(a1)
    14c6:	04e51023          	sh	a4,64(a0)
    14ca:	02f51023          	sh	a5,32(a0)
    14ce:	8082                	ret

000014d0 <TIM_Cmd>:
    14d0:	00055783          	lhu	a5,0(a0)
    14d4:	c591                	beqz	a1,14e0 <TIM_Cmd+0x10>
    14d6:	0017e793          	ori	a5,a5,1
    14da:	00f51023          	sh	a5,0(a0)
    14de:	8082                	ret
    14e0:	07c2                	slli	a5,a5,0x10
    14e2:	83c1                	srli	a5,a5,0x10
    14e4:	9bf9                	andi	a5,a5,-2
    14e6:	07c2                	slli	a5,a5,0x10
    14e8:	83c1                	srli	a5,a5,0x10
    14ea:	bfc5                	j	14da <TIM_Cmd+0xa>

000014ec <TIM_CtrlPWMOutputs>:
    14ec:	04455783          	lhu	a5,68(a0)
    14f0:	c591                	beqz	a1,14fc <TIM_CtrlPWMOutputs+0x10>
    14f2:	6721                	lui	a4,0x8
    14f4:	8fd9                	or	a5,a5,a4
    14f6:	04f51223          	sh	a5,68(a0)
    14fa:	8082                	ret
    14fc:	07c6                	slli	a5,a5,0x11
    14fe:	83c5                	srli	a5,a5,0x11
    1500:	bfdd                	j	14f6 <TIM_CtrlPWMOutputs+0xa>

00001502 <TIM_ITConfig>:
    1502:	00c55783          	lhu	a5,12(a0)
    1506:	c609                	beqz	a2,1510 <TIM_ITConfig+0xe>
    1508:	8ddd                	or	a1,a1,a5
    150a:	00b51623          	sh	a1,12(a0)
    150e:	8082                	ret
    1510:	fff5c593          	not	a1,a1
    1514:	8dfd                	and	a1,a1,a5
    1516:	bfd5                	j	150a <TIM_ITConfig+0x8>

00001518 <TIM_ARRPreloadConfig>:
    1518:	00055783          	lhu	a5,0(a0)
    151c:	c591                	beqz	a1,1528 <TIM_ARRPreloadConfig+0x10>
    151e:	0807e793          	ori	a5,a5,128
    1522:	00f51023          	sh	a5,0(a0)
    1526:	8082                	ret
    1528:	07c2                	slli	a5,a5,0x10
    152a:	83c1                	srli	a5,a5,0x10
    152c:	f7f7f793          	andi	a5,a5,-129
    1530:	07c2                	slli	a5,a5,0x10
    1532:	83c1                	srli	a5,a5,0x10
    1534:	b7fd                	j	1522 <TIM_ARRPreloadConfig+0xa>

00001536 <TIM_OC1PreloadConfig>:
    1536:	01855783          	lhu	a5,24(a0)
    153a:	07c2                	slli	a5,a5,0x10
    153c:	83c1                	srli	a5,a5,0x10
    153e:	9bdd                	andi	a5,a5,-9
    1540:	8ddd                	or	a1,a1,a5
    1542:	00b51c23          	sh	a1,24(a0)
    1546:	8082                	ret

00001548 <TIM_OC2PreloadConfig>:
    1548:	01855703          	lhu	a4,24(a0)
    154c:	77fd                	lui	a5,0xfffff
    154e:	7ff78793          	addi	a5,a5,2047 # fffff7ff <_eusrstack+0xdfff77ff>
    1552:	8ff9                	and	a5,a5,a4
    1554:	05a2                	slli	a1,a1,0x8
    1556:	8fcd                	or	a5,a5,a1
    1558:	07c2                	slli	a5,a5,0x10
    155a:	83c1                	srli	a5,a5,0x10
    155c:	00f51c23          	sh	a5,24(a0)
    1560:	8082                	ret

00001562 <TIM_OC3PreloadConfig>:
    1562:	01c55783          	lhu	a5,28(a0)
    1566:	07c2                	slli	a5,a5,0x10
    1568:	83c1                	srli	a5,a5,0x10
    156a:	9bdd                	andi	a5,a5,-9
    156c:	8ddd                	or	a1,a1,a5
    156e:	00b51e23          	sh	a1,28(a0)
    1572:	8082                	ret

00001574 <TIM_OC4PreloadConfig>:
    1574:	01c55703          	lhu	a4,28(a0)
    1578:	77fd                	lui	a5,0xfffff
    157a:	7ff78793          	addi	a5,a5,2047 # fffff7ff <_eusrstack+0xdfff77ff>
    157e:	8ff9                	and	a5,a5,a4
    1580:	05a2                	slli	a1,a1,0x8
    1582:	8fcd                	or	a5,a5,a1
    1584:	07c2                	slli	a5,a5,0x10
    1586:	83c1                	srli	a5,a5,0x10
    1588:	00f51e23          	sh	a5,28(a0)
    158c:	8082                	ret

0000158e <TIM_SetCompare1>:
    158e:	02b51a23          	sh	a1,52(a0)
    1592:	8082                	ret

00001594 <TIM_SetCompare2>:
    1594:	02b51c23          	sh	a1,56(a0)
    1598:	8082                	ret

0000159a <TIM_SetCompare3>:
    159a:	02b51e23          	sh	a1,60(a0)
    159e:	8082                	ret

000015a0 <TIM_SetCompare4>:
    15a0:	04b51023          	sh	a1,64(a0)
    15a4:	8082                	ret

000015a6 <TIM_GetCapture1>:
    15a6:	03455503          	lhu	a0,52(a0)
    15aa:	8082                	ret

000015ac <TIM_GetCapture2>:
    15ac:	03855503          	lhu	a0,56(a0)
    15b0:	8082                	ret

000015b2 <TIM_GetCapture3>:
    15b2:	03c55503          	lhu	a0,60(a0)
    15b6:	8082                	ret

000015b8 <TIM_GetCapture4>:
    15b8:	04055503          	lhu	a0,64(a0)
    15bc:	8082                	ret

000015be <TIM_ClearFlag>:
    15be:	fff5c593          	not	a1,a1
    15c2:	05c2                	slli	a1,a1,0x10
    15c4:	81c1                	srli	a1,a1,0x10
    15c6:	00b51823          	sh	a1,16(a0)
    15ca:	8082                	ret

000015cc <USART_Init>:
    15cc:	01055683          	lhu	a3,16(a0)
    15d0:	77f5                	lui	a5,0xffffd
    15d2:	17fd                	addi	a5,a5,-1
    15d4:	8ff5                	and	a5,a5,a3
    15d6:	0065d683          	lhu	a3,6(a1)
    15da:	7139                	addi	sp,sp,-64
    15dc:	dc22                	sw	s0,56(sp)
    15de:	de06                	sw	ra,60(sp)
    15e0:	8fd5                	or	a5,a5,a3
    15e2:	00c5d703          	lhu	a4,12(a1)
    15e6:	00f51823          	sh	a5,16(a0)
    15ea:	00c55683          	lhu	a3,12(a0)
    15ee:	77fd                	lui	a5,0xfffff
    15f0:	9f378793          	addi	a5,a5,-1549 # ffffe9f3 <_eusrstack+0xdfff69f3>
    15f4:	8ff5                	and	a5,a5,a3
    15f6:	0045d683          	lhu	a3,4(a1)
    15fa:	842a                	mv	s0,a0
    15fc:	c62e                	sw	a1,12(sp)
    15fe:	8fd5                	or	a5,a5,a3
    1600:	0085d683          	lhu	a3,8(a1)
    1604:	8fd5                	or	a5,a5,a3
    1606:	00a5d683          	lhu	a3,10(a1)
    160a:	8fd5                	or	a5,a5,a3
    160c:	00f51623          	sh	a5,12(a0)
    1610:	01455783          	lhu	a5,20(a0)
    1614:	07c2                	slli	a5,a5,0x10
    1616:	83c1                	srli	a5,a5,0x10
    1618:	cff7f793          	andi	a5,a5,-769
    161c:	8fd9                	or	a5,a5,a4
    161e:	00f51a23          	sh	a5,20(a0)
    1622:	0868                	addi	a0,sp,28
    1624:	3a49                	jal	fb6 <RCC_GetClocksFreq>
    1626:	400147b7          	lui	a5,0x40014
    162a:	80078793          	addi	a5,a5,-2048 # 40013800 <_eusrstack+0x2000b800>
    162e:	45b2                	lw	a1,12(sp)
    1630:	04f41e63          	bne	s0,a5,168c <USART_Init+0xc0>
    1634:	57a2                	lw	a5,40(sp)
    1636:	00c45683          	lhu	a3,12(s0)
    163a:	4765                	li	a4,25
    163c:	02e787b3          	mul	a5,a5,a4
    1640:	06c2                	slli	a3,a3,0x10
    1642:	86c1                	srai	a3,a3,0x10
    1644:	4198                	lw	a4,0(a1)
    1646:	0406d563          	bgez	a3,1690 <USART_Init+0xc4>
    164a:	0706                	slli	a4,a4,0x1
    164c:	00c45603          	lhu	a2,12(s0)
    1650:	0642                	slli	a2,a2,0x10
    1652:	02e7d7b3          	divu	a5,a5,a4
    1656:	06400713          	li	a4,100
    165a:	8641                	srai	a2,a2,0x10
    165c:	02e7d6b3          	divu	a3,a5,a4
    1660:	02e7f7b3          	remu	a5,a5,a4
    1664:	0692                	slli	a3,a3,0x4
    1666:	02065763          	bgez	a2,1694 <USART_Init+0xc8>
    166a:	078e                	slli	a5,a5,0x3
    166c:	03278793          	addi	a5,a5,50
    1670:	02e7d7b3          	divu	a5,a5,a4
    1674:	0077f713          	andi	a4,a5,7
    1678:	00d767b3          	or	a5,a4,a3
    167c:	07c2                	slli	a5,a5,0x10
    167e:	83c1                	srli	a5,a5,0x10
    1680:	00f41423          	sh	a5,8(s0)
    1684:	50f2                	lw	ra,60(sp)
    1686:	5462                	lw	s0,56(sp)
    1688:	6121                	addi	sp,sp,64
    168a:	8082                	ret
    168c:	5792                	lw	a5,36(sp)
    168e:	b765                	j	1636 <USART_Init+0x6a>
    1690:	070a                	slli	a4,a4,0x2
    1692:	bf6d                	j	164c <USART_Init+0x80>
    1694:	0792                	slli	a5,a5,0x4
    1696:	03278793          	addi	a5,a5,50
    169a:	02e7d7b3          	divu	a5,a5,a4
    169e:	8bbd                	andi	a5,a5,15
    16a0:	8fd5                	or	a5,a5,a3
    16a2:	bfe9                	j	167c <USART_Init+0xb0>

000016a4 <USART_Cmd>:
    16a4:	c981                	beqz	a1,16b4 <USART_Cmd+0x10>
    16a6:	00c55783          	lhu	a5,12(a0)
    16aa:	6709                	lui	a4,0x2
    16ac:	8fd9                	or	a5,a5,a4
    16ae:	00f51623          	sh	a5,12(a0)
    16b2:	8082                	ret
    16b4:	00c55703          	lhu	a4,12(a0)
    16b8:	77f9                	lui	a5,0xffffe
    16ba:	17fd                	addi	a5,a5,-1
    16bc:	8ff9                	and	a5,a5,a4
    16be:	bfc5                	j	16ae <USART_Cmd+0xa>

000016c0 <USART_ITConfig>:
    16c0:	0ff5f713          	andi	a4,a1,255
    16c4:	4785                	li	a5,1
    16c6:	8315                	srli	a4,a4,0x5
    16c8:	00b795b3          	sll	a1,a5,a1
    16cc:	00f71963          	bne	a4,a5,16de <USART_ITConfig+0x1e>
    16d0:	00c50793          	addi	a5,a0,12
    16d4:	4398                	lw	a4,0(a5)
    16d6:	ce01                	beqz	a2,16ee <USART_ITConfig+0x2e>
    16d8:	8dd9                	or	a1,a1,a4
    16da:	c38c                	sw	a1,0(a5)
    16dc:	8082                	ret
    16de:	4689                	li	a3,2
    16e0:	01450793          	addi	a5,a0,20
    16e4:	fed718e3          	bne	a4,a3,16d4 <USART_ITConfig+0x14>
    16e8:	01050793          	addi	a5,a0,16
    16ec:	b7e5                	j	16d4 <USART_ITConfig+0x14>
    16ee:	fff5c593          	not	a1,a1
    16f2:	8df9                	and	a1,a1,a4
    16f4:	b7dd                	j	16da <USART_ITConfig+0x1a>

000016f6 <USART_SendData>:
    16f6:	1ff5f593          	andi	a1,a1,511
    16fa:	00b51223          	sh	a1,4(a0)
    16fe:	8082                	ret

00001700 <USART_ReceiveData>:
    1700:	00455503          	lhu	a0,4(a0)
    1704:	1ff57513          	andi	a0,a0,511
    1708:	8082                	ret

0000170a <USART_GetFlagStatus>:
    170a:	00055503          	lhu	a0,0(a0)
    170e:	8d6d                	and	a0,a0,a1
    1710:	00a03533          	snez	a0,a0
    1714:	8082                	ret

00001716 <USART_ClearFlag>:
    1716:	fff5c593          	not	a1,a1
    171a:	05c2                	slli	a1,a1,0x10
    171c:	81c1                	srli	a1,a1,0x10
    171e:	00b51023          	sh	a1,0(a0)
    1722:	8082                	ret

00001724 <USART_GetITStatus>:
    1724:	0ff5f713          	andi	a4,a1,255
    1728:	4685                	li	a3,1
    172a:	8315                	srli	a4,a4,0x5
    172c:	00b697b3          	sll	a5,a3,a1
    1730:	02d71363          	bne	a4,a3,1756 <USART_GetITStatus+0x32>
    1734:	00c55703          	lhu	a4,12(a0)
    1738:	8ff9                	and	a5,a5,a4
    173a:	00055703          	lhu	a4,0(a0)
    173e:	4501                	li	a0,0
    1740:	0742                	slli	a4,a4,0x10
    1742:	8341                	srli	a4,a4,0x10
    1744:	cb81                	beqz	a5,1754 <USART_GetITStatus+0x30>
    1746:	4505                	li	a0,1
    1748:	81a1                	srli	a1,a1,0x8
    174a:	00b515b3          	sll	a1,a0,a1
    174e:	8f6d                	and	a4,a4,a1
    1750:	00e03533          	snez	a0,a4
    1754:	8082                	ret
    1756:	4689                	li	a3,2
    1758:	00d71563          	bne	a4,a3,1762 <USART_GetITStatus+0x3e>
    175c:	01055703          	lhu	a4,16(a0)
    1760:	bfe1                	j	1738 <USART_GetITStatus+0x14>
    1762:	01455703          	lhu	a4,20(a0)
    1766:	bfc9                	j	1738 <USART_GetITStatus+0x14>

00001768 <get_st_biases>:
    1768:	7179                	addi	sp,sp,-48
    176a:	d422                	sw	s0,40(sp)
    176c:	20000437          	lui	s0,0x20000
    1770:	d226                	sw	s1,36(sp)
    1772:	4785                	li	a5,1
    1774:	01c40493          	addi	s1,s0,28 # 2000001c <st>
    1778:	4098                	lw	a4,0(s1)
    177a:	00f11223          	sh	a5,4(sp)
    177e:	40dc                	lw	a5,4(s1)
    1780:	d606                	sw	ra,44(sp)
    1782:	d04a                	sw	s2,32(sp)
    1784:	ce4e                	sw	s3,28(sp)
    1786:	cc52                	sw	s4,24(sp)
    1788:	89aa                	mv	s3,a0
    178a:	892e                	mv	s2,a1
    178c:	0007c503          	lbu	a0,0(a5) # ffffe000 <_eusrstack+0xdfff6000>
    1790:	01274583          	lbu	a1,18(a4) # 2012 <mpu_get_gyro_sens+0x22>
    1794:	0054                	addi	a3,sp,4
    1796:	8a32                	mv	s4,a2
    1798:	4609                	li	a2,2
    179a:	476020ef          	jal	ra,3c10 <MPU6050_I2C_Mem_Write>
    179e:	0c800513          	li	a0,200
    17a2:	693030ef          	jal	ra,5634 <Delay_Ms>
    17a6:	4098                	lw	a4,0(s1)
    17a8:	40dc                	lw	a5,4(s1)
    17aa:	00010223          	sb	zero,4(sp)
    17ae:	00f74583          	lbu	a1,15(a4)
    17b2:	0007c503          	lbu	a0,0(a5)
    17b6:	0054                	addi	a3,sp,4
    17b8:	4605                	li	a2,1
    17ba:	456020ef          	jal	ra,3c10 <MPU6050_I2C_Mem_Write>
    17be:	4098                	lw	a4,0(s1)
    17c0:	40dc                	lw	a5,4(s1)
    17c2:	0054                	addi	a3,sp,4
    17c4:	00574583          	lbu	a1,5(a4)
    17c8:	0007c503          	lbu	a0,0(a5)
    17cc:	4605                	li	a2,1
    17ce:	01c40413          	addi	s0,s0,28
    17d2:	43e020ef          	jal	ra,3c10 <MPU6050_I2C_Mem_Write>
    17d6:	4098                	lw	a4,0(s1)
    17d8:	40dc                	lw	a5,4(s1)
    17da:	0054                	addi	a3,sp,4
    17dc:	01274583          	lbu	a1,18(a4)
    17e0:	0007c503          	lbu	a0,0(a5)
    17e4:	4605                	li	a2,1
    17e6:	42a020ef          	jal	ra,3c10 <MPU6050_I2C_Mem_Write>
    17ea:	4098                	lw	a4,0(s1)
    17ec:	40dc                	lw	a5,4(s1)
    17ee:	0054                	addi	a3,sp,4
    17f0:	01774583          	lbu	a1,23(a4)
    17f4:	0007c503          	lbu	a0,0(a5)
    17f8:	4605                	li	a2,1
    17fa:	416020ef          	jal	ra,3c10 <MPU6050_I2C_Mem_Write>
    17fe:	4098                	lw	a4,0(s1)
    1800:	40dc                	lw	a5,4(s1)
    1802:	0054                	addi	a3,sp,4
    1804:	00474583          	lbu	a1,4(a4)
    1808:	0007c503          	lbu	a0,0(a5)
    180c:	4605                	li	a2,1
    180e:	402020ef          	jal	ra,3c10 <MPU6050_I2C_Mem_Write>
    1812:	47b1                	li	a5,12
    1814:	00f10223          	sb	a5,4(sp)
    1818:	4098                	lw	a4,0(s1)
    181a:	40dc                	lw	a5,4(s1)
    181c:	0054                	addi	a3,sp,4
    181e:	00474583          	lbu	a1,4(a4)
    1822:	0007c503          	lbu	a0,0(a5)
    1826:	4605                	li	a2,1
    1828:	3e8020ef          	jal	ra,3c10 <MPU6050_I2C_Mem_Write>
    182c:	453d                	li	a0,15
    182e:	607030ef          	jal	ra,5634 <Delay_Ms>
    1832:	549c                	lw	a5,40(s1)
    1834:	4098                	lw	a4,0(s1)
    1836:	0054                	addi	a3,sp,4
    1838:	0097c783          	lbu	a5,9(a5)
    183c:	4605                	li	a2,1
    183e:	00f10223          	sb	a5,4(sp)
    1842:	40dc                	lw	a5,4(s1)
    1844:	00274583          	lbu	a1,2(a4)
    1848:	0007c503          	lbu	a0,0(a5)
    184c:	3c4020ef          	jal	ra,3c10 <MPU6050_I2C_Mem_Write>
    1850:	549c                	lw	a5,40(s1)
    1852:	4098                	lw	a4,0(s1)
    1854:	0054                	addi	a3,sp,4
    1856:	0087c783          	lbu	a5,8(a5)
    185a:	4605                	li	a2,1
    185c:	00f10223          	sb	a5,4(sp)
    1860:	40dc                	lw	a5,4(s1)
    1862:	00174583          	lbu	a1,1(a4)
    1866:	0007c503          	lbu	a0,0(a5)
    186a:	3a6020ef          	jal	ra,3c10 <MPU6050_I2C_Mem_Write>
    186e:	541c                	lw	a5,40(s0)
    1870:	00a7c783          	lbu	a5,10(a5)
    1874:	000a0463          	beqz	s4,187c <get_st_biases+0x114>
    1878:	0e07e793          	ori	a5,a5,224
    187c:	00f10223          	sb	a5,4(sp)
    1880:	4018                	lw	a4,0(s0)
    1882:	405c                	lw	a5,4(s0)
    1884:	0054                	addi	a3,sp,4
    1886:	00674583          	lbu	a1,6(a4)
    188a:	0007c503          	lbu	a0,0(a5)
    188e:	4605                	li	a2,1
    1890:	380020ef          	jal	ra,3c10 <MPU6050_I2C_Mem_Write>
    1894:	47e1                	li	a5,24
    1896:	000a0763          	beqz	s4,18a4 <get_st_biases+0x13c>
    189a:	541c                	lw	a5,40(s0)
    189c:	00b7c783          	lbu	a5,11(a5)
    18a0:	0e07e793          	ori	a5,a5,224
    18a4:	00f10223          	sb	a5,4(sp)
    18a8:	4018                	lw	a4,0(s0)
    18aa:	405c                	lw	a5,4(s0)
    18ac:	0054                	addi	a3,sp,4
    18ae:	00774583          	lbu	a1,7(a4)
    18b2:	0007c503          	lbu	a0,0(a5)
    18b6:	4605                	li	a2,1
    18b8:	358020ef          	jal	ra,3c10 <MPU6050_I2C_Mem_Write>
    18bc:	000a0663          	beqz	s4,18c8 <get_st_biases+0x160>
    18c0:	0c800513          	li	a0,200
    18c4:	571030ef          	jal	ra,5634 <Delay_Ms>
    18c8:	04000793          	li	a5,64
    18cc:	00f10223          	sb	a5,4(sp)
    18d0:	4018                	lw	a4,0(s0)
    18d2:	405c                	lw	a5,4(s0)
    18d4:	0054                	addi	a3,sp,4
    18d6:	00474583          	lbu	a1,4(a4)
    18da:	0007c503          	lbu	a0,0(a5)
    18de:	4605                	li	a2,1
    18e0:	4481                	li	s1,0
    18e2:	32e020ef          	jal	ra,3c10 <MPU6050_I2C_Mem_Write>
    18e6:	07800793          	li	a5,120
    18ea:	00f10223          	sb	a5,4(sp)
    18ee:	4018                	lw	a4,0(s0)
    18f0:	405c                	lw	a5,4(s0)
    18f2:	0054                	addi	a3,sp,4
    18f4:	00574583          	lbu	a1,5(a4)
    18f8:	0007c503          	lbu	a0,0(a5)
    18fc:	4605                	li	a2,1
    18fe:	312020ef          	jal	ra,3c10 <MPU6050_I2C_Mem_Write>
    1902:	03200513          	li	a0,50
    1906:	52f030ef          	jal	ra,5634 <Delay_Ms>
    190a:	4018                	lw	a4,0(s0)
    190c:	405c                	lw	a5,4(s0)
    190e:	00010223          	sb	zero,4(sp)
    1912:	00574583          	lbu	a1,5(a4)
    1916:	0007c503          	lbu	a0,0(a5)
    191a:	0054                	addi	a3,sp,4
    191c:	4605                	li	a2,1
    191e:	2f2020ef          	jal	ra,3c10 <MPU6050_I2C_Mem_Write>
    1922:	405c                	lw	a5,4(s0)
    1924:	4018                	lw	a4,0(s0)
    1926:	0054                	addi	a3,sp,4
    1928:	0007c503          	lbu	a0,0(a5)
    192c:	00a74583          	lbu	a1,10(a4)
    1930:	4609                	li	a2,2
    1932:	4e8020ef          	jal	ra,3e1a <MPU6050_I2C_Mem_Read>
    1936:	00414a03          	lbu	s4,4(sp)
    193a:	00514783          	lbu	a5,5(sp)
    193e:	0009a423          	sw	zero,8(s3)
    1942:	0a22                	slli	s4,s4,0x8
    1944:	00fa6a33          	or	s4,s4,a5
    1948:	47b1                	li	a5,12
    194a:	02fa5a33          	divu	s4,s4,a5
    194e:	0009a223          	sw	zero,4(s3)
    1952:	0009a023          	sw	zero,0(s3)
    1956:	00092423          	sw	zero,8(s2)
    195a:	00092223          	sw	zero,4(s2)
    195e:	00092023          	sw	zero,0(s2)
    1962:	0ffa7a13          	andi	s4,s4,255
    1966:	15449663          	bne	s1,s4,1ab2 <get_st_biases+0x34a>
    196a:	0009a503          	lw	a0,0(s3)
    196e:	08300613          	li	a2,131
    1972:	4681                	li	a3,0
    1974:	41f55793          	srai	a5,a0,0x1f
    1978:	07c2                	slli	a5,a5,0x10
    197a:	01055593          	srli	a1,a0,0x10
    197e:	8ddd                	or	a1,a1,a5
    1980:	0542                	slli	a0,a0,0x10
    1982:	56d040ef          	jal	ra,66ee <__divdi3>
    1986:	8626                	mv	a2,s1
    1988:	4681                	li	a3,0
    198a:	565040ef          	jal	ra,66ee <__divdi3>
    198e:	00a9a023          	sw	a0,0(s3)
    1992:	0049a503          	lw	a0,4(s3)
    1996:	08300613          	li	a2,131
    199a:	4681                	li	a3,0
    199c:	41f55793          	srai	a5,a0,0x1f
    19a0:	07c2                	slli	a5,a5,0x10
    19a2:	01055593          	srli	a1,a0,0x10
    19a6:	8ddd                	or	a1,a1,a5
    19a8:	0542                	slli	a0,a0,0x10
    19aa:	545040ef          	jal	ra,66ee <__divdi3>
    19ae:	8626                	mv	a2,s1
    19b0:	4681                	li	a3,0
    19b2:	53d040ef          	jal	ra,66ee <__divdi3>
    19b6:	00a9a223          	sw	a0,4(s3)
    19ba:	0089a503          	lw	a0,8(s3)
    19be:	08300613          	li	a2,131
    19c2:	4681                	li	a3,0
    19c4:	41f55793          	srai	a5,a0,0x1f
    19c8:	07c2                	slli	a5,a5,0x10
    19ca:	01055593          	srli	a1,a0,0x10
    19ce:	8ddd                	or	a1,a1,a5
    19d0:	0542                	slli	a0,a0,0x10
    19d2:	51d040ef          	jal	ra,66ee <__divdi3>
    19d6:	8626                	mv	a2,s1
    19d8:	4681                	li	a3,0
    19da:	515040ef          	jal	ra,66ee <__divdi3>
    19de:	00a9a423          	sw	a0,8(s3)
    19e2:	00092503          	lw	a0,0(s2)
    19e6:	8626                	mv	a2,s1
    19e8:	4681                	li	a3,0
    19ea:	41f55593          	srai	a1,a0,0x1f
    19ee:	01055793          	srli	a5,a0,0x10
    19f2:	01059713          	slli	a4,a1,0x10
    19f6:	8f5d                	or	a4,a4,a5
    19f8:	41f75593          	srai	a1,a4,0x1f
    19fc:	0542                	slli	a0,a0,0x10
    19fe:	7ff5f593          	andi	a1,a1,2047
    1a02:	00a587b3          	add	a5,a1,a0
    1a06:	00b7b5b3          	sltu	a1,a5,a1
    1a0a:	95ba                	add	a1,a1,a4
    1a0c:	83ad                	srli	a5,a5,0xb
    1a0e:	01559513          	slli	a0,a1,0x15
    1a12:	8d5d                	or	a0,a0,a5
    1a14:	85ad                	srai	a1,a1,0xb
    1a16:	4d9040ef          	jal	ra,66ee <__divdi3>
    1a1a:	00a92023          	sw	a0,0(s2)
    1a1e:	00492503          	lw	a0,4(s2)
    1a22:	8626                	mv	a2,s1
    1a24:	4681                	li	a3,0
    1a26:	41f55593          	srai	a1,a0,0x1f
    1a2a:	01055793          	srli	a5,a0,0x10
    1a2e:	01059713          	slli	a4,a1,0x10
    1a32:	8f5d                	or	a4,a4,a5
    1a34:	41f75593          	srai	a1,a4,0x1f
    1a38:	0542                	slli	a0,a0,0x10
    1a3a:	7ff5f593          	andi	a1,a1,2047
    1a3e:	00a587b3          	add	a5,a1,a0
    1a42:	00b7b5b3          	sltu	a1,a5,a1
    1a46:	95ba                	add	a1,a1,a4
    1a48:	83ad                	srli	a5,a5,0xb
    1a4a:	01559513          	slli	a0,a1,0x15
    1a4e:	8d5d                	or	a0,a0,a5
    1a50:	85ad                	srai	a1,a1,0xb
    1a52:	49d040ef          	jal	ra,66ee <__divdi3>
    1a56:	00a92223          	sw	a0,4(s2)
    1a5a:	00892503          	lw	a0,8(s2)
    1a5e:	8626                	mv	a2,s1
    1a60:	4681                	li	a3,0
    1a62:	41f55593          	srai	a1,a0,0x1f
    1a66:	01055793          	srli	a5,a0,0x10
    1a6a:	01059713          	slli	a4,a1,0x10
    1a6e:	8f5d                	or	a4,a4,a5
    1a70:	41f75593          	srai	a1,a4,0x1f
    1a74:	0542                	slli	a0,a0,0x10
    1a76:	7ff5f593          	andi	a1,a1,2047
    1a7a:	00a587b3          	add	a5,a1,a0
    1a7e:	00b7b5b3          	sltu	a1,a5,a1
    1a82:	95ba                	add	a1,a1,a4
    1a84:	83ad                	srli	a5,a5,0xb
    1a86:	01559513          	slli	a0,a1,0x15
    1a8a:	8d5d                	or	a0,a0,a5
    1a8c:	85ad                	srai	a1,a1,0xb
    1a8e:	461040ef          	jal	ra,66ee <__divdi3>
    1a92:	77c1                	lui	a5,0xffff0
    1a94:	00a04363          	bgtz	a0,1a9a <get_st_biases+0x332>
    1a98:	67c1                	lui	a5,0x10
    1a9a:	50b2                	lw	ra,44(sp)
    1a9c:	5422                	lw	s0,40(sp)
    1a9e:	953e                	add	a0,a0,a5
    1aa0:	00a92423          	sw	a0,8(s2)
    1aa4:	5492                	lw	s1,36(sp)
    1aa6:	5902                	lw	s2,32(sp)
    1aa8:	49f2                	lw	s3,28(sp)
    1aaa:	4a62                	lw	s4,24(sp)
    1aac:	4501                	li	a0,0
    1aae:	6145                	addi	sp,sp,48
    1ab0:	8082                	ret
    1ab2:	4018                	lw	a4,0(s0)
    1ab4:	405c                	lw	a5,4(s0)
    1ab6:	0054                	addi	a3,sp,4
    1ab8:	00b74583          	lbu	a1,11(a4)
    1abc:	0007c503          	lbu	a0,0(a5) # 10000 <_data_lma+0x6204>
    1ac0:	4631                	li	a2,12
    1ac2:	0485                	addi	s1,s1,1
    1ac4:	356020ef          	jal	ra,3e1a <MPU6050_I2C_Mem_Read>
    1ac8:	00614703          	lbu	a4,6(sp)
    1acc:	00714783          	lbu	a5,7(sp)
    1ad0:	00914683          	lbu	a3,9(sp)
    1ad4:	0722                	slli	a4,a4,0x8
    1ad6:	8f5d                	or	a4,a4,a5
    1ad8:	00814783          	lbu	a5,8(sp)
    1adc:	00514603          	lbu	a2,5(sp)
    1ae0:	0742                	slli	a4,a4,0x10
    1ae2:	07a2                	slli	a5,a5,0x8
    1ae4:	8fd5                	or	a5,a5,a3
    1ae6:	00414683          	lbu	a3,4(sp)
    1aea:	8741                	srai	a4,a4,0x10
    1aec:	07c2                	slli	a5,a5,0x10
    1aee:	06a2                	slli	a3,a3,0x8
    1af0:	8ed1                	or	a3,a3,a2
    1af2:	00092603          	lw	a2,0(s2)
    1af6:	06c2                	slli	a3,a3,0x10
    1af8:	86c1                	srai	a3,a3,0x10
    1afa:	96b2                	add	a3,a3,a2
    1afc:	00d92023          	sw	a3,0(s2)
    1b00:	00492683          	lw	a3,4(s2)
    1b04:	87c1                	srai	a5,a5,0x10
    1b06:	00b14603          	lbu	a2,11(sp)
    1b0a:	9736                	add	a4,a4,a3
    1b0c:	00e92223          	sw	a4,4(s2)
    1b10:	00892703          	lw	a4,8(s2)
    1b14:	00f14683          	lbu	a3,15(sp)
    1b18:	0ff4f493          	andi	s1,s1,255
    1b1c:	97ba                	add	a5,a5,a4
    1b1e:	00c14703          	lbu	a4,12(sp)
    1b22:	00f92423          	sw	a5,8(s2)
    1b26:	00d14783          	lbu	a5,13(sp)
    1b2a:	0722                	slli	a4,a4,0x8
    1b2c:	8f5d                	or	a4,a4,a5
    1b2e:	00e14783          	lbu	a5,14(sp)
    1b32:	0742                	slli	a4,a4,0x10
    1b34:	8741                	srai	a4,a4,0x10
    1b36:	07a2                	slli	a5,a5,0x8
    1b38:	8fd5                	or	a5,a5,a3
    1b3a:	00a14683          	lbu	a3,10(sp)
    1b3e:	07c2                	slli	a5,a5,0x10
    1b40:	87c1                	srai	a5,a5,0x10
    1b42:	06a2                	slli	a3,a3,0x8
    1b44:	8ed1                	or	a3,a3,a2
    1b46:	0009a603          	lw	a2,0(s3)
    1b4a:	06c2                	slli	a3,a3,0x10
    1b4c:	86c1                	srai	a3,a3,0x10
    1b4e:	96b2                	add	a3,a3,a2
    1b50:	00d9a023          	sw	a3,0(s3)
    1b54:	0049a683          	lw	a3,4(s3)
    1b58:	9736                	add	a4,a4,a3
    1b5a:	00e9a223          	sw	a4,4(s3)
    1b5e:	0089a703          	lw	a4,8(s3)
    1b62:	97ba                	add	a5,a5,a4
    1b64:	00f9a423          	sw	a5,8(s3)
    1b68:	bbfd                	j	1966 <get_st_biases+0x1fe>

00001b6a <set_int_enable>:
    1b6a:	1101                	addi	sp,sp,-32
    1b6c:	cc22                	sw	s0,24(sp)
    1b6e:	20000437          	lui	s0,0x20000
    1b72:	01c40793          	addi	a5,s0,28 # 2000001c <st>
    1b76:	ce06                	sw	ra,28(sp)
    1b78:	0247c783          	lbu	a5,36(a5)
    1b7c:	01c40413          	addi	s0,s0,28
    1b80:	cb95                	beqz	a5,1bb4 <set_int_enable+0x4a>
    1b82:	c111                	beqz	a0,1b86 <set_int_enable+0x1c>
    1b84:	4509                	li	a0,2
    1b86:	00a107a3          	sb	a0,15(sp)
    1b8a:	405c                	lw	a5,4(s0)
    1b8c:	4018                	lw	a4,0(s0)
    1b8e:	00f10693          	addi	a3,sp,15
    1b92:	0007c503          	lbu	a0,0(a5)
    1b96:	00f74583          	lbu	a1,15(a4)
    1b9a:	4605                	li	a2,1
    1b9c:	074020ef          	jal	ra,3c10 <MPU6050_I2C_Mem_Write>
    1ba0:	00f14783          	lbu	a5,15(sp)
    1ba4:	00f408a3          	sb	a5,17(s0)
    1ba8:	4781                	li	a5,0
    1baa:	40f2                	lw	ra,28(sp)
    1bac:	4462                	lw	s0,24(sp)
    1bae:	853e                	mv	a0,a5
    1bb0:	6105                	addi	sp,sp,32
    1bb2:	8082                	ret
    1bb4:	00a44703          	lbu	a4,10(s0)
    1bb8:	57fd                	li	a5,-1
    1bba:	db65                	beqz	a4,1baa <set_int_enable+0x40>
    1bbc:	c909                	beqz	a0,1bce <set_int_enable+0x64>
    1bbe:	01144703          	lbu	a4,17(s0)
    1bc2:	4781                	li	a5,0
    1bc4:	f37d                	bnez	a4,1baa <set_int_enable+0x40>
    1bc6:	4785                	li	a5,1
    1bc8:	00f107a3          	sb	a5,15(sp)
    1bcc:	bf7d                	j	1b8a <set_int_enable+0x20>
    1bce:	000107a3          	sb	zero,15(sp)
    1bd2:	bf65                	j	1b8a <set_int_enable+0x20>

00001bd4 <mpu_reset_fifo>:
    1bd4:	1101                	addi	sp,sp,-32
    1bd6:	cc22                	sw	s0,24(sp)
    1bd8:	20000437          	lui	s0,0x20000
    1bdc:	ce06                	sw	ra,28(sp)
    1bde:	01c40793          	addi	a5,s0,28 # 2000001c <st>
    1be2:	00a7c783          	lbu	a5,10(a5)
    1be6:	557d                	li	a0,-1
    1be8:	0e078163          	beqz	a5,1cca <mpu_reset_fifo+0xf6>
    1bec:	01c40413          	addi	s0,s0,28
    1bf0:	4018                	lw	a4,0(s0)
    1bf2:	405c                	lw	a5,4(s0)
    1bf4:	000107a3          	sb	zero,15(sp)
    1bf8:	00f74583          	lbu	a1,15(a4)
    1bfc:	0007c503          	lbu	a0,0(a5)
    1c00:	00f10693          	addi	a3,sp,15
    1c04:	4605                	li	a2,1
    1c06:	00a020ef          	jal	ra,3c10 <MPU6050_I2C_Mem_Write>
    1c0a:	4018                	lw	a4,0(s0)
    1c0c:	405c                	lw	a5,4(s0)
    1c0e:	00f10693          	addi	a3,sp,15
    1c12:	00574583          	lbu	a1,5(a4)
    1c16:	0007c503          	lbu	a0,0(a5)
    1c1a:	4605                	li	a2,1
    1c1c:	7f5010ef          	jal	ra,3c10 <MPU6050_I2C_Mem_Write>
    1c20:	405c                	lw	a5,4(s0)
    1c22:	4018                	lw	a4,0(s0)
    1c24:	00f10693          	addi	a3,sp,15
    1c28:	0007c503          	lbu	a0,0(a5)
    1c2c:	00474583          	lbu	a1,4(a4)
    1c30:	4605                	li	a2,1
    1c32:	7df010ef          	jal	ra,3c10 <MPU6050_I2C_Mem_Write>
    1c36:	02444783          	lbu	a5,36(s0)
    1c3a:	cfc1                	beqz	a5,1cd2 <mpu_reset_fifo+0xfe>
    1c3c:	47b1                	li	a5,12
    1c3e:	00f107a3          	sb	a5,15(sp)
    1c42:	4018                	lw	a4,0(s0)
    1c44:	405c                	lw	a5,4(s0)
    1c46:	00f10693          	addi	a3,sp,15
    1c4a:	00474583          	lbu	a1,4(a4)
    1c4e:	0007c503          	lbu	a0,0(a5)
    1c52:	4605                	li	a2,1
    1c54:	7bd010ef          	jal	ra,3c10 <MPU6050_I2C_Mem_Write>
    1c58:	03200513          	li	a0,50
    1c5c:	1d9030ef          	jal	ra,5634 <Delay_Ms>
    1c60:	fc000793          	li	a5,-64
    1c64:	00f107a3          	sb	a5,15(sp)
    1c68:	00a44783          	lbu	a5,10(s0)
    1c6c:	8b85                	andi	a5,a5,1
    1c6e:	c781                	beqz	a5,1c76 <mpu_reset_fifo+0xa2>
    1c70:	5781                	li	a5,-32
    1c72:	00f107a3          	sb	a5,15(sp)
    1c76:	405c                	lw	a5,4(s0)
    1c78:	4018                	lw	a4,0(s0)
    1c7a:	00f10693          	addi	a3,sp,15
    1c7e:	0007c503          	lbu	a0,0(a5)
    1c82:	00474583          	lbu	a1,4(a4)
    1c86:	4605                	li	a2,1
    1c88:	789010ef          	jal	ra,3c10 <MPU6050_I2C_Mem_Write>
    1c8c:	01144783          	lbu	a5,17(s0)
    1c90:	c391                	beqz	a5,1c94 <mpu_reset_fifo+0xc0>
    1c92:	4789                	li	a5,2
    1c94:	00f107a3          	sb	a5,15(sp)
    1c98:	4018                	lw	a4,0(s0)
    1c9a:	405c                	lw	a5,4(s0)
    1c9c:	00f10693          	addi	a3,sp,15
    1ca0:	00f74583          	lbu	a1,15(a4)
    1ca4:	0007c503          	lbu	a0,0(a5)
    1ca8:	4605                	li	a2,1
    1caa:	767010ef          	jal	ra,3c10 <MPU6050_I2C_Mem_Write>
    1cae:	4018                	lw	a4,0(s0)
    1cb0:	405c                	lw	a5,4(s0)
    1cb2:	000107a3          	sb	zero,15(sp)
    1cb6:	00f10693          	addi	a3,sp,15
    1cba:	0007c503          	lbu	a0,0(a5)
    1cbe:	00574583          	lbu	a1,5(a4)
    1cc2:	4605                	li	a2,1
    1cc4:	74d010ef          	jal	ra,3c10 <MPU6050_I2C_Mem_Write>
    1cc8:	4501                	li	a0,0
    1cca:	40f2                	lw	ra,28(sp)
    1ccc:	4462                	lw	s0,24(sp)
    1cce:	6105                	addi	sp,sp,32
    1cd0:	8082                	ret
    1cd2:	4791                	li	a5,4
    1cd4:	00f107a3          	sb	a5,15(sp)
    1cd8:	4018                	lw	a4,0(s0)
    1cda:	405c                	lw	a5,4(s0)
    1cdc:	00f10693          	addi	a3,sp,15
    1ce0:	00474583          	lbu	a1,4(a4)
    1ce4:	0007c503          	lbu	a0,0(a5)
    1ce8:	4605                	li	a2,1
    1cea:	727010ef          	jal	ra,3c10 <MPU6050_I2C_Mem_Write>
    1cee:	01244783          	lbu	a5,18(s0)
    1cf2:	04000713          	li	a4,64
    1cf6:	e799                	bnez	a5,1d04 <mpu_reset_fifo+0x130>
    1cf8:	00a44783          	lbu	a5,10(s0)
    1cfc:	8b85                	andi	a5,a5,1
    1cfe:	c399                	beqz	a5,1d04 <mpu_reset_fifo+0x130>
    1d00:	06000713          	li	a4,96
    1d04:	405c                	lw	a5,4(s0)
    1d06:	00e107a3          	sb	a4,15(sp)
    1d0a:	4018                	lw	a4,0(s0)
    1d0c:	0007c503          	lbu	a0,0(a5)
    1d10:	00f10693          	addi	a3,sp,15
    1d14:	00474583          	lbu	a1,4(a4)
    1d18:	4605                	li	a2,1
    1d1a:	6f7010ef          	jal	ra,3c10 <MPU6050_I2C_Mem_Write>
    1d1e:	03200513          	li	a0,50
    1d22:	113030ef          	jal	ra,5634 <Delay_Ms>
    1d26:	01144783          	lbu	a5,17(s0)
    1d2a:	4018                	lw	a4,0(s0)
    1d2c:	00f10693          	addi	a3,sp,15
    1d30:	00f037b3          	snez	a5,a5
    1d34:	00f107a3          	sb	a5,15(sp)
    1d38:	405c                	lw	a5,4(s0)
    1d3a:	00f74583          	lbu	a1,15(a4)
    1d3e:	4605                	li	a2,1
    1d40:	0007c503          	lbu	a0,0(a5)
    1d44:	6cd010ef          	jal	ra,3c10 <MPU6050_I2C_Mem_Write>
    1d48:	4018                	lw	a4,0(s0)
    1d4a:	405c                	lw	a5,4(s0)
    1d4c:	01040693          	addi	a3,s0,16
    1d50:	b7ad                	j	1cba <mpu_reset_fifo+0xe6>

00001d52 <mpu_get_gyro_fsr>:
    1d52:	200007b7          	lui	a5,0x20000
    1d56:	0247c783          	lbu	a5,36(a5) # 20000024 <st+0x8>
    1d5a:	4705                	li	a4,1
    1d5c:	02e78263          	beq	a5,a4,1d80 <mpu_get_gyro_fsr+0x2e>
    1d60:	cb91                	beqz	a5,1d74 <mpu_get_gyro_fsr+0x22>
    1d62:	4709                	li	a4,2
    1d64:	02e78163          	beq	a5,a4,1d86 <mpu_get_gyro_fsr+0x34>
    1d68:	470d                	li	a4,3
    1d6a:	02e78163          	beq	a5,a4,1d8c <mpu_get_gyro_fsr+0x3a>
    1d6e:	00051023          	sh	zero,0(a0)
    1d72:	a029                	j	1d7c <mpu_get_gyro_fsr+0x2a>
    1d74:	0fa00793          	li	a5,250
    1d78:	00f51023          	sh	a5,0(a0)
    1d7c:	4501                	li	a0,0
    1d7e:	8082                	ret
    1d80:	1f400793          	li	a5,500
    1d84:	bfd5                	j	1d78 <mpu_get_gyro_fsr+0x26>
    1d86:	3e800793          	li	a5,1000
    1d8a:	b7fd                	j	1d78 <mpu_get_gyro_fsr+0x26>
    1d8c:	7d000793          	li	a5,2000
    1d90:	b7e5                	j	1d78 <mpu_get_gyro_fsr+0x26>

00001d92 <mpu_set_gyro_fsr>:
    1d92:	1101                	addi	sp,sp,-32
    1d94:	cc22                	sw	s0,24(sp)
    1d96:	20000437          	lui	s0,0x20000
    1d9a:	ce06                	sw	ra,28(sp)
    1d9c:	01c40793          	addi	a5,s0,28 # 2000001c <st>
    1da0:	00a7c783          	lbu	a5,10(a5)
    1da4:	cf89                	beqz	a5,1dbe <mpu_set_gyro_fsr+0x2c>
    1da6:	1f400793          	li	a5,500
    1daa:	01c40413          	addi	s0,s0,28
    1dae:	06f50363          	beq	a0,a5,1e14 <mpu_set_gyro_fsr+0x82>
    1db2:	00a7e863          	bltu	a5,a0,1dc2 <mpu_set_gyro_fsr+0x30>
    1db6:	0fa00793          	li	a5,250
    1dba:	00f50e63          	beq	a0,a5,1dd6 <mpu_set_gyro_fsr+0x44>
    1dbe:	557d                	li	a0,-1
    1dc0:	a0b1                	j	1e0c <mpu_set_gyro_fsr+0x7a>
    1dc2:	3e800793          	li	a5,1000
    1dc6:	04f50b63          	beq	a0,a5,1e1c <mpu_set_gyro_fsr+0x8a>
    1dca:	7d000793          	li	a5,2000
    1dce:	fef518e3          	bne	a0,a5,1dbe <mpu_set_gyro_fsr+0x2c>
    1dd2:	47e1                	li	a5,24
    1dd4:	a089                	j	1e16 <mpu_set_gyro_fsr+0x84>
    1dd6:	000107a3          	sb	zero,15(sp)
    1dda:	00f14783          	lbu	a5,15(sp)
    1dde:	00844703          	lbu	a4,8(s0)
    1de2:	4501                	li	a0,0
    1de4:	838d                	srli	a5,a5,0x3
    1de6:	02f70363          	beq	a4,a5,1e0c <mpu_set_gyro_fsr+0x7a>
    1dea:	405c                	lw	a5,4(s0)
    1dec:	4018                	lw	a4,0(s0)
    1dee:	00f10693          	addi	a3,sp,15
    1df2:	0007c503          	lbu	a0,0(a5)
    1df6:	00674583          	lbu	a1,6(a4)
    1dfa:	4605                	li	a2,1
    1dfc:	615010ef          	jal	ra,3c10 <MPU6050_I2C_Mem_Write>
    1e00:	00f14783          	lbu	a5,15(sp)
    1e04:	4501                	li	a0,0
    1e06:	838d                	srli	a5,a5,0x3
    1e08:	00f40423          	sb	a5,8(s0)
    1e0c:	40f2                	lw	ra,28(sp)
    1e0e:	4462                	lw	s0,24(sp)
    1e10:	6105                	addi	sp,sp,32
    1e12:	8082                	ret
    1e14:	47a1                	li	a5,8
    1e16:	00f107a3          	sb	a5,15(sp)
    1e1a:	b7c1                	j	1dda <mpu_set_gyro_fsr+0x48>
    1e1c:	47c1                	li	a5,16
    1e1e:	bfe5                	j	1e16 <mpu_set_gyro_fsr+0x84>

00001e20 <mpu_get_accel_fsr>:
    1e20:	20000737          	lui	a4,0x20000
    1e24:	01c70693          	addi	a3,a4,28 # 2000001c <st>
    1e28:	0096c683          	lbu	a3,9(a3) # ffffc009 <_eusrstack+0xdfff4009>
    1e2c:	4605                	li	a2,1
    1e2e:	87aa                	mv	a5,a0
    1e30:	01c70713          	addi	a4,a4,28
    1e34:	02c68863          	beq	a3,a2,1e64 <mpu_get_accel_fsr+0x44>
    1e38:	ca89                	beqz	a3,1e4a <mpu_get_accel_fsr+0x2a>
    1e3a:	4609                	li	a2,2
    1e3c:	02c68663          	beq	a3,a2,1e68 <mpu_get_accel_fsr+0x48>
    1e40:	460d                	li	a2,3
    1e42:	02c68563          	beq	a3,a2,1e6c <mpu_get_accel_fsr+0x4c>
    1e46:	557d                	li	a0,-1
    1e48:	8082                	ret
    1e4a:	4689                	li	a3,2
    1e4c:	00d78023          	sb	a3,0(a5)
    1e50:	01374703          	lbu	a4,19(a4)
    1e54:	4501                	li	a0,0
    1e56:	c711                	beqz	a4,1e62 <mpu_get_accel_fsr+0x42>
    1e58:	0007c703          	lbu	a4,0(a5)
    1e5c:	0706                	slli	a4,a4,0x1
    1e5e:	00e78023          	sb	a4,0(a5)
    1e62:	8082                	ret
    1e64:	4691                	li	a3,4
    1e66:	b7dd                	j	1e4c <mpu_get_accel_fsr+0x2c>
    1e68:	46a1                	li	a3,8
    1e6a:	b7cd                	j	1e4c <mpu_get_accel_fsr+0x2c>
    1e6c:	46c1                	li	a3,16
    1e6e:	bff9                	j	1e4c <mpu_get_accel_fsr+0x2c>

00001e70 <mpu_set_accel_fsr>:
    1e70:	1101                	addi	sp,sp,-32
    1e72:	cc22                	sw	s0,24(sp)
    1e74:	20000437          	lui	s0,0x20000
    1e78:	ce06                	sw	ra,28(sp)
    1e7a:	01c40793          	addi	a5,s0,28 # 2000001c <st>
    1e7e:	00a7c783          	lbu	a5,10(a5)
    1e82:	cb99                	beqz	a5,1e98 <mpu_set_accel_fsr+0x28>
    1e84:	4791                	li	a5,4
    1e86:	01c40413          	addi	s0,s0,28
    1e8a:	06f50063          	beq	a0,a5,1eea <mpu_set_accel_fsr+0x7a>
    1e8e:	00a7e763          	bltu	a5,a0,1e9c <mpu_set_accel_fsr+0x2c>
    1e92:	4789                	li	a5,2
    1e94:	00f50c63          	beq	a0,a5,1eac <mpu_set_accel_fsr+0x3c>
    1e98:	557d                	li	a0,-1
    1e9a:	a0a1                	j	1ee2 <mpu_set_accel_fsr+0x72>
    1e9c:	47a1                	li	a5,8
    1e9e:	04f50a63          	beq	a0,a5,1ef2 <mpu_set_accel_fsr+0x82>
    1ea2:	47c1                	li	a5,16
    1ea4:	fef51ae3          	bne	a0,a5,1e98 <mpu_set_accel_fsr+0x28>
    1ea8:	47e1                	li	a5,24
    1eaa:	a089                	j	1eec <mpu_set_accel_fsr+0x7c>
    1eac:	000107a3          	sb	zero,15(sp)
    1eb0:	00f14783          	lbu	a5,15(sp)
    1eb4:	00944703          	lbu	a4,9(s0)
    1eb8:	4501                	li	a0,0
    1eba:	838d                	srli	a5,a5,0x3
    1ebc:	02f70363          	beq	a4,a5,1ee2 <mpu_set_accel_fsr+0x72>
    1ec0:	405c                	lw	a5,4(s0)
    1ec2:	4018                	lw	a4,0(s0)
    1ec4:	00f10693          	addi	a3,sp,15
    1ec8:	0007c503          	lbu	a0,0(a5)
    1ecc:	00774583          	lbu	a1,7(a4)
    1ed0:	4605                	li	a2,1
    1ed2:	53f010ef          	jal	ra,3c10 <MPU6050_I2C_Mem_Write>
    1ed6:	00f14783          	lbu	a5,15(sp)
    1eda:	4501                	li	a0,0
    1edc:	838d                	srli	a5,a5,0x3
    1ede:	00f404a3          	sb	a5,9(s0)
    1ee2:	40f2                	lw	ra,28(sp)
    1ee4:	4462                	lw	s0,24(sp)
    1ee6:	6105                	addi	sp,sp,32
    1ee8:	8082                	ret
    1eea:	47a1                	li	a5,8
    1eec:	00f107a3          	sb	a5,15(sp)
    1ef0:	b7c1                	j	1eb0 <mpu_set_accel_fsr+0x40>
    1ef2:	47c1                	li	a5,16
    1ef4:	bfe5                	j	1eec <mpu_set_accel_fsr+0x7c>

00001ef6 <mpu_get_lpf>:
    1ef6:	200007b7          	lui	a5,0x20000
    1efa:	0277c783          	lbu	a5,39(a5) # 20000027 <st+0xb>
    1efe:	4715                	li	a4,5
    1f00:	17fd                	addi	a5,a5,-1
    1f02:	0ff7f793          	andi	a5,a5,255
    1f06:	02f76b63          	bltu	a4,a5,1f3c <mpu_get_lpf+0x46>
    1f0a:	6725                	lui	a4,0x9
    1f0c:	078a                	slli	a5,a5,0x2
    1f0e:	cb470713          	addi	a4,a4,-844 # 8cb4 <memcpy+0x13a>
    1f12:	97ba                	add	a5,a5,a4
    1f14:	439c                	lw	a5,0(a5)
    1f16:	8782                	jr	a5
    1f18:	0bc00793          	li	a5,188
    1f1c:	00f51023          	sh	a5,0(a0)
    1f20:	4501                	li	a0,0
    1f22:	8082                	ret
    1f24:	06200793          	li	a5,98
    1f28:	bfd5                	j	1f1c <mpu_get_lpf+0x26>
    1f2a:	02a00793          	li	a5,42
    1f2e:	b7fd                	j	1f1c <mpu_get_lpf+0x26>
    1f30:	47d1                	li	a5,20
    1f32:	b7ed                	j	1f1c <mpu_get_lpf+0x26>
    1f34:	47a9                	li	a5,10
    1f36:	b7dd                	j	1f1c <mpu_get_lpf+0x26>
    1f38:	4795                	li	a5,5
    1f3a:	b7cd                	j	1f1c <mpu_get_lpf+0x26>
    1f3c:	00051023          	sh	zero,0(a0)
    1f40:	b7c5                	j	1f20 <mpu_get_lpf+0x2a>

00001f42 <mpu_set_lpf>:
    1f42:	1101                	addi	sp,sp,-32
    1f44:	cc22                	sw	s0,24(sp)
    1f46:	20000437          	lui	s0,0x20000
    1f4a:	ce06                	sw	ra,28(sp)
    1f4c:	01c40793          	addi	a5,s0,28 # 2000001c <st>
    1f50:	00a7c783          	lbu	a5,10(a5)
    1f54:	cfad                	beqz	a5,1fce <mpu_set_lpf+0x8c>
    1f56:	0bb00793          	li	a5,187
    1f5a:	01c40413          	addi	s0,s0,28
    1f5e:	04a7f063          	bgeu	a5,a0,1f9e <mpu_set_lpf+0x5c>
    1f62:	4785                	li	a5,1
    1f64:	00f107a3          	sb	a5,15(sp)
    1f68:	00b44703          	lbu	a4,11(s0)
    1f6c:	00f14783          	lbu	a5,15(sp)
    1f70:	4501                	li	a0,0
    1f72:	02f70263          	beq	a4,a5,1f96 <mpu_set_lpf+0x54>
    1f76:	405c                	lw	a5,4(s0)
    1f78:	4018                	lw	a4,0(s0)
    1f7a:	00f10693          	addi	a3,sp,15
    1f7e:	0007c503          	lbu	a0,0(a5)
    1f82:	00274583          	lbu	a1,2(a4)
    1f86:	4605                	li	a2,1
    1f88:	489010ef          	jal	ra,3c10 <MPU6050_I2C_Mem_Write>
    1f8c:	00f14783          	lbu	a5,15(sp)
    1f90:	4501                	li	a0,0
    1f92:	00f405a3          	sb	a5,11(s0)
    1f96:	40f2                	lw	ra,28(sp)
    1f98:	4462                	lw	s0,24(sp)
    1f9a:	6105                	addi	sp,sp,32
    1f9c:	8082                	ret
    1f9e:	06100793          	li	a5,97
    1fa2:	00a7f463          	bgeu	a5,a0,1faa <mpu_set_lpf+0x68>
    1fa6:	4789                	li	a5,2
    1fa8:	bf75                	j	1f64 <mpu_set_lpf+0x22>
    1faa:	02900793          	li	a5,41
    1fae:	00a7f463          	bgeu	a5,a0,1fb6 <mpu_set_lpf+0x74>
    1fb2:	478d                	li	a5,3
    1fb4:	bf45                	j	1f64 <mpu_set_lpf+0x22>
    1fb6:	47cd                	li	a5,19
    1fb8:	00a7f463          	bgeu	a5,a0,1fc0 <mpu_set_lpf+0x7e>
    1fbc:	4791                	li	a5,4
    1fbe:	b75d                	j	1f64 <mpu_set_lpf+0x22>
    1fc0:	47a5                	li	a5,9
    1fc2:	00a7f463          	bgeu	a5,a0,1fca <mpu_set_lpf+0x88>
    1fc6:	4795                	li	a5,5
    1fc8:	bf71                	j	1f64 <mpu_set_lpf+0x22>
    1fca:	4799                	li	a5,6
    1fcc:	bf61                	j	1f64 <mpu_set_lpf+0x22>
    1fce:	557d                	li	a0,-1
    1fd0:	b7d9                	j	1f96 <mpu_set_lpf+0x54>

00001fd2 <mpu_get_sample_rate>:
    1fd2:	200007b7          	lui	a5,0x20000
    1fd6:	01c78793          	addi	a5,a5,28 # 2000001c <st>
    1fda:	0247c703          	lbu	a4,36(a5)
    1fde:	e719                	bnez	a4,1fec <mpu_get_sample_rate+0x1a>
    1fe0:	00e7d783          	lhu	a5,14(a5)
    1fe4:	00f51023          	sh	a5,0(a0)
    1fe8:	4501                	li	a0,0
    1fea:	8082                	ret
    1fec:	557d                	li	a0,-1
    1fee:	8082                	ret

00001ff0 <mpu_get_gyro_sens>:
    1ff0:	200007b7          	lui	a5,0x20000
    1ff4:	0247c783          	lbu	a5,36(a5) # 20000024 <st+0x8>
    1ff8:	4705                	li	a4,1
    1ffa:	02e78263          	beq	a5,a4,201e <mpu_get_gyro_sens+0x2e>
    1ffe:	cb89                	beqz	a5,2010 <mpu_get_gyro_sens+0x20>
    2000:	4709                	li	a4,2
    2002:	02e78363          	beq	a5,a4,2028 <mpu_get_gyro_sens+0x38>
    2006:	470d                	li	a4,3
    2008:	02e78563          	beq	a5,a4,2032 <mpu_get_gyro_sens+0x42>
    200c:	557d                	li	a0,-1
    200e:	8082                	ret
    2010:	000097b7          	lui	a5,0x9
    2014:	cf87a787          	flw	fa5,-776(a5) # 8cf8 <hw+0x2c>
    2018:	e11c                	fsw	fa5,0(a0)
    201a:	4501                	li	a0,0
    201c:	8082                	ret
    201e:	000097b7          	lui	a5,0x9
    2022:	cfc7a787          	flw	fa5,-772(a5) # 8cfc <hw+0x30>
    2026:	bfcd                	j	2018 <mpu_get_gyro_sens+0x28>
    2028:	000097b7          	lui	a5,0x9
    202c:	d007a787          	flw	fa5,-768(a5) # 8d00 <hw+0x34>
    2030:	b7e5                	j	2018 <mpu_get_gyro_sens+0x28>
    2032:	000097b7          	lui	a5,0x9
    2036:	d047a787          	flw	fa5,-764(a5) # 8d04 <hw+0x38>
    203a:	bff9                	j	2018 <mpu_get_gyro_sens+0x28>

0000203c <mpu_get_accel_sens>:
    203c:	20000737          	lui	a4,0x20000
    2040:	01c70693          	addi	a3,a4,28 # 2000001c <st>
    2044:	0096c683          	lbu	a3,9(a3)
    2048:	4605                	li	a2,1
    204a:	87aa                	mv	a5,a0
    204c:	01c70713          	addi	a4,a4,28
    2050:	02c68863          	beq	a3,a2,2080 <mpu_get_accel_sens+0x44>
    2054:	ca89                	beqz	a3,2066 <mpu_get_accel_sens+0x2a>
    2056:	4609                	li	a2,2
    2058:	02c68863          	beq	a3,a2,2088 <mpu_get_accel_sens+0x4c>
    205c:	460d                	li	a2,3
    205e:	02c68763          	beq	a3,a2,208c <mpu_get_accel_sens+0x50>
    2062:	557d                	li	a0,-1
    2064:	8082                	ret
    2066:	6691                	lui	a3,0x4
    2068:	00d79023          	sh	a3,0(a5)
    206c:	01374703          	lbu	a4,19(a4)
    2070:	4501                	li	a0,0
    2072:	c711                	beqz	a4,207e <mpu_get_accel_sens+0x42>
    2074:	0007d703          	lhu	a4,0(a5)
    2078:	8305                	srli	a4,a4,0x1
    207a:	00e79023          	sh	a4,0(a5)
    207e:	8082                	ret
    2080:	6689                	lui	a3,0x2
    2082:	f9c68693          	addi	a3,a3,-100 # 1f9c <mpu_set_lpf+0x5a>
    2086:	b7cd                	j	2068 <mpu_get_accel_sens+0x2c>
    2088:	6685                	lui	a3,0x1
    208a:	bff9                	j	2068 <mpu_get_accel_sens+0x2c>
    208c:	6685                	lui	a3,0x1
    208e:	80068693          	addi	a3,a3,-2048 # 800 <__stack_size>
    2092:	bfd9                	j	2068 <mpu_get_accel_sens+0x2c>

00002094 <mpu_configure_fifo>:
    2094:	1101                	addi	sp,sp,-32
    2096:	cc22                	sw	s0,24(sp)
    2098:	20000437          	lui	s0,0x20000
    209c:	01c40413          	addi	s0,s0,28 # 2000001c <st>
    20a0:	02444783          	lbu	a5,36(s0)
    20a4:	c84a                	sw	s2,16(sp)
    20a6:	ce06                	sw	ra,28(sp)
    20a8:	ca26                	sw	s1,20(sp)
    20aa:	c64e                	sw	s3,12(sp)
    20ac:	4901                	li	s2,0
    20ae:	e3a1                	bnez	a5,20ee <mpu_configure_fifo+0x5a>
    20b0:	00a44783          	lbu	a5,10(s0)
    20b4:	597d                	li	s2,-1
    20b6:	cf85                	beqz	a5,20ee <mpu_configure_fifo+0x5a>
    20b8:	0fe57493          	andi	s1,a0,254
    20bc:	8fe5                	and	a5,a5,s1
    20be:	01044983          	lbu	s3,16(s0)
    20c2:	00f40823          	sb	a5,16(s0)
    20c6:	8f85                	sub	a5,a5,s1
    20c8:	00f037b3          	snez	a5,a5
    20cc:	40f00933          	neg	s2,a5
    20d0:	01444783          	lbu	a5,20(s0)
    20d4:	8fc5                	or	a5,a5,s1
    20d6:	cb91                	beqz	a5,20ea <mpu_configure_fifo+0x56>
    20d8:	4505                	li	a0,1
    20da:	3c41                	jal	1b6a <set_int_enable>
    20dc:	c889                	beqz	s1,20ee <mpu_configure_fifo+0x5a>
    20de:	3cdd                	jal	1bd4 <mpu_reset_fifo>
    20e0:	c519                	beqz	a0,20ee <mpu_configure_fifo+0x5a>
    20e2:	01340823          	sb	s3,16(s0)
    20e6:	597d                	li	s2,-1
    20e8:	a019                	j	20ee <mpu_configure_fifo+0x5a>
    20ea:	4501                	li	a0,0
    20ec:	3cbd                	jal	1b6a <set_int_enable>
    20ee:	40f2                	lw	ra,28(sp)
    20f0:	4462                	lw	s0,24(sp)
    20f2:	854a                	mv	a0,s2
    20f4:	44d2                	lw	s1,20(sp)
    20f6:	4942                	lw	s2,16(sp)
    20f8:	49b2                	lw	s3,12(sp)
    20fa:	6105                	addi	sp,sp,32
    20fc:	8082                	ret

000020fe <mpu_read_fifo_stream>:
    20fe:	7179                	addi	sp,sp,-48
    2100:	ce4e                	sw	s3,28(sp)
    2102:	200009b7          	lui	s3,0x20000
    2106:	d226                	sw	s1,36(sp)
    2108:	01c98493          	addi	s1,s3,28 # 2000001c <st>
    210c:	0244c783          	lbu	a5,36(s1)
    2110:	d606                	sw	ra,44(sp)
    2112:	d422                	sw	s0,40(sp)
    2114:	d04a                	sw	s2,32(sp)
    2116:	cc52                	sw	s4,24(sp)
    2118:	ca56                	sw	s5,20(sp)
    211a:	cf85                	beqz	a5,2152 <mpu_read_fifo_stream+0x54>
    211c:	00a4c703          	lbu	a4,10(s1)
    2120:	57fd                	li	a5,-1
    2122:	c32d                	beqz	a4,2184 <mpu_read_fifo_stream+0x86>
    2124:	40dc                	lw	a5,4(s1)
    2126:	4098                	lw	a4,0(s1)
    2128:	8aae                	mv	s5,a1
    212a:	892a                	mv	s2,a0
    212c:	00a74583          	lbu	a1,10(a4)
    2130:	0007c503          	lbu	a0,0(a5)
    2134:	8a32                	mv	s4,a2
    2136:	0074                	addi	a3,sp,12
    2138:	4609                	li	a2,2
    213a:	4e1010ef          	jal	ra,3e1a <MPU6050_I2C_Mem_Read>
    213e:	00c14783          	lbu	a5,12(sp)
    2142:	00d14403          	lbu	s0,13(sp)
    2146:	07a2                	slli	a5,a5,0x8
    2148:	8c5d                	or	s0,s0,a5
    214a:	01247663          	bgeu	s0,s2,2156 <mpu_read_fifo_stream+0x58>
    214e:	000a0023          	sb	zero,0(s4)
    2152:	57fd                	li	a5,-1
    2154:	a805                	j	2184 <mpu_read_fifo_stream+0x86>
    2156:	40d8                	lw	a4,4(s1)
    2158:	01c98993          	addi	s3,s3,28
    215c:	00275783          	lhu	a5,2(a4)
    2160:	8385                	srli	a5,a5,0x1
    2162:	0287fb63          	bgeu	a5,s0,2198 <mpu_read_fifo_stream+0x9a>
    2166:	409c                	lw	a5,0(s1)
    2168:	00074503          	lbu	a0,0(a4)
    216c:	0074                	addi	a3,sp,12
    216e:	0117c583          	lbu	a1,17(a5)
    2172:	4605                	li	a2,1
    2174:	4a7010ef          	jal	ra,3e1a <MPU6050_I2C_Mem_Read>
    2178:	00c14783          	lbu	a5,12(sp)
    217c:	8bc1                	andi	a5,a5,16
    217e:	cf89                	beqz	a5,2198 <mpu_read_fifo_stream+0x9a>
    2180:	3c91                	jal	1bd4 <mpu_reset_fifo>
    2182:	57f9                	li	a5,-2
    2184:	50b2                	lw	ra,44(sp)
    2186:	5422                	lw	s0,40(sp)
    2188:	5492                	lw	s1,36(sp)
    218a:	5902                	lw	s2,32(sp)
    218c:	49f2                	lw	s3,28(sp)
    218e:	4a62                	lw	s4,24(sp)
    2190:	4ad2                	lw	s5,20(sp)
    2192:	853e                	mv	a0,a5
    2194:	6145                	addi	sp,sp,48
    2196:	8082                	ret
    2198:	0049a783          	lw	a5,4(s3)
    219c:	0009a703          	lw	a4,0(s3)
    21a0:	86d6                	mv	a3,s5
    21a2:	0007c503          	lbu	a0,0(a5)
    21a6:	00b74583          	lbu	a1,11(a4)
    21aa:	0ff97613          	andi	a2,s2,255
    21ae:	46d010ef          	jal	ra,3e1a <MPU6050_I2C_Mem_Read>
    21b2:	03245433          	divu	s0,s0,s2
    21b6:	4781                	li	a5,0
    21b8:	147d                	addi	s0,s0,-1
    21ba:	008a0023          	sb	s0,0(s4)
    21be:	b7d9                	j	2184 <mpu_read_fifo_stream+0x86>

000021c0 <mpu_set_bypass>:
    21c0:	1101                	addi	sp,sp,-32
    21c2:	cc22                	sw	s0,24(sp)
    21c4:	20000437          	lui	s0,0x20000
    21c8:	ce06                	sw	ra,28(sp)
    21ca:	ca26                	sw	s1,20(sp)
    21cc:	01c40793          	addi	a5,s0,28 # 2000001c <st>
    21d0:	0127c783          	lbu	a5,18(a5)
    21d4:	0ca78c63          	beq	a5,a0,22ac <mpu_set_bypass+0xec>
    21d8:	01c40413          	addi	s0,s0,28
    21dc:	405c                	lw	a5,4(s0)
    21de:	84aa                	mv	s1,a0
    21e0:	00f10693          	addi	a3,sp,15
    21e4:	0007c503          	lbu	a0,0(a5)
    21e8:	401c                	lw	a5,0(s0)
    21ea:	4605                	li	a2,1
    21ec:	0047c583          	lbu	a1,4(a5)
    21f0:	c8b9                	beqz	s1,2246 <mpu_set_bypass+0x86>
    21f2:	429010ef          	jal	ra,3e1a <MPU6050_I2C_Mem_Read>
    21f6:	00f14783          	lbu	a5,15(sp)
    21fa:	4018                	lw	a4,0(s0)
    21fc:	00f10693          	addi	a3,sp,15
    2200:	fdf7f793          	andi	a5,a5,-33
    2204:	00f107a3          	sb	a5,15(sp)
    2208:	405c                	lw	a5,4(s0)
    220a:	00474583          	lbu	a1,4(a4)
    220e:	4605                	li	a2,1
    2210:	0007c503          	lbu	a0,0(a5)
    2214:	1fd010ef          	jal	ra,3c10 <MPU6050_I2C_Mem_Write>
    2218:	450d                	li	a0,3
    221a:	41a030ef          	jal	ra,5634 <Delay_Ms>
    221e:	4789                	li	a5,2
    2220:	00f107a3          	sb	a5,15(sp)
    2224:	02244783          	lbu	a5,34(s0)
    2228:	c789                	beqz	a5,2232 <mpu_set_bypass+0x72>
    222a:	f8200793          	li	a5,-126
    222e:	00f107a3          	sb	a5,15(sp)
    2232:	02344783          	lbu	a5,35(s0)
    2236:	cfb1                	beqz	a5,2292 <mpu_set_bypass+0xd2>
    2238:	00f14783          	lbu	a5,15(sp)
    223c:	0307e793          	ori	a5,a5,48
    2240:	00f107a3          	sb	a5,15(sp)
    2244:	a0b9                	j	2292 <mpu_set_bypass+0xd2>
    2246:	3d5010ef          	jal	ra,3e1a <MPU6050_I2C_Mem_Read>
    224a:	00a44783          	lbu	a5,10(s0)
    224e:	00f14683          	lbu	a3,15(sp)
    2252:	8b85                	andi	a5,a5,1
    2254:	0df6f713          	andi	a4,a3,223
    2258:	c399                	beqz	a5,225e <mpu_set_bypass+0x9e>
    225a:	0206e713          	ori	a4,a3,32
    225e:	405c                	lw	a5,4(s0)
    2260:	00e107a3          	sb	a4,15(sp)
    2264:	4018                	lw	a4,0(s0)
    2266:	0007c503          	lbu	a0,0(a5)
    226a:	00f10693          	addi	a3,sp,15
    226e:	00474583          	lbu	a1,4(a4)
    2272:	4605                	li	a2,1
    2274:	19d010ef          	jal	ra,3c10 <MPU6050_I2C_Mem_Write>
    2278:	450d                	li	a0,3
    227a:	3ba030ef          	jal	ra,5634 <Delay_Ms>
    227e:	02244783          	lbu	a5,34(s0)
    2282:	c399                	beqz	a5,2288 <mpu_set_bypass+0xc8>
    2284:	08000793          	li	a5,128
    2288:	02344703          	lbu	a4,35(s0)
    228c:	00f107a3          	sb	a5,15(sp)
    2290:	f755                	bnez	a4,223c <mpu_set_bypass+0x7c>
    2292:	4018                	lw	a4,0(s0)
    2294:	405c                	lw	a5,4(s0)
    2296:	00f10693          	addi	a3,sp,15
    229a:	01474583          	lbu	a1,20(a4)
    229e:	0007c503          	lbu	a0,0(a5)
    22a2:	4605                	li	a2,1
    22a4:	16d010ef          	jal	ra,3c10 <MPU6050_I2C_Mem_Write>
    22a8:	00940923          	sb	s1,18(s0)
    22ac:	40f2                	lw	ra,28(sp)
    22ae:	4462                	lw	s0,24(sp)
    22b0:	44d2                	lw	s1,20(sp)
    22b2:	4501                	li	a0,0
    22b4:	6105                	addi	sp,sp,32
    22b6:	8082                	ret

000022b8 <mpu_set_int_latched>:
    22b8:	1101                	addi	sp,sp,-32
    22ba:	cc22                	sw	s0,24(sp)
    22bc:	20000437          	lui	s0,0x20000
    22c0:	ce06                	sw	ra,28(sp)
    22c2:	ca26                	sw	s1,20(sp)
    22c4:	01c40793          	addi	a5,s0,28 # 2000001c <st>
    22c8:	0237c783          	lbu	a5,35(a5)
    22cc:	04a78863          	beq	a5,a0,231c <mpu_set_int_latched+0x64>
    22d0:	01c40413          	addi	s0,s0,28
    22d4:	4781                	li	a5,0
    22d6:	c119                	beqz	a0,22dc <mpu_set_int_latched+0x24>
    22d8:	03000793          	li	a5,48
    22dc:	01244703          	lbu	a4,18(s0)
    22e0:	00f107a3          	sb	a5,15(sp)
    22e4:	c709                	beqz	a4,22ee <mpu_set_int_latched+0x36>
    22e6:	0027e793          	ori	a5,a5,2
    22ea:	00f107a3          	sb	a5,15(sp)
    22ee:	02244783          	lbu	a5,34(s0)
    22f2:	c799                	beqz	a5,2300 <mpu_set_int_latched+0x48>
    22f4:	00f14783          	lbu	a5,15(sp)
    22f8:	f807e793          	ori	a5,a5,-128
    22fc:	00f107a3          	sb	a5,15(sp)
    2300:	4018                	lw	a4,0(s0)
    2302:	405c                	lw	a5,4(s0)
    2304:	84aa                	mv	s1,a0
    2306:	01474583          	lbu	a1,20(a4)
    230a:	0007c503          	lbu	a0,0(a5)
    230e:	00f10693          	addi	a3,sp,15
    2312:	4605                	li	a2,1
    2314:	0fd010ef          	jal	ra,3c10 <MPU6050_I2C_Mem_Write>
    2318:	029401a3          	sb	s1,35(s0)
    231c:	40f2                	lw	ra,28(sp)
    231e:	4462                	lw	s0,24(sp)
    2320:	44d2                	lw	s1,20(sp)
    2322:	4501                	li	a0,0
    2324:	6105                	addi	sp,sp,32
    2326:	8082                	ret

00002328 <mpu_lp_accel_mode>:
    2328:	02800793          	li	a5,40
    232c:	0aa7ef63          	bltu	a5,a0,23ea <mpu_lp_accel_mode+0xc2>
    2330:	1101                	addi	sp,sp,-32
    2332:	cc22                	sw	s0,24(sp)
    2334:	ca26                	sw	s1,20(sp)
    2336:	20000437          	lui	s0,0x20000
    233a:	ce06                	sw	ra,28(sp)
    233c:	84aa                	mv	s1,a0
    233e:	01c40413          	addi	s0,s0,28 # 2000001c <st>
    2342:	e905                	bnez	a0,2372 <mpu_lp_accel_mode+0x4a>
    2344:	3f95                	jal	22b8 <mpu_set_int_latched>
    2346:	70000793          	li	a5,1792
    234a:	00f11623          	sh	a5,12(sp)
    234e:	4018                	lw	a4,0(s0)
    2350:	405c                	lw	a5,4(s0)
    2352:	0074                	addi	a3,sp,12
    2354:	01274583          	lbu	a1,18(a4)
    2358:	0007c503          	lbu	a0,0(a5)
    235c:	4609                	li	a2,2
    235e:	0b3010ef          	jal	ra,3c10 <MPU6050_I2C_Mem_Write>
    2362:	00040a23          	sb	zero,20(s0)
    2366:	40f2                	lw	ra,28(sp)
    2368:	4462                	lw	s0,24(sp)
    236a:	44d2                	lw	s1,20(sp)
    236c:	4501                	li	a0,0
    236e:	6105                	addi	sp,sp,32
    2370:	8082                	ret
    2372:	4505                	li	a0,1
    2374:	3791                	jal	22b8 <mpu_set_int_latched>
    2376:	02000793          	li	a5,32
    237a:	00f10623          	sb	a5,12(sp)
    237e:	4785                	li	a5,1
    2380:	04f49263          	bne	s1,a5,23c4 <mpu_lp_accel_mode+0x9c>
    2384:	000106a3          	sb	zero,13(sp)
    2388:	4515                	li	a0,5
    238a:	3e65                	jal	1f42 <mpu_set_lpf>
    238c:	00d14783          	lbu	a5,13(sp)
    2390:	4018                	lw	a4,0(s0)
    2392:	0074                	addi	a3,sp,12
    2394:	079a                	slli	a5,a5,0x6
    2396:	0077e793          	ori	a5,a5,7
    239a:	00f106a3          	sb	a5,13(sp)
    239e:	405c                	lw	a5,4(s0)
    23a0:	01274583          	lbu	a1,18(a4)
    23a4:	4609                	li	a2,2
    23a6:	0007c503          	lbu	a0,0(a5)
    23aa:	067010ef          	jal	ra,3c10 <MPU6050_I2C_Mem_Write>
    23ae:	47a1                	li	a5,8
    23b0:	00f40523          	sb	a5,10(s0)
    23b4:	4501                	li	a0,0
    23b6:	4785                	li	a5,1
    23b8:	00040623          	sb	zero,12(s0)
    23bc:	00f40a23          	sb	a5,20(s0)
    23c0:	39d1                	jal	2094 <mpu_configure_fifo>
    23c2:	b755                	j	2366 <mpu_lp_accel_mode+0x3e>
    23c4:	4715                	li	a4,5
    23c6:	00976563          	bltu	a4,s1,23d0 <mpu_lp_accel_mode+0xa8>
    23ca:	00f106a3          	sb	a5,13(sp)
    23ce:	bf6d                	j	2388 <mpu_lp_accel_mode+0x60>
    23d0:	47d1                	li	a5,20
    23d2:	0097e763          	bltu	a5,s1,23e0 <mpu_lp_accel_mode+0xb8>
    23d6:	4789                	li	a5,2
    23d8:	00f106a3          	sb	a5,13(sp)
    23dc:	4529                	li	a0,10
    23de:	b775                	j	238a <mpu_lp_accel_mode+0x62>
    23e0:	478d                	li	a5,3
    23e2:	00f106a3          	sb	a5,13(sp)
    23e6:	4551                	li	a0,20
    23e8:	b74d                	j	238a <mpu_lp_accel_mode+0x62>
    23ea:	557d                	li	a0,-1
    23ec:	8082                	ret

000023ee <mpu_set_sample_rate>:
    23ee:	1101                	addi	sp,sp,-32
    23f0:	cc22                	sw	s0,24(sp)
    23f2:	20000437          	lui	s0,0x20000
    23f6:	ce06                	sw	ra,28(sp)
    23f8:	ca26                	sw	s1,20(sp)
    23fa:	01c40793          	addi	a5,s0,28 # 2000001c <st>
    23fe:	00a7c703          	lbu	a4,10(a5)
    2402:	cb51                	beqz	a4,2496 <mpu_set_sample_rate+0xa8>
    2404:	0247c703          	lbu	a4,36(a5)
    2408:	84aa                	mv	s1,a0
    240a:	557d                	li	a0,-1
    240c:	e315                	bnez	a4,2430 <mpu_set_sample_rate+0x42>
    240e:	0147c783          	lbu	a5,20(a5)
    2412:	01c40413          	addi	s0,s0,28
    2416:	c785                	beqz	a5,243e <mpu_set_sample_rate+0x50>
    2418:	fff48793          	addi	a5,s1,-1
    241c:	07c2                	slli	a5,a5,0x10
    241e:	83c1                	srli	a5,a5,0x10
    2420:	02700713          	li	a4,39
    2424:	00f76b63          	bltu	a4,a5,243a <mpu_set_sample_rate+0x4c>
    2428:	0ff4f513          	andi	a0,s1,255
    242c:	3df5                	jal	2328 <mpu_lp_accel_mode>
    242e:	4501                	li	a0,0
    2430:	40f2                	lw	ra,28(sp)
    2432:	4462                	lw	s0,24(sp)
    2434:	44d2                	lw	s1,20(sp)
    2436:	6105                	addi	sp,sp,32
    2438:	8082                	ret
    243a:	4501                	li	a0,0
    243c:	35f5                	jal	2328 <mpu_lp_accel_mode>
    243e:	3e800713          	li	a4,1000
    2442:	87a6                	mv	a5,s1
    2444:	00977463          	bgeu	a4,s1,244c <mpu_set_sample_rate+0x5e>
    2448:	3e800793          	li	a5,1000
    244c:	01079713          	slli	a4,a5,0x10
    2450:	8341                	srli	a4,a4,0x10
    2452:	4691                	li	a3,4
    2454:	00d77363          	bgeu	a4,a3,245a <mpu_set_sample_rate+0x6c>
    2458:	4791                	li	a5,4
    245a:	07c2                	slli	a5,a5,0x10
    245c:	3e800493          	li	s1,1000
    2460:	83c1                	srli	a5,a5,0x10
    2462:	02f4c7b3          	div	a5,s1,a5
    2466:	4018                	lw	a4,0(s0)
    2468:	00f10693          	addi	a3,sp,15
    246c:	4605                	li	a2,1
    246e:	00174583          	lbu	a1,1(a4)
    2472:	17fd                	addi	a5,a5,-1
    2474:	00f107a3          	sb	a5,15(sp)
    2478:	405c                	lw	a5,4(s0)
    247a:	0007c503          	lbu	a0,0(a5)
    247e:	792010ef          	jal	ra,3c10 <MPU6050_I2C_Mem_Write>
    2482:	00f14503          	lbu	a0,15(sp)
    2486:	0505                	addi	a0,a0,1
    2488:	02a4c533          	div	a0,s1,a0
    248c:	00a41723          	sh	a0,14(s0)
    2490:	8105                	srli	a0,a0,0x1
    2492:	3c45                	jal	1f42 <mpu_set_lpf>
    2494:	bf69                	j	242e <mpu_set_sample_rate+0x40>
    2496:	557d                	li	a0,-1
    2498:	bf61                	j	2430 <mpu_set_sample_rate+0x42>

0000249a <mpu_set_sensors>:
    249a:	1101                	addi	sp,sp,-32
    249c:	cc22                	sw	s0,24(sp)
    249e:	ce06                	sw	ra,28(sp)
    24a0:	ca26                	sw	s1,20(sp)
    24a2:	c84a                	sw	s2,16(sp)
    24a4:	07057793          	andi	a5,a0,112
    24a8:	842a                	mv	s0,a0
    24aa:	c789                	beqz	a5,24b4 <mpu_set_sensors+0x1a>
    24ac:	4785                	li	a5,1
    24ae:	00f107a3          	sb	a5,15(sp)
    24b2:	a021                	j	24ba <mpu_set_sensors+0x20>
    24b4:	c95d                	beqz	a0,256a <mpu_set_sensors+0xd0>
    24b6:	000107a3          	sb	zero,15(sp)
    24ba:	200004b7          	lui	s1,0x20000
    24be:	01c48913          	addi	s2,s1,28 # 2000001c <st>
    24c2:	00492783          	lw	a5,4(s2)
    24c6:	00092703          	lw	a4,0(s2)
    24ca:	00f10693          	addi	a3,sp,15
    24ce:	0007c503          	lbu	a0,0(a5)
    24d2:	01274583          	lbu	a1,18(a4)
    24d6:	4605                	li	a2,1
    24d8:	01c48493          	addi	s1,s1,28
    24dc:	734010ef          	jal	ra,3c10 <MPU6050_I2C_Mem_Write>
    24e0:	00f14783          	lbu	a5,15(sp)
    24e4:	fbf7f793          	andi	a5,a5,-65
    24e8:	00f90623          	sb	a5,12(s2)
    24ec:	04047793          	andi	a5,s0,64
    24f0:	c3c1                	beqz	a5,2570 <mpu_set_sensors+0xd6>
    24f2:	000107a3          	sb	zero,15(sp)
    24f6:	02047793          	andi	a5,s0,32
    24fa:	e799                	bnez	a5,2508 <mpu_set_sensors+0x6e>
    24fc:	00f14783          	lbu	a5,15(sp)
    2500:	0027e793          	ori	a5,a5,2
    2504:	00f107a3          	sb	a5,15(sp)
    2508:	01047793          	andi	a5,s0,16
    250c:	e799                	bnez	a5,251a <mpu_set_sensors+0x80>
    250e:	00f14783          	lbu	a5,15(sp)
    2512:	0017e793          	ori	a5,a5,1
    2516:	00f107a3          	sb	a5,15(sp)
    251a:	00847793          	andi	a5,s0,8
    251e:	e799                	bnez	a5,252c <mpu_set_sensors+0x92>
    2520:	00f14783          	lbu	a5,15(sp)
    2524:	0387e793          	ori	a5,a5,56
    2528:	00f107a3          	sb	a5,15(sp)
    252c:	40dc                	lw	a5,4(s1)
    252e:	4098                	lw	a4,0(s1)
    2530:	00f10693          	addi	a3,sp,15
    2534:	0007c503          	lbu	a0,0(a5)
    2538:	01374583          	lbu	a1,19(a4)
    253c:	4605                	li	a2,1
    253e:	6d2010ef          	jal	ra,3c10 <MPU6050_I2C_Mem_Write>
    2542:	0f747793          	andi	a5,s0,247
    2546:	c399                	beqz	a5,254c <mpu_set_sensors+0xb2>
    2548:	4501                	li	a0,0
    254a:	33bd                	jal	22b8 <mpu_set_int_latched>
    254c:	03200513          	li	a0,50
    2550:	00848523          	sb	s0,10(s1)
    2554:	00048a23          	sb	zero,20(s1)
    2558:	0dc030ef          	jal	ra,5634 <Delay_Ms>
    255c:	40f2                	lw	ra,28(sp)
    255e:	4462                	lw	s0,24(sp)
    2560:	44d2                	lw	s1,20(sp)
    2562:	4942                	lw	s2,16(sp)
    2564:	4501                	li	a0,0
    2566:	6105                	addi	sp,sp,32
    2568:	8082                	ret
    256a:	04000793          	li	a5,64
    256e:	b781                	j	24ae <mpu_set_sensors+0x14>
    2570:	4791                	li	a5,4
    2572:	00f107a3          	sb	a5,15(sp)
    2576:	b741                	j	24f6 <mpu_set_sensors+0x5c>

00002578 <mpu_init>:
    2578:	1101                	addi	sp,sp,-32
    257a:	cc22                	sw	s0,24(sp)
    257c:	20000437          	lui	s0,0x20000
    2580:	ca26                	sw	s1,20(sp)
    2582:	f8000793          	li	a5,-128
    2586:	01c40493          	addi	s1,s0,28 # 2000001c <st>
    258a:	4098                	lw	a4,0(s1)
    258c:	00f10423          	sb	a5,8(sp)
    2590:	40dc                	lw	a5,4(s1)
    2592:	ce06                	sw	ra,28(sp)
    2594:	01274583          	lbu	a1,18(a4)
    2598:	0007c503          	lbu	a0,0(a5)
    259c:	0034                	addi	a3,sp,8
    259e:	4605                	li	a2,1
    25a0:	670010ef          	jal	ra,3c10 <MPU6050_I2C_Mem_Write>
    25a4:	06400513          	li	a0,100
    25a8:	08c030ef          	jal	ra,5634 <Delay_Ms>
    25ac:	4098                	lw	a4,0(s1)
    25ae:	40dc                	lw	a5,4(s1)
    25b0:	00010423          	sb	zero,8(sp)
    25b4:	01274583          	lbu	a1,18(a4)
    25b8:	0007c503          	lbu	a0,0(a5)
    25bc:	0034                	addi	a3,sp,8
    25be:	4605                	li	a2,1
    25c0:	650010ef          	jal	ra,3c10 <MPU6050_I2C_Mem_Write>
    25c4:	4098                	lw	a4,0(s1)
    25c6:	40dc                	lw	a5,4(s1)
    25c8:	0034                	addi	a3,sp,8
    25ca:	01674583          	lbu	a1,22(a4)
    25ce:	0007c503          	lbu	a0,0(a5)
    25d2:	4619                	li	a2,6
    25d4:	01c40413          	addi	s0,s0,28
    25d8:	043010ef          	jal	ra,3e1a <MPU6050_I2C_Mem_Read>
    25dc:	00d14783          	lbu	a5,13(sp)
    25e0:	00b14703          	lbu	a4,11(sp)
    25e4:	078a                	slli	a5,a5,0x2
    25e6:	0706                	slli	a4,a4,0x1
    25e8:	8b09                	andi	a4,a4,2
    25ea:	8b91                	andi	a5,a5,4
    25ec:	8fd9                	or	a5,a5,a4
    25ee:	00914703          	lbu	a4,9(sp)
    25f2:	8b05                	andi	a4,a4,1
    25f4:	8fd9                	or	a5,a5,a4
    25f6:	cfc9                	beqz	a5,2690 <mpu_init+0x118>
    25f8:	4705                	li	a4,1
    25fa:	0ff7f593          	andi	a1,a5,255
    25fe:	00e79563          	bne	a5,a4,2608 <mpu_init+0x90>
    2602:	00f409a3          	sb	a5,19(s0)
    2606:	a031                	j	2612 <mpu_init+0x9a>
    2608:	4789                	li	a5,2
    260a:	06f59663          	bne	a1,a5,2676 <mpu_init+0xfe>
    260e:	000409a3          	sb	zero,19(s0)
    2612:	57fd                	li	a5,-1
    2614:	00f41723          	sh	a5,14(s0)
    2618:	00f40823          	sb	a5,16(s0)
    261c:	00f40923          	sb	a5,18(s0)
    2620:	57fd                	li	a5,-1
    2622:	c41c                	sw	a5,8(s0)
    2624:	00041a23          	sh	zero,20(s0)
    2628:	4785                	li	a5,1
    262a:	4631                	li	a2,12
    262c:	4581                	li	a1,0
    262e:	01640513          	addi	a0,s0,22
    2632:	00f40623          	sb	a5,12(s0)
    2636:	bcbfd0ef          	jal	ra,200 <memset>
    263a:	4785                	li	a5,1
    263c:	02f41123          	sh	a5,34(s0)
    2640:	02042223          	sw	zero,36(s0)
    2644:	7d000513          	li	a0,2000
    2648:	f4aff0ef          	jal	ra,1d92 <mpu_set_gyro_fsr>
    264c:	e91d                	bnez	a0,2682 <mpu_init+0x10a>
    264e:	4509                	li	a0,2
    2650:	821ff0ef          	jal	ra,1e70 <mpu_set_accel_fsr>
    2654:	e51d                	bnez	a0,2682 <mpu_init+0x10a>
    2656:	02a00513          	li	a0,42
    265a:	8e9ff0ef          	jal	ra,1f42 <mpu_set_lpf>
    265e:	e115                	bnez	a0,2682 <mpu_init+0x10a>
    2660:	03200513          	li	a0,50
    2664:	3369                	jal	23ee <mpu_set_sample_rate>
    2666:	ed11                	bnez	a0,2682 <mpu_init+0x10a>
    2668:	3435                	jal	2094 <mpu_configure_fifo>
    266a:	ed01                	bnez	a0,2682 <mpu_init+0x10a>
    266c:	3e91                	jal	21c0 <mpu_set_bypass>
    266e:	842a                	mv	s0,a0
    2670:	e909                	bnez	a0,2682 <mpu_init+0x10a>
    2672:	3525                	jal	249a <mpu_set_sensors>
    2674:	a801                	j	2684 <mpu_init+0x10c>
    2676:	00009537          	lui	a0,0x9
    267a:	d0850513          	addi	a0,a0,-760 # 8d08 <hw+0x3c>
    267e:	7f9030ef          	jal	ra,6676 <printf>
    2682:	547d                	li	s0,-1
    2684:	8522                	mv	a0,s0
    2686:	40f2                	lw	ra,28(sp)
    2688:	4462                	lw	s0,24(sp)
    268a:	44d2                	lw	s1,20(sp)
    268c:	6105                	addi	sp,sp,32
    268e:	8082                	ret
    2690:	40dc                	lw	a5,4(s1)
    2692:	4098                	lw	a4,0(s1)
    2694:	0034                	addi	a3,sp,8
    2696:	0007c503          	lbu	a0,0(a5)
    269a:	00374583          	lbu	a1,3(a4)
    269e:	4605                	li	a2,1
    26a0:	77a010ef          	jal	ra,3e1a <MPU6050_I2C_Mem_Read>
    26a4:	00814783          	lbu	a5,8(sp)
    26a8:	8bbd                	andi	a5,a5,15
    26aa:	eb81                	bnez	a5,26ba <mpu_init+0x142>
    26ac:	00009537          	lui	a0,0x9
    26b0:	d3050513          	addi	a0,a0,-720 # 8d30 <hw+0x64>
    26b4:	7e7030ef          	jal	ra,669a <puts>
    26b8:	b7e9                	j	2682 <mpu_init+0x10a>
    26ba:	4711                	li	a4,4
    26bc:	f4e799e3          	bne	a5,a4,260e <mpu_init+0x96>
    26c0:	00009537          	lui	a0,0x9
    26c4:	d7c50513          	addi	a0,a0,-644 # 8d7c <hw+0xb0>
    26c8:	7d3030ef          	jal	ra,669a <puts>
    26cc:	4785                	li	a5,1
    26ce:	bf15                	j	2602 <mpu_init+0x8a>

000026d0 <mpu_write_mem>:
    26d0:	ea11                	bnez	a2,26e4 <mpu_write_mem+0x14>
    26d2:	557d                	li	a0,-1
    26d4:	8082                	ret
    26d6:	557d                	li	a0,-1
    26d8:	40f2                	lw	ra,28(sp)
    26da:	4462                	lw	s0,24(sp)
    26dc:	44d2                	lw	s1,20(sp)
    26de:	4942                	lw	s2,16(sp)
    26e0:	6105                	addi	sp,sp,32
    26e2:	8082                	ret
    26e4:	1101                	addi	sp,sp,-32
    26e6:	cc22                	sw	s0,24(sp)
    26e8:	20000437          	lui	s0,0x20000
    26ec:	01c40413          	addi	s0,s0,28 # 2000001c <st>
    26f0:	00a44783          	lbu	a5,10(s0)
    26f4:	ce06                	sw	ra,28(sp)
    26f6:	ca26                	sw	s1,20(sp)
    26f8:	c84a                	sw	s2,16(sp)
    26fa:	dff1                	beqz	a5,26d6 <mpu_write_mem+0x6>
    26fc:	00855713          	srli	a4,a0,0x8
    2700:	00851793          	slli	a5,a0,0x8
    2704:	8fd9                	or	a5,a5,a4
    2706:	00f11623          	sh	a5,12(sp)
    270a:	405c                	lw	a5,4(s0)
    270c:	0ff57513          	andi	a0,a0,255
    2710:	952e                	add	a0,a0,a1
    2712:	00a7d703          	lhu	a4,10(a5)
    2716:	fca740e3          	blt	a4,a0,26d6 <mpu_write_mem+0x6>
    271a:	4018                	lw	a4,0(s0)
    271c:	0007c503          	lbu	a0,0(a5)
    2720:	84ae                	mv	s1,a1
    2722:	01874583          	lbu	a1,24(a4)
    2726:	8932                	mv	s2,a2
    2728:	0074                	addi	a3,sp,12
    272a:	4609                	li	a2,2
    272c:	4e4010ef          	jal	ra,3c10 <MPU6050_I2C_Mem_Write>
    2730:	4018                	lw	a4,0(s0)
    2732:	405c                	lw	a5,4(s0)
    2734:	86ca                	mv	a3,s2
    2736:	01574583          	lbu	a1,21(a4)
    273a:	0007c503          	lbu	a0,0(a5)
    273e:	0ff4f613          	andi	a2,s1,255
    2742:	4ce010ef          	jal	ra,3c10 <MPU6050_I2C_Mem_Write>
    2746:	4501                	li	a0,0
    2748:	bf41                	j	26d8 <mpu_write_mem+0x8>

0000274a <mpu_read_mem>:
    274a:	ea11                	bnez	a2,275e <mpu_read_mem+0x14>
    274c:	557d                	li	a0,-1
    274e:	8082                	ret
    2750:	557d                	li	a0,-1
    2752:	40f2                	lw	ra,28(sp)
    2754:	4462                	lw	s0,24(sp)
    2756:	44d2                	lw	s1,20(sp)
    2758:	4942                	lw	s2,16(sp)
    275a:	6105                	addi	sp,sp,32
    275c:	8082                	ret
    275e:	1101                	addi	sp,sp,-32
    2760:	cc22                	sw	s0,24(sp)
    2762:	20000437          	lui	s0,0x20000
    2766:	01c40413          	addi	s0,s0,28 # 2000001c <st>
    276a:	00a44783          	lbu	a5,10(s0)
    276e:	ce06                	sw	ra,28(sp)
    2770:	ca26                	sw	s1,20(sp)
    2772:	c84a                	sw	s2,16(sp)
    2774:	dff1                	beqz	a5,2750 <mpu_read_mem+0x6>
    2776:	00855713          	srli	a4,a0,0x8
    277a:	00851793          	slli	a5,a0,0x8
    277e:	8fd9                	or	a5,a5,a4
    2780:	00f11623          	sh	a5,12(sp)
    2784:	405c                	lw	a5,4(s0)
    2786:	0ff57513          	andi	a0,a0,255
    278a:	952e                	add	a0,a0,a1
    278c:	00a7d703          	lhu	a4,10(a5)
    2790:	fca740e3          	blt	a4,a0,2750 <mpu_read_mem+0x6>
    2794:	4018                	lw	a4,0(s0)
    2796:	0007c503          	lbu	a0,0(a5)
    279a:	84ae                	mv	s1,a1
    279c:	01874583          	lbu	a1,24(a4)
    27a0:	8932                	mv	s2,a2
    27a2:	0074                	addi	a3,sp,12
    27a4:	4609                	li	a2,2
    27a6:	46a010ef          	jal	ra,3c10 <MPU6050_I2C_Mem_Write>
    27aa:	4018                	lw	a4,0(s0)
    27ac:	405c                	lw	a5,4(s0)
    27ae:	86ca                	mv	a3,s2
    27b0:	01574583          	lbu	a1,21(a4)
    27b4:	0007c503          	lbu	a0,0(a5)
    27b8:	0ff4f613          	andi	a2,s1,255
    27bc:	65e010ef          	jal	ra,3e1a <MPU6050_I2C_Mem_Read>
    27c0:	4501                	li	a0,0
    27c2:	bf41                	j	2752 <mpu_read_mem+0x8>

000027c4 <mpu_load_firmware>:
    27c4:	715d                	addi	sp,sp,-80
    27c6:	c2a6                	sw	s1,68(sp)
    27c8:	200004b7          	lui	s1,0x20000
    27cc:	c686                	sw	ra,76(sp)
    27ce:	c4a2                	sw	s0,72(sp)
    27d0:	c0ca                	sw	s2,64(sp)
    27d2:	de4e                	sw	s3,60(sp)
    27d4:	dc52                	sw	s4,56(sp)
    27d6:	da56                	sw	s5,52(sp)
    27d8:	d85a                	sw	s6,48(sp)
    27da:	d65e                	sw	s7,44(sp)
    27dc:	d462                	sw	s8,40(sp)
    27de:	d266                	sw	s9,36(sp)
    27e0:	d06a                	sw	s10,32(sp)
    27e2:	01c48793          	addi	a5,s1,28 # 2000001c <st>
    27e6:	0257c783          	lbu	a5,37(a5)
    27ea:	c385                	beqz	a5,280a <mpu_load_firmware+0x46>
    27ec:	557d                	li	a0,-1
    27ee:	40b6                	lw	ra,76(sp)
    27f0:	4426                	lw	s0,72(sp)
    27f2:	4496                	lw	s1,68(sp)
    27f4:	4906                	lw	s2,64(sp)
    27f6:	59f2                	lw	s3,60(sp)
    27f8:	5a62                	lw	s4,56(sp)
    27fa:	5ad2                	lw	s5,52(sp)
    27fc:	5b42                	lw	s6,48(sp)
    27fe:	5bb2                	lw	s7,44(sp)
    2800:	5c22                	lw	s8,40(sp)
    2802:	5c92                	lw	s9,36(sp)
    2804:	5d02                	lw	s10,32(sp)
    2806:	6161                	addi	sp,sp,80
    2808:	8082                	ret
    280a:	d1ed                	beqz	a1,27ec <mpu_load_firmware+0x28>
    280c:	6bc1                	lui	s7,0x10
    280e:	01c48493          	addi	s1,s1,28
    2812:	8b36                	mv	s6,a3
    2814:	8932                	mv	s2,a2
    2816:	8a2e                	mv	s4,a1
    2818:	89aa                	mv	s3,a0
    281a:	4401                	li	s0,0
    281c:	4cc1                	li	s9,16
    281e:	1bfd                	addi	s7,s7,-1
    2820:	03346b63          	bltu	s0,s3,2856 <mpu_load_firmware+0x92>
    2824:	00891613          	slli	a2,s2,0x8
    2828:	40dc                	lw	a5,4(s1)
    282a:	4098                	lw	a4,0(s1)
    282c:	00895913          	srli	s2,s2,0x8
    2830:	01266933          	or	s2,a2,s2
    2834:	01211623          	sh	s2,12(sp)
    2838:	0007c503          	lbu	a0,0(a5)
    283c:	01a74583          	lbu	a1,26(a4)
    2840:	0074                	addi	a3,sp,12
    2842:	4609                	li	a2,2
    2844:	3cc010ef          	jal	ra,3c10 <MPU6050_I2C_Mem_Write>
    2848:	4785                	li	a5,1
    284a:	02f482a3          	sb	a5,37(s1)
    284e:	03649323          	sh	s6,38(s1)
    2852:	4501                	li	a0,0
    2854:	bf69                	j	27ee <mpu_load_firmware+0x2a>
    2856:	40898ab3          	sub	s5,s3,s0
    285a:	015cd363          	bge	s9,s5,2860 <mpu_load_firmware+0x9c>
    285e:	4ac1                	li	s5,16
    2860:	010a9c13          	slli	s8,s5,0x10
    2864:	010c5c13          	srli	s8,s8,0x10
    2868:	008a0d33          	add	s10,s4,s0
    286c:	866a                	mv	a2,s10
    286e:	85e2                	mv	a1,s8
    2870:	8522                	mv	a0,s0
    2872:	3db9                	jal	26d0 <mpu_write_mem>
    2874:	fd25                	bnez	a0,27ec <mpu_load_firmware+0x28>
    2876:	0810                	addi	a2,sp,16
    2878:	85e2                	mv	a1,s8
    287a:	8522                	mv	a0,s0
    287c:	35f9                	jal	274a <mpu_read_mem>
    287e:	f53d                	bnez	a0,27ec <mpu_load_firmware+0x28>
    2880:	017af633          	and	a2,s5,s7
    2884:	080c                	addi	a1,sp,16
    2886:	856a                	mv	a0,s10
    2888:	2cc060ef          	jal	ra,8b54 <memcmp>
    288c:	e509                	bnez	a0,2896 <mpu_load_firmware+0xd2>
    288e:	9462                	add	s0,s0,s8
    2890:	0442                	slli	s0,s0,0x10
    2892:	8041                	srli	s0,s0,0x10
    2894:	b771                	j	2820 <mpu_load_firmware+0x5c>
    2896:	5579                	li	a0,-2
    2898:	bf99                	j	27ee <mpu_load_firmware+0x2a>

0000289a <mpu_set_dmp_state>:
    289a:	1101                	addi	sp,sp,-32
    289c:	cc22                	sw	s0,24(sp)
    289e:	20000437          	lui	s0,0x20000
    28a2:	01c40413          	addi	s0,s0,28 # 2000001c <st>
    28a6:	02444703          	lbu	a4,36(s0)
    28aa:	ce06                	sw	ra,28(sp)
    28ac:	04a70463          	beq	a4,a0,28f4 <mpu_set_dmp_state+0x5a>
    28b0:	c539                	beqz	a0,28fe <mpu_set_dmp_state+0x64>
    28b2:	02544783          	lbu	a5,37(s0)
    28b6:	557d                	li	a0,-1
    28b8:	cf9d                	beqz	a5,28f6 <mpu_set_dmp_state+0x5c>
    28ba:	4501                	li	a0,0
    28bc:	aaeff0ef          	jal	ra,1b6a <set_int_enable>
    28c0:	4501                	li	a0,0
    28c2:	8ffff0ef          	jal	ra,21c0 <mpu_set_bypass>
    28c6:	02645503          	lhu	a0,38(s0)
    28ca:	3615                	jal	23ee <mpu_set_sample_rate>
    28cc:	405c                	lw	a5,4(s0)
    28ce:	000107a3          	sb	zero,15(sp)
    28d2:	00f10693          	addi	a3,sp,15
    28d6:	0007c503          	lbu	a0,0(a5)
    28da:	4605                	li	a2,1
    28dc:	02300593          	li	a1,35
    28e0:	330010ef          	jal	ra,3c10 <MPU6050_I2C_Mem_Write>
    28e4:	4785                	li	a5,1
    28e6:	4505                	li	a0,1
    28e8:	02f40223          	sb	a5,36(s0)
    28ec:	a7eff0ef          	jal	ra,1b6a <set_int_enable>
    28f0:	ae4ff0ef          	jal	ra,1bd4 <mpu_reset_fifo>
    28f4:	4501                	li	a0,0
    28f6:	40f2                	lw	ra,28(sp)
    28f8:	4462                	lw	s0,24(sp)
    28fa:	6105                	addi	sp,sp,32
    28fc:	8082                	ret
    28fe:	a6cff0ef          	jal	ra,1b6a <set_int_enable>
    2902:	01044783          	lbu	a5,16(s0)
    2906:	00f10693          	addi	a3,sp,15
    290a:	4605                	li	a2,1
    290c:	00f107a3          	sb	a5,15(sp)
    2910:	405c                	lw	a5,4(s0)
    2912:	02300593          	li	a1,35
    2916:	0007c503          	lbu	a0,0(a5)
    291a:	2f6010ef          	jal	ra,3c10 <MPU6050_I2C_Mem_Write>
    291e:	02040223          	sb	zero,36(s0)
    2922:	b7f9                	j	28f0 <mpu_set_dmp_state+0x56>

00002924 <mpu_run_self_test>:
    2924:	7159                	addi	sp,sp,-112
    2926:	d4a2                	sw	s0,104(sp)
    2928:	20000437          	lui	s0,0x20000
    292c:	d0ca                	sw	s2,96(sp)
    292e:	cad6                	sw	s5,84(sp)
    2930:	01c40793          	addi	a5,s0,28 # 2000001c <st>
    2934:	d686                	sw	ra,108(sp)
    2936:	d2a6                	sw	s1,100(sp)
    2938:	cece                	sw	s3,92(sp)
    293a:	ccd2                	sw	s4,88(sp)
    293c:	c8da                	sw	s6,80(sp)
    293e:	c6de                	sw	s7,76(sp)
    2940:	0247c483          	lbu	s1,36(a5)
    2944:	892a                	mv	s2,a0
    2946:	8aae                	mv	s5,a1
    2948:	01c40413          	addi	s0,s0,28
    294c:	c481                	beqz	s1,2954 <mpu_run_self_test+0x30>
    294e:	4501                	li	a0,0
    2950:	37a9                	jal	289a <mpu_set_dmp_state>
    2952:	4485                	li	s1,1
    2954:	00e10513          	addi	a0,sp,14
    2958:	bfaff0ef          	jal	ra,1d52 <mpu_get_gyro_fsr>
    295c:	00d10513          	addi	a0,sp,13
    2960:	cc0ff0ef          	jal	ra,1e20 <mpu_get_accel_fsr>
    2964:	01210513          	addi	a0,sp,18
    2968:	d8eff0ef          	jal	ra,1ef6 <mpu_get_lpf>
    296c:	0808                	addi	a0,sp,16
    296e:	e64ff0ef          	jal	ra,1fd2 <mpu_get_sample_rate>
    2972:	4601                	li	a2,0
    2974:	85d6                	mv	a1,s5
    2976:	854a                	mv	a0,s2
    2978:	00a44a03          	lbu	s4,10(s0)
    297c:	01044983          	lbu	s3,16(s0)
    2980:	de9fe0ef          	jal	ra,1768 <get_st_biases>
    2984:	1a051463          	bnez	a0,2b2c <mpu_run_self_test+0x208>
    2988:	4605                	li	a2,1
    298a:	102c                	addi	a1,sp,40
    298c:	0868                	addi	a0,sp,28
    298e:	ddbfe0ef          	jal	ra,1768 <get_st_biases>
    2992:	20051463          	bnez	a0,2b9a <mpu_run_self_test+0x276>
    2996:	405c                	lw	a5,4(s0)
    2998:	0834                	addi	a3,sp,24
    299a:	4611                	li	a2,4
    299c:	0007c503          	lbu	a0,0(a5)
    29a0:	45b5                	li	a1,13
    29a2:	478010ef          	jal	ra,3e1a <MPU6050_I2C_Mem_Read>
    29a6:	01b14683          	lbu	a3,27(sp)
    29aa:	01814703          	lbu	a4,24(sp)
    29ae:	184c                	addi	a1,sp,52
    29b0:	4046d793          	srai	a5,a3,0x4
    29b4:	870d                	srai	a4,a4,0x3
    29b6:	8b8d                	andi	a5,a5,3
    29b8:	8b71                	andi	a4,a4,28
    29ba:	8f5d                	or	a4,a4,a5
    29bc:	00e10a23          	sb	a4,20(sp)
    29c0:	01914703          	lbu	a4,25(sp)
    29c4:	4026d793          	srai	a5,a3,0x2
    29c8:	8b8d                	andi	a5,a5,3
    29ca:	870d                	srai	a4,a4,0x3
    29cc:	8b71                	andi	a4,a4,28
    29ce:	8f5d                	or	a4,a4,a5
    29d0:	01a14783          	lbu	a5,26(sp)
    29d4:	00e10aa3          	sb	a4,21(sp)
    29d8:	00009737          	lui	a4,0x9
    29dc:	878d                	srai	a5,a5,0x3
    29de:	da072707          	flw	fa4,-608(a4) # 8da0 <hw+0xd4>
    29e2:	00009737          	lui	a4,0x9
    29e6:	8a8d                	andi	a3,a3,3
    29e8:	8bf1                	andi	a5,a5,28
    29ea:	da472687          	flw	fa3,-604(a4) # 8da4 <hw+0xd8>
    29ee:	8fd5                	or	a5,a5,a3
    29f0:	00f10b23          	sb	a5,22(sp)
    29f4:	0854                	addi	a3,sp,20
    29f6:	0090                	addi	a2,sp,64
    29f8:	87ae                	mv	a5,a1
    29fa:	8b2e                	mv	s6,a1
    29fc:	0006c703          	lbu	a4,0(a3)
    2a00:	1a071463          	bnez	a4,2ba8 <mpu_run_self_test+0x284>
    2a04:	0007a023          	sw	zero,0(a5)
    2a08:	0791                	addi	a5,a5,4
    2a0a:	0685                	addi	a3,a3,1
    2a0c:	fef618e3          	bne	a2,a5,29fc <mpu_run_self_test+0xd8>
    2a10:	000097b7          	lui	a5,0x9
    2a14:	db47a587          	flw	fa1,-588(a5) # 8db4 <hw+0xe8>
    2a18:	000097b7          	lui	a5,0x9
    2a1c:	db87a507          	flw	fa0,-584(a5) # 8db8 <hw+0xec>
    2a20:	000097b7          	lui	a5,0x9
    2a24:	00009bb7          	lui	s7,0x9
    2a28:	dac7a007          	flw	ft0,-596(a5) # 8dac <hw+0xe0>
    2a2c:	000097b7          	lui	a5,0x9
    2a30:	da8ba687          	flw	fa3,-600(s7) # 8da8 <hw+0xdc>
    2a34:	f0000653          	fmv.w.x	fa2,zero
    2a38:	db07a087          	flw	ft1,-592(a5) # 8db0 <hw+0xe4>
    2a3c:	1038                	addi	a4,sp,40
    2a3e:	4601                	li	a2,0
    2a40:	4681                	li	a3,0
    2a42:	4505                	li	a0,1
    2a44:	480d                	li	a6,3
    2a46:	00269793          	slli	a5,a3,0x2
    2a4a:	97d6                	add	a5,a5,s5
    2a4c:	00072883          	lw	a7,0(a4)
    2a50:	439c                	lw	a5,0(a5)
    2a52:	6198                	flw	fa4,0(a1)
    2a54:	411787b3          	sub	a5,a5,a7
    2a58:	41f7d893          	srai	a7,a5,0x1f
    2a5c:	00f8c7b3          	xor	a5,a7,a5
    2a60:	411787b3          	sub	a5,a5,a7
    2a64:	d007f7d3          	fcvt.s.w	fa5,a5
    2a68:	a0c727d3          	feq.s	a5,fa4,fa2
    2a6c:	10d7f7d3          	fmul.s	fa5,fa5,fa3
    2a70:	14079963          	bnez	a5,2bc2 <mpu_run_self_test+0x29e>
    2a74:	18e7f7d3          	fdiv.s	fa5,fa5,fa4
    2a78:	0807f7d3          	fsub.s	fa5,fa5,ft0
    2a7c:	20f7a7d3          	fabs.s	fa5,fa5
    2a80:	a0f097d3          	flt.s	a5,ft1,fa5
    2a84:	c781                	beqz	a5,2a8c <mpu_run_self_test+0x168>
    2a86:	00d517b3          	sll	a5,a0,a3
    2a8a:	8e5d                	or	a2,a2,a5
    2a8c:	0685                	addi	a3,a3,1
    2a8e:	0711                	addi	a4,a4,4
    2a90:	0591                	addi	a1,a1,4
    2a92:	fb069ae3          	bne	a3,a6,2a46 <mpu_run_self_test+0x122>
    2a96:	405c                	lw	a5,4(s0)
    2a98:	86da                	mv	a3,s6
    2a9a:	45b5                	li	a1,13
    2a9c:	0007c503          	lbu	a0,0(a5)
    2aa0:	0ff67a93          	andi	s5,a2,255
    2aa4:	460d                	li	a2,3
    2aa6:	374010ef          	jal	ra,3e1a <MPU6050_I2C_Mem_Read>
    2aaa:	03614783          	lbu	a5,54(sp)
    2aae:	03415703          	lhu	a4,52(sp)
    2ab2:	6689                	lui	a3,0x2
    2ab4:	8bfd                	andi	a5,a5,31
    2ab6:	02f10b23          	sb	a5,54(sp)
    2aba:	000097b7          	lui	a5,0x9
    2abe:	dc47a607          	flw	fa2,-572(a5) # 8dc4 <hw+0xf8>
    2ac2:	000097b7          	lui	a5,0x9
    2ac6:	dc87a587          	flw	fa1,-568(a5) # 8dc8 <hw+0xfc>
    2aca:	000097b7          	lui	a5,0x9
    2ace:	dbc7a507          	flw	fa0,-580(a5) # 8dbc <hw+0xf0>
    2ad2:	000097b7          	lui	a5,0x9
    2ad6:	dac7a007          	flw	ft0,-596(a5) # 8dac <hw+0xe0>
    2ada:	000097b7          	lui	a5,0x9
    2ade:	f1f68693          	addi	a3,a3,-225 # 1f1f <mpu_get_lpf+0x29>
    2ae2:	da8ba687          	flw	fa3,-600(s7)
    2ae6:	dc07a087          	flw	ft1,-576(a5) # 8dc0 <hw+0xf4>
    2aea:	8f75                	and	a4,a4,a3
    2aec:	02e11a23          	sh	a4,52(sp)
    2af0:	0874                	addi	a3,sp,28
    2af2:	4501                	li	a0,0
    2af4:	4701                	li	a4,0
    2af6:	4585                	li	a1,1
    2af8:	000098b7          	lui	a7,0x9
    2afc:	480d                	li	a6,3
    2afe:	00271793          	slli	a5,a4,0x2
    2b02:	97ca                	add	a5,a5,s2
    2b04:	4290                	lw	a2,0(a3)
    2b06:	439c                	lw	a5,0(a5)
    2b08:	8f91                	sub	a5,a5,a2
    2b0a:	41f7d613          	srai	a2,a5,0x1f
    2b0e:	8fb1                	xor	a5,a5,a2
    2b10:	8f91                	sub	a5,a5,a2
    2b12:	d007f7d3          	fcvt.s.w	fa5,a5
    2b16:	00eb07b3          	add	a5,s6,a4
    2b1a:	0007c603          	lbu	a2,0(a5)
    2b1e:	10d7f7d3          	fmul.s	fa5,fa5,fa3
    2b22:	0e060863          	beqz	a2,2c12 <mpu_run_self_test+0x2ee>
    2b26:	d9c8a707          	flw	fa4,-612(a7) # 8d9c <hw+0xd0>
    2b2a:	a06d                	j	2bd4 <mpu_run_self_test+0x2b0>
    2b2c:	4601                	li	a2,0
    2b2e:	85d6                	mv	a1,s5
    2b30:	854a                	mv	a0,s2
    2b32:	c37fe0ef          	jal	ra,1768 <get_st_biases>
    2b36:	e40509e3          	beqz	a0,2988 <mpu_run_self_test+0x64>
    2b3a:	4901                	li	s2,0
    2b3c:	57fd                	li	a5,-1
    2b3e:	00e15503          	lhu	a0,14(sp)
    2b42:	00f41723          	sh	a5,14(s0)
    2b46:	00f40823          	sb	a5,16(s0)
    2b4a:	57fd                	li	a5,-1
    2b4c:	c41c                	sw	a5,8(s0)
    2b4e:	4785                	li	a5,1
    2b50:	00f40623          	sb	a5,12(s0)
    2b54:	a3eff0ef          	jal	ra,1d92 <mpu_set_gyro_fsr>
    2b58:	00d14503          	lbu	a0,13(sp)
    2b5c:	b14ff0ef          	jal	ra,1e70 <mpu_set_accel_fsr>
    2b60:	01215503          	lhu	a0,18(sp)
    2b64:	bdeff0ef          	jal	ra,1f42 <mpu_set_lpf>
    2b68:	01015503          	lhu	a0,16(sp)
    2b6c:	883ff0ef          	jal	ra,23ee <mpu_set_sample_rate>
    2b70:	8552                	mv	a0,s4
    2b72:	929ff0ef          	jal	ra,249a <mpu_set_sensors>
    2b76:	854e                	mv	a0,s3
    2b78:	d1cff0ef          	jal	ra,2094 <mpu_configure_fifo>
    2b7c:	c099                	beqz	s1,2b82 <mpu_run_self_test+0x25e>
    2b7e:	4505                	li	a0,1
    2b80:	3b29                	jal	289a <mpu_set_dmp_state>
    2b82:	50b6                	lw	ra,108(sp)
    2b84:	5426                	lw	s0,104(sp)
    2b86:	854a                	mv	a0,s2
    2b88:	5496                	lw	s1,100(sp)
    2b8a:	5906                	lw	s2,96(sp)
    2b8c:	49f6                	lw	s3,92(sp)
    2b8e:	4a66                	lw	s4,88(sp)
    2b90:	4ad6                	lw	s5,84(sp)
    2b92:	4b46                	lw	s6,80(sp)
    2b94:	4bb6                	lw	s7,76(sp)
    2b96:	6165                	addi	sp,sp,112
    2b98:	8082                	ret
    2b9a:	4605                	li	a2,1
    2b9c:	102c                	addi	a1,sp,40
    2b9e:	0868                	addi	a0,sp,28
    2ba0:	bc9fe0ef          	jal	ra,1768 <get_st_biases>
    2ba4:	f959                	bnez	a0,2b3a <mpu_run_self_test+0x216>
    2ba6:	bbc5                	j	2996 <mpu_run_self_test+0x72>
    2ba8:	e398                	fsw	fa4,0(a5)
    2baa:	177d                	addi	a4,a4,-1
    2bac:	0ff77713          	andi	a4,a4,255
    2bb0:	e701                	bnez	a4,2bb8 <mpu_run_self_test+0x294>
    2bb2:	00068023          	sb	zero,0(a3)
    2bb6:	bd89                	j	2a08 <mpu_run_self_test+0xe4>
    2bb8:	639c                	flw	fa5,0(a5)
    2bba:	10d7f7d3          	fmul.s	fa5,fa5,fa3
    2bbe:	e39c                	fsw	fa5,0(a5)
    2bc0:	b7ed                	j	2baa <mpu_run_self_test+0x286>
    2bc2:	a0b797d3          	flt.s	a5,fa5,fa1
    2bc6:	ec0790e3          	bnez	a5,2a86 <mpu_run_self_test+0x162>
    2bca:	a0f517d3          	flt.s	a5,fa0,fa5
    2bce:	bd5d                	j	2a84 <mpu_run_self_test+0x160>
    2bd0:	10a77753          	fmul.s	fa4,fa4,fa0
    2bd4:	167d                	addi	a2,a2,-1
    2bd6:	0ff67613          	andi	a2,a2,255
    2bda:	fa7d                	bnez	a2,2bd0 <mpu_run_self_test+0x2ac>
    2bdc:	18e7f7d3          	fdiv.s	fa5,fa5,fa4
    2be0:	00078023          	sb	zero,0(a5)
    2be4:	0807f7d3          	fsub.s	fa5,fa5,ft0
    2be8:	20f7a7d3          	fabs.s	fa5,fa5
    2bec:	a0f097d3          	flt.s	a5,ft1,fa5
    2bf0:	c781                	beqz	a5,2bf8 <mpu_run_self_test+0x2d4>
    2bf2:	00e597b3          	sll	a5,a1,a4
    2bf6:	8d5d                	or	a0,a0,a5
    2bf8:	0705                	addi	a4,a4,1
    2bfa:	0691                	addi	a3,a3,4
    2bfc:	f10711e3          	bne	a4,a6,2afe <mpu_run_self_test+0x1da>
    2c00:	0ff57513          	andi	a0,a0,255
    2c04:	00153913          	seqz	s2,a0
    2c08:	f20a9ae3          	bnez	s5,2b3c <mpu_run_self_test+0x218>
    2c0c:	00296913          	ori	s2,s2,2
    2c10:	b735                	j	2b3c <mpu_run_self_test+0x218>
    2c12:	a0c797d3          	flt.s	a5,fa5,fa2
    2c16:	fff1                	bnez	a5,2bf2 <mpu_run_self_test+0x2ce>
    2c18:	a0f597d3          	flt.s	a5,fa1,fa5
    2c1c:	bfd1                	j	2bf0 <mpu_run_self_test+0x2cc>

00002c1e <mget_ms>:
    2c1e:	8082                	ret

00002c20 <run_self_test>:
    2c20:	7179                	addi	sp,sp,-48
    2c22:	084c                	addi	a1,sp,20
    2c24:	0028                	addi	a0,sp,8
    2c26:	d606                	sw	ra,44(sp)
    2c28:	39f5                	jal	2924 <mpu_run_self_test>
    2c2a:	470d                	li	a4,3
    2c2c:	4785                	li	a5,1
    2c2e:	06e51563          	bne	a0,a4,2c98 <run_self_test+0x78>
    2c32:	0048                	addi	a0,sp,4
    2c34:	bbcff0ef          	jal	ra,1ff0 <mpu_get_gyro_sens>
    2c38:	47a2                	lw	a5,8(sp)
    2c3a:	6692                	flw	fa3,4(sp)
    2c3c:	0028                	addi	a0,sp,8
    2c3e:	d007f753          	fcvt.s.w	fa4,a5
    2c42:	10d77753          	fmul.s	fa4,fa4,fa3
    2c46:	c00717d3          	fcvt.w.s	a5,fa4,rtz
    2c4a:	c43e                	sw	a5,8(sp)
    2c4c:	47b2                	lw	a5,12(sp)
    2c4e:	d007f753          	fcvt.s.w	fa4,a5
    2c52:	10d77753          	fmul.s	fa4,fa4,fa3
    2c56:	c00717d3          	fcvt.w.s	a5,fa4,rtz
    2c5a:	c63e                	sw	a5,12(sp)
    2c5c:	47c2                	lw	a5,16(sp)
    2c5e:	d007f7d3          	fcvt.s.w	fa5,a5
    2c62:	10d7f7d3          	fmul.s	fa5,fa5,fa3
    2c66:	c00797d3          	fcvt.w.s	a5,fa5,rtz
    2c6a:	c83e                	sw	a5,16(sp)
    2c6c:	2e75                	jal	3028 <dmp_set_gyro_bias>
    2c6e:	00210513          	addi	a0,sp,2
    2c72:	bcaff0ef          	jal	ra,203c <mpu_get_accel_sens>
    2c76:	00215703          	lhu	a4,2(sp)
    2c7a:	47d2                	lw	a5,20(sp)
    2c7c:	0848                	addi	a0,sp,20
    2c7e:	02e787b3          	mul	a5,a5,a4
    2c82:	ca3e                	sw	a5,20(sp)
    2c84:	47e2                	lw	a5,24(sp)
    2c86:	02e787b3          	mul	a5,a5,a4
    2c8a:	cc3e                	sw	a5,24(sp)
    2c8c:	47f2                	lw	a5,28(sp)
    2c8e:	02e787b3          	mul	a5,a5,a4
    2c92:	ce3e                	sw	a5,28(sp)
    2c94:	2155                	jal	3138 <dmp_set_accel_bias>
    2c96:	4781                	li	a5,0
    2c98:	50b2                	lw	ra,44(sp)
    2c9a:	853e                	mv	a0,a5
    2c9c:	6145                	addi	sp,sp,48
    2c9e:	8082                	ret

00002ca0 <inv_row_2_scale>:
    2ca0:	00050703          	lb	a4,0(a0)
    2ca4:	4781                	li	a5,0
    2ca6:	02e04363          	bgtz	a4,2ccc <inv_row_2_scale+0x2c>
    2caa:	4791                	li	a5,4
    2cac:	e305                	bnez	a4,2ccc <inv_row_2_scale+0x2c>
    2cae:	00150703          	lb	a4,1(a0)
    2cb2:	4785                	li	a5,1
    2cb4:	00e04c63          	bgtz	a4,2ccc <inv_row_2_scale+0x2c>
    2cb8:	4795                	li	a5,5
    2cba:	eb09                	bnez	a4,2ccc <inv_row_2_scale+0x2c>
    2cbc:	00250703          	lb	a4,2(a0)
    2cc0:	4789                	li	a5,2
    2cc2:	00e04563          	bgtz	a4,2ccc <inv_row_2_scale+0x2c>
    2cc6:	00173793          	seqz	a5,a4
    2cca:	0799                	addi	a5,a5,6
    2ccc:	853e                	mv	a0,a5
    2cce:	8082                	ret

00002cd0 <inv_orientation_matrix_to_scalar>:
    2cd0:	1141                	addi	sp,sp,-16
    2cd2:	c606                	sw	ra,12(sp)
    2cd4:	c422                	sw	s0,8(sp)
    2cd6:	c226                	sw	s1,4(sp)
    2cd8:	c04a                	sw	s2,0(sp)
    2cda:	84aa                	mv	s1,a0
    2cdc:	37d1                	jal	2ca0 <inv_row_2_scale>
    2cde:	892a                	mv	s2,a0
    2ce0:	00348513          	addi	a0,s1,3
    2ce4:	3f75                	jal	2ca0 <inv_row_2_scale>
    2ce6:	842a                	mv	s0,a0
    2ce8:	00648513          	addi	a0,s1,6
    2cec:	3f55                	jal	2ca0 <inv_row_2_scale>
    2cee:	00341793          	slli	a5,s0,0x3
    2cf2:	051a                	slli	a0,a0,0x6
    2cf4:	40b2                	lw	ra,12(sp)
    2cf6:	4422                	lw	s0,8(sp)
    2cf8:	8d5d                	or	a0,a0,a5
    2cfa:	01256533          	or	a0,a0,s2
    2cfe:	0542                	slli	a0,a0,0x10
    2d00:	4492                	lw	s1,4(sp)
    2d02:	4902                	lw	s2,0(sp)
    2d04:	8141                	srli	a0,a0,0x10
    2d06:	0141                	addi	sp,sp,16
    2d08:	8082                	ret

00002d0a <mpu_dmp_init>:
    2d0a:	1141                	addi	sp,sp,-16
    2d0c:	c422                	sw	s0,8(sp)
    2d0e:	c606                	sw	ra,12(sp)
    2d10:	869ff0ef          	jal	ra,2578 <mpu_init>
    2d14:	4429                	li	s0,10
    2d16:	e549                	bnez	a0,2da0 <mpu_dmp_init+0x96>
    2d18:	07800513          	li	a0,120
    2d1c:	f7eff0ef          	jal	ra,249a <mpu_set_sensors>
    2d20:	0ff57513          	andi	a0,a0,255
    2d24:	4405                	li	s0,1
    2d26:	ed2d                	bnez	a0,2da0 <mpu_dmp_init+0x96>
    2d28:	07800513          	li	a0,120
    2d2c:	b68ff0ef          	jal	ra,2094 <mpu_configure_fifo>
    2d30:	0ff57513          	andi	a0,a0,255
    2d34:	4409                	li	s0,2
    2d36:	e52d                	bnez	a0,2da0 <mpu_dmp_init+0x96>
    2d38:	03200513          	li	a0,50
    2d3c:	eb2ff0ef          	jal	ra,23ee <mpu_set_sample_rate>
    2d40:	0ff57513          	andi	a0,a0,255
    2d44:	440d                	li	s0,3
    2d46:	ed29                	bnez	a0,2da0 <mpu_dmp_init+0x96>
    2d48:	2255                	jal	2eec <dmp_load_motion_driver_firmware>
    2d4a:	0ff57513          	andi	a0,a0,255
    2d4e:	4411                	li	s0,4
    2d50:	e921                	bnez	a0,2da0 <mpu_dmp_init+0x96>
    2d52:	20000537          	lui	a0,0x20000
    2d56:	01050513          	addi	a0,a0,16 # 20000010 <gyro_orientation>
    2d5a:	3f9d                	jal	2cd0 <inv_orientation_matrix_to_scalar>
    2d5c:	2265                	jal	2f04 <dmp_set_orientation>
    2d5e:	0ff57513          	andi	a0,a0,255
    2d62:	4415                	li	s0,5
    2d64:	ed15                	bnez	a0,2da0 <mpu_dmp_init+0x96>
    2d66:	17300513          	li	a0,371
    2d6a:	09b000ef          	jal	ra,3604 <dmp_enable_feature>
    2d6e:	0ff57513          	andi	a0,a0,255
    2d72:	4419                	li	s0,6
    2d74:	e515                	bnez	a0,2da0 <mpu_dmp_init+0x96>
    2d76:	03200513          	li	a0,50
    2d7a:	29c1                	jal	324a <dmp_set_fifo_rate>
    2d7c:	0ff57513          	andi	a0,a0,255
    2d80:	441d                	li	s0,7
    2d82:	ed19                	bnez	a0,2da0 <mpu_dmp_init+0x96>
    2d84:	3d71                	jal	2c20 <run_self_test>
    2d86:	4421                	li	s0,8
    2d88:	ed01                	bnez	a0,2da0 <mpu_dmp_init+0x96>
    2d8a:	4505                	li	a0,1
    2d8c:	3639                	jal	289a <mpu_set_dmp_state>
    2d8e:	0ff57413          	andi	s0,a0,255
    2d92:	ec01                	bnez	s0,2daa <mpu_dmp_init+0xa0>
    2d94:	00009537          	lui	a0,0x9
    2d98:	ce450513          	addi	a0,a0,-796 # 8ce4 <hw+0x18>
    2d9c:	0ff030ef          	jal	ra,669a <puts>
    2da0:	8522                	mv	a0,s0
    2da2:	40b2                	lw	ra,12(sp)
    2da4:	4422                	lw	s0,8(sp)
    2da6:	0141                	addi	sp,sp,16
    2da8:	8082                	ret
    2daa:	4425                	li	s0,9
    2dac:	bfd5                	j	2da0 <mpu_dmp_init+0x96>

00002dae <mpu_dmp_get_data>:
    2dae:	711d                	addi	sp,sp,-96
    2db0:	cca2                	sw	s0,88(sp)
    2db2:	caa6                	sw	s1,84(sp)
    2db4:	c8ca                	sw	s2,80(sp)
    2db6:	84ae                	mv	s1,a1
    2db8:	892a                	mv	s2,a0
    2dba:	8432                	mv	s0,a2
    2dbc:	00910793          	addi	a5,sp,9
    2dc0:	00a10713          	addi	a4,sp,10
    2dc4:	0074                	addi	a3,sp,12
    2dc6:	1010                	addi	a2,sp,32
    2dc8:	082c                	addi	a1,sp,24
    2dca:	0808                	addi	a0,sp,16
    2dcc:	ce86                	sw	ra,92(sp)
    2dce:	e6a2                	fsw	fs0,76(sp)
    2dd0:	e4a6                	fsw	fs1,72(sp)
    2dd2:	e2ca                	fsw	fs2,68(sp)
    2dd4:	e0ce                	fsw	fs3,64(sp)
    2dd6:	fe52                	fsw	fs4,60(sp)
    2dd8:	fc56                	fsw	fs5,56(sp)
    2dda:	fa5a                	fsw	fs6,52(sp)
    2ddc:	227000ef          	jal	ra,3802 <dmp_read_fifo>
    2de0:	e979                	bnez	a0,2eb6 <mpu_dmp_get_data+0x108>
    2de2:	00a15783          	lhu	a5,10(sp)
    2de6:	4509                	li	a0,2
    2de8:	1007f793          	andi	a5,a5,256
    2dec:	cbc5                	beqz	a5,2e9c <mpu_dmp_get_data+0xee>
    2dee:	5782                	lw	a5,32(sp)
    2df0:	d007f4d3          	fcvt.s.w	fs1,a5
    2df4:	000097b7          	lui	a5,0x9
    2df8:	cd87a787          	flw	fa5,-808(a5) # 8cd8 <hw+0xc>
    2dfc:	5792                	lw	a5,36(sp)
    2dfe:	10f4f4d3          	fmul.s	fs1,fs1,fa5
    2e02:	d007f453          	fcvt.s.w	fs0,a5
    2e06:	57a2                	lw	a5,40(sp)
    2e08:	10f47453          	fmul.s	fs0,fs0,fa5
    2e0c:	d007f953          	fcvt.s.w	fs2,a5
    2e10:	57b2                	lw	a5,44(sp)
    2e12:	0094fb53          	fadd.s	fs6,fs1,fs1
    2e16:	10f97953          	fmul.s	fs2,fs2,fa5
    2e1a:	d007f9d3          	fcvt.s.w	fs3,a5
    2e1e:	000097b7          	lui	a5,0x9
    2e22:	cdc7aa07          	flw	fs4,-804(a5) # 8cdc <hw+0x10>
    2e26:	10f9f9d3          	fmul.s	fs3,fs3,fa5
    2e2a:	112b7553          	fmul.s	fa0,fs6,fs2
    2e2e:	11447a53          	fmul.s	fs4,fs0,fs4
    2e32:	513a7543          	fmadd.s	fa0,fs4,fs3,fa0
    2e36:	0e3020ef          	jal	ra,5718 <asinf>
    2e3a:	000097b7          	lui	a5,0x9
    2e3e:	ce07aa87          	flw	fs5,-800(a5) # 8ce0 <hw+0x14>
    2e42:	108b7b53          	fmul.s	fs6,fs6,fs0
    2e46:	000097b7          	lui	a5,0x9
    2e4a:	11557553          	fmul.s	fa0,fa0,fs5
    2e4e:	00a92027          	fsw	fa0,0(s2)
    2e52:	01297553          	fadd.s	fa0,fs2,fs2
    2e56:	112575d3          	fmul.s	fa1,fa0,fs2
    2e5a:	b1357543          	fmadd.s	fa0,fa0,fs3,fs6
    2e5e:	588a7a47          	fmsub.s	fs4,fs4,fs0,fa1
    2e62:	dac7a587          	flw	fa1,-596(a5) # 8dac <hw+0xe0>
    2e66:	00ba75d3          	fadd.s	fa1,fs4,fa1
    2e6a:	16d020ef          	jal	ra,57d6 <atan2f>
    2e6e:	11557553          	fmul.s	fa0,fa0,fs5
    2e72:	108475d3          	fmul.s	fa1,fs0,fs0
    2e76:	e088                	fsw	fa0,0(s1)
    2e78:	5894f5c3          	fmadd.s	fa1,fs1,fs1,fa1
    2e7c:	1134f553          	fmul.s	fa0,fs1,fs3
    2e80:	592975cb          	fnmsub.s	fa1,fs2,fs2,fa1
    2e84:	51247543          	fmadd.s	fa0,fs0,fs2,fa0
    2e88:	5939f5cb          	fnmsub.s	fa1,fs3,fs3,fa1
    2e8c:	00a57553          	fadd.s	fa0,fa0,fa0
    2e90:	147020ef          	jal	ra,57d6 <atan2f>
    2e94:	11557553          	fmul.s	fa0,fa0,fs5
    2e98:	4501                	li	a0,0
    2e9a:	e008                	fsw	fa0,0(s0)
    2e9c:	40f6                	lw	ra,92(sp)
    2e9e:	4466                	lw	s0,88(sp)
    2ea0:	44d6                	lw	s1,84(sp)
    2ea2:	4946                	lw	s2,80(sp)
    2ea4:	6436                	flw	fs0,76(sp)
    2ea6:	64a6                	flw	fs1,72(sp)
    2ea8:	6916                	flw	fs2,68(sp)
    2eaa:	6986                	flw	fs3,64(sp)
    2eac:	7a72                	flw	fs4,60(sp)
    2eae:	7ae2                	flw	fs5,56(sp)
    2eb0:	7b52                	flw	fs6,52(sp)
    2eb2:	6125                	addi	sp,sp,96
    2eb4:	8082                	ret
    2eb6:	4505                	li	a0,1
    2eb8:	b7d5                	j	2e9c <mpu_dmp_get_data+0xee>

00002eba <dmp_enable_gyro_cal.part.0>:
    2eba:	8db3b7b7          	lui	a5,0x8db3b
    2ebe:	1101                	addi	sp,sp,-32
    2ec0:	ab878793          	addi	a5,a5,-1352 # 8db3aab8 <_eusrstack+0x6db32ab8>
    2ec4:	c23e                	sw	a5,4(sp)
    2ec6:	350da7b7          	lui	a5,0x350da
    2eca:	8b478793          	addi	a5,a5,-1868 # 350d98b4 <_eusrstack+0x150d18b4>
    2ece:	c43e                	sw	a5,8(sp)
    2ed0:	0050                	addi	a2,sp,4
    2ed2:	05d00793          	li	a5,93
    2ed6:	45a5                	li	a1,9
    2ed8:	4b800513          	li	a0,1208
    2edc:	ce06                	sw	ra,28(sp)
    2ede:	00f10623          	sb	a5,12(sp)
    2ee2:	feeff0ef          	jal	ra,26d0 <mpu_write_mem>
    2ee6:	40f2                	lw	ra,28(sp)
    2ee8:	6105                	addi	sp,sp,32
    2eea:	8082                	ret

00002eec <dmp_load_motion_driver_firmware>:
    2eec:	65a5                	lui	a1,0x9
    2eee:	6505                	lui	a0,0x1
    2ef0:	0c800693          	li	a3,200
    2ef4:	40000613          	li	a2,1024
    2ef8:	e1058593          	addi	a1,a1,-496 # 8e10 <dmp_memory>
    2efc:	bf650513          	addi	a0,a0,-1034 # bf6 <GPIO_Init+0xae>
    2f00:	8c5ff06f          	j	27c4 <mpu_load_firmware>

00002f04 <dmp_set_orientation>:
    2f04:	77f5                	lui	a5,0xffffd
    2f06:	1101                	addi	sp,sp,-32
    2f08:	d4c78713          	addi	a4,a5,-692 # ffffcd4c <_eusrstack+0xdfff4d4c>
    2f0c:	90c78793          	addi	a5,a5,-1780
    2f10:	00f11623          	sh	a5,12(sp)
    2f14:	02c00793          	li	a5,44
    2f18:	00e11423          	sh	a4,8(sp)
    2f1c:	00f10723          	sb	a5,14(sp)
    2f20:	06c00713          	li	a4,108
    2f24:	00357693          	andi	a3,a0,3
    2f28:	081c                	addi	a5,sp,16
    2f2a:	cc22                	sw	s0,24(sp)
    2f2c:	ce06                	sw	ra,28(sp)
    2f2e:	00e10523          	sb	a4,10(sp)
    2f32:	96be                	add	a3,a3,a5
    2f34:	ff86c783          	lbu	a5,-8(a3)
    2f38:	00355713          	srli	a4,a0,0x3
    2f3c:	8b0d                	andi	a4,a4,3
    2f3e:	00f10023          	sb	a5,0(sp)
    2f42:	081c                	addi	a5,sp,16
    2f44:	973e                	add	a4,a4,a5
    2f46:	ff874783          	lbu	a5,-8(a4)
    2f4a:	0810                	addi	a2,sp,16
    2f4c:	ffc6c683          	lbu	a3,-4(a3)
    2f50:	00f100a3          	sb	a5,1(sp)
    2f54:	00655793          	srli	a5,a0,0x6
    2f58:	8b8d                	andi	a5,a5,3
    2f5a:	97b2                	add	a5,a5,a2
    2f5c:	ff87c603          	lbu	a2,-8(a5)
    2f60:	ffc74703          	lbu	a4,-4(a4)
    2f64:	ffc7c783          	lbu	a5,-4(a5)
    2f68:	842a                	mv	s0,a0
    2f6a:	00c10123          	sb	a2,2(sp)
    2f6e:	458d                	li	a1,3
    2f70:	860a                	mv	a2,sp
    2f72:	42600513          	li	a0,1062
    2f76:	00d10223          	sb	a3,4(sp)
    2f7a:	00e102a3          	sb	a4,5(sp)
    2f7e:	00f10323          	sb	a5,6(sp)
    2f82:	f4eff0ef          	jal	ra,26d0 <mpu_write_mem>
    2f86:	c511                	beqz	a0,2f92 <dmp_set_orientation+0x8e>
    2f88:	557d                	li	a0,-1
    2f8a:	40f2                	lw	ra,28(sp)
    2f8c:	4462                	lw	s0,24(sp)
    2f8e:	6105                	addi	sp,sp,32
    2f90:	8082                	ret
    2f92:	0050                	addi	a2,sp,4
    2f94:	458d                	li	a1,3
    2f96:	42a00513          	li	a0,1066
    2f9a:	f36ff0ef          	jal	ra,26d0 <mpu_write_mem>
    2f9e:	f56d                	bnez	a0,2f88 <dmp_set_orientation+0x84>
    2fa0:	6795                	lui	a5,0x5
    2fa2:	63678793          	addi	a5,a5,1590 # 5636 <Delay_Ms+0x2>
    2fa6:	00f11023          	sh	a5,0(sp)
    2faa:	07600793          	li	a5,118
    2fae:	00f10123          	sb	a5,2(sp)
    2fb2:	6791                	lui	a5,0x4
    2fb4:	62678793          	addi	a5,a5,1574 # 4626 <Motor_ctr_SOFT_START+0x62>
    2fb8:	00f11223          	sh	a5,4(sp)
    2fbc:	06600793          	li	a5,102
    2fc0:	00f10323          	sb	a5,6(sp)
    2fc4:	00447793          	andi	a5,s0,4
    2fc8:	cb89                	beqz	a5,2fda <dmp_set_orientation+0xd6>
    2fca:	03700793          	li	a5,55
    2fce:	00f10023          	sb	a5,0(sp)
    2fd2:	02700793          	li	a5,39
    2fd6:	00f10223          	sb	a5,4(sp)
    2fda:	02047793          	andi	a5,s0,32
    2fde:	cb89                	beqz	a5,2ff0 <dmp_set_orientation+0xec>
    2fe0:	05700793          	li	a5,87
    2fe4:	00f100a3          	sb	a5,1(sp)
    2fe8:	04700793          	li	a5,71
    2fec:	00f102a3          	sb	a5,5(sp)
    2ff0:	10047793          	andi	a5,s0,256
    2ff4:	cb89                	beqz	a5,3006 <dmp_set_orientation+0x102>
    2ff6:	07700793          	li	a5,119
    2ffa:	00f10123          	sb	a5,2(sp)
    2ffe:	06700793          	li	a5,103
    3002:	00f10323          	sb	a5,6(sp)
    3006:	860a                	mv	a2,sp
    3008:	458d                	li	a1,3
    300a:	44000513          	li	a0,1088
    300e:	ec2ff0ef          	jal	ra,26d0 <mpu_write_mem>
    3012:	f93d                	bnez	a0,2f88 <dmp_set_orientation+0x84>
    3014:	0050                	addi	a2,sp,4
    3016:	458d                	li	a1,3
    3018:	43100513          	li	a0,1073
    301c:	eb4ff0ef          	jal	ra,26d0 <mpu_write_mem>
    3020:	f525                	bnez	a0,2f88 <dmp_set_orientation+0x84>
    3022:	84819c23          	sh	s0,-1960(gp) # 20000110 <dmp+0x8>
    3026:	b795                	j	2f8a <dmp_set_orientation+0x86>

00003028 <dmp_set_gyro_bias>:
    3028:	8581d783          	lhu	a5,-1960(gp) # 20000110 <dmp+0x8>
    302c:	1101                	addi	sp,sp,-32
    302e:	ce06                	sw	ra,28(sp)
    3030:	0037f713          	andi	a4,a5,3
    3034:	070a                	slli	a4,a4,0x2
    3036:	972a                	add	a4,a4,a0
    3038:	430c                	lw	a1,0(a4)
    303a:	cc22                	sw	s0,24(sp)
    303c:	ca26                	sw	s1,20(sp)
    303e:	0047f713          	andi	a4,a5,4
    3042:	c319                	beqz	a4,3048 <dmp_set_gyro_bias+0x20>
    3044:	40b005b3          	neg	a1,a1
    3048:	0017d713          	srli	a4,a5,0x1
    304c:	8b31                	andi	a4,a4,12
    304e:	972a                	add	a4,a4,a0
    3050:	4310                	lw	a2,0(a4)
    3052:	0207f713          	andi	a4,a5,32
    3056:	c319                	beqz	a4,305c <dmp_set_gyro_bias+0x34>
    3058:	40c00633          	neg	a2,a2
    305c:	0047d713          	srli	a4,a5,0x4
    3060:	8b31                	andi	a4,a4,12
    3062:	953a                	add	a0,a0,a4
    3064:	1007f793          	andi	a5,a5,256
    3068:	4118                	lw	a4,0(a0)
    306a:	c399                	beqz	a5,3070 <dmp_set_gyro_bias+0x48>
    306c:	40e00733          	neg	a4,a4
    3070:	02cae6b7          	lui	a3,0x2cae
    3074:	30968693          	addi	a3,a3,777 # 2cae309 <_data_lma+0x2ca450d>
    3078:	02d587b3          	mul	a5,a1,a3
    307c:	3d000513          	li	a0,976
    3080:	02d595b3          	mulh	a1,a1,a3
    3084:	83f9                	srli	a5,a5,0x1e
    3086:	02d70433          	mul	s0,a4,a3
    308a:	058a                	slli	a1,a1,0x2
    308c:	8fcd                	or	a5,a5,a1
    308e:	4591                	li	a1,4
    3090:	02d71733          	mulh	a4,a4,a3
    3094:	8079                	srli	s0,s0,0x1e
    3096:	02d604b3          	mul	s1,a2,a3
    309a:	070a                	slli	a4,a4,0x2
    309c:	8c59                	or	s0,s0,a4
    309e:	4187d713          	srai	a4,a5,0x18
    30a2:	00e10623          	sb	a4,12(sp)
    30a6:	4107d713          	srai	a4,a5,0x10
    30aa:	00e106a3          	sb	a4,13(sp)
    30ae:	00879713          	slli	a4,a5,0x8
    30b2:	07c2                	slli	a5,a5,0x10
    30b4:	83c1                	srli	a5,a5,0x10
    30b6:	02d61633          	mulh	a2,a2,a3
    30ba:	80f9                	srli	s1,s1,0x1e
    30bc:	83a1                	srli	a5,a5,0x8
    30be:	8fd9                	or	a5,a5,a4
    30c0:	00f11723          	sh	a5,14(sp)
    30c4:	060a                	slli	a2,a2,0x2
    30c6:	8cd1                	or	s1,s1,a2
    30c8:	0070                	addi	a2,sp,12
    30ca:	e06ff0ef          	jal	ra,26d0 <mpu_write_mem>
    30ce:	c519                	beqz	a0,30dc <dmp_set_gyro_bias+0xb4>
    30d0:	557d                	li	a0,-1
    30d2:	40f2                	lw	ra,28(sp)
    30d4:	4462                	lw	s0,24(sp)
    30d6:	44d2                	lw	s1,20(sp)
    30d8:	6105                	addi	sp,sp,32
    30da:	8082                	ret
    30dc:	4184d793          	srai	a5,s1,0x18
    30e0:	00f10623          	sb	a5,12(sp)
    30e4:	4104d793          	srai	a5,s1,0x10
    30e8:	00f106a3          	sb	a5,13(sp)
    30ec:	00849793          	slli	a5,s1,0x8
    30f0:	04c2                	slli	s1,s1,0x10
    30f2:	80c1                	srli	s1,s1,0x10
    30f4:	80a1                	srli	s1,s1,0x8
    30f6:	8cdd                	or	s1,s1,a5
    30f8:	0070                	addi	a2,sp,12
    30fa:	4591                	li	a1,4
    30fc:	3d400513          	li	a0,980
    3100:	00911723          	sh	s1,14(sp)
    3104:	dccff0ef          	jal	ra,26d0 <mpu_write_mem>
    3108:	f561                	bnez	a0,30d0 <dmp_set_gyro_bias+0xa8>
    310a:	41845793          	srai	a5,s0,0x18
    310e:	00f10623          	sb	a5,12(sp)
    3112:	41045793          	srai	a5,s0,0x10
    3116:	00f106a3          	sb	a5,13(sp)
    311a:	00841793          	slli	a5,s0,0x8
    311e:	0442                	slli	s0,s0,0x10
    3120:	8041                	srli	s0,s0,0x10
    3122:	8021                	srli	s0,s0,0x8
    3124:	8c5d                	or	s0,s0,a5
    3126:	0070                	addi	a2,sp,12
    3128:	4591                	li	a1,4
    312a:	3d800513          	li	a0,984
    312e:	00811723          	sh	s0,14(sp)
    3132:	d9eff0ef          	jal	ra,26d0 <mpu_write_mem>
    3136:	bf71                	j	30d2 <dmp_set_gyro_bias+0xaa>

00003138 <dmp_set_accel_bias>:
    3138:	1101                	addi	sp,sp,-32
    313a:	cc22                	sw	s0,24(sp)
    313c:	842a                	mv	s0,a0
    313e:	00210513          	addi	a0,sp,2
    3142:	ce06                	sw	ra,28(sp)
    3144:	ef9fe0ef          	jal	ra,203c <mpu_get_accel_sens>
    3148:	8581d783          	lhu	a5,-1960(gp) # 20000110 <dmp+0x8>
    314c:	00215603          	lhu	a2,2(sp)
    3150:	0037f713          	andi	a4,a5,3
    3154:	070a                	slli	a4,a4,0x2
    3156:	9722                	add	a4,a4,s0
    3158:	0047f693          	andi	a3,a5,4
    315c:	063e                	slli	a2,a2,0xf
    315e:	4318                	lw	a4,0(a4)
    3160:	c299                	beqz	a3,3166 <dmp_set_accel_bias+0x2e>
    3162:	40e00733          	neg	a4,a4
    3166:	0017d693          	srli	a3,a5,0x1
    316a:	8ab1                	andi	a3,a3,12
    316c:	96a2                	add	a3,a3,s0
    316e:	428c                	lw	a1,0(a3)
    3170:	0207f693          	andi	a3,a5,32
    3174:	c299                	beqz	a3,317a <dmp_set_accel_bias+0x42>
    3176:	40b005b3          	neg	a1,a1
    317a:	0047d693          	srli	a3,a5,0x4
    317e:	8ab1                	andi	a3,a3,12
    3180:	9436                	add	s0,s0,a3
    3182:	1007f793          	andi	a5,a5,256
    3186:	4008                	lw	a0,0(s0)
    3188:	c399                	beqz	a5,318e <dmp_set_accel_bias+0x56>
    318a:	40a00533          	neg	a0,a0
    318e:	41f75793          	srai	a5,a4,0x1f
    3192:	02c706b3          	mul	a3,a4,a2
    3196:	02c787b3          	mul	a5,a5,a2
    319a:	82f9                	srli	a3,a3,0x1e
    319c:	02c73733          	mulhu	a4,a4,a2
    31a0:	97ba                	add	a5,a5,a4
    31a2:	078a                	slli	a5,a5,0x2
    31a4:	8edd                	or	a3,a3,a5
    31a6:	41f5d793          	srai	a5,a1,0x1f
    31aa:	02c58733          	mul	a4,a1,a2
    31ae:	02c787b3          	mul	a5,a5,a2
    31b2:	8379                	srli	a4,a4,0x1e
    31b4:	02c5b5b3          	mulhu	a1,a1,a2
    31b8:	97ae                	add	a5,a5,a1
    31ba:	078a                	slli	a5,a5,0x2
    31bc:	41f55593          	srai	a1,a0,0x1f
    31c0:	8f5d                	or	a4,a4,a5
    31c2:	02c585b3          	mul	a1,a1,a2
    31c6:	02c507b3          	mul	a5,a0,a2
    31ca:	02c53633          	mulhu	a2,a0,a2
    31ce:	83f9                	srli	a5,a5,0x1e
    31d0:	29400513          	li	a0,660
    31d4:	962e                	add	a2,a2,a1
    31d6:	060a                	slli	a2,a2,0x2
    31d8:	8fd1                	or	a5,a5,a2
    31da:	4186d613          	srai	a2,a3,0x18
    31de:	00c10223          	sb	a2,4(sp)
    31e2:	4106d613          	srai	a2,a3,0x10
    31e6:	00c102a3          	sb	a2,5(sp)
    31ea:	00869613          	slli	a2,a3,0x8
    31ee:	06c2                	slli	a3,a3,0x10
    31f0:	82c1                	srli	a3,a3,0x10
    31f2:	82a1                	srli	a3,a3,0x8
    31f4:	8ed1                	or	a3,a3,a2
    31f6:	00d11323          	sh	a3,6(sp)
    31fa:	41875693          	srai	a3,a4,0x18
    31fe:	00d10423          	sb	a3,8(sp)
    3202:	41075693          	srai	a3,a4,0x10
    3206:	00d104a3          	sb	a3,9(sp)
    320a:	00871693          	slli	a3,a4,0x8
    320e:	0742                	slli	a4,a4,0x10
    3210:	8341                	srli	a4,a4,0x10
    3212:	8321                	srli	a4,a4,0x8
    3214:	8f55                	or	a4,a4,a3
    3216:	00e11523          	sh	a4,10(sp)
    321a:	4187d713          	srai	a4,a5,0x18
    321e:	00e10623          	sb	a4,12(sp)
    3222:	4107d713          	srai	a4,a5,0x10
    3226:	00e106a3          	sb	a4,13(sp)
    322a:	00879713          	slli	a4,a5,0x8
    322e:	07c2                	slli	a5,a5,0x10
    3230:	83c1                	srli	a5,a5,0x10
    3232:	83a1                	srli	a5,a5,0x8
    3234:	8fd9                	or	a5,a5,a4
    3236:	0050                	addi	a2,sp,4
    3238:	45b1                	li	a1,12
    323a:	00f11723          	sh	a5,14(sp)
    323e:	c92ff0ef          	jal	ra,26d0 <mpu_write_mem>
    3242:	40f2                	lw	ra,28(sp)
    3244:	4462                	lw	s0,24(sp)
    3246:	6105                	addi	sp,sp,32
    3248:	8082                	ret

0000324a <dmp_set_fifo_rate>:
    324a:	7179                	addi	sp,sp,-48
    324c:	65a5                	lui	a1,0x9
    324e:	d422                	sw	s0,40(sp)
    3250:	4631                	li	a2,12
    3252:	842a                	mv	s0,a0
    3254:	c3058593          	addi	a1,a1,-976 # 8c30 <memcpy+0xb6>
    3258:	0848                	addi	a0,sp,20
    325a:	d606                	sw	ra,44(sp)
    325c:	11f050ef          	jal	ra,8b7a <memcpy>
    3260:	0c800793          	li	a5,200
    3264:	0087f763          	bgeu	a5,s0,3272 <dmp_set_fifo_rate+0x28>
    3268:	557d                	li	a0,-1
    326a:	50b2                	lw	ra,44(sp)
    326c:	5422                	lw	s0,40(sp)
    326e:	6145                	addi	sp,sp,48
    3270:	8082                	ret
    3272:	0287c7b3          	div	a5,a5,s0
    3276:	0070                	addi	a2,sp,12
    3278:	4589                	li	a1,2
    327a:	21600513          	li	a0,534
    327e:	00010623          	sb	zero,12(sp)
    3282:	17fd                	addi	a5,a5,-1
    3284:	00f106a3          	sb	a5,13(sp)
    3288:	c48ff0ef          	jal	ra,26d0 <mpu_write_mem>
    328c:	fd71                	bnez	a0,3268 <dmp_set_fifo_rate+0x1e>
    328e:	6505                	lui	a0,0x1
    3290:	0850                	addi	a2,sp,20
    3292:	45b1                	li	a1,12
    3294:	ac150513          	addi	a0,a0,-1343 # ac1 <DMA_DeInit+0x13f>
    3298:	c38ff0ef          	jal	ra,26d0 <mpu_write_mem>
    329c:	f571                	bnez	a0,3268 <dmp_set_fifo_rate+0x1e>
    329e:	84819e23          	sh	s0,-1956(gp) # 20000114 <dmp+0xc>
    32a2:	b7e1                	j	326a <dmp_set_fifo_rate+0x20>

000032a4 <dmp_set_tap_thresh>:
    32a4:	00757793          	andi	a5,a0,7
    32a8:	e399                	bnez	a5,32ae <dmp_set_tap_thresh+0xa>
    32aa:	557d                	li	a0,-1
    32ac:	8082                	ret
    32ae:	64000793          	li	a5,1600
    32b2:	feb7ece3          	bltu	a5,a1,32aa <dmp_set_tap_thresh+0x6>
    32b6:	7179                	addi	sp,sp,-48
    32b8:	0000a7b7          	lui	a5,0xa
    32bc:	a087a787          	flw	fa5,-1528(a5) # 9a08 <dmp_memory+0xbf8>
    32c0:	ee22                	fsw	fs0,28(sp)
    32c2:	d015f453          	fcvt.s.wu	fs0,a1
    32c6:	d422                	sw	s0,40(sp)
    32c8:	842a                	mv	s0,a0
    32ca:	00b10513          	addi	a0,sp,11
    32ce:	d606                	sw	ra,44(sp)
    32d0:	18f47453          	fdiv.s	fs0,fs0,fa5
    32d4:	b4dfe0ef          	jal	ra,1e20 <mpu_get_accel_fsr>
    32d8:	00b14783          	lbu	a5,11(sp)
    32dc:	4711                	li	a4,4
    32de:	0ce78d63          	beq	a5,a4,33b8 <dmp_set_tap_thresh+0x114>
    32e2:	00f76b63          	bltu	a4,a5,32f8 <dmp_set_tap_thresh+0x54>
    32e6:	4709                	li	a4,2
    32e8:	02e78d63          	beq	a5,a4,3322 <dmp_set_tap_thresh+0x7e>
    32ec:	557d                	li	a0,-1
    32ee:	50b2                	lw	ra,44(sp)
    32f0:	5422                	lw	s0,40(sp)
    32f2:	6472                	flw	fs0,28(sp)
    32f4:	6145                	addi	sp,sp,48
    32f6:	8082                	ret
    32f8:	4721                	li	a4,8
    32fa:	0ce78e63          	beq	a5,a4,33d6 <dmp_set_tap_thresh+0x132>
    32fe:	4741                	li	a4,16
    3300:	fee796e3          	bne	a5,a4,32ec <dmp_set_tap_thresh+0x48>
    3304:	0000a7b7          	lui	a5,0xa
    3308:	a247a787          	flw	fa5,-1500(a5) # 9a24 <dmp_memory+0xc14>
    330c:	0000a7b7          	lui	a5,0xa
    3310:	10f477d3          	fmul.s	fa5,fs0,fa5
    3314:	c0179753          	fcvt.wu.s	a4,fa5,rtz
    3318:	a287a787          	flw	fa5,-1496(a5) # 9a28 <dmp_memory+0xc18>
    331c:	0742                	slli	a4,a4,0x10
    331e:	8341                	srli	a4,a4,0x10
    3320:	a839                	j	333e <dmp_set_tap_thresh+0x9a>
    3322:	0000a7b7          	lui	a5,0xa
    3326:	a0c7a787          	flw	fa5,-1524(a5) # 9a0c <dmp_memory+0xbfc>
    332a:	0000a7b7          	lui	a5,0xa
    332e:	10f477d3          	fmul.s	fa5,fs0,fa5
    3332:	c0179753          	fcvt.wu.s	a4,fa5,rtz
    3336:	a107a787          	flw	fa5,-1520(a5) # 9a10 <dmp_memory+0xc00>
    333a:	0742                	slli	a4,a4,0x10
    333c:	8341                	srli	a4,a4,0x10
    333e:	10f47453          	fmul.s	fs0,fs0,fa5
    3342:	00871693          	slli	a3,a4,0x8
    3346:	8321                	srli	a4,a4,0x8
    3348:	8f55                	or	a4,a4,a3
    334a:	00e11623          	sh	a4,12(sp)
    334e:	c01417d3          	fcvt.wu.s	a5,fs0,rtz
    3352:	07c2                	slli	a5,a5,0x10
    3354:	83c1                	srli	a5,a5,0x10
    3356:	00879713          	slli	a4,a5,0x8
    335a:	83a1                	srli	a5,a5,0x8
    335c:	8fd9                	or	a5,a5,a4
    335e:	00f11723          	sh	a5,14(sp)
    3362:	00147793          	andi	a5,s0,1
    3366:	e7d9                	bnez	a5,33f4 <dmp_set_tap_thresh+0x150>
    3368:	00247793          	andi	a5,s0,2
    336c:	c385                	beqz	a5,338c <dmp_set_tap_thresh+0xe8>
    336e:	0070                	addi	a2,sp,12
    3370:	4589                	li	a1,2
    3372:	1d800513          	li	a0,472
    3376:	b5aff0ef          	jal	ra,26d0 <mpu_write_mem>
    337a:	f92d                	bnez	a0,32ec <dmp_set_tap_thresh+0x48>
    337c:	00e10613          	addi	a2,sp,14
    3380:	4589                	li	a1,2
    3382:	12800513          	li	a0,296
    3386:	b4aff0ef          	jal	ra,26d0 <mpu_write_mem>
    338a:	f12d                	bnez	a0,32ec <dmp_set_tap_thresh+0x48>
    338c:	8811                	andi	s0,s0,4
    338e:	4501                	li	a0,0
    3390:	dc39                	beqz	s0,32ee <dmp_set_tap_thresh+0x4a>
    3392:	0070                	addi	a2,sp,12
    3394:	4589                	li	a1,2
    3396:	1dc00513          	li	a0,476
    339a:	b36ff0ef          	jal	ra,26d0 <mpu_write_mem>
    339e:	f539                	bnez	a0,32ec <dmp_set_tap_thresh+0x48>
    33a0:	00e10613          	addi	a2,sp,14
    33a4:	4589                	li	a1,2
    33a6:	12c00513          	li	a0,300
    33aa:	b26ff0ef          	jal	ra,26d0 <mpu_write_mem>
    33ae:	00a03533          	snez	a0,a0
    33b2:	40a00533          	neg	a0,a0
    33b6:	bf25                	j	32ee <dmp_set_tap_thresh+0x4a>
    33b8:	0000a7b7          	lui	a5,0xa
    33bc:	a147a787          	flw	fa5,-1516(a5) # 9a14 <dmp_memory+0xc04>
    33c0:	0000a7b7          	lui	a5,0xa
    33c4:	10f477d3          	fmul.s	fa5,fs0,fa5
    33c8:	c0179753          	fcvt.wu.s	a4,fa5,rtz
    33cc:	a187a787          	flw	fa5,-1512(a5) # 9a18 <dmp_memory+0xc08>
    33d0:	0742                	slli	a4,a4,0x10
    33d2:	8341                	srli	a4,a4,0x10
    33d4:	b7ad                	j	333e <dmp_set_tap_thresh+0x9a>
    33d6:	0000a7b7          	lui	a5,0xa
    33da:	a1c7a787          	flw	fa5,-1508(a5) # 9a1c <dmp_memory+0xc0c>
    33de:	0000a7b7          	lui	a5,0xa
    33e2:	10f477d3          	fmul.s	fa5,fs0,fa5
    33e6:	c0179753          	fcvt.wu.s	a4,fa5,rtz
    33ea:	a207a787          	flw	fa5,-1504(a5) # 9a20 <dmp_memory+0xc10>
    33ee:	0742                	slli	a4,a4,0x10
    33f0:	8341                	srli	a4,a4,0x10
    33f2:	b7b1                	j	333e <dmp_set_tap_thresh+0x9a>
    33f4:	0070                	addi	a2,sp,12
    33f6:	4589                	li	a1,2
    33f8:	1d400513          	li	a0,468
    33fc:	ad4ff0ef          	jal	ra,26d0 <mpu_write_mem>
    3400:	ee0516e3          	bnez	a0,32ec <dmp_set_tap_thresh+0x48>
    3404:	00e10613          	addi	a2,sp,14
    3408:	4589                	li	a1,2
    340a:	12400513          	li	a0,292
    340e:	ac2ff0ef          	jal	ra,26d0 <mpu_write_mem>
    3412:	d939                	beqz	a0,3368 <dmp_set_tap_thresh+0xc4>
    3414:	bde1                	j	32ec <dmp_set_tap_thresh+0x48>

00003416 <dmp_set_tap_axes>:
    3416:	1101                	addi	sp,sp,-32
    3418:	ce06                	sw	ra,28(sp)
    341a:	00157793          	andi	a5,a0,1
    341e:	ef95                	bnez	a5,345a <dmp_set_tap_axes+0x44>
    3420:	000107a3          	sb	zero,15(sp)
    3424:	00257793          	andi	a5,a0,2
    3428:	c799                	beqz	a5,3436 <dmp_set_tap_axes+0x20>
    342a:	00f14783          	lbu	a5,15(sp)
    342e:	00c7e793          	ori	a5,a5,12
    3432:	00f107a3          	sb	a5,15(sp)
    3436:	8911                	andi	a0,a0,4
    3438:	c519                	beqz	a0,3446 <dmp_set_tap_axes+0x30>
    343a:	00f14783          	lbu	a5,15(sp)
    343e:	0037e793          	ori	a5,a5,3
    3442:	00f107a3          	sb	a5,15(sp)
    3446:	00f10613          	addi	a2,sp,15
    344a:	4585                	li	a1,1
    344c:	14800513          	li	a0,328
    3450:	a80ff0ef          	jal	ra,26d0 <mpu_write_mem>
    3454:	40f2                	lw	ra,28(sp)
    3456:	6105                	addi	sp,sp,32
    3458:	8082                	ret
    345a:	03000793          	li	a5,48
    345e:	00f107a3          	sb	a5,15(sp)
    3462:	b7c9                	j	3424 <dmp_set_tap_axes+0xe>

00003464 <dmp_set_tap_count>:
    3464:	1101                	addi	sp,sp,-32
    3466:	ce06                	sw	ra,28(sp)
    3468:	4785                	li	a5,1
    346a:	c519                	beqz	a0,3478 <dmp_set_tap_count+0x14>
    346c:	4711                	li	a4,4
    346e:	0ff57793          	andi	a5,a0,255
    3472:	00a77363          	bgeu	a4,a0,3478 <dmp_set_tap_count+0x14>
    3476:	4791                	li	a5,4
    3478:	17fd                	addi	a5,a5,-1
    347a:	00f10613          	addi	a2,sp,15
    347e:	4585                	li	a1,1
    3480:	14f00513          	li	a0,335
    3484:	00f107a3          	sb	a5,15(sp)
    3488:	a48ff0ef          	jal	ra,26d0 <mpu_write_mem>
    348c:	40f2                	lw	ra,28(sp)
    348e:	6105                	addi	sp,sp,32
    3490:	8082                	ret

00003492 <dmp_set_tap_time>:
    3492:	4795                	li	a5,5
    3494:	02f55533          	divu	a0,a0,a5
    3498:	1101                	addi	sp,sp,-32
    349a:	0070                	addi	a2,sp,12
    349c:	4589                	li	a1,2
    349e:	ce06                	sw	ra,28(sp)
    34a0:	00851793          	slli	a5,a0,0x8
    34a4:	8121                	srli	a0,a0,0x8
    34a6:	8d5d                	or	a0,a0,a5
    34a8:	00a11623          	sh	a0,12(sp)
    34ac:	1de00513          	li	a0,478
    34b0:	a20ff0ef          	jal	ra,26d0 <mpu_write_mem>
    34b4:	40f2                	lw	ra,28(sp)
    34b6:	6105                	addi	sp,sp,32
    34b8:	8082                	ret

000034ba <dmp_set_tap_time_multi>:
    34ba:	4795                	li	a5,5
    34bc:	02f55533          	divu	a0,a0,a5
    34c0:	1101                	addi	sp,sp,-32
    34c2:	0070                	addi	a2,sp,12
    34c4:	4589                	li	a1,2
    34c6:	ce06                	sw	ra,28(sp)
    34c8:	00851793          	slli	a5,a0,0x8
    34cc:	8121                	srli	a0,a0,0x8
    34ce:	8d5d                	or	a0,a0,a5
    34d0:	00a11623          	sh	a0,12(sp)
    34d4:	1da00513          	li	a0,474
    34d8:	9f8ff0ef          	jal	ra,26d0 <mpu_write_mem>
    34dc:	40f2                	lw	ra,28(sp)
    34de:	6105                	addi	sp,sp,32
    34e0:	8082                	ret

000034e2 <dmp_set_shake_reject_thresh>:
    34e2:	3e800793          	li	a5,1000
    34e6:	02f54533          	div	a0,a0,a5
    34ea:	1101                	addi	sp,sp,-32
    34ec:	0070                	addi	a2,sp,12
    34ee:	ce06                	sw	ra,28(sp)
    34f0:	02b505b3          	mul	a1,a0,a1
    34f4:	15c00513          	li	a0,348
    34f8:	4185d793          	srai	a5,a1,0x18
    34fc:	00f10623          	sb	a5,12(sp)
    3500:	4105d793          	srai	a5,a1,0x10
    3504:	00f106a3          	sb	a5,13(sp)
    3508:	00859793          	slli	a5,a1,0x8
    350c:	05c2                	slli	a1,a1,0x10
    350e:	81c1                	srli	a1,a1,0x10
    3510:	81a1                	srli	a1,a1,0x8
    3512:	8ddd                	or	a1,a1,a5
    3514:	00b11723          	sh	a1,14(sp)
    3518:	4591                	li	a1,4
    351a:	9b6ff0ef          	jal	ra,26d0 <mpu_write_mem>
    351e:	40f2                	lw	ra,28(sp)
    3520:	6105                	addi	sp,sp,32
    3522:	8082                	ret

00003524 <dmp_set_shake_reject_time>:
    3524:	4795                	li	a5,5
    3526:	02f55533          	divu	a0,a0,a5
    352a:	1101                	addi	sp,sp,-32
    352c:	0070                	addi	a2,sp,12
    352e:	4589                	li	a1,2
    3530:	ce06                	sw	ra,28(sp)
    3532:	00851793          	slli	a5,a0,0x8
    3536:	8121                	srli	a0,a0,0x8
    3538:	8d5d                	or	a0,a0,a5
    353a:	00a11623          	sh	a0,12(sp)
    353e:	15a00513          	li	a0,346
    3542:	98eff0ef          	jal	ra,26d0 <mpu_write_mem>
    3546:	40f2                	lw	ra,28(sp)
    3548:	6105                	addi	sp,sp,32
    354a:	8082                	ret

0000354c <dmp_set_shake_reject_timeout>:
    354c:	4795                	li	a5,5
    354e:	02f55533          	divu	a0,a0,a5
    3552:	1101                	addi	sp,sp,-32
    3554:	0070                	addi	a2,sp,12
    3556:	4589                	li	a1,2
    3558:	ce06                	sw	ra,28(sp)
    355a:	00851793          	slli	a5,a0,0x8
    355e:	8121                	srli	a0,a0,0x8
    3560:	8d5d                	or	a0,a0,a5
    3562:	00a11623          	sh	a0,12(sp)
    3566:	15800513          	li	a0,344
    356a:	966ff0ef          	jal	ra,26d0 <mpu_write_mem>
    356e:	40f2                	lw	ra,28(sp)
    3570:	6105                	addi	sp,sp,32
    3572:	8082                	ret

00003574 <dmp_enable_gyro_cal>:
    3574:	1101                	addi	sp,sp,-32
    3576:	ce06                	sw	ra,28(sp)
    3578:	c511                	beqz	a0,3584 <dmp_enable_gyro_cal+0x10>
    357a:	941ff0ef          	jal	ra,2eba <dmp_enable_gyro_cal.part.0>
    357e:	40f2                	lw	ra,28(sp)
    3580:	6105                	addi	sp,sp,32
    3582:	8082                	ret
    3584:	65a5                	lui	a1,0x9
    3586:	4625                	li	a2,9
    3588:	c3c58593          	addi	a1,a1,-964 # 8c3c <memcpy+0xc2>
    358c:	0048                	addi	a0,sp,4
    358e:	5ec050ef          	jal	ra,8b7a <memcpy>
    3592:	0050                	addi	a2,sp,4
    3594:	45a5                	li	a1,9
    3596:	4b800513          	li	a0,1208
    359a:	936ff0ef          	jal	ra,26d0 <mpu_write_mem>
    359e:	b7c5                	j	357e <dmp_enable_gyro_cal+0xa>

000035a0 <dmp_enable_lp_quat>:
    35a0:	1101                	addi	sp,sp,-32
    35a2:	ce06                	sw	ra,28(sp)
    35a4:	c115                	beqz	a0,35c8 <dmp_enable_lp_quat+0x28>
    35a6:	c6c4c7b7          	lui	a5,0xc6c4c
    35aa:	2c078793          	addi	a5,a5,704 # c6c4c2c0 <_eusrstack+0xa6c442c0>
    35ae:	6505                	lui	a0,0x1
    35b0:	0070                	addi	a2,sp,12
    35b2:	4591                	li	a1,4
    35b4:	a9850513          	addi	a0,a0,-1384 # a98 <DMA_DeInit+0x116>
    35b8:	c63e                	sw	a5,12(sp)
    35ba:	916ff0ef          	jal	ra,26d0 <mpu_write_mem>
    35be:	e16fe0ef          	jal	ra,1bd4 <mpu_reset_fifo>
    35c2:	40f2                	lw	ra,28(sp)
    35c4:	6105                	addi	sp,sp,32
    35c6:	8082                	ret
    35c8:	8b8b97b7          	lui	a5,0x8b8b9
    35cc:	b8b78793          	addi	a5,a5,-1141 # 8b8b8b8b <_eusrstack+0x6b8b0b8b>
    35d0:	bff9                	j	35ae <dmp_enable_lp_quat+0xe>

000035d2 <dmp_enable_6x_lp_quat>:
    35d2:	1101                	addi	sp,sp,-32
    35d4:	ce06                	sw	ra,28(sp)
    35d6:	c115                	beqz	a0,35fa <dmp_enable_6x_lp_quat+0x28>
    35d8:	383037b7          	lui	a5,0x38303
    35dc:	82078793          	addi	a5,a5,-2016 # 38302820 <_eusrstack+0x182fa820>
    35e0:	6505                	lui	a0,0x1
    35e2:	0070                	addi	a2,sp,12
    35e4:	4591                	li	a1,4
    35e6:	a9e50513          	addi	a0,a0,-1378 # a9e <DMA_DeInit+0x11c>
    35ea:	c63e                	sw	a5,12(sp)
    35ec:	8e4ff0ef          	jal	ra,26d0 <mpu_write_mem>
    35f0:	de4fe0ef          	jal	ra,1bd4 <mpu_reset_fifo>
    35f4:	40f2                	lw	ra,28(sp)
    35f6:	6105                	addi	sp,sp,32
    35f8:	8082                	ret
    35fa:	a3a3a7b7          	lui	a5,0xa3a3a
    35fe:	3a378793          	addi	a5,a5,931 # a3a3a3a3 <_eusrstack+0x83a323a3>
    3602:	bff9                	j	35e0 <dmp_enable_6x_lp_quat+0xe>

00003604 <dmp_enable_feature>:
    3604:	7179                	addi	sp,sp,-48
    3606:	09e3d7b7          	lui	a5,0x9e3d
    360a:	a0278793          	addi	a5,a5,-1534 # 9e3ca02 <_data_lma+0x9e32c06>
    360e:	d422                	sw	s0,40(sp)
    3610:	0050                	addi	a2,sp,4
    3612:	842a                	mv	s0,a0
    3614:	4591                	li	a1,4
    3616:	06800513          	li	a0,104
    361a:	cc52                	sw	s4,24(sp)
    361c:	c23e                	sw	a5,4(sp)
    361e:	d606                	sw	ra,44(sp)
    3620:	d226                	sw	s1,36(sp)
    3622:	d04a                	sw	s2,32(sp)
    3624:	ce4e                	sw	s3,28(sp)
    3626:	8aaff0ef          	jal	ra,26d0 <mpu_write_mem>
    362a:	fa300793          	li	a5,-93
    362e:	00f10223          	sb	a5,4(sp)
    3632:	04047a13          	andi	s4,s0,64
    3636:	180a0063          	beqz	s4,37b6 <dmp_enable_feature+0x1b2>
    363a:	fc000793          	li	a5,-64
    363e:	00f102a3          	sb	a5,5(sp)
    3642:	77f1                	lui	a5,0xffffc
    3644:	2c878793          	addi	a5,a5,712 # ffffc2c8 <_eusrstack+0xdfff42c8>
    3648:	00f11323          	sh	a5,6(sp)
    364c:	18047913          	andi	s2,s0,384
    3650:	16090963          	beqz	s2,37c2 <dmp_enable_feature+0x1be>
    3654:	77f5                	lui	a5,0xffffd
    3656:	cc478793          	addi	a5,a5,-828 # ffffccc4 <_eusrstack+0xdfff4cc4>
    365a:	00f11423          	sh	a5,8(sp)
    365e:	fc600793          	li	a5,-58
    3662:	00f10523          	sb	a5,10(sp)
    3666:	fa300793          	li	a5,-93
    366a:	00f105a3          	sb	a5,11(sp)
    366e:	6505                	lui	a0,0x1
    3670:	77e9                	lui	a5,0xffffa
    3672:	3a378793          	addi	a5,a5,931 # ffffa3a3 <_eusrstack+0xdfff23a3>
    3676:	0050                	addi	a2,sp,4
    3678:	45a9                	li	a1,10
    367a:	aa750513          	addi	a0,a0,-1369 # aa7 <DMA_DeInit+0x125>
    367e:	00f11623          	sh	a5,12(sp)
    3682:	00347993          	andi	s3,s0,3
    3686:	84aff0ef          	jal	ra,26d0 <mpu_write_mem>
    368a:	0d800793          	li	a5,216
    368e:	00098463          	beqz	s3,3696 <dmp_enable_feature+0x92>
    3692:	02000793          	li	a5,32
    3696:	6505                	lui	a0,0x1
    3698:	0050                	addi	a2,sp,4
    369a:	4585                	li	a1,1
    369c:	ab650513          	addi	a0,a0,-1354 # ab6 <DMA_DeInit+0x134>
    36a0:	00f10223          	sb	a5,4(sp)
    36a4:	82cff0ef          	jal	ra,26d0 <mpu_write_mem>
    36a8:	02047793          	andi	a5,s0,32
    36ac:	12078363          	beqz	a5,37d2 <dmp_enable_feature+0x1ce>
    36b0:	80bff0ef          	jal	ra,2eba <dmp_enable_gyro_cal.part.0>
    36b4:	02090263          	beqz	s2,36d8 <dmp_enable_feature+0xd4>
    36b8:	10047793          	andi	a5,s0,256
    36bc:	10078e63          	beqz	a5,37d8 <dmp_enable_feature+0x1d4>
    36c0:	9bb697b7          	lui	a5,0x9bb69
    36c4:	bb278793          	addi	a5,a5,-1102 # 9bb68bb2 <_eusrstack+0x7bb60bb2>
    36c8:	6505                	lui	a0,0x1
    36ca:	0050                	addi	a2,sp,4
    36cc:	4591                	li	a1,4
    36ce:	aa250513          	addi	a0,a0,-1374 # aa2 <DMA_DeInit+0x120>
    36d2:	c23e                	sw	a5,4(sp)
    36d4:	ffdfe0ef          	jal	ra,26d0 <mpu_write_mem>
    36d8:	00147793          	andi	a5,s0,1
    36dc:	10078363          	beqz	a5,37e2 <dmp_enable_feature+0x1de>
    36e0:	6505                	lui	a0,0x1
    36e2:	57e1                	li	a5,-8
    36e4:	0050                	addi	a2,sp,4
    36e6:	4585                	li	a1,1
    36e8:	8b050513          	addi	a0,a0,-1872 # 8b0 <Get_CalibrationValue+0x9c>
    36ec:	00f10223          	sb	a5,4(sp)
    36f0:	fe1fe0ef          	jal	ra,26d0 <mpu_write_mem>
    36f4:	0fa00593          	li	a1,250
    36f8:	451d                	li	a0,7
    36fa:	babff0ef          	jal	ra,32a4 <dmp_set_tap_thresh>
    36fe:	451d                	li	a0,7
    3700:	3b19                	jal	3416 <dmp_set_tap_axes>
    3702:	4505                	li	a0,1
    3704:	3385                	jal	3464 <dmp_set_tap_count>
    3706:	06400513          	li	a0,100
    370a:	3361                	jal	3492 <dmp_set_tap_time>
    370c:	1f400513          	li	a0,500
    3710:	336d                	jal	34ba <dmp_set_tap_time_multi>
    3712:	02cae537          	lui	a0,0x2cae
    3716:	0c800593          	li	a1,200
    371a:	30950513          	addi	a0,a0,777 # 2cae309 <_data_lma+0x2ca450d>
    371e:	33d1                	jal	34e2 <dmp_set_shake_reject_thresh>
    3720:	02800513          	li	a0,40
    3724:	3501                	jal	3524 <dmp_set_shake_reject_time>
    3726:	4529                	li	a0,10
    3728:	3515                	jal	354c <dmp_set_shake_reject_timeout>
    372a:	00247793          	andi	a5,s0,2
    372e:	00f037b3          	snez	a5,a5
    3732:	0d878793          	addi	a5,a5,216
    3736:	0050                	addi	a2,sp,4
    3738:	4585                	li	a1,1
    373a:	73d00513          	li	a0,1853
    373e:	00f10223          	sb	a5,4(sp)
    3742:	f8ffe0ef          	jal	ra,26d0 <mpu_write_mem>
    3746:	00447793          	andi	a5,s0,4
    374a:	4505                	li	a0,1
    374c:	e391                	bnez	a5,3750 <dmp_enable_feature+0x14c>
    374e:	4501                	li	a0,0
    3750:	3d81                	jal	35a0 <dmp_enable_lp_quat>
    3752:	01047793          	andi	a5,s0,16
    3756:	4505                	li	a0,1
    3758:	e391                	bnez	a5,375c <dmp_enable_feature+0x158>
    375a:	4501                	li	a0,0
    375c:	3d9d                	jal	35d2 <dmp_enable_6x_lp_quat>
    375e:	85018793          	addi	a5,gp,-1968 # 20000108 <dmp>
    3762:	00846713          	ori	a4,s0,8
    3766:	00e79523          	sh	a4,10(a5)
    376a:	c6afe0ef          	jal	ra,1bd4 <mpu_reset_fifo>
    376e:	85018793          	addi	a5,gp,-1968 # 20000108 <dmp>
    3772:	080a1463          	bnez	s4,37fa <dmp_enable_feature+0x1f6>
    3776:	00078723          	sb	zero,14(a5)
    377a:	00090763          	beqz	s2,3788 <dmp_enable_feature+0x184>
    377e:	00e7c703          	lbu	a4,14(a5)
    3782:	0719                	addi	a4,a4,6
    3784:	00e78723          	sb	a4,14(a5)
    3788:	8851                	andi	s0,s0,20
    378a:	c411                	beqz	s0,3796 <dmp_enable_feature+0x192>
    378c:	00e7c703          	lbu	a4,14(a5)
    3790:	0741                	addi	a4,a4,16
    3792:	00e78723          	sb	a4,14(a5)
    3796:	00098763          	beqz	s3,37a4 <dmp_enable_feature+0x1a0>
    379a:	00e7c703          	lbu	a4,14(a5)
    379e:	0711                	addi	a4,a4,4
    37a0:	00e78723          	sb	a4,14(a5)
    37a4:	50b2                	lw	ra,44(sp)
    37a6:	5422                	lw	s0,40(sp)
    37a8:	5492                	lw	s1,36(sp)
    37aa:	5902                	lw	s2,32(sp)
    37ac:	49f2                	lw	s3,28(sp)
    37ae:	4a62                	lw	s4,24(sp)
    37b0:	4501                	li	a0,0
    37b2:	6145                	addi	sp,sp,48
    37b4:	8082                	ret
    37b6:	00f102a3          	sb	a5,5(sp)
    37ba:	77e9                	lui	a5,0xffffa
    37bc:	3a378793          	addi	a5,a5,931 # ffffa3a3 <_eusrstack+0xdfff23a3>
    37c0:	b561                	j	3648 <dmp_enable_feature+0x44>
    37c2:	77e9                	lui	a5,0xffffa
    37c4:	3a378793          	addi	a5,a5,931 # ffffa3a3 <_eusrstack+0xdfff23a3>
    37c8:	00f11423          	sh	a5,8(sp)
    37cc:	fa300793          	li	a5,-93
    37d0:	bd49                	j	3662 <dmp_enable_feature+0x5e>
    37d2:	4501                	li	a0,0
    37d4:	3345                	jal	3574 <dmp_enable_gyro_cal>
    37d6:	bdf9                	j	36b4 <dmp_enable_feature+0xb0>
    37d8:	90b487b7          	lui	a5,0x90b48
    37dc:	0b078793          	addi	a5,a5,176 # 90b480b0 <_eusrstack+0x70b400b0>
    37e0:	b5e5                	j	36c8 <dmp_enable_feature+0xc4>
    37e2:	6505                	lui	a0,0x1
    37e4:	fd800793          	li	a5,-40
    37e8:	0050                	addi	a2,sp,4
    37ea:	4585                	li	a1,1
    37ec:	8b050513          	addi	a0,a0,-1872 # 8b0 <Get_CalibrationValue+0x9c>
    37f0:	00f10223          	sb	a5,4(sp)
    37f4:	eddfe0ef          	jal	ra,26d0 <mpu_write_mem>
    37f8:	bf0d                	j	372a <dmp_enable_feature+0x126>
    37fa:	4719                	li	a4,6
    37fc:	00e78723          	sb	a4,14(a5)
    3800:	bfad                	j	377a <dmp_enable_feature+0x176>

00003802 <dmp_read_fifo>:
    3802:	715d                	addi	sp,sp,-80
    3804:	da56                	sw	s5,52(sp)
    3806:	d65e                	sw	s7,44(sp)
    3808:	85018b93          	addi	s7,gp,-1968 # 20000108 <dmp>
    380c:	c0ca                	sw	s2,64(sp)
    380e:	892a                	mv	s2,a0
    3810:	00ebc503          	lbu	a0,14(s7)
    3814:	c2a6                	sw	s1,68(sp)
    3816:	de4e                	sw	s3,60(sp)
    3818:	dc52                	sw	s4,56(sp)
    381a:	d85a                	sw	s6,48(sp)
    381c:	c686                	sw	ra,76(sp)
    381e:	c4a2                	sw	s0,72(sp)
    3820:	89ae                	mv	s3,a1
    3822:	8b32                	mv	s6,a2
    3824:	00071023          	sh	zero,0(a4)
    3828:	863e                	mv	a2,a5
    382a:	858a                	mv	a1,sp
    382c:	84b6                	mv	s1,a3
    382e:	8a3a                	mv	s4,a4
    3830:	8cffe0ef          	jal	ra,20fe <mpu_read_fifo_stream>
    3834:	e561                	bnez	a0,38fc <dmp_read_fifo+0xfa>
    3836:	00abd703          	lhu	a4,10(s7)
    383a:	842a                	mv	s0,a0
    383c:	85018a93          	addi	s5,gp,-1968 # 20000108 <dmp>
    3840:	01477793          	andi	a5,a4,20
    3844:	1a078e63          	beqz	a5,3a00 <dmp_read_fifo+0x1fe>
    3848:	00014783          	lbu	a5,0(sp)
    384c:	00114683          	lbu	a3,1(sp)
    3850:	00514603          	lbu	a2,5(sp)
    3854:	07e2                	slli	a5,a5,0x18
    3856:	06c2                	slli	a3,a3,0x10
    3858:	8fd5                	or	a5,a5,a3
    385a:	00314683          	lbu	a3,3(sp)
    385e:	0642                	slli	a2,a2,0x10
    3860:	00814583          	lbu	a1,8(sp)
    3864:	8fd5                	or	a5,a5,a3
    3866:	00214683          	lbu	a3,2(sp)
    386a:	05e2                	slli	a1,a1,0x18
    386c:	00d14503          	lbu	a0,13(sp)
    3870:	06a2                	slli	a3,a3,0x8
    3872:	8fd5                	or	a5,a5,a3
    3874:	00414683          	lbu	a3,4(sp)
    3878:	00fb2023          	sw	a5,0(s6)
    387c:	87c1                	srai	a5,a5,0x10
    387e:	06e2                	slli	a3,a3,0x18
    3880:	8ed1                	or	a3,a3,a2
    3882:	00714603          	lbu	a2,7(sp)
    3886:	02f787b3          	mul	a5,a5,a5
    388a:	0542                	slli	a0,a0,0x10
    388c:	8ed1                	or	a3,a3,a2
    388e:	00614603          	lbu	a2,6(sp)
    3892:	0622                	slli	a2,a2,0x8
    3894:	8ed1                	or	a3,a3,a2
    3896:	00914603          	lbu	a2,9(sp)
    389a:	00db2223          	sw	a3,4(s6)
    389e:	86c1                	srai	a3,a3,0x10
    38a0:	0642                	slli	a2,a2,0x10
    38a2:	8dd1                	or	a1,a1,a2
    38a4:	00b14603          	lbu	a2,11(sp)
    38a8:	02d686b3          	mul	a3,a3,a3
    38ac:	8dd1                	or	a1,a1,a2
    38ae:	00a14603          	lbu	a2,10(sp)
    38b2:	0622                	slli	a2,a2,0x8
    38b4:	8dd1                	or	a1,a1,a2
    38b6:	00c14603          	lbu	a2,12(sp)
    38ba:	00bb2423          	sw	a1,8(s6)
    38be:	85c1                	srai	a1,a1,0x10
    38c0:	0662                	slli	a2,a2,0x18
    38c2:	8e49                	or	a2,a2,a0
    38c4:	00f14503          	lbu	a0,15(sp)
    38c8:	96be                	add	a3,a3,a5
    38ca:	02b587b3          	mul	a5,a1,a1
    38ce:	8e49                	or	a2,a2,a0
    38d0:	00e14503          	lbu	a0,14(sp)
    38d4:	0522                	slli	a0,a0,0x8
    38d6:	8e49                	or	a2,a2,a0
    38d8:	00cb2623          	sw	a2,12(s6)
    38dc:	8641                	srai	a2,a2,0x10
    38de:	02c60633          	mul	a2,a2,a2
    38e2:	97b6                	add	a5,a5,a3
    38e4:	f10006b7          	lui	a3,0xf1000
    38e8:	97b2                	add	a5,a5,a2
    38ea:	97b6                	add	a5,a5,a3
    38ec:	020006b7          	lui	a3,0x2000
    38f0:	00f6f863          	bgeu	a3,a5,3900 <dmp_read_fifo+0xfe>
    38f4:	ae0fe0ef          	jal	ra,1bd4 <mpu_reset_fifo>
    38f8:	000a1023          	sh	zero,0(s4)
    38fc:	547d                	li	s0,-1
    38fe:	a0ed                	j	39e8 <dmp_read_fifo+0x1e6>
    3900:	000a5783          	lhu	a5,0(s4)
    3904:	1007e793          	ori	a5,a5,256
    3908:	00fa1023          	sh	a5,0(s4)
    390c:	47c1                	li	a5,16
    390e:	04077693          	andi	a3,a4,64
    3912:	c6a1                	beqz	a3,395a <dmp_read_fifo+0x158>
    3914:	1014                	addi	a3,sp,32
    3916:	96be                	add	a3,a3,a5
    3918:	fe06c603          	lbu	a2,-32(a3) # 1ffffe0 <_data_lma+0x1ff61e4>
    391c:	fe16c583          	lbu	a1,-31(a3)
    3920:	0799                	addi	a5,a5,6
    3922:	0622                	slli	a2,a2,0x8
    3924:	8e4d                	or	a2,a2,a1
    3926:	00c99023          	sh	a2,0(s3)
    392a:	fe26c603          	lbu	a2,-30(a3)
    392e:	fe36c583          	lbu	a1,-29(a3)
    3932:	0ff7f793          	andi	a5,a5,255
    3936:	0622                	slli	a2,a2,0x8
    3938:	8e4d                	or	a2,a2,a1
    393a:	00c99123          	sh	a2,2(s3)
    393e:	fe46c603          	lbu	a2,-28(a3)
    3942:	fe56c683          	lbu	a3,-27(a3)
    3946:	0622                	slli	a2,a2,0x8
    3948:	8ed1                	or	a3,a3,a2
    394a:	00d99223          	sh	a3,4(s3)
    394e:	000a5683          	lhu	a3,0(s4)
    3952:	0086e693          	ori	a3,a3,8
    3956:	00da1023          	sh	a3,0(s4)
    395a:	18077693          	andi	a3,a4,384
    395e:	c6a1                	beqz	a3,39a6 <dmp_read_fifo+0x1a4>
    3960:	1014                	addi	a3,sp,32
    3962:	96be                	add	a3,a3,a5
    3964:	fe06c603          	lbu	a2,-32(a3)
    3968:	fe16c583          	lbu	a1,-31(a3)
    396c:	0799                	addi	a5,a5,6
    396e:	0622                	slli	a2,a2,0x8
    3970:	8e4d                	or	a2,a2,a1
    3972:	00c91023          	sh	a2,0(s2)
    3976:	fe26c603          	lbu	a2,-30(a3)
    397a:	fe36c583          	lbu	a1,-29(a3)
    397e:	0ff7f793          	andi	a5,a5,255
    3982:	0622                	slli	a2,a2,0x8
    3984:	8e4d                	or	a2,a2,a1
    3986:	00c91123          	sh	a2,2(s2)
    398a:	fe46c603          	lbu	a2,-28(a3)
    398e:	fe56c683          	lbu	a3,-27(a3)
    3992:	0622                	slli	a2,a2,0x8
    3994:	8ed1                	or	a3,a3,a2
    3996:	00d91223          	sh	a3,4(s2)
    399a:	000a5683          	lhu	a3,0(s4)
    399e:	0706e693          	ori	a3,a3,112
    39a2:	00da1023          	sh	a3,0(s4)
    39a6:	8b0d                	andi	a4,a4,3
    39a8:	cf0d                	beqz	a4,39e2 <dmp_read_fifo+0x1e0>
    39aa:	00f10933          	add	s2,sp,a5
    39ae:	00194783          	lbu	a5,1(s2)
    39b2:	00394983          	lbu	s3,3(s2)
    39b6:	8b85                	andi	a5,a5,1
    39b8:	cb99                	beqz	a5,39ce <dmp_read_fifo+0x1cc>
    39ba:	000aa783          	lw	a5,0(s5)
    39be:	cb81                	beqz	a5,39ce <dmp_read_fifo+0x1cc>
    39c0:	0079f593          	andi	a1,s3,7
    39c4:	0039d513          	srli	a0,s3,0x3
    39c8:	0585                	addi	a1,a1,1
    39ca:	891d                	andi	a0,a0,7
    39cc:	9782                	jalr	a5
    39ce:	00194783          	lbu	a5,1(s2)
    39d2:	8ba1                	andi	a5,a5,8
    39d4:	c799                	beqz	a5,39e2 <dmp_read_fifo+0x1e0>
    39d6:	004aa783          	lw	a5,4(s5)
    39da:	c781                	beqz	a5,39e2 <dmp_read_fifo+0x1e0>
    39dc:	0069d513          	srli	a0,s3,0x6
    39e0:	9782                	jalr	a5
    39e2:	8526                	mv	a0,s1
    39e4:	a3aff0ef          	jal	ra,2c1e <mget_ms>
    39e8:	8522                	mv	a0,s0
    39ea:	40b6                	lw	ra,76(sp)
    39ec:	4426                	lw	s0,72(sp)
    39ee:	4496                	lw	s1,68(sp)
    39f0:	4906                	lw	s2,64(sp)
    39f2:	59f2                	lw	s3,60(sp)
    39f4:	5a62                	lw	s4,56(sp)
    39f6:	5ad2                	lw	s5,52(sp)
    39f8:	5b42                	lw	s6,48(sp)
    39fa:	5bb2                	lw	s7,44(sp)
    39fc:	6161                	addi	sp,sp,80
    39fe:	8082                	ret
    3a00:	4781                	li	a5,0
    3a02:	b731                	j	390e <dmp_read_fifo+0x10c>

00003a04 <BMP280_Read_Byte>:
    3a04:	1101                	addi	sp,sp,-32
    3a06:	ce06                	sw	ra,28(sp)
    3a08:	cc22                	sw	s0,24(sp)
    3a0a:	842a                	mv	s0,a0
    3a0c:	68e000ef          	jal	ra,409a <MyI2C_Start>
    3a10:	0ec00513          	li	a0,236
    3a14:	6b2000ef          	jal	ra,40c6 <MyI2C_SendByte>
    3a18:	734000ef          	jal	ra,414c <MyI2C_ReceiveAck>
    3a1c:	8522                	mv	a0,s0
    3a1e:	6a8000ef          	jal	ra,40c6 <MyI2C_SendByte>
    3a22:	72a000ef          	jal	ra,414c <MyI2C_ReceiveAck>
    3a26:	674000ef          	jal	ra,409a <MyI2C_Start>
    3a2a:	0ed00513          	li	a0,237
    3a2e:	698000ef          	jal	ra,40c6 <MyI2C_SendByte>
    3a32:	71a000ef          	jal	ra,414c <MyI2C_ReceiveAck>
    3a36:	6cc000ef          	jal	ra,4102 <MyI2C_ReceiveByte>
    3a3a:	c62a                	sw	a0,12(sp)
    3a3c:	676000ef          	jal	ra,40b2 <MyI2C_Stop>
    3a40:	40f2                	lw	ra,28(sp)
    3a42:	4462                	lw	s0,24(sp)
    3a44:	4532                	lw	a0,12(sp)
    3a46:	6105                	addi	sp,sp,32
    3a48:	8082                	ret

00003a4a <BMP280_Write_Byte>:
    3a4a:	1101                	addi	sp,sp,-32
    3a4c:	ce06                	sw	ra,28(sp)
    3a4e:	c62e                	sw	a1,12(sp)
    3a50:	cc22                	sw	s0,24(sp)
    3a52:	842a                	mv	s0,a0
    3a54:	646000ef          	jal	ra,409a <MyI2C_Start>
    3a58:	0ec00513          	li	a0,236
    3a5c:	66a000ef          	jal	ra,40c6 <MyI2C_SendByte>
    3a60:	6ec000ef          	jal	ra,414c <MyI2C_ReceiveAck>
    3a64:	8522                	mv	a0,s0
    3a66:	660000ef          	jal	ra,40c6 <MyI2C_SendByte>
    3a6a:	6e2000ef          	jal	ra,414c <MyI2C_ReceiveAck>
    3a6e:	45b2                	lw	a1,12(sp)
    3a70:	852e                	mv	a0,a1
    3a72:	654000ef          	jal	ra,40c6 <MyI2C_SendByte>
    3a76:	6d6000ef          	jal	ra,414c <MyI2C_ReceiveAck>
    3a7a:	4462                	lw	s0,24(sp)
    3a7c:	40f2                	lw	ra,28(sp)
    3a7e:	6105                	addi	sp,sp,32
    3a80:	6320006f          	j	40b2 <MyI2C_Stop>

00003a84 <BMP280_Set_TemOversamp>:
    3a84:	414c                	lw	a1,4(a0)
    3a86:	411c                	lw	a5,0(a0)
    3a88:	0596                	slli	a1,a1,0x5
    3a8a:	078a                	slli	a5,a5,0x2
    3a8c:	8ddd                	or	a1,a1,a5
    3a8e:	451c                	lw	a5,8(a0)
    3a90:	0f400513          	li	a0,244
    3a94:	8ddd                	or	a1,a1,a5
    3a96:	0ff5f593          	andi	a1,a1,255
    3a9a:	bf45                	j	3a4a <BMP280_Write_Byte>

00003a9c <BMP280_Set_Standby_FILTER>:
    3a9c:	410c                	lw	a1,0(a0)
    3a9e:	415c                	lw	a5,4(a0)
    3aa0:	0596                	slli	a1,a1,0x5
    3aa2:	078a                	slli	a5,a5,0x2
    3aa4:	8ddd                	or	a1,a1,a5
    3aa6:	451c                	lw	a5,8(a0)
    3aa8:	0f500513          	li	a0,245
    3aac:	8ddd                	or	a1,a1,a5
    3aae:	0ff5f593          	andi	a1,a1,255
    3ab2:	bf61                	j	3a4a <BMP280_Write_Byte>

00003ab4 <Bmp_Init>:
    3ab4:	7179                	addi	sp,sp,-48
    3ab6:	d606                	sw	ra,44(sp)
    3ab8:	d422                	sw	s0,40(sp)
    3aba:	d226                	sw	s1,36(sp)
    3abc:	2b79                	jal	405a <MyI2C_Init>
    3abe:	08800513          	li	a0,136
    3ac2:	3789                	jal	3a04 <BMP280_Read_Byte>
    3ac4:	84aa                	mv	s1,a0
    3ac6:	08900513          	li	a0,137
    3aca:	81018413          	addi	s0,gp,-2032 # 200000c8 <bmp280>
    3ace:	3f1d                	jal	3a04 <BMP280_Read_Byte>
    3ad0:	401c                	lw	a5,0(s0)
    3ad2:	0522                	slli	a0,a0,0x8
    3ad4:	9526                	add	a0,a0,s1
    3ad6:	00a79023          	sh	a0,0(a5)
    3ada:	08a00513          	li	a0,138
    3ade:	371d                	jal	3a04 <BMP280_Read_Byte>
    3ae0:	84aa                	mv	s1,a0
    3ae2:	08b00513          	li	a0,139
    3ae6:	3f39                	jal	3a04 <BMP280_Read_Byte>
    3ae8:	401c                	lw	a5,0(s0)
    3aea:	0522                	slli	a0,a0,0x8
    3aec:	9526                	add	a0,a0,s1
    3aee:	00a79123          	sh	a0,2(a5)
    3af2:	08c00513          	li	a0,140
    3af6:	3739                	jal	3a04 <BMP280_Read_Byte>
    3af8:	84aa                	mv	s1,a0
    3afa:	08d00513          	li	a0,141
    3afe:	3719                	jal	3a04 <BMP280_Read_Byte>
    3b00:	401c                	lw	a5,0(s0)
    3b02:	0522                	slli	a0,a0,0x8
    3b04:	9526                	add	a0,a0,s1
    3b06:	00a79223          	sh	a0,4(a5)
    3b0a:	08e00513          	li	a0,142
    3b0e:	3ddd                	jal	3a04 <BMP280_Read_Byte>
    3b10:	84aa                	mv	s1,a0
    3b12:	08f00513          	li	a0,143
    3b16:	35fd                	jal	3a04 <BMP280_Read_Byte>
    3b18:	401c                	lw	a5,0(s0)
    3b1a:	0522                	slli	a0,a0,0x8
    3b1c:	9526                	add	a0,a0,s1
    3b1e:	00a79323          	sh	a0,6(a5)
    3b22:	09000513          	li	a0,144
    3b26:	3df9                	jal	3a04 <BMP280_Read_Byte>
    3b28:	84aa                	mv	s1,a0
    3b2a:	09100513          	li	a0,145
    3b2e:	3dd9                	jal	3a04 <BMP280_Read_Byte>
    3b30:	401c                	lw	a5,0(s0)
    3b32:	0522                	slli	a0,a0,0x8
    3b34:	9526                	add	a0,a0,s1
    3b36:	00a79423          	sh	a0,8(a5)
    3b3a:	09200513          	li	a0,146
    3b3e:	35d9                	jal	3a04 <BMP280_Read_Byte>
    3b40:	84aa                	mv	s1,a0
    3b42:	09300513          	li	a0,147
    3b46:	3d7d                	jal	3a04 <BMP280_Read_Byte>
    3b48:	401c                	lw	a5,0(s0)
    3b4a:	0522                	slli	a0,a0,0x8
    3b4c:	9526                	add	a0,a0,s1
    3b4e:	00a79523          	sh	a0,10(a5)
    3b52:	09400513          	li	a0,148
    3b56:	357d                	jal	3a04 <BMP280_Read_Byte>
    3b58:	84aa                	mv	s1,a0
    3b5a:	09500513          	li	a0,149
    3b5e:	355d                	jal	3a04 <BMP280_Read_Byte>
    3b60:	401c                	lw	a5,0(s0)
    3b62:	0522                	slli	a0,a0,0x8
    3b64:	9526                	add	a0,a0,s1
    3b66:	00a79623          	sh	a0,12(a5)
    3b6a:	09600513          	li	a0,150
    3b6e:	3d59                	jal	3a04 <BMP280_Read_Byte>
    3b70:	84aa                	mv	s1,a0
    3b72:	09700513          	li	a0,151
    3b76:	3579                	jal	3a04 <BMP280_Read_Byte>
    3b78:	401c                	lw	a5,0(s0)
    3b7a:	0522                	slli	a0,a0,0x8
    3b7c:	9526                	add	a0,a0,s1
    3b7e:	00a79723          	sh	a0,14(a5)
    3b82:	09800513          	li	a0,152
    3b86:	3dbd                	jal	3a04 <BMP280_Read_Byte>
    3b88:	84aa                	mv	s1,a0
    3b8a:	09900513          	li	a0,153
    3b8e:	3d9d                	jal	3a04 <BMP280_Read_Byte>
    3b90:	401c                	lw	a5,0(s0)
    3b92:	0522                	slli	a0,a0,0x8
    3b94:	9526                	add	a0,a0,s1
    3b96:	00a79823          	sh	a0,16(a5)
    3b9a:	09a00513          	li	a0,154
    3b9e:	359d                	jal	3a04 <BMP280_Read_Byte>
    3ba0:	84aa                	mv	s1,a0
    3ba2:	09b00513          	li	a0,155
    3ba6:	3db9                	jal	3a04 <BMP280_Read_Byte>
    3ba8:	401c                	lw	a5,0(s0)
    3baa:	0522                	slli	a0,a0,0x8
    3bac:	9526                	add	a0,a0,s1
    3bae:	00a79923          	sh	a0,18(a5)
    3bb2:	09c00513          	li	a0,156
    3bb6:	35b9                	jal	3a04 <BMP280_Read_Byte>
    3bb8:	84aa                	mv	s1,a0
    3bba:	09d00513          	li	a0,157
    3bbe:	3599                	jal	3a04 <BMP280_Read_Byte>
    3bc0:	401c                	lw	a5,0(s0)
    3bc2:	0522                	slli	a0,a0,0x8
    3bc4:	9526                	add	a0,a0,s1
    3bc6:	00a79a23          	sh	a0,20(a5)
    3bca:	09e00513          	li	a0,158
    3bce:	3d1d                	jal	3a04 <BMP280_Read_Byte>
    3bd0:	84aa                	mv	s1,a0
    3bd2:	09f00513          	li	a0,159
    3bd6:	353d                	jal	3a04 <BMP280_Read_Byte>
    3bd8:	401c                	lw	a5,0(s0)
    3bda:	0522                	slli	a0,a0,0x8
    3bdc:	9526                	add	a0,a0,s1
    3bde:	00a79b23          	sh	a0,22(a5)
    3be2:	0b600593          	li	a1,182
    3be6:	0e000513          	li	a0,224
    3bea:	3585                	jal	3a4a <BMP280_Write_Byte>
    3bec:	478d                	li	a5,3
    3bee:	4705                	li	a4,1
    3bf0:	0028                	addi	a0,sp,8
    3bf2:	c43e                	sw	a5,8(sp)
    3bf4:	c63a                	sw	a4,12(sp)
    3bf6:	c83e                	sw	a5,16(sp)
    3bf8:	3571                	jal	3a84 <BMP280_Set_TemOversamp>
    3bfa:	4791                	li	a5,4
    3bfc:	0848                	addi	a0,sp,20
    3bfe:	ca02                	sw	zero,20(sp)
    3c00:	cc3e                	sw	a5,24(sp)
    3c02:	ce02                	sw	zero,28(sp)
    3c04:	3d61                	jal	3a9c <BMP280_Set_Standby_FILTER>
    3c06:	50b2                	lw	ra,44(sp)
    3c08:	5422                	lw	s0,40(sp)
    3c0a:	5492                	lw	s1,36(sp)
    3c0c:	6145                	addi	sp,sp,48
    3c0e:	8082                	ret

00003c10 <MPU6050_I2C_Mem_Write>:
    3c10:	1101                	addi	sp,sp,-32
    3c12:	ca26                	sw	s1,20(sp)
    3c14:	400064b7          	lui	s1,0x40006
    3c18:	cc22                	sw	s0,24(sp)
    3c1a:	c84a                	sw	s2,16(sp)
    3c1c:	c64e                	sw	s3,12(sp)
    3c1e:	c452                	sw	s4,8(sp)
    3c20:	c256                	sw	s5,4(sp)
    3c22:	ce06                	sw	ra,28(sp)
    3c24:	c05a                	sw	s6,0(sp)
    3c26:	8aaa                	mv	s5,a0
    3c28:	8a2e                	mv	s4,a1
    3c2a:	8932                	mv	s2,a2
    3c2c:	8436                	mv	s0,a3
    3c2e:	80048993          	addi	s3,s1,-2048 # 40005800 <_eusrstack+0x1fffd800>
    3c32:	000205b7          	lui	a1,0x20
    3c36:	854e                	mv	a0,s3
    3c38:	a7cfd0ef          	jal	ra,eb4 <I2C_GetFlagStatus>
    3c3c:	f97d                	bnez	a0,3c32 <MPU6050_I2C_Mem_Write+0x22>
    3c3e:	80048513          	addi	a0,s1,-2048
    3c42:	4585                	li	a1,1
    3c44:	000304b7          	lui	s1,0x30
    3c48:	400069b7          	lui	s3,0x40006
    3c4c:	9d0fd0ef          	jal	ra,e1c <I2C_GenerateSTART>
    3c50:	0485                	addi	s1,s1,1
    3c52:	80098b13          	addi	s6,s3,-2048 # 40005800 <_eusrstack+0x1fffd800>
    3c56:	85a6                	mv	a1,s1
    3c58:	855a                	mv	a0,s6
    3c5a:	a40fd0ef          	jal	ra,e9a <I2C_CheckEvent>
    3c5e:	dd65                	beqz	a0,3c56 <MPU6050_I2C_Mem_Write+0x46>
    3c60:	85d6                	mv	a1,s5
    3c62:	80098513          	addi	a0,s3,-2048
    3c66:	4601                	li	a2,0
    3c68:	000704b7          	lui	s1,0x70
    3c6c:	400069b7          	lui	s3,0x40006
    3c70:	a16fd0ef          	jal	ra,e86 <I2C_Send7bitAddress>
    3c74:	08248493          	addi	s1,s1,130 # 70082 <_data_lma+0x66286>
    3c78:	80098a93          	addi	s5,s3,-2048 # 40005800 <_eusrstack+0x1fffd800>
    3c7c:	85a6                	mv	a1,s1
    3c7e:	8556                	mv	a0,s5
    3c80:	a1afd0ef          	jal	ra,e9a <I2C_CheckEvent>
    3c84:	dd65                	beqz	a0,3c7c <MPU6050_I2C_Mem_Write+0x6c>
    3c86:	80098513          	addi	a0,s3,-2048
    3c8a:	85d2                	mv	a1,s4
    3c8c:	000709b7          	lui	s3,0x70
    3c90:	400064b7          	lui	s1,0x40006
    3c94:	9e2fd0ef          	jal	ra,e76 <I2C_SendData>
    3c98:	08498993          	addi	s3,s3,132 # 70084 <_data_lma+0x66288>
    3c9c:	80048493          	addi	s1,s1,-2048 # 40005800 <_eusrstack+0x1fffd800>
    3ca0:	85ce                	mv	a1,s3
    3ca2:	8526                	mv	a0,s1
    3ca4:	9f6fd0ef          	jal	ra,e9a <I2C_CheckEvent>
    3ca8:	dd65                	beqz	a0,3ca0 <MPU6050_I2C_Mem_Write+0x90>
    3caa:	400064b7          	lui	s1,0x40006
    3cae:	000709b7          	lui	s3,0x70
    3cb2:	9922                	add	s2,s2,s0
    3cb4:	80048493          	addi	s1,s1,-2048 # 40005800 <_eusrstack+0x1fffd800>
    3cb8:	08498993          	addi	s3,s3,132 # 70084 <_data_lma+0x66288>
    3cbc:	02891263          	bne	s2,s0,3ce0 <MPU6050_I2C_Mem_Write+0xd0>
    3cc0:	4462                	lw	s0,24(sp)
    3cc2:	40f2                	lw	ra,28(sp)
    3cc4:	44d2                	lw	s1,20(sp)
    3cc6:	4942                	lw	s2,16(sp)
    3cc8:	49b2                	lw	s3,12(sp)
    3cca:	4a22                	lw	s4,8(sp)
    3ccc:	4a92                	lw	s5,4(sp)
    3cce:	4b02                	lw	s6,0(sp)
    3cd0:	40006537          	lui	a0,0x40006
    3cd4:	4585                	li	a1,1
    3cd6:	80050513          	addi	a0,a0,-2048 # 40005800 <_eusrstack+0x1fffd800>
    3cda:	6105                	addi	sp,sp,32
    3cdc:	95efd06f          	j	e3a <I2C_GenerateSTOP>
    3ce0:	0405                	addi	s0,s0,1
    3ce2:	fff44583          	lbu	a1,-1(s0)
    3ce6:	8526                	mv	a0,s1
    3ce8:	98efd0ef          	jal	ra,e76 <I2C_SendData>
    3cec:	85ce                	mv	a1,s3
    3cee:	8526                	mv	a0,s1
    3cf0:	9aafd0ef          	jal	ra,e9a <I2C_CheckEvent>
    3cf4:	dd65                	beqz	a0,3cec <MPU6050_I2C_Mem_Write+0xdc>
    3cf6:	b7d9                	j	3cbc <MPU6050_I2C_Mem_Write+0xac>

00003cf8 <MPU6050_WriteByte>:
    3cf8:	1101                	addi	sp,sp,-32
    3cfa:	00b107a3          	sb	a1,15(sp)
    3cfe:	00f10693          	addi	a3,sp,15
    3d02:	85aa                	mv	a1,a0
    3d04:	4605                	li	a2,1
    3d06:	0d000513          	li	a0,208
    3d0a:	ce06                	sw	ra,28(sp)
    3d0c:	3711                	jal	3c10 <MPU6050_I2C_Mem_Write>
    3d0e:	40f2                	lw	ra,28(sp)
    3d10:	6105                	addi	sp,sp,32
    3d12:	8082                	ret

00003d14 <MPU6050_Init>:
    3d14:	7179                	addi	sp,sp,-48
    3d16:	4585                	li	a1,1
    3d18:	00400537          	lui	a0,0x400
    3d1c:	d606                	sw	ra,44(sp)
    3d1e:	d422                	sw	s0,40(sp)
    3d20:	c202                	sw	zero,4(sp)
    3d22:	c402                	sw	zero,8(sp)
    3d24:	c602                	sw	zero,12(sp)
    3d26:	c802                	sw	zero,16(sp)
    3d28:	ca02                	sw	zero,20(sp)
    3d2a:	cc02                	sw	zero,24(sp)
    3d2c:	ce02                	sw	zero,28(sp)
    3d2e:	bd2fd0ef          	jal	ra,1100 <RCC_APB1PeriphClockCmd>
    3d32:	4585                	li	a1,1
    3d34:	4521                	li	a0,8
    3d36:	bacfd0ef          	jal	ra,10e2 <RCC_APB2PeriphClockCmd>
    3d3a:	6785                	lui	a5,0x1
    3d3c:	c0078793          	addi	a5,a5,-1024 # c00 <GPIO_Init+0xb8>
    3d40:	00f11223          	sh	a5,4(sp)
    3d44:	40011537          	lui	a0,0x40011
    3d48:	47f1                	li	a5,28
    3d4a:	c63e                	sw	a5,12(sp)
    3d4c:	004c                	addi	a1,sp,4
    3d4e:	478d                	li	a5,3
    3d50:	c0050513          	addi	a0,a0,-1024 # 40010c00 <_eusrstack+0x20008c00>
    3d54:	c43e                	sw	a5,8(sp)
    3d56:	df3fc0ef          	jal	ra,b48 <GPIO_Init>
    3d5a:	000627b7          	lui	a5,0x62
    3d5e:	a8078793          	addi	a5,a5,-1408 # 61a80 <_data_lma+0x57c84>
    3d62:	c83e                	sw	a5,16(sp)
    3d64:	bfff07b7          	lui	a5,0xbfff0
    3d68:	40006437          	lui	s0,0x40006
    3d6c:	ca3e                	sw	a5,20(sp)
    3d6e:	040007b7          	lui	a5,0x4000
    3d72:	cc3e                	sw	a5,24(sp)
    3d74:	080c                	addi	a1,sp,16
    3d76:	6791                	lui	a5,0x4
    3d78:	80040513          	addi	a0,s0,-2048 # 40005800 <_eusrstack+0x1fffd800>
    3d7c:	00f11e23          	sh	a5,28(sp)
    3d80:	f67fc0ef          	jal	ra,ce6 <I2C_Init>
    3d84:	80040513          	addi	a0,s0,-2048
    3d88:	4585                	li	a1,1
    3d8a:	876fd0ef          	jal	ra,e00 <I2C_Cmd>
    3d8e:	4585                	li	a1,1
    3d90:	80040513          	addi	a0,s0,-2048
    3d94:	8c4fd0ef          	jal	ra,e58 <I2C_AcknowledgeConfig>
    3d98:	03200513          	li	a0,50
    3d9c:	099010ef          	jal	ra,5634 <Delay_Ms>
    3da0:	08000593          	li	a1,128
    3da4:	06b00513          	li	a0,107
    3da8:	3f81                	jal	3cf8 <MPU6050_WriteByte>
    3daa:	06400513          	li	a0,100
    3dae:	087010ef          	jal	ra,5634 <Delay_Ms>
    3db2:	4581                	li	a1,0
    3db4:	06b00513          	li	a0,107
    3db8:	3781                	jal	3cf8 <MPU6050_WriteByte>
    3dba:	458d                	li	a1,3
    3dbc:	4565                	li	a0,25
    3dbe:	3f2d                	jal	3cf8 <MPU6050_WriteByte>
    3dc0:	4589                	li	a1,2
    3dc2:	4569                	li	a0,26
    3dc4:	3f15                	jal	3cf8 <MPU6050_WriteByte>
    3dc6:	4581                	li	a1,0
    3dc8:	4571                	li	a0,28
    3dca:	373d                	jal	3cf8 <MPU6050_WriteByte>
    3dcc:	45e1                	li	a1,24
    3dce:	456d                	li	a0,27
    3dd0:	3725                	jal	3cf8 <MPU6050_WriteByte>
    3dd2:	4581                	li	a1,0
    3dd4:	03800513          	li	a0,56
    3dd8:	3705                	jal	3cf8 <MPU6050_WriteByte>
    3dda:	4581                	li	a1,0
    3ddc:	06a00513          	li	a0,106
    3de0:	3f21                	jal	3cf8 <MPU6050_WriteByte>
    3de2:	4581                	li	a1,0
    3de4:	02300513          	li	a0,35
    3de8:	3f01                	jal	3cf8 <MPU6050_WriteByte>
    3dea:	08000593          	li	a1,128
    3dee:	03700513          	li	a0,55
    3df2:	3719                	jal	3cf8 <MPU6050_WriteByte>
    3df4:	4585                	li	a1,1
    3df6:	06b00513          	li	a0,107
    3dfa:	3dfd                	jal	3cf8 <MPU6050_WriteByte>
    3dfc:	f0ffe0ef          	jal	ra,2d0a <mpu_dmp_init>
    3e00:	842a                	mv	s0,a0
    3e02:	85aa                	mv	a1,a0
    3e04:	0000a537          	lui	a0,0xa
    3e08:	a2c50513          	addi	a0,a0,-1492 # 9a2c <dmp_memory+0xc1c>
    3e0c:	06b020ef          	jal	ra,6676 <printf>
    3e10:	8522                	mv	a0,s0
    3e12:	50b2                	lw	ra,44(sp)
    3e14:	5422                	lw	s0,40(sp)
    3e16:	6145                	addi	sp,sp,48
    3e18:	8082                	ret

00003e1a <MPU6050_I2C_Mem_Read>:
    3e1a:	1101                	addi	sp,sp,-32
    3e1c:	ca26                	sw	s1,20(sp)
    3e1e:	400064b7          	lui	s1,0x40006
    3e22:	cc22                	sw	s0,24(sp)
    3e24:	c84a                	sw	s2,16(sp)
    3e26:	c64e                	sw	s3,12(sp)
    3e28:	c452                	sw	s4,8(sp)
    3e2a:	c256                	sw	s5,4(sp)
    3e2c:	ce06                	sw	ra,28(sp)
    3e2e:	c05a                	sw	s6,0(sp)
    3e30:	8a2a                	mv	s4,a0
    3e32:	8aae                	mv	s5,a1
    3e34:	8432                	mv	s0,a2
    3e36:	8936                	mv	s2,a3
    3e38:	80048993          	addi	s3,s1,-2048 # 40005800 <_eusrstack+0x1fffd800>
    3e3c:	000205b7          	lui	a1,0x20
    3e40:	854e                	mv	a0,s3
    3e42:	872fd0ef          	jal	ra,eb4 <I2C_GetFlagStatus>
    3e46:	f97d                	bnez	a0,3e3c <MPU6050_I2C_Mem_Read+0x22>
    3e48:	80048513          	addi	a0,s1,-2048
    3e4c:	4585                	li	a1,1
    3e4e:	000304b7          	lui	s1,0x30
    3e52:	400069b7          	lui	s3,0x40006
    3e56:	fc7fc0ef          	jal	ra,e1c <I2C_GenerateSTART>
    3e5a:	0485                	addi	s1,s1,1
    3e5c:	80098b13          	addi	s6,s3,-2048 # 40005800 <_eusrstack+0x1fffd800>
    3e60:	85a6                	mv	a1,s1
    3e62:	855a                	mv	a0,s6
    3e64:	836fd0ef          	jal	ra,e9a <I2C_CheckEvent>
    3e68:	dd65                	beqz	a0,3e60 <MPU6050_I2C_Mem_Read+0x46>
    3e6a:	80098513          	addi	a0,s3,-2048
    3e6e:	4601                	li	a2,0
    3e70:	85d2                	mv	a1,s4
    3e72:	000704b7          	lui	s1,0x70
    3e76:	400069b7          	lui	s3,0x40006
    3e7a:	80cfd0ef          	jal	ra,e86 <I2C_Send7bitAddress>
    3e7e:	08248493          	addi	s1,s1,130 # 70082 <_data_lma+0x66286>
    3e82:	80098b13          	addi	s6,s3,-2048 # 40005800 <_eusrstack+0x1fffd800>
    3e86:	85a6                	mv	a1,s1
    3e88:	855a                	mv	a0,s6
    3e8a:	810fd0ef          	jal	ra,e9a <I2C_CheckEvent>
    3e8e:	dd65                	beqz	a0,3e86 <MPU6050_I2C_Mem_Read+0x6c>
    3e90:	85d6                	mv	a1,s5
    3e92:	80098513          	addi	a0,s3,-2048
    3e96:	000704b7          	lui	s1,0x70
    3e9a:	400069b7          	lui	s3,0x40006
    3e9e:	fd9fc0ef          	jal	ra,e76 <I2C_SendData>
    3ea2:	08448493          	addi	s1,s1,132 # 70084 <_data_lma+0x66288>
    3ea6:	80098a93          	addi	s5,s3,-2048 # 40005800 <_eusrstack+0x1fffd800>
    3eaa:	85a6                	mv	a1,s1
    3eac:	8556                	mv	a0,s5
    3eae:	fedfc0ef          	jal	ra,e9a <I2C_CheckEvent>
    3eb2:	dd65                	beqz	a0,3eaa <MPU6050_I2C_Mem_Read+0x90>
    3eb4:	80098513          	addi	a0,s3,-2048
    3eb8:	4585                	li	a1,1
    3eba:	000304b7          	lui	s1,0x30
    3ebe:	400069b7          	lui	s3,0x40006
    3ec2:	f5bfc0ef          	jal	ra,e1c <I2C_GenerateSTART>
    3ec6:	0485                	addi	s1,s1,1
    3ec8:	80098a93          	addi	s5,s3,-2048 # 40005800 <_eusrstack+0x1fffd800>
    3ecc:	85a6                	mv	a1,s1
    3ece:	8556                	mv	a0,s5
    3ed0:	fcbfc0ef          	jal	ra,e9a <I2C_CheckEvent>
    3ed4:	dd65                	beqz	a0,3ecc <MPU6050_I2C_Mem_Read+0xb2>
    3ed6:	80098513          	addi	a0,s3,-2048
    3eda:	4605                	li	a2,1
    3edc:	85d2                	mv	a1,s4
    3ede:	000309b7          	lui	s3,0x30
    3ee2:	400064b7          	lui	s1,0x40006
    3ee6:	fa1fc0ef          	jal	ra,e86 <I2C_Send7bitAddress>
    3eea:	0989                	addi	s3,s3,2
    3eec:	80048493          	addi	s1,s1,-2048 # 40005800 <_eusrstack+0x1fffd800>
    3ef0:	85ce                	mv	a1,s3
    3ef2:	8526                	mv	a0,s1
    3ef4:	fa7fc0ef          	jal	ra,e9a <I2C_CheckEvent>
    3ef8:	dd65                	beqz	a0,3ef0 <MPU6050_I2C_Mem_Read+0xd6>
    3efa:	400064b7          	lui	s1,0x40006
    3efe:	000309b7          	lui	s3,0x30
    3f02:	0ff00a13          	li	s4,255
    3f06:	80048493          	addi	s1,s1,-2048 # 40005800 <_eusrstack+0x1fffd800>
    3f0a:	04098993          	addi	s3,s3,64 # 30040 <_data_lma+0x26244>
    3f0e:	147d                	addi	s0,s0,-1
    3f10:	0ff47413          	andi	s0,s0,255
    3f14:	03441763          	bne	s0,s4,3f42 <MPU6050_I2C_Mem_Read+0x128>
    3f18:	40006437          	lui	s0,0x40006
    3f1c:	80040513          	addi	a0,s0,-2048 # 40005800 <_eusrstack+0x1fffd800>
    3f20:	4585                	li	a1,1
    3f22:	f19fc0ef          	jal	ra,e3a <I2C_GenerateSTOP>
    3f26:	80040513          	addi	a0,s0,-2048
    3f2a:	4462                	lw	s0,24(sp)
    3f2c:	40f2                	lw	ra,28(sp)
    3f2e:	44d2                	lw	s1,20(sp)
    3f30:	4942                	lw	s2,16(sp)
    3f32:	49b2                	lw	s3,12(sp)
    3f34:	4a22                	lw	s4,8(sp)
    3f36:	4a92                	lw	s5,4(sp)
    3f38:	4b02                	lw	s6,0(sp)
    3f3a:	4585                	li	a1,1
    3f3c:	6105                	addi	sp,sp,32
    3f3e:	f1bfc06f          	j	e58 <I2C_AcknowledgeConfig>
    3f42:	e409                	bnez	s0,3f4c <MPU6050_I2C_Mem_Read+0x132>
    3f44:	4581                	li	a1,0
    3f46:	8526                	mv	a0,s1
    3f48:	f11fc0ef          	jal	ra,e58 <I2C_AcknowledgeConfig>
    3f4c:	85ce                	mv	a1,s3
    3f4e:	8526                	mv	a0,s1
    3f50:	f4bfc0ef          	jal	ra,e9a <I2C_CheckEvent>
    3f54:	dd65                	beqz	a0,3f4c <MPU6050_I2C_Mem_Read+0x132>
    3f56:	8526                	mv	a0,s1
    3f58:	f25fc0ef          	jal	ra,e7c <I2C_ReceiveData>
    3f5c:	00a90023          	sb	a0,0(s2)
    3f60:	0905                	addi	s2,s2,1
    3f62:	b775                	j	3f0e <MPU6050_I2C_Mem_Read+0xf4>

00003f64 <MPU6050_Get_Data>:
    3f64:	1101                	addi	sp,sp,-32
    3f66:	cc22                	sw	s0,24(sp)
    3f68:	00e10693          	addi	a3,sp,14
    3f6c:	842a                	mv	s0,a0
    3f6e:	85aa                	mv	a1,a0
    3f70:	4605                	li	a2,1
    3f72:	0d000513          	li	a0,208
    3f76:	ce06                	sw	ra,28(sp)
    3f78:	354d                	jal	3e1a <MPU6050_I2C_Mem_Read>
    3f7a:	00140593          	addi	a1,s0,1
    3f7e:	00f10693          	addi	a3,sp,15
    3f82:	0d000513          	li	a0,208
    3f86:	4605                	li	a2,1
    3f88:	0ff5f593          	andi	a1,a1,255
    3f8c:	3579                	jal	3e1a <MPU6050_I2C_Mem_Read>
    3f8e:	00e14783          	lbu	a5,14(sp)
    3f92:	00f14503          	lbu	a0,15(sp)
    3f96:	40f2                	lw	ra,28(sp)
    3f98:	4462                	lw	s0,24(sp)
    3f9a:	07a2                	slli	a5,a5,0x8
    3f9c:	8d5d                	or	a0,a0,a5
    3f9e:	6105                	addi	sp,sp,32
    3fa0:	8082                	ret

00003fa2 <MPU6050_MPU_DMP_GetData>:
    3fa2:	1101                	addi	sp,sp,-32
    3fa4:	0070                	addi	a2,sp,12
    3fa6:	002c                	addi	a1,sp,8
    3fa8:	0048                	addi	a0,sp,4
    3faa:	ce06                	sw	ra,28(sp)
    3fac:	cc22                	sw	s0,24(sp)
    3fae:	ca26                	sw	s1,20(sp)
    3fb0:	dfffe0ef          	jal	ra,2dae <mpu_dmp_get_data>
    3fb4:	67b2                	flw	fa5,12(sp)
    3fb6:	86018413          	addi	s0,gp,-1952 # 20000118 <MPU6050_para>
    3fba:	e01c                	fsw	fa5,0(s0)
    3fbc:	6792                	flw	fa5,4(sp)
    3fbe:	84aa                	mv	s1,a0
    3fc0:	04700513          	li	a0,71
    3fc4:	e05c                	fsw	fa5,4(s0)
    3fc6:	67a2                	flw	fa5,8(sp)
    3fc8:	e41c                	fsw	fa5,8(s0)
    3fca:	3f69                	jal	3f64 <MPU6050_Get_Data>
    3fcc:	00a41623          	sh	a0,12(s0)
    3fd0:	04300513          	li	a0,67
    3fd4:	3f41                	jal	3f64 <MPU6050_Get_Data>
    3fd6:	00a41723          	sh	a0,14(s0)
    3fda:	04500513          	li	a0,69
    3fde:	3759                	jal	3f64 <MPU6050_Get_Data>
    3fe0:	1531                	addi	a0,a0,-20
    3fe2:	00a41823          	sh	a0,16(s0)
    3fe6:	40f2                	lw	ra,28(sp)
    3fe8:	4462                	lw	s0,24(sp)
    3fea:	8526                	mv	a0,s1
    3fec:	44d2                	lw	s1,20(sp)
    3fee:	6105                	addi	sp,sp,32
    3ff0:	8082                	ret

00003ff2 <MyI2C_W_SCL>:
    3ff2:	862a                	mv	a2,a0
    3ff4:	40011537          	lui	a0,0x40011
    3ff8:	1141                	addi	sp,sp,-16
    3ffa:	c0050513          	addi	a0,a0,-1024 # 40010c00 <_eusrstack+0x20008c00>
    3ffe:	04000593          	li	a1,64
    4002:	c606                	sw	ra,12(sp)
    4004:	c15fc0ef          	jal	ra,c18 <GPIO_WriteBit>
    4008:	40b2                	lw	ra,12(sp)
    400a:	4529                	li	a0,10
    400c:	0141                	addi	sp,sp,16
    400e:	5f00106f          	j	55fe <Delay_Us>

00004012 <MyI2C_W_SDA>:
    4012:	862a                	mv	a2,a0
    4014:	40011537          	lui	a0,0x40011
    4018:	1141                	addi	sp,sp,-16
    401a:	c0050513          	addi	a0,a0,-1024 # 40010c00 <_eusrstack+0x20008c00>
    401e:	08000593          	li	a1,128
    4022:	c606                	sw	ra,12(sp)
    4024:	bf5fc0ef          	jal	ra,c18 <GPIO_WriteBit>
    4028:	40b2                	lw	ra,12(sp)
    402a:	4529                	li	a0,10
    402c:	0141                	addi	sp,sp,16
    402e:	5d00106f          	j	55fe <Delay_Us>

00004032 <MyI2C_R_SDA>:
    4032:	40011537          	lui	a0,0x40011
    4036:	1141                	addi	sp,sp,-16
    4038:	08000593          	li	a1,128
    403c:	c0050513          	addi	a0,a0,-1024 # 40010c00 <_eusrstack+0x20008c00>
    4040:	c606                	sw	ra,12(sp)
    4042:	c422                	sw	s0,8(sp)
    4044:	bc7fc0ef          	jal	ra,c0a <GPIO_ReadInputDataBit>
    4048:	842a                	mv	s0,a0
    404a:	4529                	li	a0,10
    404c:	5b2010ef          	jal	ra,55fe <Delay_Us>
    4050:	8522                	mv	a0,s0
    4052:	40b2                	lw	ra,12(sp)
    4054:	4422                	lw	s0,8(sp)
    4056:	0141                	addi	sp,sp,16
    4058:	8082                	ret

0000405a <MyI2C_Init>:
    405a:	1101                	addi	sp,sp,-32
    405c:	4585                	li	a1,1
    405e:	4521                	li	a0,8
    4060:	ce06                	sw	ra,28(sp)
    4062:	cc22                	sw	s0,24(sp)
    4064:	87efd0ef          	jal	ra,10e2 <RCC_APB2PeriphClockCmd>
    4068:	47d1                	li	a5,20
    406a:	c63e                	sw	a5,12(sp)
    406c:	40011437          	lui	s0,0x40011
    4070:	0c000793          	li	a5,192
    4074:	00f11223          	sh	a5,4(sp)
    4078:	004c                	addi	a1,sp,4
    407a:	478d                	li	a5,3
    407c:	c0040513          	addi	a0,s0,-1024 # 40010c00 <_eusrstack+0x20008c00>
    4080:	c43e                	sw	a5,8(sp)
    4082:	ac7fc0ef          	jal	ra,b48 <GPIO_Init>
    4086:	c0040513          	addi	a0,s0,-1024
    408a:	0c000593          	li	a1,192
    408e:	b87fc0ef          	jal	ra,c14 <GPIO_SetBits>
    4092:	40f2                	lw	ra,28(sp)
    4094:	4462                	lw	s0,24(sp)
    4096:	6105                	addi	sp,sp,32
    4098:	8082                	ret

0000409a <MyI2C_Start>:
    409a:	1141                	addi	sp,sp,-16
    409c:	4505                	li	a0,1
    409e:	c606                	sw	ra,12(sp)
    40a0:	3f8d                	jal	4012 <MyI2C_W_SDA>
    40a2:	4505                	li	a0,1
    40a4:	37b9                	jal	3ff2 <MyI2C_W_SCL>
    40a6:	4501                	li	a0,0
    40a8:	37ad                	jal	4012 <MyI2C_W_SDA>
    40aa:	40b2                	lw	ra,12(sp)
    40ac:	4501                	li	a0,0
    40ae:	0141                	addi	sp,sp,16
    40b0:	b789                	j	3ff2 <MyI2C_W_SCL>

000040b2 <MyI2C_Stop>:
    40b2:	1141                	addi	sp,sp,-16
    40b4:	4501                	li	a0,0
    40b6:	c606                	sw	ra,12(sp)
    40b8:	3fa9                	jal	4012 <MyI2C_W_SDA>
    40ba:	4505                	li	a0,1
    40bc:	3f1d                	jal	3ff2 <MyI2C_W_SCL>
    40be:	40b2                	lw	ra,12(sp)
    40c0:	4505                	li	a0,1
    40c2:	0141                	addi	sp,sp,16
    40c4:	b7b9                	j	4012 <MyI2C_W_SDA>

000040c6 <MyI2C_SendByte>:
    40c6:	1101                	addi	sp,sp,-32
    40c8:	cc22                	sw	s0,24(sp)
    40ca:	ca26                	sw	s1,20(sp)
    40cc:	c84a                	sw	s2,16(sp)
    40ce:	c64e                	sw	s3,12(sp)
    40d0:	ce06                	sw	ra,28(sp)
    40d2:	892a                	mv	s2,a0
    40d4:	4401                	li	s0,0
    40d6:	08000993          	li	s3,128
    40da:	44a1                	li	s1,8
    40dc:	4089d533          	sra	a0,s3,s0
    40e0:	01257533          	and	a0,a0,s2
    40e4:	373d                	jal	4012 <MyI2C_W_SDA>
    40e6:	4505                	li	a0,1
    40e8:	3729                	jal	3ff2 <MyI2C_W_SCL>
    40ea:	4501                	li	a0,0
    40ec:	0405                	addi	s0,s0,1
    40ee:	3711                	jal	3ff2 <MyI2C_W_SCL>
    40f0:	fe9416e3          	bne	s0,s1,40dc <MyI2C_SendByte+0x16>
    40f4:	40f2                	lw	ra,28(sp)
    40f6:	4462                	lw	s0,24(sp)
    40f8:	44d2                	lw	s1,20(sp)
    40fa:	4942                	lw	s2,16(sp)
    40fc:	49b2                	lw	s3,12(sp)
    40fe:	6105                	addi	sp,sp,32
    4100:	8082                	ret

00004102 <MyI2C_ReceiveByte>:
    4102:	1101                	addi	sp,sp,-32
    4104:	4505                	li	a0,1
    4106:	cc22                	sw	s0,24(sp)
    4108:	ca26                	sw	s1,20(sp)
    410a:	c84a                	sw	s2,16(sp)
    410c:	c64e                	sw	s3,12(sp)
    410e:	ce06                	sw	ra,28(sp)
    4110:	4481                	li	s1,0
    4112:	3701                	jal	4012 <MyI2C_W_SDA>
    4114:	4401                	li	s0,0
    4116:	08000993          	li	s3,128
    411a:	4921                	li	s2,8
    411c:	4505                	li	a0,1
    411e:	3dd1                	jal	3ff2 <MyI2C_W_SCL>
    4120:	3f09                	jal	4032 <MyI2C_R_SDA>
    4122:	4785                	li	a5,1
    4124:	00f51763          	bne	a0,a5,4132 <MyI2C_ReceiveByte+0x30>
    4128:	4099d7b3          	sra	a5,s3,s1
    412c:	8c5d                	or	s0,s0,a5
    412e:	0ff47413          	andi	s0,s0,255
    4132:	4501                	li	a0,0
    4134:	0485                	addi	s1,s1,1
    4136:	3d75                	jal	3ff2 <MyI2C_W_SCL>
    4138:	ff2492e3          	bne	s1,s2,411c <MyI2C_ReceiveByte+0x1a>
    413c:	8522                	mv	a0,s0
    413e:	40f2                	lw	ra,28(sp)
    4140:	4462                	lw	s0,24(sp)
    4142:	44d2                	lw	s1,20(sp)
    4144:	4942                	lw	s2,16(sp)
    4146:	49b2                	lw	s3,12(sp)
    4148:	6105                	addi	sp,sp,32
    414a:	8082                	ret

0000414c <MyI2C_ReceiveAck>:
    414c:	1141                	addi	sp,sp,-16
    414e:	4505                	li	a0,1
    4150:	c606                	sw	ra,12(sp)
    4152:	c422                	sw	s0,8(sp)
    4154:	3d7d                	jal	4012 <MyI2C_W_SDA>
    4156:	4505                	li	a0,1
    4158:	e9bff0ef          	jal	ra,3ff2 <MyI2C_W_SCL>
    415c:	3dd9                	jal	4032 <MyI2C_R_SDA>
    415e:	842a                	mv	s0,a0
    4160:	4501                	li	a0,0
    4162:	e91ff0ef          	jal	ra,3ff2 <MyI2C_W_SCL>
    4166:	8522                	mv	a0,s0
    4168:	40b2                	lw	ra,12(sp)
    416a:	4422                	lw	s0,8(sp)
    416c:	0141                	addi	sp,sp,16
    416e:	8082                	ret

00004170 <ADC_Function_Init>:
    4170:	7139                	addi	sp,sp,-64
    4172:	02000613          	li	a2,32
    4176:	4581                	li	a1,0
    4178:	0808                	addi	a0,sp,16
    417a:	de06                	sw	ra,60(sp)
    417c:	dc22                	sw	s0,56(sp)
    417e:	da26                	sw	s1,52(sp)
    4180:	880fc0ef          	jal	ra,200 <memset>
    4184:	4585                	li	a1,1
    4186:	4511                	li	a0,4
    4188:	c202                	sw	zero,4(sp)
    418a:	c402                	sw	zero,8(sp)
    418c:	c602                	sw	zero,12(sp)
    418e:	f55fc0ef          	jal	ra,10e2 <RCC_APB2PeriphClockCmd>
    4192:	4585                	li	a1,1
    4194:	20000513          	li	a0,512
    4198:	f4bfc0ef          	jal	ra,10e2 <RCC_APB2PeriphClockCmd>
    419c:	6531                	lui	a0,0xc
    419e:	e07fc0ef          	jal	ra,fa4 <RCC_ADCCLKConfig>
    41a2:	40011537          	lui	a0,0x40011
    41a6:	47c1                	li	a5,16
    41a8:	004c                	addi	a1,sp,4
    41aa:	80050513          	addi	a0,a0,-2048 # 40010800 <_eusrstack+0x20008800>
    41ae:	40012437          	lui	s0,0x40012
    41b2:	00f11223          	sh	a5,4(sp)
    41b6:	c602                	sw	zero,12(sp)
    41b8:	991fc0ef          	jal	ra,b48 <GPIO_Init>
    41bc:	40040513          	addi	a0,s0,1024 # 40012400 <_eusrstack+0x2000a400>
    41c0:	c82fc0ef          	jal	ra,642 <ADC_DeInit>
    41c4:	4785                	li	a5,1
    41c6:	cc3e                	sw	a5,24(sp)
    41c8:	000e07b7          	lui	a5,0xe0
    41cc:	ce3e                	sw	a5,28(sp)
    41ce:	080c                	addi	a1,sp,16
    41d0:	4791                	li	a5,4
    41d2:	40040513          	addi	a0,s0,1024
    41d6:	02f10223          	sb	a5,36(sp)
    41da:	c802                	sw	zero,16(sp)
    41dc:	ca02                	sw	zero,20(sp)
    41de:	d002                	sw	zero,32(sp)
    41e0:	caefc0ef          	jal	ra,68e <ADC_Init>
    41e4:	4585                	li	a1,1
    41e6:	40040513          	addi	a0,s0,1024
    41ea:	d0cfc0ef          	jal	ra,6f6 <ADC_DMACmd>
    41ee:	4585                	li	a1,1
    41f0:	40040513          	addi	a0,s0,1024
    41f4:	cf2fc0ef          	jal	ra,6e6 <ADC_Cmd>
    41f8:	4581                	li	a1,0
    41fa:	40040513          	addi	a0,s0,1024
    41fe:	dfefc0ef          	jal	ra,7fc <ADC_BufferCmd>
    4202:	40040513          	addi	a0,s0,1024
    4206:	d02fc0ef          	jal	ra,708 <ADC_ResetCalibration>
    420a:	40040493          	addi	s1,s0,1024
    420e:	8526                	mv	a0,s1
    4210:	d02fc0ef          	jal	ra,712 <ADC_GetResetCalibrationStatus>
    4214:	fd6d                	bnez	a0,420e <ADC_Function_Init+0x9e>
    4216:	40040513          	addi	a0,s0,1024
    421a:	40012437          	lui	s0,0x40012
    421e:	cfcfc0ef          	jal	ra,71a <ADC_StartCalibration>
    4222:	40040493          	addi	s1,s0,1024 # 40012400 <_eusrstack+0x2000a400>
    4226:	8526                	mv	a0,s1
    4228:	cfcfc0ef          	jal	ra,724 <ADC_GetCalibrationStatus>
    422c:	fd6d                	bnez	a0,4226 <ADC_Function_Init+0xb6>
    422e:	40040513          	addi	a0,s0,1024
    4232:	de2fc0ef          	jal	ra,814 <Get_CalibrationValue>
    4236:	50f2                	lw	ra,60(sp)
    4238:	5462                	lw	s0,56(sp)
    423a:	82a19623          	sh	a0,-2004(gp) # 200000e4 <Calibrattion_Val>
    423e:	54d2                	lw	s1,52(sp)
    4240:	6121                	addi	sp,sp,64
    4242:	8082                	ret

00004244 <DMA_Tx_Init>:
    4244:	715d                	addi	sp,sp,-80
    4246:	c4a2                	sw	s0,72(sp)
    4248:	c2a6                	sw	s1,68(sp)
    424a:	c0ca                	sw	s2,64(sp)
    424c:	842a                	mv	s0,a0
    424e:	892e                	mv	s2,a1
    4250:	84b2                	mv	s1,a2
    4252:	4581                	li	a1,0
    4254:	02c00613          	li	a2,44
    4258:	0848                	addi	a0,sp,20
    425a:	c686                	sw	ra,76(sp)
    425c:	c636                	sw	a3,12(sp)
    425e:	fa3fb0ef          	jal	ra,200 <memset>
    4262:	4585                	li	a1,1
    4264:	4505                	li	a0,1
    4266:	e5ffc0ef          	jal	ra,10c4 <RCC_AHBPeriphClockCmd>
    426a:	8522                	mv	a0,s0
    426c:	f16fc0ef          	jal	ra,982 <DMA_DeInit>
    4270:	08000793          	li	a5,128
    4274:	d43e                	sw	a5,40(sp)
    4276:	10000793          	li	a5,256
    427a:	46b2                	lw	a3,12(sp)
    427c:	d63e                	sw	a5,44(sp)
    427e:	40000793          	li	a5,1024
    4282:	d83e                	sw	a5,48(sp)
    4284:	02000793          	li	a5,32
    4288:	da3e                	sw	a5,52(sp)
    428a:	084c                	addi	a1,sp,20
    428c:	678d                	lui	a5,0x3
    428e:	8522                	mv	a0,s0
    4290:	ca4a                	sw	s2,20(sp)
    4292:	cc26                	sw	s1,24(sp)
    4294:	ce02                	sw	zero,28(sp)
    4296:	d036                	sw	a3,32(sp)
    4298:	d202                	sw	zero,36(sp)
    429a:	dc3e                	sw	a5,56(sp)
    429c:	de02                	sw	zero,60(sp)
    429e:	851fc0ef          	jal	ra,aee <DMA_Init>
    42a2:	40b6                	lw	ra,76(sp)
    42a4:	4426                	lw	s0,72(sp)
    42a6:	4496                	lw	s1,68(sp)
    42a8:	4906                	lw	s2,64(sp)
    42aa:	6161                	addi	sp,sp,80
    42ac:	8082                	ret

000042ae <BAT_ADC_Init>:
    42ae:	1141                	addi	sp,sp,-16
    42b0:	c606                	sw	ra,12(sp)
    42b2:	c422                	sw	s0,8(sp)
    42b4:	c226                	sw	s1,4(sp)
    42b6:	ebbff0ef          	jal	ra,4170 <ADC_Function_Init>
    42ba:	82c19583          	lh	a1,-2004(gp) # 200000e4 <Calibrattion_Val>
    42be:	0000a537          	lui	a0,0xa
    42c2:	a4850513          	addi	a0,a0,-1464 # 9a48 <dmp_memory+0xc38>
    42c6:	3b0020ef          	jal	ra,6676 <printf>
    42ca:	40012437          	lui	s0,0x40012
    42ce:	400204b7          	lui	s1,0x40020
    42d2:	4685                	li	a3,1
    42d4:	8d018613          	addi	a2,gp,-1840 # 20000188 <TxBuf>
    42d8:	44c40593          	addi	a1,s0,1100 # 4001244c <_eusrstack+0x2000a44c>
    42dc:	04448513          	addi	a0,s1,68 # 40020044 <_eusrstack+0x20018044>
    42e0:	3795                	jal	4244 <DMA_Tx_Init>
    42e2:	04448513          	addi	a0,s1,68
    42e6:	4585                	li	a1,1
    42e8:	83ffc0ef          	jal	ra,b26 <DMA_Cmd>
    42ec:	40040513          	addi	a0,s0,1024
    42f0:	4591                	li	a1,4
    42f2:	469d                	li	a3,7
    42f4:	4605                	li	a2,1
    42f6:	c4efc0ef          	jal	ra,744 <ADC_RegularChannelConfig>
    42fa:	40040513          	addi	a0,s0,1024
    42fe:	4422                	lw	s0,8(sp)
    4300:	40b2                	lw	ra,12(sp)
    4302:	4492                	lw	s1,4(sp)
    4304:	4585                	li	a1,1
    4306:	0141                	addi	sp,sp,16
    4308:	c24fc06f          	j	72c <ADC_SoftwareStartConvCmd>

0000430c <FilterSample>:
    430c:	0c852703          	lw	a4,200(a0)
    4310:	0ca51783          	lh	a5,202(a0)
    4314:	eb19                	bnez	a4,432a <FilterSample+0x1e>
    4316:	611c                	flw	fa5,0(a0)
    4318:	f0000753          	fmv.w.x	fa4,zero
    431c:	a0e7a753          	feq.s	a4,fa5,fa4
    4320:	c709                	beqz	a4,432a <FilterSample+0x1e>
    4322:	078a                	slli	a5,a5,0x2
    4324:	97aa                	add	a5,a5,a0
    4326:	e388                	fsw	fa0,0(a5)
    4328:	8082                	ret
    432a:	0785                	addi	a5,a5,1
    432c:	03200693          	li	a3,50
    4330:	02d7e7b3          	rem	a5,a5,a3
    4334:	01079713          	slli	a4,a5,0x10
    4338:	8741                	srai	a4,a4,0x10
    433a:	078a                	slli	a5,a5,0x2
    433c:	97aa                	add	a5,a5,a0
    433e:	0ce51523          	sh	a4,202(a0)
    4342:	e388                	fsw	fa0,0(a5)
    4344:	0c851783          	lh	a5,200(a0)
    4348:	00f71763          	bne	a4,a5,4356 <FilterSample+0x4a>
    434c:	0705                	addi	a4,a4,1
    434e:	02d76733          	rem	a4,a4,a3
    4352:	0ce51423          	sh	a4,200(a0)
    4356:	8082                	ret

00004358 <FilterAverage>:
    4358:	f00007d3          	fmv.w.x	fa5,zero
    435c:	0c850793          	addi	a5,a0,200
    4360:	6118                	flw	fa4,0(a0)
    4362:	0511                	addi	a0,a0,4
    4364:	00e7f7d3          	fadd.s	fa5,fa5,fa4
    4368:	fef51ce3          	bne	a0,a5,4360 <FilterAverage+0x8>
    436c:	0000a7b7          	lui	a5,0xa
    4370:	a607a507          	flw	fa0,-1440(a5) # 9a60 <dmp_memory+0xc50>
    4374:	18a7f553          	fdiv.s	fa0,fa5,fa0
    4378:	8082                	ret

0000437a <LED_Init>:
    437a:	1101                	addi	sp,sp,-32
    437c:	4585                	li	a1,1
    437e:	4511                	li	a0,4
    4380:	ce06                	sw	ra,28(sp)
    4382:	cc22                	sw	s0,24(sp)
    4384:	c202                	sw	zero,4(sp)
    4386:	c402                	sw	zero,8(sp)
    4388:	c602                	sw	zero,12(sp)
    438a:	d59fc0ef          	jal	ra,10e2 <RCC_APB2PeriphClockCmd>
    438e:	10000793          	li	a5,256
    4392:	00f11223          	sh	a5,4(sp)
    4396:	40011437          	lui	s0,0x40011
    439a:	47c1                	li	a5,16
    439c:	c63e                	sw	a5,12(sp)
    439e:	004c                	addi	a1,sp,4
    43a0:	478d                	li	a5,3
    43a2:	80040513          	addi	a0,s0,-2048 # 40010800 <_eusrstack+0x20008800>
    43a6:	c43e                	sw	a5,8(sp)
    43a8:	fa0fc0ef          	jal	ra,b48 <GPIO_Init>
    43ac:	80040513          	addi	a0,s0,-2048
    43b0:	4605                	li	a2,1
    43b2:	10000593          	li	a1,256
    43b6:	863fc0ef          	jal	ra,c18 <GPIO_WriteBit>
    43ba:	40f2                	lw	ra,28(sp)
    43bc:	4462                	lw	s0,24(sp)
    43be:	6105                	addi	sp,sp,32
    43c0:	8082                	ret

000043c2 <TIM9_PWMOut_Init>:
    43c2:	715d                	addi	sp,sp,-80
    43c4:	c2a6                	sw	s1,68(sp)
    43c6:	84aa                	mv	s1,a0
    43c8:	00080537          	lui	a0,0x80
    43cc:	c4a2                	sw	s0,72(sp)
    43ce:	02150513          	addi	a0,a0,33 # 80021 <_data_lma+0x76225>
    43d2:	842e                	mv	s0,a1
    43d4:	4585                	li	a1,1
    43d6:	c686                	sw	ra,76(sp)
    43d8:	c632                	sw	a2,12(sp)
    43da:	d202                	sw	zero,36(sp)
    43dc:	d402                	sw	zero,40(sp)
    43de:	d602                	sw	zero,44(sp)
    43e0:	d802                	sw	zero,48(sp)
    43e2:	da02                	sw	zero,52(sp)
    43e4:	dc02                	sw	zero,56(sp)
    43e6:	de02                	sw	zero,60(sp)
    43e8:	cc02                	sw	zero,24(sp)
    43ea:	ce02                	sw	zero,28(sp)
    43ec:	02011023          	sh	zero,32(sp)
    43f0:	cf3fc0ef          	jal	ra,10e2 <RCC_APB2PeriphClockCmd>
    43f4:	80130537          	lui	a0,0x80130
    43f8:	4585                	li	a1,1
    43fa:	0541                	addi	a0,a0,16
    43fc:	827fc0ef          	jal	ra,c22 <GPIO_PinRemapConfig>
    4400:	77ed                	lui	a5,0xffffb
    4402:	a0078793          	addi	a5,a5,-1536 # ffffaa00 <_eusrstack+0xdfff2a00>
    4406:	02f11223          	sh	a5,36(sp)
    440a:	40011537          	lui	a0,0x40011
    440e:	47e1                	li	a5,24
    4410:	d63e                	sw	a5,44(sp)
    4412:	104c                	addi	a1,sp,36
    4414:	478d                	li	a5,3
    4416:	40050513          	addi	a0,a0,1024 # 40011400 <_eusrstack+0x20009400>
    441a:	d43e                	sw	a5,40(sp)
    441c:	f2cfc0ef          	jal	ra,b48 <GPIO_Init>
    4420:	00811c23          	sh	s0,24(sp)
    4424:	40015437          	lui	s0,0x40015
    4428:	082c                	addi	a1,sp,24
    442a:	c0040513          	addi	a0,s0,-1024 # 40014c00 <_eusrstack+0x2000cc00>
    442e:	00911e23          	sh	s1,28(sp)
    4432:	00011f23          	sh	zero,30(sp)
    4436:	00011d23          	sh	zero,26(sp)
    443a:	d03fc0ef          	jal	ra,113c <TIM_TimeBaseInit>
    443e:	4632                	lw	a2,12(sp)
    4440:	67c1                	lui	a5,0x10
    4442:	06078793          	addi	a5,a5,96 # 10060 <_data_lma+0x6264>
    4446:	180c                	addi	a1,sp,48
    4448:	c0040513          	addi	a0,s0,-1024
    444c:	d83e                	sw	a5,48(sp)
    444e:	02c11b23          	sh	a2,54(sp)
    4452:	02011c23          	sh	zero,56(sp)
    4456:	da7fc0ef          	jal	ra,11fc <TIM_OC1Init>
    445a:	180c                	addi	a1,sp,48
    445c:	c0040513          	addi	a0,s0,-1024
    4460:	e3dfc0ef          	jal	ra,129c <TIM_OC2Init>
    4464:	180c                	addi	a1,sp,48
    4466:	c0040513          	addi	a0,s0,-1024
    446a:	efffc0ef          	jal	ra,1368 <TIM_OC3Init>
    446e:	180c                	addi	a1,sp,48
    4470:	c0040513          	addi	a0,s0,-1024
    4474:	fbffc0ef          	jal	ra,1432 <TIM_OC4Init>
    4478:	c0040513          	addi	a0,s0,-1024
    447c:	4585                	li	a1,1
    447e:	86efd0ef          	jal	ra,14ec <TIM_CtrlPWMOutputs>
    4482:	c0040513          	addi	a0,s0,-1024
    4486:	4581                	li	a1,0
    4488:	8aefd0ef          	jal	ra,1536 <TIM_OC1PreloadConfig>
    448c:	c0040513          	addi	a0,s0,-1024
    4490:	4581                	li	a1,0
    4492:	8b6fd0ef          	jal	ra,1548 <TIM_OC2PreloadConfig>
    4496:	c0040513          	addi	a0,s0,-1024
    449a:	4581                	li	a1,0
    449c:	8c6fd0ef          	jal	ra,1562 <TIM_OC3PreloadConfig>
    44a0:	c0040513          	addi	a0,s0,-1024
    44a4:	4581                	li	a1,0
    44a6:	8cefd0ef          	jal	ra,1574 <TIM_OC4PreloadConfig>
    44aa:	c0040513          	addi	a0,s0,-1024
    44ae:	4585                	li	a1,1
    44b0:	868fd0ef          	jal	ra,1518 <TIM_ARRPreloadConfig>
    44b4:	c0040513          	addi	a0,s0,-1024
    44b8:	4585                	li	a1,1
    44ba:	816fd0ef          	jal	ra,14d0 <TIM_Cmd>
    44be:	40b6                	lw	ra,76(sp)
    44c0:	4426                	lw	s0,72(sp)
    44c2:	4496                	lw	s1,68(sp)
    44c4:	6161                	addi	sp,sp,80
    44c6:	8082                	ret

000044c8 <PWM_Init>:
    44c8:	651d                	lui	a0,0x7
    44ca:	1141                	addi	sp,sp,-16
    44cc:	3e800613          	li	a2,1000
    44d0:	03100593          	li	a1,49
    44d4:	08050513          	addi	a0,a0,128 # 7080 <__umoddi3+0x222>
    44d8:	c606                	sw	ra,12(sp)
    44da:	c422                	sw	s0,8(sp)
    44dc:	ee7ff0ef          	jal	ra,43c2 <TIM9_PWMOut_Init>
    44e0:	40015437          	lui	s0,0x40015
    44e4:	c0040513          	addi	a0,s0,-1024 # 40014c00 <_eusrstack+0x2000cc00>
    44e8:	5a000593          	li	a1,1440
    44ec:	8a2fd0ef          	jal	ra,158e <TIM_SetCompare1>
    44f0:	c0040513          	addi	a0,s0,-1024
    44f4:	5a000593          	li	a1,1440
    44f8:	89cfd0ef          	jal	ra,1594 <TIM_SetCompare2>
    44fc:	c0040513          	addi	a0,s0,-1024
    4500:	5a000593          	li	a1,1440
    4504:	896fd0ef          	jal	ra,159a <TIM_SetCompare3>
    4508:	c0040513          	addi	a0,s0,-1024
    450c:	4422                	lw	s0,8(sp)
    450e:	40b2                	lw	ra,12(sp)
    4510:	5a000593          	li	a1,1440
    4514:	0141                	addi	sp,sp,16
    4516:	88afd06f          	j	15a0 <TIM_SetCompare4>

0000451a <Motor_ctr>:
    451a:	5a000793          	li	a5,1440
    451e:	00a7fb63          	bgeu	a5,a0,4534 <Motor_ctr+0x1a>
    4522:	6785                	lui	a5,0x1
    4524:	b3f78713          	addi	a4,a5,-1217 # b3f <GPIO_TogglePin+0x5>
    4528:	04a76863          	bltu	a4,a0,4578 <Motor_ctr+0x5e>
    452c:	67200793          	li	a5,1650
    4530:	00a7e463          	bltu	a5,a0,4538 <Motor_ctr+0x1e>
    4534:	5a000513          	li	a0,1440
    4538:	81d1c783          	lbu	a5,-2019(gp) # 200000d5 <is_locked>
    453c:	eb99                	bnez	a5,4552 <Motor_ctr+0x38>
    453e:	67200713          	li	a4,1650
    4542:	87aa                	mv	a5,a0
    4544:	00e57463          	bgeu	a0,a4,454c <Motor_ctr+0x32>
    4548:	67200793          	li	a5,1650
    454c:	01079513          	slli	a0,a5,0x10
    4550:	8141                	srli	a0,a0,0x10
    4552:	8181a703          	lw	a4,-2024(gp) # 200000d0 <MOTOR_MODE>
    4556:	4789                	li	a5,2
    4558:	06f70563          	beq	a4,a5,45c2 <Motor_ctr+0xa8>
    455c:	0585                	addi	a1,a1,1
    455e:	0ff5f593          	andi	a1,a1,255
    4562:	4711                	li	a4,4
    4564:	02b76363          	bltu	a4,a1,458a <Motor_ctr+0x70>
    4568:	02f58863          	beq	a1,a5,4598 <Motor_ctr+0x7e>
    456c:	00b7e963          	bltu	a5,a1,457e <Motor_ctr+0x64>
    4570:	4785                	li	a5,1
    4572:	00f58c63          	beq	a1,a5,458a <Motor_ctr+0x70>
    4576:	8082                	ret
    4578:	b4078513          	addi	a0,a5,-1216
    457c:	bf75                	j	4538 <Motor_ctr+0x1e>
    457e:	478d                	li	a5,3
    4580:	02f58363          	beq	a1,a5,45a6 <Motor_ctr+0x8c>
    4584:	02e58863          	beq	a1,a4,45b4 <Motor_ctr+0x9a>
    4588:	8082                	ret
    458a:	85aa                	mv	a1,a0
    458c:	40015537          	lui	a0,0x40015
    4590:	c0050513          	addi	a0,a0,-1024 # 40014c00 <_eusrstack+0x2000cc00>
    4594:	ffbfc06f          	j	158e <TIM_SetCompare1>
    4598:	85aa                	mv	a1,a0
    459a:	40015537          	lui	a0,0x40015
    459e:	c0050513          	addi	a0,a0,-1024 # 40014c00 <_eusrstack+0x2000cc00>
    45a2:	ff3fc06f          	j	1594 <TIM_SetCompare2>
    45a6:	85aa                	mv	a1,a0
    45a8:	40015537          	lui	a0,0x40015
    45ac:	c0050513          	addi	a0,a0,-1024 # 40014c00 <_eusrstack+0x2000cc00>
    45b0:	febfc06f          	j	159a <TIM_SetCompare3>
    45b4:	85aa                	mv	a1,a0
    45b6:	40015537          	lui	a0,0x40015
    45ba:	c0050513          	addi	a0,a0,-1024 # 40014c00 <_eusrstack+0x2000cc00>
    45be:	fe3fc06f          	j	15a0 <TIM_SetCompare4>
    45c2:	8082                	ret

000045c4 <Motor_ctr_SOFT_START>:
    45c4:	6685                	lui	a3,0x1
    45c6:	b4068693          	addi	a3,a3,-1216 # b40 <GPIO_TogglePin+0x6>
    45ca:	872e                	mv	a4,a1
    45cc:	87aa                	mv	a5,a0
    45ce:	00a6f363          	bgeu	a3,a0,45d4 <Motor_ctr_SOFT_START+0x10>
    45d2:	87b6                	mv	a5,a3
    45d4:	01079613          	slli	a2,a5,0x10
    45d8:	8241                	srli	a2,a2,0x10
    45da:	5a000693          	li	a3,1440
    45de:	00d67463          	bgeu	a2,a3,45e6 <Motor_ctr_SOFT_START+0x22>
    45e2:	5a000793          	li	a5,1440
    45e6:	01079593          	slli	a1,a5,0x10
    45ea:	4789                	li	a5,2
    45ec:	81c1                	srli	a1,a1,0x10
    45ee:	02f70563          	beq	a4,a5,4618 <Motor_ctr_SOFT_START+0x54>
    45f2:	00e7e663          	bltu	a5,a4,45fe <Motor_ctr_SOFT_START+0x3a>
    45f6:	4785                	li	a5,1
    45f8:	00f70a63          	beq	a4,a5,460c <Motor_ctr_SOFT_START+0x48>
    45fc:	8082                	ret
    45fe:	478d                	li	a5,3
    4600:	02f70263          	beq	a4,a5,4624 <Motor_ctr_SOFT_START+0x60>
    4604:	4791                	li	a5,4
    4606:	02f70563          	beq	a4,a5,4630 <Motor_ctr_SOFT_START+0x6c>
    460a:	8082                	ret
    460c:	40015537          	lui	a0,0x40015
    4610:	c0050513          	addi	a0,a0,-1024 # 40014c00 <_eusrstack+0x2000cc00>
    4614:	f7bfc06f          	j	158e <TIM_SetCompare1>
    4618:	40015537          	lui	a0,0x40015
    461c:	c0050513          	addi	a0,a0,-1024 # 40014c00 <_eusrstack+0x2000cc00>
    4620:	f75fc06f          	j	1594 <TIM_SetCompare2>
    4624:	40015537          	lui	a0,0x40015
    4628:	c0050513          	addi	a0,a0,-1024 # 40014c00 <_eusrstack+0x2000cc00>
    462c:	f6ffc06f          	j	159a <TIM_SetCompare3>
    4630:	40015537          	lui	a0,0x40015
    4634:	c0050513          	addi	a0,a0,-1024 # 40014c00 <_eusrstack+0x2000cc00>
    4638:	f69fc06f          	j	15a0 <TIM_SetCompare4>

0000463c <TIM3_Interrupt_Init>:
    463c:	1101                	addi	sp,sp,-32
    463e:	12d00793          	li	a5,301
    4642:	00011523          	sh	zero,10(sp)
    4646:	00f11423          	sh	a5,8(sp)
    464a:	4789                	li	a5,2
    464c:	00f10523          	sb	a5,10(sp)
    4650:	0028                	addi	a0,sp,8
    4652:	4785                	li	a5,1
    4654:	ce06                	sw	ra,28(sp)
    4656:	c63e                	sw	a5,12(sp)
    4658:	895fc0ef          	jal	ra,eec <NVIC_Init>
    465c:	40f2                	lw	ra,28(sp)
    465e:	6105                	addi	sp,sp,32
    4660:	8082                	ret

00004662 <TIM3_Init>:
    4662:	1101                	addi	sp,sp,-32
    4664:	cc22                	sw	s0,24(sp)
    4666:	ca26                	sw	s1,20(sp)
    4668:	842e                	mv	s0,a1
    466a:	84aa                	mv	s1,a0
    466c:	4585                	li	a1,1
    466e:	4509                	li	a0,2
    4670:	ce06                	sw	ra,28(sp)
    4672:	a8ffc0ef          	jal	ra,1100 <RCC_APB1PeriphClockCmd>
    4676:	00811223          	sh	s0,4(sp)
    467a:	40000437          	lui	s0,0x40000
    467e:	47c1                	li	a5,16
    4680:	004c                	addi	a1,sp,4
    4682:	40040513          	addi	a0,s0,1024 # 40000400 <_eusrstack+0x1fff8400>
    4686:	00f11323          	sh	a5,6(sp)
    468a:	00911423          	sh	s1,8(sp)
    468e:	00011523          	sh	zero,10(sp)
    4692:	aabfc0ef          	jal	ra,113c <TIM_TimeBaseInit>
    4696:	4605                	li	a2,1
    4698:	40040513          	addi	a0,s0,1024
    469c:	4585                	li	a1,1
    469e:	e65fc0ef          	jal	ra,1502 <TIM_ITConfig>
    46a2:	40040513          	addi	a0,s0,1024
    46a6:	4585                	li	a1,1
    46a8:	e71fc0ef          	jal	ra,1518 <TIM_ARRPreloadConfig>
    46ac:	40040513          	addi	a0,s0,1024
    46b0:	4585                	li	a1,1
    46b2:	e1ffc0ef          	jal	ra,14d0 <TIM_Cmd>
    46b6:	f87ff0ef          	jal	ra,463c <TIM3_Interrupt_Init>
    46ba:	40f2                	lw	ra,28(sp)
    46bc:	4462                	lw	s0,24(sp)
    46be:	44d2                	lw	s1,20(sp)
    46c0:	6105                	addi	sp,sp,32
    46c2:	8082                	ret

000046c4 <TIM4_Interrupt_Init>:
    46c4:	1101                	addi	sp,sp,-32
    46c6:	22e00793          	li	a5,558
    46ca:	00011523          	sh	zero,10(sp)
    46ce:	00f11423          	sh	a5,8(sp)
    46d2:	4789                	li	a5,2
    46d4:	00f10523          	sb	a5,10(sp)
    46d8:	0028                	addi	a0,sp,8
    46da:	4785                	li	a5,1
    46dc:	ce06                	sw	ra,28(sp)
    46de:	c63e                	sw	a5,12(sp)
    46e0:	80dfc0ef          	jal	ra,eec <NVIC_Init>
    46e4:	40f2                	lw	ra,28(sp)
    46e6:	6105                	addi	sp,sp,32
    46e8:	8082                	ret

000046ea <TIM4_Init>:
    46ea:	1101                	addi	sp,sp,-32
    46ec:	cc22                	sw	s0,24(sp)
    46ee:	ca26                	sw	s1,20(sp)
    46f0:	842e                	mv	s0,a1
    46f2:	84aa                	mv	s1,a0
    46f4:	4585                	li	a1,1
    46f6:	4511                	li	a0,4
    46f8:	ce06                	sw	ra,28(sp)
    46fa:	a07fc0ef          	jal	ra,1100 <RCC_APB1PeriphClockCmd>
    46fe:	00811223          	sh	s0,4(sp)
    4702:	40001437          	lui	s0,0x40001
    4706:	47c1                	li	a5,16
    4708:	004c                	addi	a1,sp,4
    470a:	80040513          	addi	a0,s0,-2048 # 40000800 <_eusrstack+0x1fff8800>
    470e:	00f11323          	sh	a5,6(sp)
    4712:	00911423          	sh	s1,8(sp)
    4716:	00011523          	sh	zero,10(sp)
    471a:	a23fc0ef          	jal	ra,113c <TIM_TimeBaseInit>
    471e:	4605                	li	a2,1
    4720:	80040513          	addi	a0,s0,-2048
    4724:	4585                	li	a1,1
    4726:	dddfc0ef          	jal	ra,1502 <TIM_ITConfig>
    472a:	80040513          	addi	a0,s0,-2048
    472e:	4585                	li	a1,1
    4730:	de9fc0ef          	jal	ra,1518 <TIM_ARRPreloadConfig>
    4734:	80040513          	addi	a0,s0,-2048
    4738:	4585                	li	a1,1
    473a:	d97fc0ef          	jal	ra,14d0 <TIM_Cmd>
    473e:	f87ff0ef          	jal	ra,46c4 <TIM4_Interrupt_Init>
    4742:	40f2                	lw	ra,28(sp)
    4744:	4462                	lw	s0,24(sp)
    4746:	44d2                	lw	s1,20(sp)
    4748:	6105                	addi	sp,sp,32
    474a:	8082                	ret

0000474c <TIM4_IRQHandler>:
    474c:	40001537          	lui	a0,0x40001
    4750:	715d                	addi	sp,sp,-80
    4752:	4585                	li	a1,1
    4754:	80050513          	addi	a0,a0,-2048 # 40000800 <_eusrstack+0x1fff8800>
    4758:	e682                	fsw	ft0,76(sp)
    475a:	e486                	fsw	ft1,72(sp)
    475c:	e28a                	fsw	ft2,68(sp)
    475e:	e08e                	fsw	ft3,64(sp)
    4760:	fe12                	fsw	ft4,60(sp)
    4762:	fc16                	fsw	ft5,56(sp)
    4764:	fa1a                	fsw	ft6,52(sp)
    4766:	f81e                	fsw	ft7,48(sp)
    4768:	f62a                	fsw	fa0,44(sp)
    476a:	f42e                	fsw	fa1,40(sp)
    476c:	f232                	fsw	fa2,36(sp)
    476e:	f036                	fsw	fa3,32(sp)
    4770:	ee3a                	fsw	fa4,28(sp)
    4772:	ec3e                	fsw	fa5,24(sp)
    4774:	ea42                	fsw	fa6,20(sp)
    4776:	e846                	fsw	fa7,16(sp)
    4778:	e672                	fsw	ft8,12(sp)
    477a:	e476                	fsw	ft9,8(sp)
    477c:	e27a                	fsw	ft10,4(sp)
    477e:	e07e                	fsw	ft11,0(sp)
    4780:	e3ffc0ef          	jal	ra,15be <TIM_ClearFlag>
    4784:	40011537          	lui	a0,0x40011
    4788:	10000593          	li	a1,256
    478c:	80050513          	addi	a0,a0,-2048 # 40010800 <_eusrstack+0x20008800>
    4790:	baafc0ef          	jal	ra,b3a <GPIO_TogglePin>
    4794:	26b9                	jal	4ae2 <print_status>
    4796:	6036                	flw	ft0,76(sp)
    4798:	60a6                	flw	ft1,72(sp)
    479a:	6116                	flw	ft2,68(sp)
    479c:	6186                	flw	ft3,64(sp)
    479e:	7272                	flw	ft4,60(sp)
    47a0:	72e2                	flw	ft5,56(sp)
    47a2:	7352                	flw	ft6,52(sp)
    47a4:	73c2                	flw	ft7,48(sp)
    47a6:	7532                	flw	fa0,44(sp)
    47a8:	75a2                	flw	fa1,40(sp)
    47aa:	7612                	flw	fa2,36(sp)
    47ac:	7682                	flw	fa3,32(sp)
    47ae:	6772                	flw	fa4,28(sp)
    47b0:	67e2                	flw	fa5,24(sp)
    47b2:	6852                	flw	fa6,20(sp)
    47b4:	68c2                	flw	fa7,16(sp)
    47b6:	6e32                	flw	ft8,12(sp)
    47b8:	6ea2                	flw	ft9,8(sp)
    47ba:	6f12                	flw	ft10,4(sp)
    47bc:	6f82                	flw	ft11,0(sp)
    47be:	6161                	addi	sp,sp,80
    47c0:	30200073          	mret

000047c4 <load_filter_data>:
    47c4:	1141                	addi	sp,sp,-16
    47c6:	c422                	sw	s0,8(sp)
    47c8:	8601a507          	flw	fa0,-1952(gp) # 20000118 <MPU6050_para>
    47cc:	20000537          	lui	a0,0x20000
    47d0:	1a050513          	addi	a0,a0,416 # 200001a0 <gyro_filter>
    47d4:	c606                	sw	ra,12(sp)
    47d6:	86018413          	addi	s0,gp,-1952 # 20000118 <MPU6050_para>
    47da:	b33ff0ef          	jal	ra,430c <FilterSample>
    47de:	6048                	flw	fa0,4(s0)
    47e0:	20000537          	lui	a0,0x20000
    47e4:	26c50513          	addi	a0,a0,620 # 2000026c <gyro_filter+0xcc>
    47e8:	b25ff0ef          	jal	ra,430c <FilterSample>
    47ec:	6408                	flw	fa0,8(s0)
    47ee:	20000537          	lui	a0,0x20000
    47f2:	33850513          	addi	a0,a0,824 # 20000338 <gyro_filter+0x198>
    47f6:	b17ff0ef          	jal	ra,430c <FilterSample>
    47fa:	00c41783          	lh	a5,12(s0)
    47fe:	b4c18513          	addi	a0,gp,-1204 # 20000404 <gyro_filter+0x264>
    4802:	d007f553          	fcvt.s.w	fa0,a5
    4806:	b07ff0ef          	jal	ra,430c <FilterSample>
    480a:	00e41783          	lh	a5,14(s0)
    480e:	c1818513          	addi	a0,gp,-1000 # 200004d0 <gyro_filter+0x330>
    4812:	d007f553          	fcvt.s.w	fa0,a5
    4816:	af7ff0ef          	jal	ra,430c <FilterSample>
    481a:	01041783          	lh	a5,16(s0)
    481e:	4422                	lw	s0,8(sp)
    4820:	40b2                	lw	ra,12(sp)
    4822:	d007f553          	fcvt.s.w	fa0,a5
    4826:	ce418513          	addi	a0,gp,-796 # 2000059c <gyro_filter+0x3fc>
    482a:	0141                	addi	sp,sp,16
    482c:	ae1ff06f          	j	430c <FilterSample>

00004830 <calc_IMU_filter>:
    4830:	20000537          	lui	a0,0x20000
    4834:	1141                	addi	sp,sp,-16
    4836:	1a050513          	addi	a0,a0,416 # 200001a0 <gyro_filter>
    483a:	c606                	sw	ra,12(sp)
    483c:	c422                	sw	s0,8(sp)
    483e:	b1bff0ef          	jal	ra,4358 <FilterAverage>
    4842:	20000537          	lui	a0,0x20000
    4846:	33850513          	addi	a0,a0,824 # 20000338 <gyro_filter+0x198>
    484a:	8ca1aa27          	fsw	fa0,-1836(gp) # 2000018c <MPU6050_para_filted>
    484e:	b0bff0ef          	jal	ra,4358 <FilterAverage>
    4852:	20000537          	lui	a0,0x20000
    4856:	8d418413          	addi	s0,gp,-1836 # 2000018c <MPU6050_para_filted>
    485a:	26c50513          	addi	a0,a0,620 # 2000026c <gyro_filter+0xcc>
    485e:	e048                	fsw	fa0,4(s0)
    4860:	af9ff0ef          	jal	ra,4358 <FilterAverage>
    4864:	b4c18513          	addi	a0,gp,-1204 # 20000404 <gyro_filter+0x264>
    4868:	e408                	fsw	fa0,8(s0)
    486a:	aefff0ef          	jal	ra,4358 <FilterAverage>
    486e:	c00517d3          	fcvt.w.s	a5,fa0,rtz
    4872:	ce418513          	addi	a0,gp,-796 # 2000059c <gyro_filter+0x3fc>
    4876:	00f41623          	sh	a5,12(s0)
    487a:	adfff0ef          	jal	ra,4358 <FilterAverage>
    487e:	c00517d3          	fcvt.w.s	a5,fa0,rtz
    4882:	c1818513          	addi	a0,gp,-1000 # 200004d0 <gyro_filter+0x330>
    4886:	00f41723          	sh	a5,14(s0)
    488a:	acfff0ef          	jal	ra,4358 <FilterAverage>
    488e:	c00517d3          	fcvt.w.s	a5,fa0,rtz
    4892:	40b2                	lw	ra,12(sp)
    4894:	00f41823          	sh	a5,16(s0)
    4898:	4422                	lw	s0,8(sp)
    489a:	0141                	addi	sp,sp,16
    489c:	8082                	ret

0000489e <TIM3_IRQHandler>:
    489e:	40000537          	lui	a0,0x40000
    48a2:	711d                	addi	sp,sp,-96
    48a4:	4585                	li	a1,1
    48a6:	40050513          	addi	a0,a0,1024 # 40000400 <_eusrstack+0x1fff8400>
    48aa:	e682                	fsw	ft0,76(sp)
    48ac:	e486                	fsw	ft1,72(sp)
    48ae:	e28a                	fsw	ft2,68(sp)
    48b0:	e08e                	fsw	ft3,64(sp)
    48b2:	fe12                	fsw	ft4,60(sp)
    48b4:	fc16                	fsw	ft5,56(sp)
    48b6:	fa1a                	fsw	ft6,52(sp)
    48b8:	f81e                	fsw	ft7,48(sp)
    48ba:	f62a                	fsw	fa0,44(sp)
    48bc:	f42e                	fsw	fa1,40(sp)
    48be:	f232                	fsw	fa2,36(sp)
    48c0:	f036                	fsw	fa3,32(sp)
    48c2:	ee3a                	fsw	fa4,28(sp)
    48c4:	ec3e                	fsw	fa5,24(sp)
    48c6:	ea42                	fsw	fa6,20(sp)
    48c8:	e846                	fsw	fa7,16(sp)
    48ca:	e672                	fsw	ft8,12(sp)
    48cc:	e476                	fsw	ft9,8(sp)
    48ce:	e27a                	fsw	ft10,4(sp)
    48d0:	e07e                	fsw	ft11,0(sp)
    48d2:	cea2                	sw	s0,92(sp)
    48d4:	cebfc0ef          	jal	ra,15be <TIM_ClearFlag>
    48d8:	187000ef          	jal	ra,525e <Update_ELRS>
    48dc:	ec6ff0ef          	jal	ra,3fa2 <MPU6050_MPU_DMP_GetData>
    48e0:	e50d                	bnez	a0,490a <TIM3_IRQHandler+0x6c>
    48e2:	ee3ff0ef          	jal	ra,47c4 <load_filter_data>
    48e6:	f4bff0ef          	jal	ra,4830 <calc_IMU_filter>
    48ea:	8181a703          	lw	a4,-2024(gp) # 200000d0 <MOTOR_MODE>
    48ee:	4789                	li	a5,2
    48f0:	00f70d63          	beq	a4,a5,490a <TIM3_IRQHandler+0x6c>
    48f4:	81d1c783          	lbu	a5,-2019(gp) # 200000d5 <is_locked>
    48f8:	e7a5                	bnez	a5,4960 <TIM3_IRQHandler+0xc2>
    48fa:	8441d503          	lhu	a0,-1980(gp) # 200000fc <Throttle>
    48fe:	6a300793          	li	a5,1699
    4902:	02a7fc63          	bgeu	a5,a0,493a <TIM3_IRQHandler+0x9c>
    4906:	1a3000ef          	jal	ra,52a8 <Flight_control>
    490a:	4476                	lw	s0,92(sp)
    490c:	6036                	flw	ft0,76(sp)
    490e:	60a6                	flw	ft1,72(sp)
    4910:	6116                	flw	ft2,68(sp)
    4912:	6186                	flw	ft3,64(sp)
    4914:	7272                	flw	ft4,60(sp)
    4916:	72e2                	flw	ft5,56(sp)
    4918:	7352                	flw	ft6,52(sp)
    491a:	73c2                	flw	ft7,48(sp)
    491c:	7532                	flw	fa0,44(sp)
    491e:	75a2                	flw	fa1,40(sp)
    4920:	7612                	flw	fa2,36(sp)
    4922:	7682                	flw	fa3,32(sp)
    4924:	6772                	flw	fa4,28(sp)
    4926:	67e2                	flw	fa5,24(sp)
    4928:	6852                	flw	fa6,20(sp)
    492a:	68c2                	flw	fa7,16(sp)
    492c:	6e32                	flw	ft8,12(sp)
    492e:	6ea2                	flw	ft9,8(sp)
    4930:	6f12                	flw	ft10,4(sp)
    4932:	6f82                	flw	ft11,0(sp)
    4934:	6125                	addi	sp,sp,96
    4936:	30200073          	mret
    493a:	4585                	li	a1,1
    493c:	bdfff0ef          	jal	ra,451a <Motor_ctr>
    4940:	8441d503          	lhu	a0,-1980(gp) # 200000fc <Throttle>
    4944:	4589                	li	a1,2
    4946:	bd5ff0ef          	jal	ra,451a <Motor_ctr>
    494a:	8441d503          	lhu	a0,-1980(gp) # 200000fc <Throttle>
    494e:	458d                	li	a1,3
    4950:	bcbff0ef          	jal	ra,451a <Motor_ctr>
    4954:	8441d503          	lhu	a0,-1980(gp) # 200000fc <Throttle>
    4958:	4591                	li	a1,4
    495a:	bc1ff0ef          	jal	ra,451a <Motor_ctr>
    495e:	b775                	j	490a <TIM3_IRQHandler+0x6c>
    4960:	2e5000ef          	jal	ra,5444 <Stop_motor>
    4964:	b75d                	j	490a <TIM3_IRQHandler+0x6c>

00004966 <USARTx_CFG>:
    4966:	7139                	addi	sp,sp,-64
    4968:	4585                	li	a1,1
    496a:	00020537          	lui	a0,0x20
    496e:	de06                	sw	ra,60(sp)
    4970:	dc22                	sw	s0,56(sp)
    4972:	ca02                	sw	zero,20(sp)
    4974:	cc02                	sw	zero,24(sp)
    4976:	ce02                	sw	zero,28(sp)
    4978:	d002                	sw	zero,32(sp)
    497a:	d202                	sw	zero,36(sp)
    497c:	d402                	sw	zero,40(sp)
    497e:	d602                	sw	zero,44(sp)
    4980:	c602                	sw	zero,12(sp)
    4982:	c802                	sw	zero,16(sp)
    4984:	f7cfc0ef          	jal	ra,1100 <RCC_APB1PeriphClockCmd>
    4988:	4585                	li	a1,1
    498a:	4511                	li	a0,4
    498c:	f56fc0ef          	jal	ra,10e2 <RCC_APB2PeriphClockCmd>
    4990:	4791                	li	a5,4
    4992:	00f11a23          	sh	a5,20(sp)
    4996:	40011437          	lui	s0,0x40011
    499a:	478d                	li	a5,3
    499c:	cc3e                	sw	a5,24(sp)
    499e:	084c                	addi	a1,sp,20
    49a0:	47e1                	li	a5,24
    49a2:	80040513          	addi	a0,s0,-2048 # 40010800 <_eusrstack+0x20008800>
    49a6:	ce3e                	sw	a5,28(sp)
    49a8:	9a0fc0ef          	jal	ra,b48 <GPIO_Init>
    49ac:	47a1                	li	a5,8
    49ae:	084c                	addi	a1,sp,20
    49b0:	00f11a23          	sh	a5,20(sp)
    49b4:	80040513          	addi	a0,s0,-2048
    49b8:	4791                	li	a5,4
    49ba:	ce3e                	sw	a5,28(sp)
    49bc:	98cfc0ef          	jal	ra,b48 <GPIO_Init>
    49c0:	000677b7          	lui	a5,0x67
    49c4:	8a078793          	addi	a5,a5,-1888 # 668a0 <_data_lma+0x5caa4>
    49c8:	d03e                	sw	a5,32(sp)
    49ca:	000c07b7          	lui	a5,0xc0
    49ce:	d43e                	sw	a5,40(sp)
    49d0:	03600793          	li	a5,54
    49d4:	00f11623          	sh	a5,12(sp)
    49d8:	0068                	addi	a0,sp,12
    49da:	4785                	li	a5,1
    49dc:	c83e                	sw	a5,16(sp)
    49de:	40004437          	lui	s0,0x40004
    49e2:	d202                	sw	zero,36(sp)
    49e4:	02011623          	sh	zero,44(sp)
    49e8:	00010723          	sb	zero,14(sp)
    49ec:	d00fc0ef          	jal	ra,eec <NVIC_Init>
    49f0:	40040513          	addi	a0,s0,1024 # 40004400 <_eusrstack+0x1fffc400>
    49f4:	4585                	li	a1,1
    49f6:	caffc0ef          	jal	ra,16a4 <USART_Cmd>
    49fa:	100c                	addi	a1,sp,32
    49fc:	40040513          	addi	a0,s0,1024
    4a00:	bcdfc0ef          	jal	ra,15cc <USART_Init>
    4a04:	40040513          	addi	a0,s0,1024
    4a08:	4605                	li	a2,1
    4a0a:	52500593          	li	a1,1317
    4a0e:	cb3fc0ef          	jal	ra,16c0 <USART_ITConfig>
    4a12:	50f2                	lw	ra,60(sp)
    4a14:	5462                	lw	s0,56(sp)
    4a16:	6121                	addi	sp,sp,64
    4a18:	8082                	ret

00004a1a <UART_RxCpltCallback>:
    4a1a:	1141                	addi	sp,sp,-16
    4a1c:	c422                	sw	s0,8(sp)
    4a1e:	c606                	sw	ra,12(sp)
    4a20:	842a                	mv	s0,a0
    4a22:	cdffc0ef          	jal	ra,1700 <USART_ReceiveData>
    4a26:	eb01c703          	lbu	a4,-336(gp) # 20000768 <RxBuf_Index>
    4a2a:	ec018613          	addi	a2,gp,-320 # 20000778 <RxBuf>
    4a2e:	00170793          	addi	a5,a4,1
    4a32:	0ff7f793          	andi	a5,a5,255
    4a36:	9732                	add	a4,a4,a2
    4a38:	00a70023          	sb	a0,0(a4)
    4a3c:	eaf18823          	sb	a5,-336(gp) # 20000768 <RxBuf_Index>
    4a40:	04000713          	li	a4,64
    4a44:	00e79463          	bne	a5,a4,4a4c <UART_RxCpltCallback+0x32>
    4a48:	ea018823          	sb	zero,-336(gp) # 20000768 <RxBuf_Index>
    4a4c:	2981                	jal	4e9c <HandleByteReceived>
    4a4e:	8522                	mv	a0,s0
    4a50:	4422                	lw	s0,8(sp)
    4a52:	40b2                	lw	ra,12(sp)
    4a54:	52500593          	li	a1,1317
    4a58:	0141                	addi	sp,sp,16
    4a5a:	cbdfc06f          	j	1716 <USART_ClearFlag>

00004a5e <USART2_IRQHandler>:
    4a5e:	711d                	addi	sp,sp,-96
    4a60:	cea2                	sw	s0,92(sp)
    4a62:	40004437          	lui	s0,0x40004
    4a66:	52500593          	li	a1,1317
    4a6a:	40040513          	addi	a0,s0,1024 # 40004400 <_eusrstack+0x1fffc400>
    4a6e:	e682                	fsw	ft0,76(sp)
    4a70:	e486                	fsw	ft1,72(sp)
    4a72:	e28a                	fsw	ft2,68(sp)
    4a74:	e08e                	fsw	ft3,64(sp)
    4a76:	fe12                	fsw	ft4,60(sp)
    4a78:	fc16                	fsw	ft5,56(sp)
    4a7a:	fa1a                	fsw	ft6,52(sp)
    4a7c:	f81e                	fsw	ft7,48(sp)
    4a7e:	f62a                	fsw	fa0,44(sp)
    4a80:	f42e                	fsw	fa1,40(sp)
    4a82:	f232                	fsw	fa2,36(sp)
    4a84:	f036                	fsw	fa3,32(sp)
    4a86:	ee3a                	fsw	fa4,28(sp)
    4a88:	ec3e                	fsw	fa5,24(sp)
    4a8a:	ea42                	fsw	fa6,20(sp)
    4a8c:	e846                	fsw	fa7,16(sp)
    4a8e:	e672                	fsw	ft8,12(sp)
    4a90:	e476                	fsw	ft9,8(sp)
    4a92:	e27a                	fsw	ft10,4(sp)
    4a94:	e07e                	fsw	ft11,0(sp)
    4a96:	c8ffc0ef          	jal	ra,1724 <USART_GetITStatus>
    4a9a:	cd01                	beqz	a0,4ab2 <USART2_IRQHandler+0x54>
    4a9c:	02000593          	li	a1,32
    4aa0:	40040513          	addi	a0,s0,1024
    4aa4:	c67fc0ef          	jal	ra,170a <USART_GetFlagStatus>
    4aa8:	c509                	beqz	a0,4ab2 <USART2_IRQHandler+0x54>
    4aaa:	40040513          	addi	a0,s0,1024
    4aae:	f6dff0ef          	jal	ra,4a1a <UART_RxCpltCallback>
    4ab2:	4476                	lw	s0,92(sp)
    4ab4:	6036                	flw	ft0,76(sp)
    4ab6:	60a6                	flw	ft1,72(sp)
    4ab8:	6116                	flw	ft2,68(sp)
    4aba:	6186                	flw	ft3,64(sp)
    4abc:	7272                	flw	ft4,60(sp)
    4abe:	72e2                	flw	ft5,56(sp)
    4ac0:	7352                	flw	ft6,52(sp)
    4ac2:	73c2                	flw	ft7,48(sp)
    4ac4:	7532                	flw	fa0,44(sp)
    4ac6:	75a2                	flw	fa1,40(sp)
    4ac8:	7612                	flw	fa2,36(sp)
    4aca:	7682                	flw	fa3,32(sp)
    4acc:	6772                	flw	fa4,28(sp)
    4ace:	67e2                	flw	fa5,24(sp)
    4ad0:	6852                	flw	fa6,20(sp)
    4ad2:	68c2                	flw	fa7,16(sp)
    4ad4:	6e32                	flw	ft8,12(sp)
    4ad6:	6ea2                	flw	ft9,8(sp)
    4ad8:	6f12                	flw	ft10,4(sp)
    4ada:	6f82                	flw	ft11,0(sp)
    4adc:	6125                	addi	sp,sp,96
    4ade:	30200073          	mret

00004ae2 <print_status>:
    4ae2:	1141                	addi	sp,sp,-16
    4ae4:	c422                	sw	s0,8(sp)
    4ae6:	8d41a507          	flw	fa0,-1836(gp) # 2000018c <MPU6050_para_filted>
    4aea:	c606                	sw	ra,12(sp)
    4aec:	8d418413          	addi	s0,gp,-1836 # 2000018c <MPU6050_para_filted>
    4af0:	3e1030ef          	jal	ra,86d0 <__extendsfdf2>
    4af4:	862a                	mv	a2,a0
    4af6:	0000a537          	lui	a0,0xa
    4afa:	86ae                	mv	a3,a1
    4afc:	a6450513          	addi	a0,a0,-1436 # 9a64 <dmp_memory+0xc54>
    4b00:	377010ef          	jal	ra,6676 <printf>
    4b04:	6048                	flw	fa0,4(s0)
    4b06:	3cb030ef          	jal	ra,86d0 <__extendsfdf2>
    4b0a:	862a                	mv	a2,a0
    4b0c:	0000a537          	lui	a0,0xa
    4b10:	86ae                	mv	a3,a1
    4b12:	a7450513          	addi	a0,a0,-1420 # 9a74 <dmp_memory+0xc64>
    4b16:	361010ef          	jal	ra,6676 <printf>
    4b1a:	6408                	flw	fa0,8(s0)
    4b1c:	3b5030ef          	jal	ra,86d0 <__extendsfdf2>
    4b20:	862a                	mv	a2,a0
    4b22:	0000a537          	lui	a0,0xa
    4b26:	86ae                	mv	a3,a1
    4b28:	a8850513          	addi	a0,a0,-1400 # 9a88 <dmp_memory+0xc78>
    4b2c:	34b010ef          	jal	ra,6676 <printf>
    4b30:	00c41583          	lh	a1,12(s0)
    4b34:	0000a537          	lui	a0,0xa
    4b38:	a9c50513          	addi	a0,a0,-1380 # 9a9c <dmp_memory+0xc8c>
    4b3c:	33b010ef          	jal	ra,6676 <printf>
    4b40:	00e41583          	lh	a1,14(s0)
    4b44:	0000a537          	lui	a0,0xa
    4b48:	ab050513          	addi	a0,a0,-1360 # 9ab0 <dmp_memory+0xca0>
    4b4c:	32b010ef          	jal	ra,6676 <printf>
    4b50:	01041583          	lh	a1,16(s0)
    4b54:	0000a537          	lui	a0,0xa
    4b58:	ac850513          	addi	a0,a0,-1336 # 9ac8 <dmp_memory+0xcb8>
    4b5c:	31b010ef          	jal	ra,6676 <printf>
    4b60:	40015437          	lui	s0,0x40015
    4b64:	c0040513          	addi	a0,s0,-1024 # 40014c00 <_eusrstack+0x2000cc00>
    4b68:	a3ffc0ef          	jal	ra,15a6 <TIM_GetCapture1>
    4b6c:	85aa                	mv	a1,a0
    4b6e:	0000a537          	lui	a0,0xa
    4b72:	adc50513          	addi	a0,a0,-1316 # 9adc <dmp_memory+0xccc>
    4b76:	301010ef          	jal	ra,6676 <printf>
    4b7a:	c0040513          	addi	a0,s0,-1024
    4b7e:	a2ffc0ef          	jal	ra,15ac <TIM_GetCapture2>
    4b82:	85aa                	mv	a1,a0
    4b84:	0000a537          	lui	a0,0xa
    4b88:	ae850513          	addi	a0,a0,-1304 # 9ae8 <dmp_memory+0xcd8>
    4b8c:	2eb010ef          	jal	ra,6676 <printf>
    4b90:	c0040513          	addi	a0,s0,-1024
    4b94:	a1ffc0ef          	jal	ra,15b2 <TIM_GetCapture3>
    4b98:	85aa                	mv	a1,a0
    4b9a:	0000a537          	lui	a0,0xa
    4b9e:	af450513          	addi	a0,a0,-1292 # 9af4 <dmp_memory+0xce4>
    4ba2:	2d5010ef          	jal	ra,6676 <printf>
    4ba6:	c0040513          	addi	a0,s0,-1024
    4baa:	a0ffc0ef          	jal	ra,15b8 <TIM_GetCapture4>
    4bae:	85aa                	mv	a1,a0
    4bb0:	0000a537          	lui	a0,0xa
    4bb4:	b0050513          	addi	a0,a0,-1280 # 9b00 <dmp_memory+0xcf0>
    4bb8:	2bf010ef          	jal	ra,6676 <printf>
    4bbc:	87c1a583          	lw	a1,-1924(gp) # 20000134 <CrsfChannels+0x8>
    4bc0:	0000a537          	lui	a0,0xa
    4bc4:	b0c50513          	addi	a0,a0,-1268 # 9b0c <dmp_memory+0xcfc>
    4bc8:	2af010ef          	jal	ra,6676 <printf>
    4bcc:	81c1c783          	lbu	a5,-2020(gp) # 200000d4 <flight_mode>
    4bd0:	4709                	li	a4,2
    4bd2:	02e79f63          	bne	a5,a4,4c10 <print_status+0x12e>
    4bd6:	0000a537          	lui	a0,0xa
    4bda:	b1450513          	addi	a0,a0,-1260 # 9b14 <dmp_memory+0xd04>
    4bde:	2bd010ef          	jal	ra,669a <puts>
    4be2:	81d1c783          	lbu	a5,-2019(gp) # 200000d5 <is_locked>
    4be6:	e3b1                	bnez	a5,4c2a <print_status+0x148>
    4be8:	0000a537          	lui	a0,0xa
    4bec:	b5050513          	addi	a0,a0,-1200 # 9b50 <dmp_memory+0xd40>
    4bf0:	2ab010ef          	jal	ra,669a <puts>
    4bf4:	8141a783          	lw	a5,-2028(gp) # 200000cc <CONTROL_MODE>
    4bf8:	4705                	li	a4,1
    4bfa:	02e79d63          	bne	a5,a4,4c34 <print_status+0x152>
    4bfe:	0000a537          	lui	a0,0xa
    4c02:	b7850513          	addi	a0,a0,-1160 # 9b78 <dmp_memory+0xd68>
    4c06:	4422                	lw	s0,8(sp)
    4c08:	40b2                	lw	ra,12(sp)
    4c0a:	0141                	addi	sp,sp,16
    4c0c:	28f0106f          	j	669a <puts>
    4c10:	4705                	li	a4,1
    4c12:	00e79763          	bne	a5,a4,4c20 <print_status+0x13e>
    4c16:	0000a537          	lui	a0,0xa
    4c1a:	b2850513          	addi	a0,a0,-1240 # 9b28 <dmp_memory+0xd18>
    4c1e:	b7c1                	j	4bde <print_status+0xfc>
    4c20:	0000a537          	lui	a0,0xa
    4c24:	b3c50513          	addi	a0,a0,-1220 # 9b3c <dmp_memory+0xd2c>
    4c28:	bf5d                	j	4bde <print_status+0xfc>
    4c2a:	0000a537          	lui	a0,0xa
    4c2e:	b6450513          	addi	a0,a0,-1180 # 9b64 <dmp_memory+0xd54>
    4c32:	bf7d                	j	4bf0 <print_status+0x10e>
    4c34:	4709                	li	a4,2
    4c36:	00e79763          	bne	a5,a4,4c44 <print_status+0x162>
    4c3a:	0000a537          	lui	a0,0xa
    4c3e:	b8c50513          	addi	a0,a0,-1140 # 9b8c <dmp_memory+0xd7c>
    4c42:	b7d1                	j	4c06 <print_status+0x124>
    4c44:	40b2                	lw	ra,12(sp)
    4c46:	4422                	lw	s0,8(sp)
    4c48:	0141                	addi	sp,sp,16
    4c4a:	8082                	ret

00004c4c <Crc_init>:
    4c4c:	4701                	li	a4,0
    4c4e:	db018693          	addi	a3,gp,-592 # 20000668 <_lut>
    4c52:	10000813          	li	a6,256
    4c56:	0ff77793          	andi	a5,a4,255
    4c5a:	4621                	li	a2,8
    4c5c:	00179593          	slli	a1,a5,0x1
    4c60:	07e2                	slli	a5,a5,0x18
    4c62:	87e1                	srai	a5,a5,0x18
    4c64:	87fd                	srai	a5,a5,0x1f
    4c66:	8fe9                	and	a5,a5,a0
    4c68:	0fe5f593          	andi	a1,a1,254
    4c6c:	167d                	addi	a2,a2,-1
    4c6e:	8fad                	xor	a5,a5,a1
    4c70:	f675                	bnez	a2,4c5c <Crc_init+0x10>
    4c72:	00d70633          	add	a2,a4,a3
    4c76:	00f60023          	sb	a5,0(a2)
    4c7a:	0705                	addi	a4,a4,1
    4c7c:	fd071de3          	bne	a4,a6,4c56 <Crc_init+0xa>
    4c80:	8082                	ret

00004c82 <Calc>:
    4c82:	95aa                	add	a1,a1,a0
    4c84:	4781                	li	a5,0
    4c86:	db018713          	addi	a4,gp,-592 # 20000668 <_lut>
    4c8a:	00b51463          	bne	a0,a1,4c92 <Calc+0x10>
    4c8e:	853e                	mv	a0,a5
    4c90:	8082                	ret
    4c92:	0505                	addi	a0,a0,1
    4c94:	fff54683          	lbu	a3,-1(a0)
    4c98:	8fb5                	xor	a5,a5,a3
    4c9a:	97ba                	add	a5,a5,a4
    4c9c:	0007c783          	lbu	a5,0(a5) # c0000 <_data_lma+0xb6204>
    4ca0:	b7ed                	j	4c8a <Calc+0x8>

00004ca2 <ShiftRxBuffer>:
    4ca2:	eb01c783          	lbu	a5,-336(gp) # 20000768 <RxBuf_Index>
    4ca6:	00f56563          	bltu	a0,a5,4cb0 <ShiftRxBuffer+0xe>
    4caa:	ea018823          	sb	zero,-336(gp) # 20000768 <RxBuf_Index>
    4cae:	8082                	ret
    4cb0:	8f89                	sub	a5,a5,a0
    4cb2:	0ff7f793          	andi	a5,a5,255
    4cb6:	eaf18823          	sb	a5,-336(gp) # 20000768 <RxBuf_Index>
    4cba:	ec018693          	addi	a3,gp,-320 # 20000778 <RxBuf>
    4cbe:	4701                	li	a4,0
    4cc0:	00a70633          	add	a2,a4,a0
    4cc4:	9636                	add	a2,a2,a3
    4cc6:	00064583          	lbu	a1,0(a2)
    4cca:	00d70633          	add	a2,a4,a3
    4cce:	0705                	addi	a4,a4,1
    4cd0:	00b60023          	sb	a1,0(a2)
    4cd4:	fef716e3          	bne	a4,a5,4cc0 <ShiftRxBuffer+0x1e>
    4cd8:	8082                	ret

00004cda <PacketChannelsPacked>:
    4cda:	00454703          	lbu	a4,4(a0)
    4cde:	00354683          	lbu	a3,3(a0)
    4ce2:	8b1d                	andi	a4,a4,7
    4ce4:	0722                	slli	a4,a4,0x8
    4ce6:	8f55                	or	a4,a4,a3
    4ce8:	86e1aa23          	sw	a4,-1932(gp) # 2000012c <CrsfChannels>
    4cec:	00454703          	lbu	a4,4(a0)
    4cf0:	87418793          	addi	a5,gp,-1932 # 2000012c <CrsfChannels>
    4cf4:	00375693          	srli	a3,a4,0x3
    4cf8:	00554703          	lbu	a4,5(a0)
    4cfc:	03f77713          	andi	a4,a4,63
    4d00:	0716                	slli	a4,a4,0x5
    4d02:	8f55                	or	a4,a4,a3
    4d04:	c3d8                	sw	a4,4(a5)
    4d06:	00554683          	lbu	a3,5(a0)
    4d0a:	00654703          	lbu	a4,6(a0)
    4d0e:	8299                	srli	a3,a3,0x6
    4d10:	070a                	slli	a4,a4,0x2
    4d12:	8ed9                	or	a3,a3,a4
    4d14:	00754703          	lbu	a4,7(a0)
    4d18:	8b05                	andi	a4,a4,1
    4d1a:	072a                	slli	a4,a4,0xa
    4d1c:	8f55                	or	a4,a4,a3
    4d1e:	c798                	sw	a4,8(a5)
    4d20:	00754703          	lbu	a4,7(a0)
    4d24:	00175693          	srli	a3,a4,0x1
    4d28:	00854703          	lbu	a4,8(a0)
    4d2c:	8b3d                	andi	a4,a4,15
    4d2e:	071e                	slli	a4,a4,0x7
    4d30:	8f55                	or	a4,a4,a3
    4d32:	c7d8                	sw	a4,12(a5)
    4d34:	00854703          	lbu	a4,8(a0)
    4d38:	00475693          	srli	a3,a4,0x4
    4d3c:	00954703          	lbu	a4,9(a0)
    4d40:	07f77713          	andi	a4,a4,127
    4d44:	0712                	slli	a4,a4,0x4
    4d46:	8f55                	or	a4,a4,a3
    4d48:	cb98                	sw	a4,16(a5)
    4d4a:	00954683          	lbu	a3,9(a0)
    4d4e:	00a54703          	lbu	a4,10(a0)
    4d52:	829d                	srli	a3,a3,0x7
    4d54:	0706                	slli	a4,a4,0x1
    4d56:	8ed9                	or	a3,a3,a4
    4d58:	00b54703          	lbu	a4,11(a0)
    4d5c:	8b0d                	andi	a4,a4,3
    4d5e:	0726                	slli	a4,a4,0x9
    4d60:	8f55                	or	a4,a4,a3
    4d62:	cbd8                	sw	a4,20(a5)
    4d64:	00b54703          	lbu	a4,11(a0)
    4d68:	00275693          	srli	a3,a4,0x2
    4d6c:	00c54703          	lbu	a4,12(a0)
    4d70:	8b7d                	andi	a4,a4,31
    4d72:	071a                	slli	a4,a4,0x6
    4d74:	8f55                	or	a4,a4,a3
    4d76:	cf98                	sw	a4,24(a5)
    4d78:	00c54703          	lbu	a4,12(a0)
    4d7c:	00575693          	srli	a3,a4,0x5
    4d80:	00d54703          	lbu	a4,13(a0)
    4d84:	070e                	slli	a4,a4,0x3
    4d86:	8f55                	or	a4,a4,a3
    4d88:	cfd8                	sw	a4,28(a5)
    4d8a:	00f54703          	lbu	a4,15(a0)
    4d8e:	00e54683          	lbu	a3,14(a0)
    4d92:	8b1d                	andi	a4,a4,7
    4d94:	0722                	slli	a4,a4,0x8
    4d96:	8f55                	or	a4,a4,a3
    4d98:	d398                	sw	a4,32(a5)
    4d9a:	00f54703          	lbu	a4,15(a0)
    4d9e:	00375693          	srli	a3,a4,0x3
    4da2:	01054703          	lbu	a4,16(a0)
    4da6:	03f77713          	andi	a4,a4,63
    4daa:	0716                	slli	a4,a4,0x5
    4dac:	8f55                	or	a4,a4,a3
    4dae:	d3d8                	sw	a4,36(a5)
    4db0:	01054683          	lbu	a3,16(a0)
    4db4:	01154703          	lbu	a4,17(a0)
    4db8:	8299                	srli	a3,a3,0x6
    4dba:	070a                	slli	a4,a4,0x2
    4dbc:	8ed9                	or	a3,a3,a4
    4dbe:	01254703          	lbu	a4,18(a0)
    4dc2:	8b05                	andi	a4,a4,1
    4dc4:	072a                	slli	a4,a4,0xa
    4dc6:	8f55                	or	a4,a4,a3
    4dc8:	d798                	sw	a4,40(a5)
    4dca:	01254703          	lbu	a4,18(a0)
    4dce:	00175693          	srli	a3,a4,0x1
    4dd2:	01354703          	lbu	a4,19(a0)
    4dd6:	8b3d                	andi	a4,a4,15
    4dd8:	071e                	slli	a4,a4,0x7
    4dda:	8f55                	or	a4,a4,a3
    4ddc:	d7d8                	sw	a4,44(a5)
    4dde:	01354703          	lbu	a4,19(a0)
    4de2:	00475693          	srli	a3,a4,0x4
    4de6:	01454703          	lbu	a4,20(a0)
    4dea:	07f77713          	andi	a4,a4,127
    4dee:	0712                	slli	a4,a4,0x4
    4df0:	8f55                	or	a4,a4,a3
    4df2:	db98                	sw	a4,48(a5)
    4df4:	01454683          	lbu	a3,20(a0)
    4df8:	01554703          	lbu	a4,21(a0)
    4dfc:	829d                	srli	a3,a3,0x7
    4dfe:	0706                	slli	a4,a4,0x1
    4e00:	8ed9                	or	a3,a3,a4
    4e02:	01654703          	lbu	a4,22(a0)
    4e06:	8b0d                	andi	a4,a4,3
    4e08:	0726                	slli	a4,a4,0x9
    4e0a:	8f55                	or	a4,a4,a3
    4e0c:	dbd8                	sw	a4,52(a5)
    4e0e:	01654703          	lbu	a4,22(a0)
    4e12:	00275693          	srli	a3,a4,0x2
    4e16:	01754703          	lbu	a4,23(a0)
    4e1a:	8b7d                	andi	a4,a4,31
    4e1c:	071a                	slli	a4,a4,0x6
    4e1e:	8f55                	or	a4,a4,a3
    4e20:	df98                	sw	a4,56(a5)
    4e22:	01754703          	lbu	a4,23(a0)
    4e26:	00575693          	srli	a3,a4,0x5
    4e2a:	01854703          	lbu	a4,24(a0)
    4e2e:	070e                	slli	a4,a4,0x3
    4e30:	8f55                	or	a4,a4,a3
    4e32:	dfd8                	sw	a4,60(a5)
    4e34:	8082                	ret

00004e36 <PacketLinkStatistics>:
    4e36:	1101                	addi	sp,sp,-32
    4e38:	ce06                	sw	ra,28(sp)
    4e3a:	00454703          	lbu	a4,4(a0)
    4e3e:	00354783          	lbu	a5,3(a0)
    4e42:	006c                	addi	a1,sp,12
    4e44:	0722                	slli	a4,a4,0x8
    4e46:	8f5d                	or	a4,a4,a5
    4e48:	00554783          	lbu	a5,5(a0)
    4e4c:	4629                	li	a2,10
    4e4e:	07c2                	slli	a5,a5,0x10
    4e50:	8f5d                	or	a4,a4,a5
    4e52:	00654783          	lbu	a5,6(a0)
    4e56:	eb418513          	addi	a0,gp,-332 # 2000076c <LinkStatistics>
    4e5a:	07e2                	slli	a5,a5,0x18
    4e5c:	8fd9                	or	a5,a5,a4
    4e5e:	c63e                	sw	a5,12(sp)
    4e60:	51b030ef          	jal	ra,8b7a <memcpy>
    4e64:	40f2                	lw	ra,28(sp)
    4e66:	6105                	addi	sp,sp,32
    4e68:	8082                	ret

00004e6a <ProcessPacketIn>:
    4e6a:	ec01c703          	lbu	a4,-320(gp) # 20000778 <RxBuf>
    4e6e:	0c800793          	li	a5,200
    4e72:	02f71463          	bne	a4,a5,4e9a <ProcessPacketIn+0x30>
    4e76:	ec018793          	addi	a5,gp,-320 # 20000778 <RxBuf>
    4e7a:	0027c783          	lbu	a5,2(a5)
    4e7e:	4751                	li	a4,20
    4e80:	00e78963          	beq	a5,a4,4e92 <ProcessPacketIn+0x28>
    4e84:	4759                	li	a4,22
    4e86:	00e79a63          	bne	a5,a4,4e9a <ProcessPacketIn+0x30>
    4e8a:	ec018513          	addi	a0,gp,-320 # 20000778 <RxBuf>
    4e8e:	e4dff06f          	j	4cda <PacketChannelsPacked>
    4e92:	ec018513          	addi	a0,gp,-320 # 20000778 <RxBuf>
    4e96:	fa1ff06f          	j	4e36 <PacketLinkStatistics>
    4e9a:	8082                	ret

00004e9c <HandleByteReceived>:
    4e9c:	1101                	addi	sp,sp,-32
    4e9e:	ca26                	sw	s1,20(sp)
    4ea0:	c84a                	sw	s2,16(sp)
    4ea2:	c64e                	sw	s3,12(sp)
    4ea4:	c452                	sw	s4,8(sp)
    4ea6:	c256                	sw	s5,4(sp)
    4ea8:	ce06                	sw	ra,28(sp)
    4eaa:	cc22                	sw	s0,24(sp)
    4eac:	c05a                	sw	s6,0(sp)
    4eae:	4985                	li	s3,1
    4eb0:	ec018493          	addi	s1,gp,-320 # 20000778 <RxBuf>
    4eb4:	03b00a13          	li	s4,59
    4eb8:	eb01c703          	lbu	a4,-336(gp) # 20000768 <RxBuf_Index>
    4ebc:	04e9f663          	bgeu	s3,a4,4f08 <HandleByteReceived+0x6c>
    4ec0:	0014c403          	lbu	s0,1(s1)
    4ec4:	ffd40793          	addi	a5,s0,-3
    4ec8:	0ff7f793          	andi	a5,a5,255
    4ecc:	00fa7663          	bgeu	s4,a5,4ed8 <HandleByteReceived+0x3c>
    4ed0:	4505                	li	a0,1
    4ed2:	dd1ff0ef          	jal	ra,4ca2 <ShiftRxBuffer>
    4ed6:	b7cd                	j	4eb8 <HandleByteReceived+0x1c>
    4ed8:	00140793          	addi	a5,s0,1
    4edc:	02e7d663          	bge	a5,a4,4f08 <HandleByteReceived+0x6c>
    4ee0:	97a6                	add	a5,a5,s1
    4ee2:	0007cb03          	lbu	s6,0(a5)
    4ee6:	fff40593          	addi	a1,s0,-1
    4eea:	0ff5f593          	andi	a1,a1,255
    4eee:	ec218513          	addi	a0,gp,-318 # 2000077a <RxBuf+0x2>
    4ef2:	d91ff0ef          	jal	ra,4c82 <Calc>
    4ef6:	fcab1de3          	bne	s6,a0,4ed0 <HandleByteReceived+0x34>
    4efa:	f71ff0ef          	jal	ra,4e6a <ProcessPacketIn>
    4efe:	00240513          	addi	a0,s0,2
    4f02:	0ff57513          	andi	a0,a0,255
    4f06:	b7f1                	j	4ed2 <HandleByteReceived+0x36>
    4f08:	40f2                	lw	ra,28(sp)
    4f0a:	4462                	lw	s0,24(sp)
    4f0c:	44d2                	lw	s1,20(sp)
    4f0e:	4942                	lw	s2,16(sp)
    4f10:	49b2                	lw	s3,12(sp)
    4f12:	4a22                	lw	s4,8(sp)
    4f14:	4a92                	lw	s5,4(sp)
    4f16:	4b02                	lw	s6,0(sp)
    4f18:	6105                	addi	sp,sp,32
    4f1a:	8082                	ret

00004f1c <PIDSTRUCT_Init>:
    4f1c:	7179                	addi	sp,sp,-48
    4f1e:	d422                	sw	s0,40(sp)
    4f20:	20000437          	lui	s0,0x20000
    4f24:	04842783          	lw	a5,72(s0) # 20000048 <pid_func>
    4f28:	d04a                	sw	s2,32(sp)
    4f2a:	d606                	sw	ra,44(sp)
    4f2c:	d226                	sw	s1,36(sp)
    4f2e:	ee22                	fsw	fs0,28(sp)
    4f30:	ec26                	fsw	fs1,24(sp)
    4f32:	ea4a                	fsw	fs2,20(sp)
    4f34:	e84e                	fsw	fs3,16(sp)
    4f36:	e652                	fsw	fs4,12(sp)
    4f38:	e456                	fsw	fs5,8(sp)
    4f3a:	e25a                	fsw	fs6,4(sp)
    4f3c:	e05e                	fsw	fs7,0(sp)
    4f3e:	f5018513          	addi	a0,gp,-176 # 20000808 <PID_yaw_outerloop>
    4f42:	9782                	jalr	a5
    4f44:	0000a737          	lui	a4,0xa
    4f48:	bb072b87          	flw	fs7,-1104(a4) # 9bb0 <dmp_memory+0xda0>
    4f4c:	0000a737          	lui	a4,0xa
    4f50:	bb472b07          	flw	fs6,-1100(a4) # 9bb4 <dmp_memory+0xda4>
    4f54:	0000a737          	lui	a4,0xa
    4f58:	bb872487          	flw	fs1,-1096(a4) # 9bb8 <dmp_memory+0xda8>
    4f5c:	0000a737          	lui	a4,0xa
    4f60:	bbc72407          	flw	fs0,-1092(a4) # 9bbc <dmp_memory+0xdac>
    4f64:	00009737          	lui	a4,0x9
    4f68:	dac72a87          	flw	fs5,-596(a4) # 8dac <hw+0xe0>
    4f6c:	0000a7b7          	lui	a5,0xa
    4f70:	04840493          	addi	s1,s0,72
    4f74:	bac7a787          	flw	fa5,-1108(a5) # 9bac <dmp_memory+0xd9c>
    4f78:	f5018793          	addi	a5,gp,-176 # 20000808 <PID_yaw_outerloop>
    4f7c:	0177aa27          	fsw	fs7,20(a5)
    4f80:	0167ac27          	fsw	fs6,24(a5)
    4f84:	e7c4                	fsw	fs1,12(a5)
    4f86:	eb80                	fsw	fs0,16(a5)
    4f88:	0357aa27          	fsw	fs5,52(a5)
    4f8c:	0007a223          	sw	zero,4(a5)
    4f90:	0007a423          	sw	zero,8(a5)
    4f94:	40dc                	lw	a5,4(s1)
    4f96:	f4f1a827          	fsw	fa5,-176(gp) # 20000808 <PID_yaw_outerloop>
    4f9a:	f5018513          	addi	a0,gp,-176 # 20000808 <PID_yaw_outerloop>
    4f9e:	9782                	jalr	a5
    4fa0:	04842783          	lw	a5,72(s0)
    4fa4:	ff018513          	addi	a0,gp,-16 # 200008a8 <PID_yaw_innerloop>
    4fa8:	9782                	jalr	a5
    4faa:	0000a737          	lui	a4,0xa
    4fae:	bc472987          	flw	fs3,-1084(a4) # 9bc4 <dmp_memory+0xdb4>
    4fb2:	0000a737          	lui	a4,0xa
    4fb6:	bc872907          	flw	fs2,-1080(a4) # 9bc8 <dmp_memory+0xdb8>
    4fba:	0000a7b7          	lui	a5,0xa
    4fbe:	bc07aa07          	flw	fs4,-1088(a5) # 9bc0 <dmp_memory+0xdb0>
    4fc2:	ff018793          	addi	a5,gp,-16 # 200008a8 <PID_yaw_innerloop>
    4fc6:	0137aa27          	fsw	fs3,20(a5)
    4fca:	0127ac27          	fsw	fs2,24(a5)
    4fce:	e7c4                	fsw	fs1,12(a5)
    4fd0:	eb80                	fsw	fs0,16(a5)
    4fd2:	0007a223          	sw	zero,4(a5)
    4fd6:	0007a423          	sw	zero,8(a5)
    4fda:	40dc                	lw	a5,4(s1)
    4fdc:	ff41a827          	fsw	fs4,-16(gp) # 200008a8 <PID_yaw_innerloop>
    4fe0:	ff018513          	addi	a0,gp,-16 # 200008a8 <PID_yaw_innerloop>
    4fe4:	9782                	jalr	a5
    4fe6:	04842783          	lw	a5,72(s0)
    4fea:	fa018513          	addi	a0,gp,-96 # 20000858 <PID_pitch_outerloop>
    4fee:	9782                	jalr	a5
    4ff0:	0000a7b7          	lui	a5,0xa
    4ff4:	bcc7a787          	flw	fa5,-1076(a5) # 9bcc <dmp_memory+0xdbc>
    4ff8:	0000a737          	lui	a4,0xa
    4ffc:	fa018793          	addi	a5,gp,-96 # 20000858 <PID_pitch_outerloop>
    5000:	faf1a027          	fsw	fa5,-96(gp) # 20000858 <PID_pitch_outerloop>
    5004:	bd072787          	flw	fa5,-1072(a4) # 9bd0 <dmp_memory+0xdc0>
    5008:	0177aa27          	fsw	fs7,20(a5)
    500c:	0167ac27          	fsw	fs6,24(a5)
    5010:	e3dc                	fsw	fa5,4(a5)
    5012:	e79c                	fsw	fa5,8(a5)
    5014:	e7c4                	fsw	fs1,12(a5)
    5016:	eb80                	fsw	fs0,16(a5)
    5018:	0357aa27          	fsw	fs5,52(a5)
    501c:	40dc                	lw	a5,4(s1)
    501e:	fa018513          	addi	a0,gp,-96 # 20000858 <PID_pitch_outerloop>
    5022:	9782                	jalr	a5
    5024:	04842783          	lw	a5,72(s0)
    5028:	09018513          	addi	a0,gp,144 # 20000948 <PID_pitch_innerloop>
    502c:	9782                	jalr	a5
    502e:	09018793          	addi	a5,gp,144 # 20000948 <PID_pitch_innerloop>
    5032:	0137aa27          	fsw	fs3,20(a5)
    5036:	0127ac27          	fsw	fs2,24(a5)
    503a:	e7c4                	fsw	fs1,12(a5)
    503c:	eb80                	fsw	fs0,16(a5)
    503e:	0007a223          	sw	zero,4(a5)
    5042:	0007a423          	sw	zero,8(a5)
    5046:	40dc                	lw	a5,4(s1)
    5048:	0941a827          	fsw	fs4,144(gp) # 20000948 <PID_pitch_innerloop>
    504c:	09018513          	addi	a0,gp,144 # 20000948 <PID_pitch_innerloop>
    5050:	9782                	jalr	a5
    5052:	04842783          	lw	a5,72(s0)
    5056:	04018513          	addi	a0,gp,64 # 200008f8 <PID_roll_outerloop>
    505a:	9782                	jalr	a5
    505c:	0000a7b7          	lui	a5,0xa
    5060:	bd47a787          	flw	fa5,-1068(a5) # 9bd4 <dmp_memory+0xdc4>
    5064:	04018793          	addi	a5,gp,64 # 200008f8 <PID_roll_outerloop>
    5068:	0177aa27          	fsw	fs7,20(a5)
    506c:	0167ac27          	fsw	fs6,24(a5)
    5070:	e7c4                	fsw	fs1,12(a5)
    5072:	eb80                	fsw	fs0,16(a5)
    5074:	0357aa27          	fsw	fs5,52(a5)
    5078:	0007a223          	sw	zero,4(a5)
    507c:	0007a423          	sw	zero,8(a5)
    5080:	40dc                	lw	a5,4(s1)
    5082:	04f1a027          	fsw	fa5,64(gp) # 200008f8 <PID_roll_outerloop>
    5086:	04018513          	addi	a0,gp,64 # 200008f8 <PID_roll_outerloop>
    508a:	9782                	jalr	a5
    508c:	04842783          	lw	a5,72(s0)
    5090:	f0018513          	addi	a0,gp,-256 # 200007b8 <PID_roll_innerloop>
    5094:	9782                	jalr	a5
    5096:	f0018793          	addi	a5,gp,-256 # 200007b8 <PID_roll_innerloop>
    509a:	f141a027          	fsw	fs4,-256(gp) # 200007b8 <PID_roll_innerloop>
    509e:	f0018513          	addi	a0,gp,-256 # 200007b8 <PID_roll_innerloop>
    50a2:	5422                	lw	s0,40(sp)
    50a4:	0137aa27          	fsw	fs3,20(a5)
    50a8:	0127ac27          	fsw	fs2,24(a5)
    50ac:	e7c4                	fsw	fs1,12(a5)
    50ae:	eb80                	fsw	fs0,16(a5)
    50b0:	0044a303          	lw	t1,4(s1)
    50b4:	50b2                	lw	ra,44(sp)
    50b6:	5492                	lw	s1,36(sp)
    50b8:	5902                	lw	s2,32(sp)
    50ba:	6472                	flw	fs0,28(sp)
    50bc:	64e2                	flw	fs1,24(sp)
    50be:	6952                	flw	fs2,20(sp)
    50c0:	69c2                	flw	fs3,16(sp)
    50c2:	6a32                	flw	fs4,12(sp)
    50c4:	6aa2                	flw	fs5,8(sp)
    50c6:	6b12                	flw	fs6,4(sp)
    50c8:	6b82                	flw	fs7,0(sp)
    50ca:	0007a223          	sw	zero,4(a5)
    50ce:	0007a423          	sw	zero,8(a5)
    50d2:	6145                	addi	sp,sp,48
    50d4:	8302                	jr	t1

000050d6 <ELRS_Convert_angle>:
    50d6:	3e800793          	li	a5,1000
    50da:	00a7dd63          	bge	a5,a0,50f4 <ELRS_Convert_angle+0x1e>
    50de:	c1850513          	addi	a0,a0,-1000
    50e2:	0000a7b7          	lui	a5,0xa
    50e6:	d0057553          	fcvt.s.w	fa0,a0
    50ea:	ba07a787          	flw	fa5,-1120(a5) # 9ba0 <dmp_memory+0xd90>
    50ee:	10f57553          	fmul.s	fa0,fa0,fa5
    50f2:	8082                	ret
    50f4:	3d800793          	li	a5,984
    50f8:	f0000553          	fmv.w.x	fa0,zero
    50fc:	fea7cbe3          	blt	a5,a0,50f2 <ELRS_Convert_angle+0x1c>
    5100:	c2750513          	addi	a0,a0,-985
    5104:	bff9                	j	50e2 <ELRS_Convert_angle+0xc>

00005106 <ELRS_Convert_throttle>:
    5106:	0c800793          	li	a5,200
    510a:	02a7f763          	bgeu	a5,a0,5138 <ELRS_Convert_throttle+0x32>
    510e:	f3850513          	addi	a0,a0,-200
    5112:	0000a7b7          	lui	a5,0xa
    5116:	0542                	slli	a0,a0,0x10
    5118:	ba47a687          	flw	fa3,-1116(a5) # 9ba4 <dmp_memory+0xd94>
    511c:	8141                	srli	a0,a0,0x10
    511e:	0000a7b7          	lui	a5,0xa
    5122:	d00577d3          	fcvt.s.w	fa5,a0
    5126:	ba87a707          	flw	fa4,-1112(a5) # 9ba8 <dmp_memory+0xd98>
    512a:	70d7f7c3          	fmadd.s	fa5,fa5,fa3,fa4
    512e:	c0179553          	fcvt.wu.s	a0,fa5,rtz
    5132:	0542                	slli	a0,a0,0x10
    5134:	8141                	srli	a0,a0,0x10
    5136:	8082                	ret
    5138:	54600513          	li	a0,1350
    513c:	8082                	ret

0000513e <ELRS_Convert_lock>:
    513e:	8841a783          	lw	a5,-1916(gp) # 2000013c <CrsfChannels+0x10>
    5142:	90778793          	addi	a5,a5,-1785
    5146:	0107b793          	sltiu	a5,a5,16
    514a:	0017c793          	xori	a5,a5,1
    514e:	80f18ea3          	sb	a5,-2019(gp) # 200000d5 <is_locked>
    5152:	8082                	ret

00005154 <ELRS_Convert_flight_mode>:
    5154:	88c1a703          	lw	a4,-1908(gp) # 20000144 <CrsfChannels+0x18>
    5158:	46bd                	li	a3,15
    515a:	90770613          	addi	a2,a4,-1785
    515e:	81c18793          	addi	a5,gp,-2020 # 200000d4 <flight_mode>
    5162:	00c6e663          	bltu	a3,a2,516e <ELRS_Convert_flight_mode+0x1a>
    5166:	4709                	li	a4,2
    5168:	00e78023          	sb	a4,0(a5)
    516c:	8082                	ret
    516e:	c2270713          	addi	a4,a4,-990
    5172:	46d1                	li	a3,20
    5174:	00e6e463          	bltu	a3,a4,517c <ELRS_Convert_flight_mode+0x28>
    5178:	4705                	li	a4,1
    517a:	b7fd                	j	5168 <ELRS_Convert_flight_mode+0x14>
    517c:	00078023          	sb	zero,0(a5)
    5180:	8082                	ret

00005182 <Roll_outerloop_ctr>:
    5182:	8401a507          	flw	fa0,-1984(gp) # 200000f8 <Roll>
    5186:	200007b7          	lui	a5,0x20000
    518a:	0547a303          	lw	t1,84(a5) # 20000054 <pid_func+0xc>
    518e:	8dc1a587          	flw	fa1,-1828(gp) # 20000194 <MPU6050_para_filted+0x8>
    5192:	0000a7b7          	lui	a5,0xa
    5196:	bd87a787          	flw	fa5,-1064(a5) # 9bd8 <dmp_memory+0xdc8>
    519a:	04018513          	addi	a0,gp,64 # 200008f8 <PID_roll_outerloop>
    519e:	08f57553          	fsub.s	fa0,fa0,fa5
    51a2:	8302                	jr	t1

000051a4 <Roll_innerloop_ctr>:
    51a4:	8e419783          	lh	a5,-1820(gp) # 2000019c <MPU6050_para_filted+0x10>
    51a8:	20000737          	lui	a4,0x20000
    51ac:	05472303          	lw	t1,84(a4) # 20000054 <pid_func+0xc>
    51b0:	d007f5d3          	fcvt.s.w	fa1,a5
    51b4:	0641a507          	flw	fa0,100(gp) # 2000091c <PID_roll_outerloop+0x24>
    51b8:	f0018513          	addi	a0,gp,-256 # 200007b8 <PID_roll_innerloop>
    51bc:	8302                	jr	t1

000051be <Yaw_outerloop_ctr>:
    51be:	8481a507          	flw	fa0,-1976(gp) # 20000100 <Yaw>
    51c2:	8301a787          	flw	fa5,-2000(gp) # 200000e8 <Mech_zero_yaw>
    51c6:	200007b7          	lui	a5,0x20000
    51ca:	0547a303          	lw	t1,84(a5) # 20000054 <pid_func+0xc>
    51ce:	00f57553          	fadd.s	fa0,fa0,fa5
    51d2:	8d41a587          	flw	fa1,-1836(gp) # 2000018c <MPU6050_para_filted>
    51d6:	f5018513          	addi	a0,gp,-176 # 20000808 <PID_yaw_outerloop>
    51da:	8302                	jr	t1

000051dc <Yaw_innerloop_ctr>:
    51dc:	8e019783          	lh	a5,-1824(gp) # 20000198 <MPU6050_para_filted+0xc>
    51e0:	20000737          	lui	a4,0x20000
    51e4:	05472303          	lw	t1,84(a4) # 20000054 <pid_func+0xc>
    51e8:	40f007b3          	neg	a5,a5
    51ec:	d007f5d3          	fcvt.s.w	fa1,a5
    51f0:	f741a507          	flw	fa0,-140(gp) # 2000082c <PID_yaw_outerloop+0x24>
    51f4:	ff018513          	addi	a0,gp,-16 # 200008a8 <PID_yaw_innerloop>
    51f8:	8302                	jr	t1

000051fa <Pitch_outerloop_ctr>:
    51fa:	8d81a587          	flw	fa1,-1832(gp) # 20000190 <MPU6050_para_filted+0x4>
    51fe:	83c1a507          	flw	fa0,-1988(gp) # 200000f4 <Pitch>
    5202:	200007b7          	lui	a5,0x20000
    5206:	0547a303          	lw	t1,84(a5) # 20000054 <pid_func+0xc>
    520a:	0000a7b7          	lui	a5,0xa
    520e:	bd87a787          	flw	fa5,-1064(a5) # 9bd8 <dmp_memory+0xdc8>
    5212:	20b595d3          	fneg.s	fa1,fa1
    5216:	08f57553          	fsub.s	fa0,fa0,fa5
    521a:	fa018513          	addi	a0,gp,-96 # 20000858 <PID_pitch_outerloop>
    521e:	8302                	jr	t1

00005220 <Pitch_innerloop_ctr>:
    5220:	8e219783          	lh	a5,-1822(gp) # 2000019a <MPU6050_para_filted+0xe>
    5224:	20000737          	lui	a4,0x20000
    5228:	05472303          	lw	t1,84(a4) # 20000054 <pid_func+0xc>
    522c:	40f007b3          	neg	a5,a5
    5230:	d007f5d3          	fcvt.s.w	fa1,a5
    5234:	fc41a507          	flw	fa0,-60(gp) # 2000087c <PID_pitch_outerloop+0x24>
    5238:	09018513          	addi	a0,gp,144 # 20000948 <PID_pitch_innerloop>
    523c:	8302                	jr	t1

0000523e <Check_control_mode>:
    523e:	8901a783          	lw	a5,-1904(gp) # 20000148 <CrsfChannels+0x1c>
    5242:	0bf00713          	li	a4,191
    5246:	00e79663          	bne	a5,a4,5252 <Check_control_mode+0x14>
    524a:	4705                	li	a4,1
    524c:	80e1aa23          	sw	a4,-2028(gp) # 200000cc <CONTROL_MODE>
    5250:	8082                	ret
    5252:	70000713          	li	a4,1792
    5256:	fee79de3          	bne	a5,a4,5250 <Check_control_mode+0x12>
    525a:	4709                	li	a4,2
    525c:	bfc5                	j	524c <Check_control_mode+0xe>

0000525e <Update_ELRS>:
    525e:	1141                	addi	sp,sp,-16
    5260:	c226                	sw	s1,4(sp)
    5262:	c422                	sw	s0,8(sp)
    5264:	87418413          	addi	s0,gp,-1932 # 2000012c <CrsfChannels>
    5268:	4448                	lw	a0,12(s0)
    526a:	c606                	sw	ra,12(sp)
    526c:	e6bff0ef          	jal	ra,50d6 <ELRS_Convert_angle>
    5270:	8741a503          	lw	a0,-1932(gp) # 2000012c <CrsfChannels>
    5274:	84a1a427          	fsw	fa0,-1976(gp) # 20000100 <Yaw>
    5278:	e5fff0ef          	jal	ra,50d6 <ELRS_Convert_angle>
    527c:	4048                	lw	a0,4(s0)
    527e:	84a1a027          	fsw	fa0,-1984(gp) # 200000f8 <Roll>
    5282:	e55ff0ef          	jal	ra,50d6 <ELRS_Convert_angle>
    5286:	4408                	lw	a0,8(s0)
    5288:	82a1ae27          	fsw	fa0,-1988(gp) # 200000f4 <Pitch>
    528c:	e7bff0ef          	jal	ra,5106 <ELRS_Convert_throttle>
    5290:	84a19223          	sh	a0,-1980(gp) # 200000fc <Throttle>
    5294:	eabff0ef          	jal	ra,513e <ELRS_Convert_lock>
    5298:	ebdff0ef          	jal	ra,5154 <ELRS_Convert_flight_mode>
    529c:	4422                	lw	s0,8(sp)
    529e:	40b2                	lw	ra,12(sp)
    52a0:	4492                	lw	s1,4(sp)
    52a2:	0141                	addi	sp,sp,16
    52a4:	f9bff06f          	j	523e <Check_control_mode>

000052a8 <Flight_control>:
    52a8:	1101                	addi	sp,sp,-32
    52aa:	ce06                	sw	ra,28(sp)
    52ac:	cc22                	sw	s0,24(sp)
    52ae:	ca26                	sw	s1,20(sp)
    52b0:	c84a                	sw	s2,16(sp)
    52b2:	c64e                	sw	s3,12(sp)
    52b4:	ecfff0ef          	jal	ra,5182 <Roll_outerloop_ctr>
    52b8:	eedff0ef          	jal	ra,51a4 <Roll_innerloop_ctr>
    52bc:	f3fff0ef          	jal	ra,51fa <Pitch_outerloop_ctr>
    52c0:	f61ff0ef          	jal	ra,5220 <Pitch_innerloop_ctr>
    52c4:	efbff0ef          	jal	ra,51be <Yaw_outerloop_ctr>
    52c8:	f15ff0ef          	jal	ra,51dc <Yaw_innerloop_ctr>
    52cc:	8d41a787          	flw	fa5,-1836(gp) # 2000018c <MPU6050_para_filted>
    52d0:	8441d503          	lhu	a0,-1980(gp) # 200000fc <Throttle>
    52d4:	82f1a827          	fsw	fa5,-2000(gp) # 200000e8 <Mech_zero_yaw>
    52d8:	0b41a507          	flw	fa0,180(gp) # 2000096c <PID_pitch_innerloop+0x24>
    52dc:	d00577d3          	fcvt.s.w	fa5,a0
    52e0:	f241a587          	flw	fa1,-220(gp) # 200007dc <PID_roll_innerloop+0x24>
    52e4:	00a7f753          	fadd.s	fa4,fa5,fa0
    52e8:	0141a607          	flw	fa2,20(gp) # 200008cc <__global_pointer$+0x14>
    52ec:	08a7f7d3          	fsub.s	fa5,fa5,fa0
    52f0:	00b776d3          	fadd.s	fa3,fa4,fa1
    52f4:	08b77753          	fsub.s	fa4,fa4,fa1
    52f8:	00c6f6d3          	fadd.s	fa3,fa3,fa2
    52fc:	08c77753          	fsub.s	fa4,fa4,fa2
    5300:	6585                	lui	a1,0x1
    5302:	b4058593          	addi	a1,a1,-1216 # b40 <GPIO_TogglePin+0x6>
    5306:	84418493          	addi	s1,gp,-1980 # 200000fc <Throttle>
    530a:	c0169653          	fcvt.wu.s	a2,fa3,rtz
    530e:	c0171753          	fcvt.wu.s	a4,fa4,rtz
    5312:	00f5f753          	fadd.s	fa4,fa1,fa5
    5316:	08b7f7d3          	fsub.s	fa5,fa5,fa1
    531a:	0642                	slli	a2,a2,0x10
    531c:	0742                	slli	a4,a4,0x10
    531e:	8241                	srli	a2,a2,0x10
    5320:	08c77753          	fsub.s	fa4,fa4,fa2
    5324:	08c7f7d3          	fsub.s	fa5,fa5,fa2
    5328:	8341                	srli	a4,a4,0x10
    532a:	82c19a23          	sh	a2,-1996(gp) # 200000ec <PWM_Out1>
    532e:	82e19b23          	sh	a4,-1994(gp) # 200000ee <PWM_Out2>
    5332:	c01716d3          	fcvt.wu.s	a3,fa4,rtz
    5336:	c01797d3          	fcvt.wu.s	a5,fa5,rtz
    533a:	83418813          	addi	a6,gp,-1996 # 200000ec <PWM_Out1>
    533e:	06c2                	slli	a3,a3,0x10
    5340:	07c2                	slli	a5,a5,0x10
    5342:	82c1                	srli	a3,a3,0x10
    5344:	83c1                	srli	a5,a5,0x10
    5346:	82d19c23          	sh	a3,-1992(gp) # 200000f0 <PWM_Out3>
    534a:	82f19d23          	sh	a5,-1990(gp) # 200000f2 <PWM_Out4>
    534e:	83618993          	addi	s3,gp,-1994 # 200000ee <PWM_Out2>
    5352:	83818913          	addi	s2,gp,-1992 # 200000f0 <PWM_Out3>
    5356:	83a18413          	addi	s0,gp,-1990 # 200000f2 <PWM_Out4>
    535a:	06c5f863          	bgeu	a1,a2,53ca <Flight_control+0x122>
    535e:	00b81023          	sh	a1,0(a6)
    5362:	6605                	lui	a2,0x1
    5364:	b4060613          	addi	a2,a2,-1216 # b40 <GPIO_TogglePin+0x6>
    5368:	06e67a63          	bgeu	a2,a4,53dc <Flight_control+0x134>
    536c:	00c99023          	sh	a2,0(s3)
    5370:	6705                	lui	a4,0x1
    5372:	b4070713          	addi	a4,a4,-1216 # b40 <GPIO_TogglePin+0x6>
    5376:	06d77c63          	bgeu	a4,a3,53ee <Flight_control+0x146>
    537a:	00e91023          	sh	a4,0(s2)
    537e:	6705                	lui	a4,0x1
    5380:	b4070713          	addi	a4,a4,-1216 # b40 <GPIO_TogglePin+0x6>
    5384:	06f77c63          	bgeu	a4,a5,53fc <Flight_control+0x154>
    5388:	00e41023          	sh	a4,0(s0)
    538c:	8141a783          	lw	a5,-2028(gp) # 200000cc <CONTROL_MODE>
    5390:	4705                	li	a4,1
    5392:	06e79e63          	bne	a5,a4,540e <Flight_control+0x166>
    5396:	00085503          	lhu	a0,0(a6)
    539a:	4585                	li	a1,1
    539c:	97eff0ef          	jal	ra,451a <Motor_ctr>
    53a0:	0009d503          	lhu	a0,0(s3)
    53a4:	4589                	li	a1,2
    53a6:	974ff0ef          	jal	ra,451a <Motor_ctr>
    53aa:	00095503          	lhu	a0,0(s2)
    53ae:	458d                	li	a1,3
    53b0:	96aff0ef          	jal	ra,451a <Motor_ctr>
    53b4:	00045503          	lhu	a0,0(s0)
    53b8:	4591                	li	a1,4
    53ba:	4462                	lw	s0,24(sp)
    53bc:	40f2                	lw	ra,28(sp)
    53be:	44d2                	lw	s1,20(sp)
    53c0:	4942                	lw	s2,16(sp)
    53c2:	49b2                	lw	s3,12(sp)
    53c4:	6105                	addi	sp,sp,32
    53c6:	954ff06f          	j	451a <Motor_ctr>
    53ca:	59f00593          	li	a1,1439
    53ce:	f8c5eae3          	bltu	a1,a2,5362 <Flight_control+0xba>
    53d2:	5a000613          	li	a2,1440
    53d6:	00c81023          	sh	a2,0(a6)
    53da:	b761                	j	5362 <Flight_control+0xba>
    53dc:	59f00613          	li	a2,1439
    53e0:	f8e668e3          	bltu	a2,a4,5370 <Flight_control+0xc8>
    53e4:	5a000713          	li	a4,1440
    53e8:	00e99023          	sh	a4,0(s3)
    53ec:	b751                	j	5370 <Flight_control+0xc8>
    53ee:	59f00713          	li	a4,1439
    53f2:	f8d766e3          	bltu	a4,a3,537e <Flight_control+0xd6>
    53f6:	5a000713          	li	a4,1440
    53fa:	b741                	j	537a <Flight_control+0xd2>
    53fc:	59f00713          	li	a4,1439
    5400:	f8f766e3          	bltu	a4,a5,538c <Flight_control+0xe4>
    5404:	5a000793          	li	a5,1440
    5408:	00f41023          	sh	a5,0(s0)
    540c:	b741                	j	538c <Flight_control+0xe4>
    540e:	4709                	li	a4,2
    5410:	02e79363          	bne	a5,a4,5436 <Flight_control+0x18e>
    5414:	4585                	li	a1,1
    5416:	904ff0ef          	jal	ra,451a <Motor_ctr>
    541a:	0004d503          	lhu	a0,0(s1)
    541e:	4589                	li	a1,2
    5420:	8faff0ef          	jal	ra,451a <Motor_ctr>
    5424:	0004d503          	lhu	a0,0(s1)
    5428:	458d                	li	a1,3
    542a:	8f0ff0ef          	jal	ra,451a <Motor_ctr>
    542e:	4591                	li	a1,4
    5430:	0004d503          	lhu	a0,0(s1)
    5434:	b759                	j	53ba <Flight_control+0x112>
    5436:	40f2                	lw	ra,28(sp)
    5438:	4462                	lw	s0,24(sp)
    543a:	44d2                	lw	s1,20(sp)
    543c:	4942                	lw	s2,16(sp)
    543e:	49b2                	lw	s3,12(sp)
    5440:	6105                	addi	sp,sp,32
    5442:	8082                	ret

00005444 <Stop_motor>:
    5444:	1141                	addi	sp,sp,-16
    5446:	4585                	li	a1,1
    5448:	5a000513          	li	a0,1440
    544c:	c606                	sw	ra,12(sp)
    544e:	8ccff0ef          	jal	ra,451a <Motor_ctr>
    5452:	4589                	li	a1,2
    5454:	5a000513          	li	a0,1440
    5458:	8c2ff0ef          	jal	ra,451a <Motor_ctr>
    545c:	458d                	li	a1,3
    545e:	5a000513          	li	a0,1440
    5462:	8b8ff0ef          	jal	ra,451a <Motor_ctr>
    5466:	40b2                	lw	ra,12(sp)
    5468:	4591                	li	a1,4
    546a:	5a000513          	li	a0,1440
    546e:	0141                	addi	sp,sp,16
    5470:	8aaff06f          	j	451a <Motor_ctr>

00005474 <pid_reset>:
    5474:	00052023          	sw	zero,0(a0)
    5478:	00052223          	sw	zero,4(a0)
    547c:	00052423          	sw	zero,8(a0)
    5480:	00052623          	sw	zero,12(a0)
    5484:	00052823          	sw	zero,16(a0)
    5488:	00052c23          	sw	zero,24(a0)
    548c:	00052a23          	sw	zero,20(a0)
    5490:	02052223          	sw	zero,36(a0)
    5494:	02052423          	sw	zero,40(a0)
    5498:	02052623          	sw	zero,44(a0)
    549c:	02052823          	sw	zero,48(a0)
    54a0:	8082                	ret

000054a2 <pid_init>:
    54a2:	04052023          	sw	zero,64(a0)
    54a6:	02052e23          	sw	zero,60(a0)
    54aa:	02052c23          	sw	zero,56(a0)
    54ae:	02052223          	sw	zero,36(a0)
    54b2:	02052823          	sw	zero,48(a0)
    54b6:	02052623          	sw	zero,44(a0)
    54ba:	02052423          	sw	zero,40(a0)
    54be:	04052623          	sw	zero,76(a0)
    54c2:	04052423          	sw	zero,72(a0)
    54c6:	04052223          	sw	zero,68(a0)
    54ca:	8082                	ret

000054cc <pid_clc>:
    54cc:	04052623          	sw	zero,76(a0)
    54d0:	04052423          	sw	zero,72(a0)
    54d4:	04052223          	sw	zero,68(a0)
    54d8:	04052023          	sw	zero,64(a0)
    54dc:	02052e23          	sw	zero,60(a0)
    54e0:	02052c23          	sw	zero,56(a0)
    54e4:	02052823          	sw	zero,48(a0)
    54e8:	02052623          	sw	zero,44(a0)
    54ec:	02052423          	sw	zero,40(a0)
    54f0:	02052223          	sw	zero,36(a0)
    54f4:	00052e23          	sw	zero,28(a0)
    54f8:	02052023          	sw	zero,32(a0)
    54fc:	8082                	ret

000054fe <pid_calc>:
    54fe:	f10c                	fsw	fa1,32(a0)
    5500:	08b575d3          	fsub.s	fa1,fa0,fa1
    5504:	7554                	flw	fa3,44(a0)
    5506:	6150                	flw	fa2,4(a0)
    5508:	653c                	flw	fa5,72(a0)
    550a:	6118                	flw	fa4,0(a0)
    550c:	68c5f643          	fmadd.s	fa2,fa1,fa2,fa3
    5510:	7d54                	flw	fa3,60(a0)
    5512:	e57c                	fsw	fa5,76(a0)
    5514:	617c                	flw	fa5,68(a0)
    5516:	e134                	fsw	fa3,64(a0)
    5518:	7d14                	flw	fa3,56(a0)
    551a:	e53c                	fsw	fa5,72(a0)
    551c:	08f5f7d3          	fsub.s	fa5,fa1,fa5
    5520:	fd54                	fsw	fa3,60(a0)
    5522:	6514                	flw	fa3,8(a0)
    5524:	10e5f753          	fmul.s	fa4,fa1,fa4
    5528:	ed48                	fsw	fa0,28(a0)
    552a:	10d7f6d3          	fmul.s	fa3,fa5,fa3
    552e:	fd1c                	fsw	fa5,56(a0)
    5530:	695c                	flw	fa5,20(a0)
    5532:	e16c                	fsw	fa1,68(a0)
    5534:	f518                	fsw	fa4,40(a0)
    5536:	a0c797d3          	flt.s	a5,fa5,fa2
    553a:	f550                	fsw	fa2,44(a0)
    553c:	f914                	fsw	fa3,48(a0)
    553e:	c399                	beqz	a5,5544 <pid_calc+0x46>
    5540:	f55c                	fsw	fa5,44(a0)
    5542:	a029                	j	554c <pid_calc+0x4e>
    5544:	6d1c                	flw	fa5,24(a0)
    5546:	a0f617d3          	flt.s	a5,fa2,fa5
    554a:	fbfd                	bnez	a5,5540 <pid_calc+0x42>
    554c:	755c                	flw	fa5,44(a0)
    554e:	00f777d3          	fadd.s	fa5,fa4,fa5
    5552:	6558                	flw	fa4,12(a0)
    5554:	00d7f7d3          	fadd.s	fa5,fa5,fa3
    5558:	a0f717d3          	flt.s	a5,fa4,fa5
    555c:	f15c                	fsw	fa5,36(a0)
    555e:	c399                	beqz	a5,5564 <pid_calc+0x66>
    5560:	f158                	fsw	fa4,36(a0)
    5562:	a029                	j	556c <pid_calc+0x6e>
    5564:	6918                	flw	fa4,16(a0)
    5566:	a0e797d3          	flt.s	a5,fa5,fa4
    556a:	fbfd                	bnez	a5,5560 <pid_calc+0x62>
    556c:	795c                	flw	fa5,52(a0)
    556e:	a0f587d3          	fle.s	a5,fa1,fa5
    5572:	cb91                	beqz	a5,5586 <pid_calc+0x88>
    5574:	20f797d3          	fneg.s	fa5,fa5
    5578:	a0b787d3          	fle.s	a5,fa5,fa1
    557c:	c789                	beqz	a5,5586 <pid_calc+0x88>
    557e:	02052223          	sw	zero,36(a0)
    5582:	02052623          	sw	zero,44(a0)
    5586:	8082                	ret

00005588 <System_Init>:
    5588:	1141                	addi	sp,sp,-16
    558a:	c606                	sw	ra,12(sp)
    558c:	c422                	sw	s0,8(sp)
    558e:	bd8ff0ef          	jal	ra,4966 <USARTx_CFG>
    5592:	f82fe0ef          	jal	ra,3d14 <MPU6050_Init>
    5596:	fd75                	bnez	a0,5592 <System_Init+0xa>
    5598:	f31fe0ef          	jal	ra,44c8 <PWM_Init>
    559c:	6409                	lui	s0,0x2
    559e:	d16fe0ef          	jal	ra,3ab4 <Bmp_Init>
    55a2:	d0dfe0ef          	jal	ra,42ae <BAT_ADC_Init>
    55a6:	977ff0ef          	jal	ra,4f1c <PIDSTRUCT_Init>
    55aa:	dd1fe0ef          	jal	ra,437a <LED_Init>
    55ae:	c1f40593          	addi	a1,s0,-993 # 1c1f <mpu_reset_fifo+0x4b>
    55b2:	454d                	li	a0,19
    55b4:	8aeff0ef          	jal	ra,4662 <TIM3_Init>
    55b8:	c1f40593          	addi	a1,s0,-993
    55bc:	1f300513          	li	a0,499
    55c0:	92aff0ef          	jal	ra,46ea <TIM4_Init>
    55c4:	4422                	lw	s0,8(sp)
    55c6:	40b2                	lw	ra,12(sp)
    55c8:	0000a537          	lui	a0,0xa
    55cc:	bdc50513          	addi	a0,a0,-1060 # 9bdc <dmp_memory+0xdcc>
    55d0:	0141                	addi	sp,sp,16
    55d2:	0c80106f          	j	669a <puts>

000055d6 <System_Loop>:
    55d6:	8082                	ret

000055d8 <Delay_Init>:
    55d8:	8081a783          	lw	a5,-2040(gp) # 200000c0 <SystemCoreClock>
    55dc:	007a1737          	lui	a4,0x7a1
    55e0:	20070713          	addi	a4,a4,512 # 7a1200 <_data_lma+0x797404>
    55e4:	02e7d7b3          	divu	a5,a5,a4
    55e8:	0ff7f793          	andi	a5,a5,255
    55ec:	84f18723          	sb	a5,-1970(gp) # 20000106 <p_us>
    55f0:	3e800713          	li	a4,1000
    55f4:	02e787b3          	mul	a5,a5,a4
    55f8:	84f19623          	sh	a5,-1972(gp) # 20000104 <p_ms>
    55fc:	8082                	ret

000055fe <Delay_Us>:
    55fe:	e000f7b7          	lui	a5,0xe000f
    5602:	43d8                	lw	a4,4(a5)
    5604:	4681                	li	a3,0
    5606:	9b79                	andi	a4,a4,-2
    5608:	c3d8                	sw	a4,4(a5)
    560a:	84e1c703          	lbu	a4,-1970(gp) # 20000106 <p_us>
    560e:	02a70633          	mul	a2,a4,a0
    5612:	cb90                	sw	a2,16(a5)
    5614:	cbd4                	sw	a3,20(a5)
    5616:	4398                	lw	a4,0(a5)
    5618:	01076713          	ori	a4,a4,16
    561c:	c398                	sw	a4,0(a5)
    561e:	4398                	lw	a4,0(a5)
    5620:	02176713          	ori	a4,a4,33
    5624:	c398                	sw	a4,0(a5)
    5626:	43d8                	lw	a4,4(a5)
    5628:	8b05                	andi	a4,a4,1
    562a:	df75                	beqz	a4,5626 <Delay_Us+0x28>
    562c:	4398                	lw	a4,0(a5)
    562e:	9b79                	andi	a4,a4,-2
    5630:	c398                	sw	a4,0(a5)
    5632:	8082                	ret

00005634 <Delay_Ms>:
    5634:	e000f7b7          	lui	a5,0xe000f
    5638:	43d8                	lw	a4,4(a5)
    563a:	4681                	li	a3,0
    563c:	9b79                	andi	a4,a4,-2
    563e:	c3d8                	sw	a4,4(a5)
    5640:	84c1d703          	lhu	a4,-1972(gp) # 20000104 <p_ms>
    5644:	02a70633          	mul	a2,a4,a0
    5648:	cb90                	sw	a2,16(a5)
    564a:	cbd4                	sw	a3,20(a5)
    564c:	4398                	lw	a4,0(a5)
    564e:	01076713          	ori	a4,a4,16
    5652:	c398                	sw	a4,0(a5)
    5654:	4398                	lw	a4,0(a5)
    5656:	02176713          	ori	a4,a4,33
    565a:	c398                	sw	a4,0(a5)
    565c:	43d8                	lw	a4,4(a5)
    565e:	8b05                	andi	a4,a4,1
    5660:	df75                	beqz	a4,565c <Delay_Ms+0x28>
    5662:	4398                	lw	a4,0(a5)
    5664:	9b79                	andi	a4,a4,-2
    5666:	c398                	sw	a4,0(a5)
    5668:	8082                	ret

0000566a <USART_Printf_Init>:
    566a:	7179                	addi	sp,sp,-48
    566c:	d422                	sw	s0,40(sp)
    566e:	842a                	mv	s0,a0
    5670:	6511                	lui	a0,0x4
    5672:	4585                	li	a1,1
    5674:	0511                	addi	a0,a0,4
    5676:	d606                	sw	ra,44(sp)
    5678:	a6bfb0ef          	jal	ra,10e2 <RCC_APB2PeriphClockCmd>
    567c:	20000793          	li	a5,512
    5680:	00f11223          	sh	a5,4(sp)
    5684:	40011537          	lui	a0,0x40011
    5688:	478d                	li	a5,3
    568a:	c43e                	sw	a5,8(sp)
    568c:	004c                	addi	a1,sp,4
    568e:	47e1                	li	a5,24
    5690:	80050513          	addi	a0,a0,-2048 # 40010800 <_eusrstack+0x20008800>
    5694:	c63e                	sw	a5,12(sp)
    5696:	cb2fb0ef          	jal	ra,b48 <GPIO_Init>
    569a:	c822                	sw	s0,16(sp)
    569c:	40014437          	lui	s0,0x40014
    56a0:	000807b7          	lui	a5,0x80
    56a4:	080c                	addi	a1,sp,16
    56a6:	80040513          	addi	a0,s0,-2048 # 40013800 <_eusrstack+0x2000b800>
    56aa:	cc3e                	sw	a5,24(sp)
    56ac:	ca02                	sw	zero,20(sp)
    56ae:	00011e23          	sh	zero,28(sp)
    56b2:	f1bfb0ef          	jal	ra,15cc <USART_Init>
    56b6:	80040513          	addi	a0,s0,-2048
    56ba:	4585                	li	a1,1
    56bc:	fe9fb0ef          	jal	ra,16a4 <USART_Cmd>
    56c0:	50b2                	lw	ra,44(sp)
    56c2:	5422                	lw	s0,40(sp)
    56c4:	6145                	addi	sp,sp,48
    56c6:	8082                	ret

000056c8 <_write>:
    56c8:	1101                	addi	sp,sp,-32
    56ca:	ca26                	sw	s1,20(sp)
    56cc:	400144b7          	lui	s1,0x40014
    56d0:	cc22                	sw	s0,24(sp)
    56d2:	c84a                	sw	s2,16(sp)
    56d4:	c64e                	sw	s3,12(sp)
    56d6:	ce06                	sw	ra,28(sp)
    56d8:	89ae                	mv	s3,a1
    56da:	8932                	mv	s2,a2
    56dc:	4401                	li	s0,0
    56de:	80048493          	addi	s1,s1,-2048 # 40013800 <_eusrstack+0x2000b800>
    56e2:	01244a63          	blt	s0,s2,56f6 <_write+0x2e>
    56e6:	40f2                	lw	ra,28(sp)
    56e8:	4462                	lw	s0,24(sp)
    56ea:	854a                	mv	a0,s2
    56ec:	44d2                	lw	s1,20(sp)
    56ee:	4942                	lw	s2,16(sp)
    56f0:	49b2                	lw	s3,12(sp)
    56f2:	6105                	addi	sp,sp,32
    56f4:	8082                	ret
    56f6:	04000593          	li	a1,64
    56fa:	8526                	mv	a0,s1
    56fc:	80efc0ef          	jal	ra,170a <USART_GetFlagStatus>
    5700:	d97d                	beqz	a0,56f6 <_write+0x2e>
    5702:	008987b3          	add	a5,s3,s0
    5706:	00078583          	lb	a1,0(a5) # 80000 <_data_lma+0x76204>
    570a:	8526                	mv	a0,s1
    570c:	0405                	addi	s0,s0,1
    570e:	05c2                	slli	a1,a1,0x10
    5710:	81c1                	srli	a1,a1,0x10
    5712:	fe5fb0ef          	jal	ra,16f6 <USART_SendData>
    5716:	b7f1                	j	56e2 <_write+0x1a>

00005718 <asinf>:
    5718:	715d                	addi	sp,sp,-80
    571a:	c4a2                	sw	s0,72(sp)
    571c:	fe22                	fsw	fs0,60(sp)
    571e:	fc26                	fsw	fs1,56(sp)
    5720:	c686                	sw	ra,76(sp)
    5722:	82018413          	addi	s0,gp,-2016 # 200000d8 <__fdlib_version>
    5726:	20a50453          	fmv.s	fs0,fa0
    572a:	207d                	jal	57d8 <__ieee754_asinf>
    572c:	4018                	lw	a4,0(s0)
    572e:	57fd                	li	a5,-1
    5730:	20a504d3          	fmv.s	fs1,fa0
    5734:	00f70f63          	beq	a4,a5,5752 <asinf+0x3a>
    5738:	a08427d3          	feq.s	a5,fs0,fs0
    573c:	cb99                	beqz	a5,5752 <asinf+0x3a>
    573e:	20840553          	fmv.s	fa0,fs0
    5742:	2761                	jal	5eca <fabsf>
    5744:	00003797          	auipc	a5,0x3
    5748:	6687a787          	flw	fa5,1640(a5) # 8dac <hw+0xe0>
    574c:	a0a797d3          	flt.s	a5,fa5,fa0
    5750:	eb89                	bnez	a5,5762 <asinf+0x4a>
    5752:	40b6                	lw	ra,76(sp)
    5754:	4426                	lw	s0,72(sp)
    5756:	20948553          	fmv.s	fa0,fs1
    575a:	7472                	flw	fs0,60(sp)
    575c:	74e2                	flw	fs1,56(sp)
    575e:	6161                	addi	sp,sp,80
    5760:	8082                	ret
    5762:	20840553          	fmv.s	fa0,fs0
    5766:	4785                	li	a5,1
    5768:	c43e                	sw	a5,8(sp)
    576a:	00004797          	auipc	a5,0x4
    576e:	48678793          	addi	a5,a5,1158 # 9bf0 <dmp_memory+0xde0>
    5772:	c63e                	sw	a5,12(sp)
    5774:	d402                	sw	zero,40(sp)
    5776:	75b020ef          	jal	ra,86d0 <__extendsfdf2>
    577a:	872a                	mv	a4,a0
    577c:	00004517          	auipc	a0,0x4
    5780:	34850513          	addi	a0,a0,840 # 9ac4 <dmp_memory+0xcb4>
    5784:	cc3a                	sw	a4,24(sp)
    5786:	c83a                	sw	a4,16(sp)
    5788:	ce2e                	sw	a1,28(sp)
    578a:	ca2e                	sw	a1,20(sp)
    578c:	2335                	jal	5cb8 <nan>
    578e:	4018                	lw	a4,0(s0)
    5790:	d02a                	sw	a0,32(sp)
    5792:	d22e                	sw	a1,36(sp)
    5794:	4789                	li	a5,2
    5796:	02f70563          	beq	a4,a5,57c0 <asinf+0xa8>
    579a:	0028                	addi	a0,sp,8
    579c:	2b21                	jal	5cb4 <matherr>
    579e:	c10d                	beqz	a0,57c0 <asinf+0xa8>
    57a0:	57a2                	lw	a5,40(sp)
    57a2:	e78d                	bnez	a5,57cc <asinf+0xb4>
    57a4:	5502                	lw	a0,32(sp)
    57a6:	5592                	lw	a1,36(sp)
    57a8:	010030ef          	jal	ra,87b8 <__truncdfsf2>
    57ac:	20a504d3          	fmv.s	fs1,fa0
    57b0:	40b6                	lw	ra,76(sp)
    57b2:	4426                	lw	s0,72(sp)
    57b4:	20948553          	fmv.s	fa0,fs1
    57b8:	7472                	flw	fs0,60(sp)
    57ba:	74e2                	flw	fs1,56(sp)
    57bc:	6161                	addi	sp,sp,80
    57be:	8082                	ret
    57c0:	38c030ef          	jal	ra,8b4c <__errno>
    57c4:	02100793          	li	a5,33
    57c8:	c11c                	sw	a5,0(a0)
    57ca:	bfd9                	j	57a0 <asinf+0x88>
    57cc:	380030ef          	jal	ra,8b4c <__errno>
    57d0:	57a2                	lw	a5,40(sp)
    57d2:	c11c                	sw	a5,0(a0)
    57d4:	bfc1                	j	57a4 <asinf+0x8c>

000057d6 <atan2f>:
    57d6:	ac91                	j	5a2a <__ieee754_atan2f>

000057d8 <__ieee754_asinf>:
    57d8:	e00507d3          	fmv.x.w	a5,fa0
    57dc:	1101                	addi	sp,sp,-32
    57de:	cc22                	sw	s0,24(sp)
    57e0:	00179413          	slli	s0,a5,0x1
    57e4:	ce06                	sw	ra,28(sp)
    57e6:	ca26                	sw	s1,20(sp)
    57e8:	e622                	fsw	fs0,12(sp)
    57ea:	e426                	fsw	fs1,8(sp)
    57ec:	e24a                	fsw	fs2,4(sp)
    57ee:	e04e                	fsw	fs3,0(sp)
    57f0:	3f800737          	lui	a4,0x3f800
    57f4:	8005                	srli	s0,s0,0x1
    57f6:	12e40463          	beq	s0,a4,591e <__ieee754_asinf+0x146>
    57fa:	10874d63          	blt	a4,s0,5914 <__ieee754_asinf+0x13c>
    57fe:	3f000737          	lui	a4,0x3f000
    5802:	84be                	mv	s1,a5
    5804:	12e45e63          	bge	s0,a4,5940 <__ieee754_asinf+0x168>
    5808:	32000737          	lui	a4,0x32000
    580c:	18e45663          	bge	s0,a4,5998 <__ieee754_asinf+0x1c0>
    5810:	00004717          	auipc	a4,0x4
    5814:	3f072787          	flw	fa5,1008(a4) # 9c00 <dmp_memory+0xdf0>
    5818:	00f577d3          	fadd.s	fa5,fa0,fa5
    581c:	00003717          	auipc	a4,0x3
    5820:	59072987          	flw	fs3,1424(a4) # 8dac <hw+0xe0>
    5824:	a0f99753          	flt.s	a4,fs3,fa5
    5828:	ef69                	bnez	a4,5902 <__ieee754_asinf+0x12a>
    582a:	f0078553          	fmv.w.x	fa0,a5
    582e:	2d71                	jal	5eca <fabsf>
    5830:	08a9f553          	fsub.s	fa0,fs3,fa0
    5834:	00004797          	auipc	a5,0x4
    5838:	3707a407          	flw	fs0,880(a5) # 9ba4 <dmp_memory+0xd94>
    583c:	00004797          	auipc	a5,0x4
    5840:	3cc7a607          	flw	fa2,972(a5) # 9c08 <dmp_memory+0xdf8>
    5844:	00004797          	auipc	a5,0x4
    5848:	3c07a787          	flw	fa5,960(a5) # 9c04 <dmp_memory+0xdf4>
    584c:	00004797          	auipc	a5,0x4
    5850:	3c07a487          	flw	fs1,960(a5) # 9c0c <dmp_memory+0xdfc>
    5854:	10857453          	fmul.s	fs0,fa0,fs0
    5858:	00004797          	auipc	a5,0x4
    585c:	3c87a707          	flw	fa4,968(a5) # 9c20 <dmp_memory+0xe10>
    5860:	00004797          	auipc	a5,0x4
    5864:	3b07a587          	flw	fa1,944(a5) # 9c10 <dmp_memory+0xe00>
    5868:	00004797          	auipc	a5,0x4
    586c:	3b47a907          	flw	fs2,948(a5) # 9c1c <dmp_memory+0xe0c>
    5870:	00004797          	auipc	a5,0x4
    5874:	3b47a507          	flw	fa0,948(a5) # 9c24 <dmp_memory+0xe14>
    5878:	60f477c3          	fmadd.s	fa5,fs0,fa5,fa2
    587c:	71247943          	fmadd.s	fs2,fs0,fs2,fa4
    5880:	00004797          	auipc	a5,0x4
    5884:	3947a687          	flw	fa3,916(a5) # 9c14 <dmp_memory+0xe04>
    5888:	00004797          	auipc	a5,0x4
    588c:	3907a707          	flw	fa4,912(a5) # 9c18 <dmp_memory+0xe08>
    5890:	00004797          	auipc	a5,0x4
    5894:	3987a607          	flw	fa2,920(a5) # 9c28 <dmp_memory+0xe18>
    5898:	4887f4c3          	fmadd.s	fs1,fa5,fs0,fs1
    589c:	50897943          	fmadd.s	fs2,fs2,fs0,fa0
    58a0:	20840553          	fmv.s	fa0,fs0
    58a4:	5884f4c3          	fmadd.s	fs1,fs1,fs0,fa1
    58a8:	60897943          	fmadd.s	fs2,fs2,fs0,fa2
    58ac:	6884f4c3          	fmadd.s	fs1,fs1,fs0,fa3
    58b0:	98897943          	fmadd.s	fs2,fs2,fs0,fs3
    58b4:	7084f4c3          	fmadd.s	fs1,fs1,fs0,fa4
    58b8:	2e05                	jal	5be8 <__ieee754_sqrtf>
    58ba:	3f79a737          	lui	a4,0x3f79a
    58be:	99970713          	addi	a4,a4,-1639 # 3f799999 <_eusrstack+0x1f791999>
    58c2:	e00507d3          	fmv.x.w	a5,fa0
    58c6:	1084f4d3          	fmul.s	fs1,fs1,fs0
    58ca:	08875063          	bge	a4,s0,594a <__ieee754_asinf+0x172>
    58ce:	1924f4d3          	fdiv.s	fs1,fs1,fs2
    58d2:	f00786d3          	fmv.w.x	fa3,a5
    58d6:	00004717          	auipc	a4,0x4
    58da:	35672707          	flw	fa4,854(a4) # 9c2c <dmp_memory+0xe1c>
    58de:	00004717          	auipc	a4,0x4
    58e2:	35272787          	flw	fa5,850(a4) # 9c30 <dmp_memory+0xe20>
    58e6:	00004717          	auipc	a4,0x4
    58ea:	31672507          	flw	fa0,790(a4) # 9bfc <dmp_memory+0xdec>
    58ee:	6896f4c3          	fmadd.s	fs1,fa3,fs1,fa3
    58f2:	78e4f4c3          	fmadd.s	fs1,fs1,fa4,fa5
    58f6:	08957553          	fsub.s	fa0,fa0,fs1
    58fa:	00904463          	bgtz	s1,5902 <__ieee754_asinf+0x12a>
    58fe:	20a51553          	fneg.s	fa0,fa0
    5902:	40f2                	lw	ra,28(sp)
    5904:	4462                	lw	s0,24(sp)
    5906:	44d2                	lw	s1,20(sp)
    5908:	6432                	flw	fs0,12(sp)
    590a:	64a2                	flw	fs1,8(sp)
    590c:	6912                	flw	fs2,4(sp)
    590e:	6982                	flw	fs3,0(sp)
    5910:	6105                	addi	sp,sp,32
    5912:	8082                	ret
    5914:	08a57553          	fsub.s	fa0,fa0,fa0
    5918:	18a57553          	fdiv.s	fa0,fa0,fa0
    591c:	b7dd                	j	5902 <__ieee754_asinf+0x12a>
    591e:	f00787d3          	fmv.w.x	fa5,a5
    5922:	00004717          	auipc	a4,0x4
    5926:	2d672507          	flw	fa0,726(a4) # 9bf8 <dmp_memory+0xde8>
    592a:	f0078753          	fmv.w.x	fa4,a5
    592e:	10a7f553          	fmul.s	fa0,fa5,fa0
    5932:	00004717          	auipc	a4,0x4
    5936:	2ca72787          	flw	fa5,714(a4) # 9bfc <dmp_memory+0xdec>
    593a:	50f77543          	fmadd.s	fa0,fa4,fa5,fa0
    593e:	b7d1                	j	5902 <__ieee754_asinf+0x12a>
    5940:	00003717          	auipc	a4,0x3
    5944:	46c72987          	flw	fs3,1132(a4) # 8dac <hw+0xe0>
    5948:	b5cd                	j	582a <__ieee754_asinf+0x52>
    594a:	777d                	lui	a4,0xfffff
    594c:	8f7d                	and	a4,a4,a5
    594e:	f00707d3          	fmv.w.x	fa5,a4
    5952:	f0070753          	fmv.w.x	fa4,a4
    5956:	1924f4d3          	fdiv.s	fs1,fs1,fs2
    595a:	40f7f44b          	fnmsub.s	fs0,fa5,fa5,fs0
    595e:	00e575d3          	fadd.s	fa1,fa0,fa4
    5962:	00004697          	auipc	a3,0x4
    5966:	2ca6a687          	flw	fa3,714(a3) # 9c2c <dmp_memory+0xe1c>
    596a:	00004697          	auipc	a3,0x4
    596e:	28e6a607          	flw	fa2,654(a3) # 9bf8 <dmp_memory+0xde8>
    5972:	00a577d3          	fadd.s	fa5,fa0,fa0
    5976:	00004797          	auipc	a5,0x4
    597a:	2be7a507          	flw	fa0,702(a5) # 9c34 <dmp_memory+0xe24>
    597e:	50d7774b          	fnmsub.s	fa4,fa4,fa3,fa0
    5982:	18b47453          	fdiv.s	fs0,fs0,fa1
    5986:	60d4744b          	fnmsub.s	fs0,fs0,fa3,fa2
    598a:	4097f4c7          	fmsub.s	fs1,fa5,fs1,fs0
    598e:	08e4f4d3          	fsub.s	fs1,fs1,fa4
    5992:	08957553          	fsub.s	fa0,fa0,fs1
    5996:	b795                	j	58fa <__ieee754_asinf+0x122>
    5998:	10a57753          	fmul.s	fa4,fa0,fa0
    599c:	00004717          	auipc	a4,0x4
    59a0:	26c72587          	flw	fa1,620(a4) # 9c08 <dmp_memory+0xdf8>
    59a4:	00004717          	auipc	a4,0x4
    59a8:	26072787          	flw	fa5,608(a4) # 9c04 <dmp_memory+0xdf4>
    59ac:	00004717          	auipc	a4,0x4
    59b0:	26072687          	flw	fa3,608(a4) # 9c0c <dmp_memory+0xdfc>
    59b4:	00004717          	auipc	a4,0x4
    59b8:	25c72607          	flw	fa2,604(a4) # 9c10 <dmp_memory+0xe00>
    59bc:	58f777c3          	fmadd.s	fa5,fa4,fa5,fa1
    59c0:	00004717          	auipc	a4,0x4
    59c4:	25c72507          	flw	fa0,604(a4) # 9c1c <dmp_memory+0xe0c>
    59c8:	00004717          	auipc	a4,0x4
    59cc:	25872587          	flw	fa1,600(a4) # 9c20 <dmp_memory+0xe10>
    59d0:	58a77543          	fmadd.s	fa0,fa4,fa0,fa1
    59d4:	00004717          	auipc	a4,0x4
    59d8:	25072007          	flw	ft0,592(a4) # 9c24 <dmp_memory+0xe14>
    59dc:	68e7f7c3          	fmadd.s	fa5,fa5,fa4,fa3
    59e0:	00004717          	auipc	a4,0x4
    59e4:	23472587          	flw	fa1,564(a4) # 9c14 <dmp_memory+0xe04>
    59e8:	00004717          	auipc	a4,0x4
    59ec:	23072687          	flw	fa3,560(a4) # 9c18 <dmp_memory+0xe08>
    59f0:	00e57543          	fmadd.s	fa0,fa0,fa4,ft0
    59f4:	00004717          	auipc	a4,0x4
    59f8:	23472007          	flw	ft0,564(a4) # 9c28 <dmp_memory+0xe18>
    59fc:	60e7f7c3          	fmadd.s	fa5,fa5,fa4,fa2
    5a00:	00003717          	auipc	a4,0x3
    5a04:	3ac72607          	flw	fa2,940(a4) # 8dac <hw+0xe0>
    5a08:	00e57543          	fmadd.s	fa0,fa0,fa4,ft0
    5a0c:	58e7f7c3          	fmadd.s	fa5,fa5,fa4,fa1
    5a10:	60e57543          	fmadd.s	fa0,fa0,fa4,fa2
    5a14:	68e7f7c3          	fmadd.s	fa5,fa5,fa4,fa3
    5a18:	10e7f7d3          	fmul.s	fa5,fa5,fa4
    5a1c:	18a7f553          	fdiv.s	fa0,fa5,fa0
    5a20:	f00787d3          	fmv.w.x	fa5,a5
    5a24:	78a7f543          	fmadd.s	fa0,fa5,fa0,fa5
    5a28:	bde9                	j	5902 <__ieee754_asinf+0x12a>

00005a2a <__ieee754_atan2f>:
    5a2a:	e0058753          	fmv.x.w	a4,fa1
    5a2e:	800007b7          	lui	a5,0x80000
    5a32:	fff7c793          	not	a5,a5
    5a36:	00e7f5b3          	and	a1,a5,a4
    5a3a:	7f800637          	lui	a2,0x7f800
    5a3e:	e00506d3          	fmv.x.w	a3,fa0
    5a42:	04b64963          	blt	a2,a1,5a94 <__ieee754_atan2f+0x6a>
    5a46:	8ff5                	and	a5,a5,a3
    5a48:	88b6                	mv	a7,a3
    5a4a:	04f64563          	blt	a2,a5,5a94 <__ieee754_atan2f+0x6a>
    5a4e:	3f800837          	lui	a6,0x3f800
    5a52:	11070963          	beq	a4,a6,5b64 <__ieee754_atan2f+0x13a>
    5a56:	1141                	addi	sp,sp,-16
    5a58:	c422                	sw	s0,8(sp)
    5a5a:	41e75413          	srai	s0,a4,0x1e
    5a5e:	8809                	andi	s0,s0,2
    5a60:	01f6d813          	srli	a6,a3,0x1f
    5a64:	c606                	sw	ra,12(sp)
    5a66:	01046433          	or	s0,s0,a6
    5a6a:	ef95                	bnez	a5,5aa6 <__ieee754_atan2f+0x7c>
    5a6c:	4789                	li	a5,2
    5a6e:	0cf40063          	beq	s0,a5,5b2e <__ieee754_atan2f+0x104>
    5a72:	478d                	li	a5,3
    5a74:	e0050653          	fmv.x.w	a2,fa0
    5a78:	00f41863          	bne	s0,a5,5a88 <__ieee754_atan2f+0x5e>
    5a7c:	00004797          	auipc	a5,0x4
    5a80:	1c07a787          	flw	fa5,448(a5) # 9c3c <dmp_memory+0xe2c>
    5a84:	e0078653          	fmv.x.w	a2,fa5
    5a88:	40b2                	lw	ra,12(sp)
    5a8a:	4422                	lw	s0,8(sp)
    5a8c:	f0060553          	fmv.w.x	fa0,a2
    5a90:	0141                	addi	sp,sp,16
    5a92:	8082                	ret
    5a94:	f00707d3          	fmv.w.x	fa5,a4
    5a98:	f0068753          	fmv.w.x	fa4,a3
    5a9c:	00e7f7d3          	fadd.s	fa5,fa5,fa4
    5aa0:	20f78553          	fmv.s	fa0,fa5
    5aa4:	8082                	ret
    5aa6:	c5ad                	beqz	a1,5b10 <__ieee754_atan2f+0xe6>
    5aa8:	08c58a63          	beq	a1,a2,5b3c <__ieee754_atan2f+0x112>
    5aac:	06c78263          	beq	a5,a2,5b10 <__ieee754_atan2f+0xe6>
    5ab0:	8f8d                	sub	a5,a5,a1
    5ab2:	87dd                	srai	a5,a5,0x17
    5ab4:	03c00613          	li	a2,60
    5ab8:	0af64763          	blt	a2,a5,5b66 <__ieee754_atan2f+0x13c>
    5abc:	00075863          	bgez	a4,5acc <__ieee754_atan2f+0xa2>
    5ac0:	fc400593          	li	a1,-60
    5ac4:	00000613          	li	a2,0
    5ac8:	00b7cc63          	blt	a5,a1,5ae0 <__ieee754_atan2f+0xb6>
    5acc:	f0068553          	fmv.w.x	fa0,a3
    5ad0:	f00707d3          	fmv.w.x	fa5,a4
    5ad4:	18f57553          	fdiv.s	fa0,fa0,fa5
    5ad8:	2ecd                	jal	5eca <fabsf>
    5ada:	22f5                	jal	5cc6 <atanf>
    5adc:	e0050653          	fmv.x.w	a2,fa0
    5ae0:	4785                	li	a5,1
    5ae2:	0cf40a63          	beq	s0,a5,5bb6 <__ieee754_atan2f+0x18c>
    5ae6:	4789                	li	a5,2
    5ae8:	0af40663          	beq	s0,a5,5b94 <__ieee754_atan2f+0x16a>
    5aec:	dc51                	beqz	s0,5a88 <__ieee754_atan2f+0x5e>
    5aee:	f0060753          	fmv.w.x	fa4,a2
    5af2:	00004797          	auipc	a5,0x4
    5af6:	15e7a787          	flw	fa5,350(a5) # 9c50 <dmp_memory+0xe40>
    5afa:	00f777d3          	fadd.s	fa5,fa4,fa5
    5afe:	00004797          	auipc	a5,0x4
    5b02:	13a7a707          	flw	fa4,314(a5) # 9c38 <dmp_memory+0xe28>
    5b06:	08e7f7d3          	fsub.s	fa5,fa5,fa4
    5b0a:	e0078653          	fmv.x.w	a2,fa5
    5b0e:	bfad                	j	5a88 <__ieee754_atan2f+0x5e>
    5b10:	00004797          	auipc	a5,0x4
    5b14:	0ec7a787          	flw	fa5,236(a5) # 9bfc <dmp_memory+0xdec>
    5b18:	e0078653          	fmv.x.w	a2,fa5
    5b1c:	f608d6e3          	bgez	a7,5a88 <__ieee754_atan2f+0x5e>
    5b20:	00004797          	auipc	a5,0x4
    5b24:	1207a787          	flw	fa5,288(a5) # 9c40 <dmp_memory+0xe30>
    5b28:	e0078653          	fmv.x.w	a2,fa5
    5b2c:	bfb1                	j	5a88 <__ieee754_atan2f+0x5e>
    5b2e:	00004797          	auipc	a5,0x4
    5b32:	10a7a787          	flw	fa5,266(a5) # 9c38 <dmp_memory+0xe28>
    5b36:	e0078653          	fmv.x.w	a2,fa5
    5b3a:	b7b9                	j	5a88 <__ieee754_atan2f+0x5e>
    5b3c:	02b78c63          	beq	a5,a1,5b74 <__ieee754_atan2f+0x14a>
    5b40:	4789                	li	a5,2
    5b42:	fef406e3          	beq	s0,a5,5b2e <__ieee754_atan2f+0x104>
    5b46:	478d                	li	a5,3
    5b48:	f2f40ae3          	beq	s0,a5,5a7c <__ieee754_atan2f+0x52>
    5b4c:	4785                	li	a5,1
    5b4e:	00000613          	li	a2,0
    5b52:	f2f41be3          	bne	s0,a5,5a88 <__ieee754_atan2f+0x5e>
    5b56:	00004797          	auipc	a5,0x4
    5b5a:	07a7a787          	flw	fa5,122(a5) # 9bd0 <dmp_memory+0xdc0>
    5b5e:	e0078653          	fmv.x.w	a2,fa5
    5b62:	b71d                	j	5a88 <__ieee754_atan2f+0x5e>
    5b64:	a28d                	j	5cc6 <atanf>
    5b66:	00004797          	auipc	a5,0x4
    5b6a:	0967a787          	flw	fa5,150(a5) # 9bfc <dmp_memory+0xdec>
    5b6e:	e0078653          	fmv.x.w	a2,fa5
    5b72:	b7bd                	j	5ae0 <__ieee754_atan2f+0xb6>
    5b74:	4789                	li	a5,2
    5b76:	06f40263          	beq	s0,a5,5bda <__ieee754_atan2f+0x1b0>
    5b7a:	478d                	li	a5,3
    5b7c:	04f40863          	beq	s0,a5,5bcc <__ieee754_atan2f+0x1a2>
    5b80:	4785                	li	a5,1
    5b82:	02f40e63          	beq	s0,a5,5bbe <__ieee754_atan2f+0x194>
    5b86:	00004797          	auipc	a5,0x4
    5b8a:	0ae7a787          	flw	fa5,174(a5) # 9c34 <dmp_memory+0xe24>
    5b8e:	e0078653          	fmv.x.w	a2,fa5
    5b92:	bddd                	j	5a88 <__ieee754_atan2f+0x5e>
    5b94:	f0060753          	fmv.w.x	fa4,a2
    5b98:	00004797          	auipc	a5,0x4
    5b9c:	0b87a787          	flw	fa5,184(a5) # 9c50 <dmp_memory+0xe40>
    5ba0:	00f777d3          	fadd.s	fa5,fa4,fa5
    5ba4:	00004797          	auipc	a5,0x4
    5ba8:	0947a707          	flw	fa4,148(a5) # 9c38 <dmp_memory+0xe28>
    5bac:	08f777d3          	fsub.s	fa5,fa4,fa5
    5bb0:	e0078653          	fmv.x.w	a2,fa5
    5bb4:	bdd1                	j	5a88 <__ieee754_atan2f+0x5e>
    5bb6:	800007b7          	lui	a5,0x80000
    5bba:	8e3d                	xor	a2,a2,a5
    5bbc:	b5f1                	j	5a88 <__ieee754_atan2f+0x5e>
    5bbe:	00004797          	auipc	a5,0x4
    5bc2:	08e7a787          	flw	fa5,142(a5) # 9c4c <dmp_memory+0xe3c>
    5bc6:	e0078653          	fmv.x.w	a2,fa5
    5bca:	bd7d                	j	5a88 <__ieee754_atan2f+0x5e>
    5bcc:	00004797          	auipc	a5,0x4
    5bd0:	07c7a787          	flw	fa5,124(a5) # 9c48 <dmp_memory+0xe38>
    5bd4:	e0078653          	fmv.x.w	a2,fa5
    5bd8:	bd45                	j	5a88 <__ieee754_atan2f+0x5e>
    5bda:	00004797          	auipc	a5,0x4
    5bde:	06a7a787          	flw	fa5,106(a5) # 9c44 <dmp_memory+0xe34>
    5be2:	e0078653          	fmv.x.w	a2,fa5
    5be6:	b54d                	j	5a88 <__ieee754_atan2f+0x5e>

00005be8 <__ieee754_sqrtf>:
    5be8:	e00506d3          	fmv.x.w	a3,fa0
    5bec:	7f800737          	lui	a4,0x7f800
    5bf0:	00169793          	slli	a5,a3,0x1
    5bf4:	8385                	srli	a5,a5,0x1
    5bf6:	08e7f963          	bgeu	a5,a4,5c88 <__ieee754_sqrtf+0xa0>
    5bfa:	e0050553          	fmv.x.w	a0,fa0
    5bfe:	c3d1                	beqz	a5,5c82 <__ieee754_sqrtf+0x9a>
    5c00:	87b6                	mv	a5,a3
    5c02:	0806cd63          	bltz	a3,5c9c <__ieee754_sqrtf+0xb4>
    5c06:	00d77633          	and	a2,a4,a3
    5c0a:	4176d713          	srai	a4,a3,0x17
    5c0e:	e205                	bnez	a2,5c2e <__ieee754_sqrtf+0x46>
    5c10:	00869613          	slli	a2,a3,0x8
    5c14:	08064d63          	bltz	a2,5cae <__ieee754_sqrtf+0xc6>
    5c18:	4681                	li	a3,0
    5c1a:	a011                	j	5c1e <__ieee754_sqrtf+0x36>
    5c1c:	86b2                	mv	a3,a2
    5c1e:	0786                	slli	a5,a5,0x1
    5c20:	00879593          	slli	a1,a5,0x8
    5c24:	00168613          	addi	a2,a3,1
    5c28:	fe05dae3          	bgez	a1,5c1c <__ieee754_sqrtf+0x34>
    5c2c:	8f15                	sub	a4,a4,a3
    5c2e:	008006b7          	lui	a3,0x800
    5c32:	fff68613          	addi	a2,a3,-1 # 7fffff <_data_lma+0x7f6203>
    5c36:	8ff1                	and	a5,a5,a2
    5c38:	f8170713          	addi	a4,a4,-127 # 7f7fff81 <_eusrstack+0x5f7f7f81>
    5c3c:	8edd                	or	a3,a3,a5
    5c3e:	00177613          	andi	a2,a4,1
    5c42:	00169793          	slli	a5,a3,0x1
    5c46:	ea21                	bnez	a2,5c96 <__ieee754_sqrtf+0xae>
    5c48:	40175813          	srai	a6,a4,0x1
    5c4c:	46e5                	li	a3,25
    5c4e:	4501                	li	a0,0
    5c50:	4581                	li	a1,0
    5c52:	01000737          	lui	a4,0x1000
    5c56:	00e58633          	add	a2,a1,a4
    5c5a:	16fd                	addi	a3,a3,-1
    5c5c:	00c7c663          	blt	a5,a2,5c68 <__ieee754_sqrtf+0x80>
    5c60:	00e605b3          	add	a1,a2,a4
    5c64:	8f91                	sub	a5,a5,a2
    5c66:	953a                	add	a0,a0,a4
    5c68:	0786                	slli	a5,a5,0x1
    5c6a:	8305                	srli	a4,a4,0x1
    5c6c:	f6ed                	bnez	a3,5c56 <__ieee754_sqrtf+0x6e>
    5c6e:	c399                	beqz	a5,5c74 <__ieee754_sqrtf+0x8c>
    5c70:	0505                	addi	a0,a0,1
    5c72:	9979                	andi	a0,a0,-2
    5c74:	8505                	srai	a0,a0,0x1
    5c76:	3f0007b7          	lui	a5,0x3f000
    5c7a:	953e                	add	a0,a0,a5
    5c7c:	01781713          	slli	a4,a6,0x17
    5c80:	953a                	add	a0,a0,a4
    5c82:	f0050553          	fmv.w.x	fa0,a0
    5c86:	8082                	ret
    5c88:	50a577c3          	fmadd.s	fa5,fa0,fa0,fa0
    5c8c:	e0078553          	fmv.x.w	a0,fa5
    5c90:	f0050553          	fmv.w.x	fa0,a0
    5c94:	8082                	ret
    5c96:	00269793          	slli	a5,a3,0x2
    5c9a:	b77d                	j	5c48 <__ieee754_sqrtf+0x60>
    5c9c:	08a577d3          	fsub.s	fa5,fa0,fa0
    5ca0:	18f7f7d3          	fdiv.s	fa5,fa5,fa5
    5ca4:	e0078553          	fmv.x.w	a0,fa5
    5ca8:	f0050553          	fmv.w.x	fa0,a0
    5cac:	8082                	ret
    5cae:	56fd                	li	a3,-1
    5cb0:	8f15                	sub	a4,a4,a3
    5cb2:	bfb5                	j	5c2e <__ieee754_sqrtf+0x46>

00005cb4 <matherr>:
    5cb4:	4501                	li	a0,0
    5cb6:	8082                	ret

00005cb8 <nan>:
    5cb8:	00004797          	auipc	a5,0x4
    5cbc:	fa078793          	addi	a5,a5,-96 # 9c58 <dmp_memory+0xe48>
    5cc0:	4388                	lw	a0,0(a5)
    5cc2:	43cc                	lw	a1,4(a5)
    5cc4:	8082                	ret

00005cc6 <atanf>:
    5cc6:	e00507d3          	fmv.x.w	a5,fa0
    5cca:	1141                	addi	sp,sp,-16
    5ccc:	c422                	sw	s0,8(sp)
    5cce:	00179413          	slli	s0,a5,0x1
    5cd2:	c226                	sw	s1,4(sp)
    5cd4:	c606                	sw	ra,12(sp)
    5cd6:	50800737          	lui	a4,0x50800
    5cda:	8005                	srli	s0,s0,0x1
    5cdc:	84be                	mv	s1,a5
    5cde:	02e44163          	blt	s0,a4,5d00 <atanf+0x3a>
    5ce2:	7f800737          	lui	a4,0x7f800
    5ce6:	10874363          	blt	a4,s0,5dec <atanf+0x126>
    5cea:	00004797          	auipc	a5,0x4
    5cee:	f127a507          	flw	fa0,-238(a5) # 9bfc <dmp_memory+0xdec>
    5cf2:	12905363          	blez	s1,5e18 <atanf+0x152>
    5cf6:	40b2                	lw	ra,12(sp)
    5cf8:	4422                	lw	s0,8(sp)
    5cfa:	4492                	lw	s1,4(sp)
    5cfc:	0141                	addi	sp,sp,16
    5cfe:	8082                	ret
    5d00:	3ee00737          	lui	a4,0x3ee00
    5d04:	12e45a63          	bge	s0,a4,5e38 <atanf+0x172>
    5d08:	31000737          	lui	a4,0x31000
    5d0c:	0ee44763          	blt	s0,a4,5dfa <atanf+0x134>
    5d10:	577d                	li	a4,-1
    5d12:	f0078753          	fmv.w.x	fa4,a5
    5d16:	00004697          	auipc	a3,0x4
    5d1a:	f566a587          	flw	fa1,-170(a3) # 9c6c <dmp_memory+0xe5c>
    5d1e:	00004697          	auipc	a3,0x4
    5d22:	f666a607          	flw	fa2,-154(a3) # 9c84 <dmp_memory+0xe74>
    5d26:	10e776d3          	fmul.s	fa3,fa4,fa4
    5d2a:	00004697          	auipc	a3,0x4
    5d2e:	f3e6a507          	flw	fa0,-194(a3) # 9c68 <dmp_memory+0xe58>
    5d32:	00004697          	auipc	a3,0x4
    5d36:	f4e6a787          	flw	fa5,-178(a3) # 9c80 <dmp_memory+0xe70>
    5d3a:	00004697          	auipc	a3,0x4
    5d3e:	f366a207          	flw	ft4,-202(a3) # 9c70 <dmp_memory+0xe60>
    5d42:	00004697          	auipc	a3,0x4
    5d46:	f466a187          	flw	ft3,-186(a3) # 9c88 <dmp_memory+0xe78>
    5d4a:	10d6f753          	fmul.s	fa4,fa3,fa3
    5d4e:	00004697          	auipc	a3,0x4
    5d52:	f266a107          	flw	ft2,-218(a3) # 9c74 <dmp_memory+0xe64>
    5d56:	00004697          	auipc	a3,0x4
    5d5a:	f366a087          	flw	ft1,-202(a3) # 9c8c <dmp_memory+0xe7c>
    5d5e:	00004697          	auipc	a3,0x4
    5d62:	f1a6a007          	flw	ft0,-230(a3) # 9c78 <dmp_memory+0xe68>
    5d66:	58a77543          	fmadd.s	fa0,fa4,fa0,fa1
    5d6a:	60f777c3          	fmadd.s	fa5,fa4,fa5,fa2
    5d6e:	00004697          	auipc	a3,0x4
    5d72:	f226a587          	flw	fa1,-222(a3) # 9c90 <dmp_memory+0xe80>
    5d76:	00004697          	auipc	a3,0x4
    5d7a:	f066a607          	flw	fa2,-250(a3) # 9c7c <dmp_memory+0xe6c>
    5d7e:	56fd                	li	a3,-1
    5d80:	20e57543          	fmadd.s	fa0,fa0,fa4,ft4
    5d84:	18e7f7c3          	fmadd.s	fa5,fa5,fa4,ft3
    5d88:	10e57543          	fmadd.s	fa0,fa0,fa4,ft2
    5d8c:	08e7f7c3          	fmadd.s	fa5,fa5,fa4,ft1
    5d90:	00e57543          	fmadd.s	fa0,fa0,fa4,ft0
    5d94:	58e7f7c3          	fmadd.s	fa5,fa5,fa4,fa1
    5d98:	60e57543          	fmadd.s	fa0,fa0,fa4,fa2
    5d9c:	10e7f7d3          	fmul.s	fa5,fa5,fa4
    5da0:	78d57543          	fmadd.s	fa0,fa0,fa3,fa5
    5da4:	f00787d3          	fmv.w.x	fa5,a5
    5da8:	10f57553          	fmul.s	fa0,fa0,fa5
    5dac:	06d70f63          	beq	a4,a3,5e2a <atanf+0x164>
    5db0:	070a                	slli	a4,a4,0x2
    5db2:	00004697          	auipc	a3,0x4
    5db6:	ef268693          	addi	a3,a3,-270 # 9ca4 <atanlo>
    5dba:	96ba                	add	a3,a3,a4
    5dbc:	629c                	flw	fa5,0(a3)
    5dbe:	f0078753          	fmv.w.x	fa4,a5
    5dc2:	00004697          	auipc	a3,0x4
    5dc6:	ed268693          	addi	a3,a3,-302 # 9c94 <atanhi>
    5dca:	08f57553          	fsub.s	fa0,fa0,fa5
    5dce:	9736                	add	a4,a4,a3
    5dd0:	631c                	flw	fa5,0(a4)
    5dd2:	08e57553          	fsub.s	fa0,fa0,fa4
    5dd6:	08a7f553          	fsub.s	fa0,fa5,fa0
    5dda:	f004dee3          	bgez	s1,5cf6 <atanf+0x30>
    5dde:	40b2                	lw	ra,12(sp)
    5de0:	4422                	lw	s0,8(sp)
    5de2:	4492                	lw	s1,4(sp)
    5de4:	20a51553          	fneg.s	fa0,fa0
    5de8:	0141                	addi	sp,sp,16
    5dea:	8082                	ret
    5dec:	40b2                	lw	ra,12(sp)
    5dee:	4422                	lw	s0,8(sp)
    5df0:	4492                	lw	s1,4(sp)
    5df2:	00a57553          	fadd.s	fa0,fa0,fa0
    5df6:	0141                	addi	sp,sp,16
    5df8:	8082                	ret
    5dfa:	00004717          	auipc	a4,0x4
    5dfe:	e0672787          	flw	fa5,-506(a4) # 9c00 <dmp_memory+0xdf0>
    5e02:	00f577d3          	fadd.s	fa5,fa0,fa5
    5e06:	00003717          	auipc	a4,0x3
    5e0a:	fa672707          	flw	fa4,-90(a4) # 8dac <hw+0xe0>
    5e0e:	a0f71753          	flt.s	a4,fa4,fa5
    5e12:	ee070fe3          	beqz	a4,5d10 <atanf+0x4a>
    5e16:	b5c5                	j	5cf6 <atanf+0x30>
    5e18:	40b2                	lw	ra,12(sp)
    5e1a:	4422                	lw	s0,8(sp)
    5e1c:	00004797          	auipc	a5,0x4
    5e20:	e247a507          	flw	fa0,-476(a5) # 9c40 <dmp_memory+0xe30>
    5e24:	4492                	lw	s1,4(sp)
    5e26:	0141                	addi	sp,sp,16
    5e28:	8082                	ret
    5e2a:	40b2                	lw	ra,12(sp)
    5e2c:	4422                	lw	s0,8(sp)
    5e2e:	4492                	lw	s1,4(sp)
    5e30:	08a7f553          	fsub.s	fa0,fa5,fa0
    5e34:	0141                	addi	sp,sp,16
    5e36:	8082                	ret
    5e38:	2849                	jal	5eca <fabsf>
    5e3a:	3f9807b7          	lui	a5,0x3f980
    5e3e:	02f45863          	bge	s0,a5,5e6e <atanf+0x1a8>
    5e42:	3f3007b7          	lui	a5,0x3f300
    5e46:	06f45463          	bge	s0,a5,5eae <atanf+0x1e8>
    5e4a:	00004797          	auipc	a5,0x4
    5e4e:	de27a707          	flw	fa4,-542(a5) # 9c2c <dmp_memory+0xe1c>
    5e52:	00004797          	auipc	a5,0x4
    5e56:	e0e7a787          	flw	fa5,-498(a5) # 9c60 <dmp_memory+0xe50>
    5e5a:	78e577c3          	fmadd.s	fa5,fa0,fa4,fa5
    5e5e:	00e57553          	fadd.s	fa0,fa0,fa4
    5e62:	4701                	li	a4,0
    5e64:	18a7f7d3          	fdiv.s	fa5,fa5,fa0
    5e68:	e00787d3          	fmv.x.w	a5,fa5
    5e6c:	b55d                	j	5d12 <atanf+0x4c>
    5e6e:	401c07b7          	lui	a5,0x401c0
    5e72:	02f45463          	bge	s0,a5,5e9a <atanf+0x1d4>
    5e76:	00004797          	auipc	a5,0x4
    5e7a:	dee7a787          	flw	fa5,-530(a5) # 9c64 <dmp_memory+0xe54>
    5e7e:	00003797          	auipc	a5,0x3
    5e82:	f2e7a687          	flw	fa3,-210(a5) # 8dac <hw+0xe0>
    5e86:	08f57753          	fsub.s	fa4,fa0,fa5
    5e8a:	68f57543          	fmadd.s	fa0,fa0,fa5,fa3
    5e8e:	4709                	li	a4,2
    5e90:	18a777d3          	fdiv.s	fa5,fa4,fa0
    5e94:	e00787d3          	fmv.x.w	a5,fa5
    5e98:	bdad                	j	5d12 <atanf+0x4c>
    5e9a:	00004797          	auipc	a5,0x4
    5e9e:	dc67a787          	flw	fa5,-570(a5) # 9c60 <dmp_memory+0xe50>
    5ea2:	18a7f7d3          	fdiv.s	fa5,fa5,fa0
    5ea6:	470d                	li	a4,3
    5ea8:	e00787d3          	fmv.x.w	a5,fa5
    5eac:	b59d                	j	5d12 <atanf+0x4c>
    5eae:	00003797          	auipc	a5,0x3
    5eb2:	efe7a787          	flw	fa5,-258(a5) # 8dac <hw+0xe0>
    5eb6:	08f57753          	fsub.s	fa4,fa0,fa5
    5eba:	00f57553          	fadd.s	fa0,fa0,fa5
    5ebe:	4705                	li	a4,1
    5ec0:	18a777d3          	fdiv.s	fa5,fa4,fa0
    5ec4:	e00787d3          	fmv.x.w	a5,fa5
    5ec8:	b5a9                	j	5d12 <atanf+0x4c>

00005eca <fabsf>:
    5eca:	e00507d3          	fmv.x.w	a5,fa0
    5ece:	0786                	slli	a5,a5,0x1
    5ed0:	8385                	srli	a5,a5,0x1
    5ed2:	f0078553          	fmv.w.x	fa0,a5
    5ed6:	8082                	ret

00005ed8 <printchar>:
    5ed8:	1101                	addi	sp,sp,-32
    5eda:	ce06                	sw	ra,28(sp)
    5edc:	c62e                	sw	a1,12(sp)
    5ede:	cd15                	beqz	a0,5f1a <printchar+0x42>
    5ee0:	4118                	lw	a4,0(a0)
    5ee2:	87aa                	mv	a5,a0
    5ee4:	c305                	beqz	a4,5f04 <printchar+0x2c>
    5ee6:	4158                	lw	a4,4(a0)
    5ee8:	557d                	li	a0,-1
    5eea:	cb11                	beqz	a4,5efe <printchar+0x26>
    5eec:	4685                	li	a3,1
    5eee:	00d71b63          	bne	a4,a3,5f04 <printchar+0x2c>
    5ef2:	4798                	lw	a4,8(a5)
    5ef4:	00070023          	sb	zero,0(a4)
    5ef8:	0007a223          	sw	zero,4(a5)
    5efc:	4505                	li	a0,1
    5efe:	40f2                	lw	ra,28(sp)
    5f00:	6105                	addi	sp,sp,32
    5f02:	8082                	ret
    5f04:	4798                	lw	a4,8(a5)
    5f06:	46b2                	lw	a3,12(sp)
    5f08:	00d70023          	sb	a3,0(a4)
    5f0c:	4798                	lw	a4,8(a5)
    5f0e:	0705                	addi	a4,a4,1
    5f10:	c798                	sw	a4,8(a5)
    5f12:	43d8                	lw	a4,4(a5)
    5f14:	177d                	addi	a4,a4,-1
    5f16:	c3d8                	sw	a4,4(a5)
    5f18:	b7d5                	j	5efc <printchar+0x24>
    5f1a:	4605                	li	a2,1
    5f1c:	006c                	addi	a1,sp,12
    5f1e:	faaff0ef          	jal	ra,56c8 <_write>
    5f22:	bfe9                	j	5efc <printchar+0x24>

00005f24 <prints>:
    5f24:	7179                	addi	sp,sp,-48
    5f26:	d422                	sw	s0,40(sp)
    5f28:	d226                	sw	s1,36(sp)
    5f2a:	ce4e                	sw	s3,28(sp)
    5f2c:	cc52                	sw	s4,24(sp)
    5f2e:	ca56                	sw	s5,20(sp)
    5f30:	d606                	sw	ra,44(sp)
    5f32:	d04a                	sw	s2,32(sp)
    5f34:	c85a                	sw	s6,16(sp)
    5f36:	8a2a                	mv	s4,a0
    5f38:	8aae                	mv	s5,a1
    5f3a:	8432                	mv	s0,a2
    5f3c:	4481                	li	s1,0
    5f3e:	02000993          	li	s3,32
    5f42:	02064463          	bltz	a2,5f6a <prints+0x46>
    5f46:	009a87b3          	add	a5,s5,s1
    5f4a:	00078783          	lb	a5,0(a5)
    5f4e:	e39d                	bnez	a5,5f74 <prints+0x50>
    5f50:	0284d663          	bge	s1,s0,5f7c <prints+0x58>
    5f54:	02e4d263          	bge	s1,a4,5f78 <prints+0x54>
    5f58:	8c19                	sub	s0,s0,a4
    5f5a:	0026f793          	andi	a5,a3,2
    5f5e:	02000993          	li	s3,32
    5f62:	c781                	beqz	a5,5f6a <prints+0x46>
    5f64:	e319                	bnez	a4,5f6a <prints+0x46>
    5f66:	03000993          	li	s3,48
    5f6a:	8a85                	andi	a3,a3,1
    5f6c:	4901                	li	s2,0
    5f6e:	ea85                	bnez	a3,5f9e <prints+0x7a>
    5f70:	8922                	mv	s2,s0
    5f72:	a831                	j	5f8e <prints+0x6a>
    5f74:	0485                	addi	s1,s1,1
    5f76:	bfc1                	j	5f46 <prints+0x22>
    5f78:	8c05                	sub	s0,s0,s1
    5f7a:	b7c5                	j	5f5a <prints+0x36>
    5f7c:	4401                	li	s0,0
    5f7e:	bff1                	j	5f5a <prints+0x36>
    5f80:	85ce                	mv	a1,s3
    5f82:	8552                	mv	a0,s4
    5f84:	c63a                	sw	a4,12(sp)
    5f86:	f53ff0ef          	jal	ra,5ed8 <printchar>
    5f8a:	4732                	lw	a4,12(sp)
    5f8c:	197d                	addi	s2,s2,-1
    5f8e:	ff2049e3          	bgtz	s2,5f80 <prints+0x5c>
    5f92:	8922                	mv	s2,s0
    5f94:	00045363          	bgez	s0,5f9a <prints+0x76>
    5f98:	4901                	li	s2,0
    5f9a:	41240433          	sub	s0,s0,s2
    5f9e:	02e4cb63          	blt	s1,a4,5fd4 <prints+0xb0>
    5fa2:	84ca                	mv	s1,s2
    5fa4:	412487b3          	sub	a5,s1,s2
    5fa8:	97d6                	add	a5,a5,s5
    5faa:	00078583          	lb	a1,0(a5)
    5fae:	e1a1                	bnez	a1,5fee <prints+0xca>
    5fb0:	8922                	mv	s2,s0
    5fb2:	05204363          	bgtz	s2,5ff8 <prints+0xd4>
    5fb6:	00045363          	bgez	s0,5fbc <prints+0x98>
    5fba:	4401                	li	s0,0
    5fbc:	00940533          	add	a0,s0,s1
    5fc0:	50b2                	lw	ra,44(sp)
    5fc2:	5422                	lw	s0,40(sp)
    5fc4:	5492                	lw	s1,36(sp)
    5fc6:	5902                	lw	s2,32(sp)
    5fc8:	49f2                	lw	s3,28(sp)
    5fca:	4a62                	lw	s4,24(sp)
    5fcc:	4ad2                	lw	s5,20(sp)
    5fce:	4b42                	lw	s6,16(sp)
    5fd0:	6145                	addi	sp,sp,48
    5fd2:	8082                	ret
    5fd4:	409704b3          	sub	s1,a4,s1
    5fd8:	8b26                	mv	s6,s1
    5fda:	03000593          	li	a1,48
    5fde:	8552                	mv	a0,s4
    5fe0:	1b7d                	addi	s6,s6,-1
    5fe2:	ef7ff0ef          	jal	ra,5ed8 <printchar>
    5fe6:	fe0b1ae3          	bnez	s6,5fda <prints+0xb6>
    5fea:	9926                	add	s2,s2,s1
    5fec:	bf5d                	j	5fa2 <prints+0x7e>
    5fee:	8552                	mv	a0,s4
    5ff0:	ee9ff0ef          	jal	ra,5ed8 <printchar>
    5ff4:	0485                	addi	s1,s1,1
    5ff6:	b77d                	j	5fa4 <prints+0x80>
    5ff8:	85ce                	mv	a1,s3
    5ffa:	8552                	mv	a0,s4
    5ffc:	eddff0ef          	jal	ra,5ed8 <printchar>
    6000:	197d                	addi	s2,s2,-1
    6002:	bf45                	j	5fb2 <prints+0x8e>

00006004 <printInt>:
    6004:	715d                	addi	sp,sp,-80
    6006:	c2a6                	sw	s1,68(sp)
    6008:	dc52                	sw	s4,56(sp)
    600a:	c686                	sw	ra,76(sp)
    600c:	c4a2                	sw	s0,72(sp)
    600e:	c0ca                	sw	s2,64(sp)
    6010:	de4e                	sw	s3,60(sp)
    6012:	da56                	sw	s5,52(sp)
    6014:	84ba                	mv	s1,a4
    6016:	8a3e                	mv	s4,a5
    6018:	e585                	bnez	a1,6040 <printInt+0x3c>
    601a:	03000793          	li	a5,48
    601e:	4701                	li	a4,0
    6020:	86d2                	mv	a3,s4
    6022:	8626                	mv	a2,s1
    6024:	082c                	addi	a1,sp,24
    6026:	00f11c23          	sh	a5,24(sp)
    602a:	efbff0ef          	jal	ra,5f24 <prints>
    602e:	40b6                	lw	ra,76(sp)
    6030:	4426                	lw	s0,72(sp)
    6032:	4496                	lw	s1,68(sp)
    6034:	4906                	lw	s2,64(sp)
    6036:	59f2                	lw	s3,60(sp)
    6038:	5a62                	lw	s4,56(sp)
    603a:	5ad2                	lw	s5,52(sp)
    603c:	6161                	addi	sp,sp,80
    603e:	8082                	ret
    6040:	892a                	mv	s2,a0
    6042:	8436                	mv	s0,a3
    6044:	8ac6                	mv	s5,a7
    6046:	ca91                	beqz	a3,605a <printInt+0x56>
    6048:	47a9                	li	a5,10
    604a:	4401                	li	s0,0
    604c:	00f61763          	bne	a2,a5,605a <printInt+0x56>
    6050:	0005d563          	bgez	a1,605a <printInt+0x56>
    6054:	40b005b3          	neg	a1,a1
    6058:	4405                	li	s0,1
    605a:	020107a3          	sb	zero,47(sp)
    605e:	02f10793          	addi	a5,sp,47
    6062:	46a5                	li	a3,9
    6064:	fc680513          	addi	a0,a6,-58 # 3f7fffc6 <_eusrstack+0x1f7f7fc6>
    6068:	02c5f733          	remu	a4,a1,a2
    606c:	00e6d363          	bge	a3,a4,6072 <printInt+0x6e>
    6070:	972a                	add	a4,a4,a0
    6072:	03070713          	addi	a4,a4,48
    6076:	fee78fa3          	sb	a4,-1(a5)
    607a:	fff78993          	addi	s3,a5,-1
    607e:	02c5d733          	divu	a4,a1,a2
    6082:	04c5fb63          	bgeu	a1,a2,60d8 <printInt+0xd4>
    6086:	cc09                	beqz	s0,60a0 <printInt+0x9c>
    6088:	c8b9                	beqz	s1,60de <printInt+0xda>
    608a:	002a7713          	andi	a4,s4,2
    608e:	cb21                	beqz	a4,60de <printInt+0xda>
    6090:	02d00593          	li	a1,45
    6094:	854a                	mv	a0,s2
    6096:	c642                	sw	a6,12(sp)
    6098:	e41ff0ef          	jal	ra,5ed8 <printchar>
    609c:	4832                	lw	a6,12(sp)
    609e:	14fd                	addi	s1,s1,-1
    60a0:	004a7793          	andi	a5,s4,4
    60a4:	c38d                	beqz	a5,60c6 <printInt+0xc2>
    60a6:	06100793          	li	a5,97
    60aa:	03000593          	li	a1,48
    60ae:	854a                	mv	a0,s2
    60b0:	02f81f63          	bne	a6,a5,60ee <printInt+0xea>
    60b4:	e25ff0ef          	jal	ra,5ed8 <printchar>
    60b8:	07800593          	li	a1,120
    60bc:	854a                	mv	a0,s2
    60be:	e1bff0ef          	jal	ra,5ed8 <printchar>
    60c2:	0409                	addi	s0,s0,2
    60c4:	14f9                	addi	s1,s1,-2
    60c6:	8756                	mv	a4,s5
    60c8:	86d2                	mv	a3,s4
    60ca:	8626                	mv	a2,s1
    60cc:	85ce                	mv	a1,s3
    60ce:	854a                	mv	a0,s2
    60d0:	e55ff0ef          	jal	ra,5f24 <prints>
    60d4:	9522                	add	a0,a0,s0
    60d6:	bfa1                	j	602e <printInt+0x2a>
    60d8:	85ba                	mv	a1,a4
    60da:	87ce                	mv	a5,s3
    60dc:	b771                	j	6068 <printInt+0x64>
    60de:	02d00713          	li	a4,45
    60e2:	fee98fa3          	sb	a4,-1(s3)
    60e6:	4401                	li	s0,0
    60e8:	ffe78993          	addi	s3,a5,-2
    60ec:	bf55                	j	60a0 <printInt+0x9c>
    60ee:	debff0ef          	jal	ra,5ed8 <printchar>
    60f2:	05800593          	li	a1,88
    60f6:	b7d9                	j	60bc <printInt+0xb8>

000060f8 <printLongLongInt>:
    60f8:	711d                	addi	sp,sp,-96
    60fa:	c8ca                	sw	s2,80(sp)
    60fc:	c6ce                	sw	s3,76(sp)
    60fe:	c2d6                	sw	s5,68(sp)
    6100:	c0da                	sw	s6,64(sp)
    6102:	893a                	mv	s2,a4
    6104:	ce86                	sw	ra,92(sp)
    6106:	cca2                	sw	s0,88(sp)
    6108:	caa6                	sw	s1,84(sp)
    610a:	c4d2                	sw	s4,72(sp)
    610c:	de5e                	sw	s7,60(sp)
    610e:	dc62                	sw	s8,56(sp)
    6110:	da66                	sw	s9,52(sp)
    6112:	d86a                	sw	s10,48(sp)
    6114:	d66e                	sw	s11,44(sp)
    6116:	00c5e733          	or	a4,a1,a2
    611a:	89be                	mv	s3,a5
    611c:	8aaa                	mv	s5,a0
    611e:	8b42                	mv	s6,a6
    6120:	06014783          	lbu	a5,96(sp)
    6124:	e721                	bnez	a4,616c <printLongLongInt+0x74>
    6126:	cf95                	beqz	a5,6162 <printLongLongInt+0x6a>
    6128:	678d                	lui	a5,0x3
    612a:	02d78793          	addi	a5,a5,45 # 302d <dmp_set_gyro_bias+0x5>
    612e:	00f11423          	sh	a5,8(sp)
    6132:	00010523          	sb	zero,10(sp)
    6136:	4701                	li	a4,0
    6138:	86da                	mv	a3,s6
    613a:	864e                	mv	a2,s3
    613c:	002c                	addi	a1,sp,8
    613e:	8556                	mv	a0,s5
    6140:	de5ff0ef          	jal	ra,5f24 <prints>
    6144:	40f6                	lw	ra,92(sp)
    6146:	4466                	lw	s0,88(sp)
    6148:	44d6                	lw	s1,84(sp)
    614a:	4946                	lw	s2,80(sp)
    614c:	49b6                	lw	s3,76(sp)
    614e:	4a26                	lw	s4,72(sp)
    6150:	4a96                	lw	s5,68(sp)
    6152:	4b06                	lw	s6,64(sp)
    6154:	5bf2                	lw	s7,60(sp)
    6156:	5c62                	lw	s8,56(sp)
    6158:	5cd2                	lw	s9,52(sp)
    615a:	5d42                	lw	s10,48(sp)
    615c:	5db2                	lw	s11,44(sp)
    615e:	6125                	addi	sp,sp,96
    6160:	8082                	ret
    6162:	03000793          	li	a5,48
    6166:	00f11423          	sh	a5,8(sp)
    616a:	b7f1                	j	6136 <printLongLongInt+0x3e>
    616c:	8a36                	mv	s4,a3
    616e:	84ae                	mv	s1,a1
    6170:	8432                	mv	s0,a2
    6172:	02090063          	beqz	s2,6192 <printLongLongInt+0x9a>
    6176:	47a9                	li	a5,10
    6178:	4901                	li	s2,0
    617a:	00f69c63          	bne	a3,a5,6192 <printLongLongInt+0x9a>
    617e:	00065a63          	bgez	a2,6192 <printLongLongInt+0x9a>
    6182:	40b004b3          	neg	s1,a1
    6186:	009037b3          	snez	a5,s1
    618a:	40c00433          	neg	s0,a2
    618e:	8c1d                	sub	s0,s0,a5
    6190:	4905                	li	s2,1
    6192:	00010fa3          	sb	zero,31(sp)
    6196:	01f10d13          	addi	s10,sp,31
    619a:	41fa5d93          	srai	s11,s4,0x1f
    619e:	4ca5                	li	s9,9
    61a0:	fc688c13          	addi	s8,a7,-58
    61a4:	8652                	mv	a2,s4
    61a6:	86ee                	mv	a3,s11
    61a8:	8526                	mv	a0,s1
    61aa:	85a2                	mv	a1,s0
    61ac:	4b3000ef          	jal	ra,6e5e <__umoddi3>
    61b0:	00acd363          	bge	s9,a0,61b6 <printLongLongInt+0xbe>
    61b4:	9562                	add	a0,a0,s8
    61b6:	03050513          	addi	a0,a0,48
    61ba:	fead0fa3          	sb	a0,-1(s10)
    61be:	8652                	mv	a2,s4
    61c0:	86ee                	mv	a3,s11
    61c2:	8526                	mv	a0,s1
    61c4:	85a2                	mv	a1,s0
    61c6:	fffd0b93          	addi	s7,s10,-1
    61ca:	0fd000ef          	jal	ra,6ac6 <__udivdi3>
    61ce:	01b46663          	bltu	s0,s11,61da <printLongLongInt+0xe2>
    61d2:	028d9a63          	bne	s11,s0,6206 <printLongLongInt+0x10e>
    61d6:	0344f863          	bgeu	s1,s4,6206 <printLongLongInt+0x10e>
    61da:	00090d63          	beqz	s2,61f4 <printLongLongInt+0xfc>
    61de:	02098863          	beqz	s3,620e <printLongLongInt+0x116>
    61e2:	002b7793          	andi	a5,s6,2
    61e6:	c785                	beqz	a5,620e <printLongLongInt+0x116>
    61e8:	02d00593          	li	a1,45
    61ec:	8556                	mv	a0,s5
    61ee:	cebff0ef          	jal	ra,5ed8 <printchar>
    61f2:	19fd                	addi	s3,s3,-1
    61f4:	4701                	li	a4,0
    61f6:	86da                	mv	a3,s6
    61f8:	864e                	mv	a2,s3
    61fa:	85de                	mv	a1,s7
    61fc:	8556                	mv	a0,s5
    61fe:	d27ff0ef          	jal	ra,5f24 <prints>
    6202:	954a                	add	a0,a0,s2
    6204:	b781                	j	6144 <printLongLongInt+0x4c>
    6206:	84aa                	mv	s1,a0
    6208:	842e                	mv	s0,a1
    620a:	8d5e                	mv	s10,s7
    620c:	bf61                	j	61a4 <printLongLongInt+0xac>
    620e:	02d00793          	li	a5,45
    6212:	fefb8fa3          	sb	a5,-1(s7)
    6216:	4901                	li	s2,0
    6218:	ffed0b93          	addi	s7,s10,-2
    621c:	bfe1                	j	61f4 <printLongLongInt+0xfc>

0000621e <printDouble>:
    621e:	715d                	addi	sp,sp,-80
    6220:	c2a6                	sw	s1,68(sp)
    6222:	c0ca                	sw	s2,64(sp)
    6224:	84aa                	mv	s1,a0
    6226:	892e                	mv	s2,a1
    6228:	852e                	mv	a0,a1
    622a:	85b2                	mv	a1,a2
    622c:	c686                	sw	ra,76(sp)
    622e:	ce3a                	sw	a4,28(sp)
    6230:	cc42                	sw	a6,24(sp)
    6232:	c4a2                	sw	s0,72(sp)
    6234:	de4e                	sw	s3,60(sp)
    6236:	dc52                	sw	s4,56(sp)
    6238:	89b2                	mv	s3,a2
    623a:	8a36                	mv	s4,a3
    623c:	da56                	sw	s5,52(sp)
    623e:	d85a                	sw	s6,48(sp)
    6240:	8abe                	mv	s5,a5
    6242:	d65e                	sw	s7,44(sp)
    6244:	d462                	sw	s8,40(sp)
    6246:	d266                	sw	s9,36(sp)
    6248:	8c46                	mv	s8,a7
    624a:	d06a                	sw	s10,32(sp)
    624c:	138020ef          	jal	ra,8384 <__fixdfdi>
    6250:	8b2a                	mv	s6,a0
    6252:	8bae                	mv	s7,a1
    6254:	4601                	li	a2,0
    6256:	4681                	li	a3,0
    6258:	85ce                	mv	a1,s3
    625a:	854a                	mv	a0,s2
    625c:	791000ef          	jal	ra,71ec <__ledf2>
    6260:	4772                	lw	a4,28(sp)
    6262:	4862                	lw	a6,24(sp)
    6264:	817d                	srli	a0,a0,0x1f
    6266:	87ba                	mv	a5,a4
    6268:	c02a                	sw	a0,0(sp)
    626a:	4705                	li	a4,1
    626c:	88e2                	mv	a7,s8
    626e:	86d2                	mv	a3,s4
    6270:	85da                	mv	a1,s6
    6272:	865e                	mv	a2,s7
    6274:	8526                	mv	a0,s1
    6276:	e83ff0ef          	jal	ra,60f8 <printLongLongInt>
    627a:	8d2a                	mv	s10,a0
    627c:	02e00593          	li	a1,46
    6280:	8526                	mv	a0,s1
    6282:	c57ff0ef          	jal	ra,5ed8 <printchar>
    6286:	0d05                	addi	s10,s10,1
    6288:	4781                	li	a5,0
    628a:	4c85                	li	s9,1
    628c:	4401                	li	s0,0
    628e:	4729                	li	a4,10
    6290:	0757ce63          	blt	a5,s5,630c <printDouble+0xee>
    6294:	855a                	mv	a0,s6
    6296:	85de                	mv	a1,s7
    6298:	21c020ef          	jal	ra,84b4 <__floatdidf>
    629c:	862a                	mv	a2,a0
    629e:	86ae                	mv	a3,a1
    62a0:	854a                	mv	a0,s2
    62a2:	85ce                	mv	a1,s3
    62a4:	654010ef          	jal	ra,78f8 <__subdf3>
    62a8:	892a                	mv	s2,a0
    62aa:	89ae                	mv	s3,a1
    62ac:	8566                	mv	a0,s9
    62ae:	85a2                	mv	a1,s0
    62b0:	204020ef          	jal	ra,84b4 <__floatdidf>
    62b4:	862a                	mv	a2,a0
    62b6:	86ae                	mv	a3,a1
    62b8:	854a                	mv	a0,s2
    62ba:	85ce                	mv	a1,s3
    62bc:	7e7000ef          	jal	ra,72a2 <__muldf3>
    62c0:	0c4020ef          	jal	ra,8384 <__fixdfdi>
    62c4:	41f5d613          	srai	a2,a1,0x1f
    62c8:	8d31                	xor	a0,a0,a2
    62ca:	00b647b3          	xor	a5,a2,a1
    62ce:	40c505b3          	sub	a1,a0,a2
    62d2:	00b53533          	sltu	a0,a0,a1
    62d6:	40c78633          	sub	a2,a5,a2
    62da:	c002                	sw	zero,0(sp)
    62dc:	88e2                	mv	a7,s8
    62de:	87d6                	mv	a5,s5
    62e0:	86d2                	mv	a3,s4
    62e2:	8e09                	sub	a2,a2,a0
    62e4:	4809                	li	a6,2
    62e6:	8526                	mv	a0,s1
    62e8:	4705                	li	a4,1
    62ea:	e0fff0ef          	jal	ra,60f8 <printLongLongInt>
    62ee:	40b6                	lw	ra,76(sp)
    62f0:	4426                	lw	s0,72(sp)
    62f2:	956a                	add	a0,a0,s10
    62f4:	4496                	lw	s1,68(sp)
    62f6:	4906                	lw	s2,64(sp)
    62f8:	59f2                	lw	s3,60(sp)
    62fa:	5a62                	lw	s4,56(sp)
    62fc:	5ad2                	lw	s5,52(sp)
    62fe:	5b42                	lw	s6,48(sp)
    6300:	5bb2                	lw	s7,44(sp)
    6302:	5c22                	lw	s8,40(sp)
    6304:	5c92                	lw	s9,36(sp)
    6306:	5d02                	lw	s10,32(sp)
    6308:	6161                	addi	sp,sp,80
    630a:	8082                	ret
    630c:	028706b3          	mul	a3,a4,s0
    6310:	0785                	addi	a5,a5,1
    6312:	03973433          	mulhu	s0,a4,s9
    6316:	03970cb3          	mul	s9,a4,s9
    631a:	9436                	add	s0,s0,a3
    631c:	bf95                	j	6290 <printDouble+0x72>

0000631e <print>:
    631e:	715d                	addi	sp,sp,-80
    6320:	d85a                	sw	s6,48(sp)
    6322:	0000ab37          	lui	s6,0xa
    6326:	c4a2                	sw	s0,72(sp)
    6328:	c2a6                	sw	s1,68(sp)
    632a:	c0ca                	sw	s2,64(sp)
    632c:	de4e                	sw	s3,60(sp)
    632e:	dc52                	sw	s4,56(sp)
    6330:	da56                	sw	s5,52(sp)
    6332:	d65e                	sw	s7,44(sp)
    6334:	d462                	sw	s8,40(sp)
    6336:	c686                	sw	ra,76(sp)
    6338:	d266                	sw	s9,36(sp)
    633a:	89aa                	mv	s3,a0
    633c:	892e                	mv	s2,a1
    633e:	8432                	mv	s0,a2
    6340:	4a01                	li	s4,0
    6342:	4481                	li	s1,0
    6344:	02500b93          	li	s7,37
    6348:	02b00a93          	li	s5,43
    634c:	4c29                	li	s8,10
    634e:	cb4b0b13          	addi	s6,s6,-844 # 9cb4 <atanlo+0x10>
    6352:	00090583          	lb	a1,0(s2)
    6356:	e58d                	bnez	a1,6380 <print+0x62>
    6358:	00098663          	beqz	s3,6364 <print+0x46>
    635c:	4581                	li	a1,0
    635e:	854e                	mv	a0,s3
    6360:	b79ff0ef          	jal	ra,5ed8 <printchar>
    6364:	40b6                	lw	ra,76(sp)
    6366:	4426                	lw	s0,72(sp)
    6368:	8526                	mv	a0,s1
    636a:	4906                	lw	s2,64(sp)
    636c:	4496                	lw	s1,68(sp)
    636e:	59f2                	lw	s3,60(sp)
    6370:	5a62                	lw	s4,56(sp)
    6372:	5ad2                	lw	s5,52(sp)
    6374:	5b42                	lw	s6,48(sp)
    6376:	5bb2                	lw	s7,44(sp)
    6378:	5c22                	lw	s8,40(sp)
    637a:	5c92                	lw	s9,36(sp)
    637c:	6161                	addi	sp,sp,80
    637e:	8082                	ret
    6380:	01758863          	beq	a1,s7,6390 <print+0x72>
    6384:	854e                	mv	a0,s3
    6386:	b53ff0ef          	jal	ra,5ed8 <printchar>
    638a:	0485                	addi	s1,s1,1
    638c:	0905                	addi	s2,s2,1
    638e:	b7d1                	j	6352 <print+0x34>
    6390:	00190783          	lb	a5,1(s2)
    6394:	00190c93          	addi	s9,s2,1
    6398:	01779a63          	bne	a5,s7,63ac <print+0x8e>
    639c:	02500593          	li	a1,37
    63a0:	854e                	mv	a0,s3
    63a2:	b37ff0ef          	jal	ra,5ed8 <printchar>
    63a6:	0485                	addi	s1,s1,1
    63a8:	8966                	mv	s2,s9
    63aa:	b7cd                	j	638c <print+0x6e>
    63ac:	d7d5                	beqz	a5,6358 <print+0x3a>
    63ae:	05578763          	beq	a5,s5,63fc <print+0xde>
    63b2:	00fac863          	blt	s5,a5,63c2 <print+0xa4>
    63b6:	02300713          	li	a4,35
    63ba:	04e78463          	beq	a5,a4,6402 <print+0xe4>
    63be:	4781                	li	a5,0
    63c0:	a005                	j	63e0 <print+0xc2>
    63c2:	02d00713          	li	a4,45
    63c6:	00e78a63          	beq	a5,a4,63da <print+0xbc>
    63ca:	03000713          	li	a4,48
    63ce:	fee798e3          	bne	a5,a4,63be <print+0xa0>
    63d2:	00290c93          	addi	s9,s2,2
    63d6:	4789                	li	a5,2
    63d8:	a021                	j	63e0 <print+0xc2>
    63da:	00290c93          	addi	s9,s2,2
    63de:	4785                	li	a5,1
    63e0:	000c8703          	lb	a4,0(s9)
    63e4:	05570363          	beq	a4,s5,642a <print+0x10c>
    63e8:	02eac163          	blt	s5,a4,640a <print+0xec>
    63ec:	02300693          	li	a3,35
    63f0:	02d70b63          	beq	a4,a3,6426 <print+0x108>
    63f4:	8966                	mv	s2,s9
    63f6:	4501                	li	a0,0
    63f8:	45a5                	li	a1,9
    63fa:	a835                	j	6436 <print+0x118>
    63fc:	00290c93          	addi	s9,s2,2
    6400:	bf7d                	j	63be <print+0xa0>
    6402:	00290c93          	addi	s9,s2,2
    6406:	4791                	li	a5,4
    6408:	bfe1                	j	63e0 <print+0xc2>
    640a:	02d00693          	li	a3,45
    640e:	00d70963          	beq	a4,a3,6420 <print+0x102>
    6412:	03000693          	li	a3,48
    6416:	fcd71fe3          	bne	a4,a3,63f4 <print+0xd6>
    641a:	0027e793          	ori	a5,a5,2
    641e:	a031                	j	642a <print+0x10c>
    6420:	0c85                	addi	s9,s9,1
    6422:	4785                	li	a5,1
    6424:	bfc1                	j	63f4 <print+0xd6>
    6426:	0047e793          	ori	a5,a5,4
    642a:	0c85                	addi	s9,s9,1
    642c:	b7e1                	j	63f4 <print+0xd6>
    642e:	03850533          	mul	a0,a0,s8
    6432:	0905                	addi	s2,s2,1
    6434:	9536                	add	a0,a0,a3
    6436:	00090703          	lb	a4,0(s2)
    643a:	fd070693          	addi	a3,a4,-48
    643e:	0ff6f613          	andi	a2,a3,255
    6442:	fec5f6e3          	bgeu	a1,a2,642e <print+0x110>
    6446:	02e00613          	li	a2,46
    644a:	4699                	li	a3,6
    644c:	00c71e63          	bne	a4,a2,6468 <print+0x14a>
    6450:	0905                	addi	s2,s2,1
    6452:	4681                	li	a3,0
    6454:	4625                	li	a2,9
    6456:	00090703          	lb	a4,0(s2)
    645a:	fd070713          	addi	a4,a4,-48
    645e:	0ff77593          	andi	a1,a4,255
    6462:	02b67563          	bgeu	a2,a1,648c <print+0x16e>
    6466:	8a36                	mv	s4,a3
    6468:	00090703          	lb	a4,0(s2)
    646c:	06a00613          	li	a2,106
    6470:	0ac70963          	beq	a4,a2,6522 <print+0x204>
    6474:	02e64163          	blt	a2,a4,6496 <print+0x178>
    6478:	04c00613          	li	a2,76
    647c:	0ac70363          	beq	a4,a2,6522 <print+0x204>
    6480:	06800613          	li	a2,104
    6484:	08c70863          	beq	a4,a2,6514 <print+0x1f6>
    6488:	4601                	li	a2,0
    648a:	a81d                	j	64c0 <print+0x1a2>
    648c:	038686b3          	mul	a3,a3,s8
    6490:	0905                	addi	s2,s2,1
    6492:	96ba                	add	a3,a3,a4
    6494:	b7c9                	j	6456 <print+0x138>
    6496:	07400613          	li	a2,116
    649a:	08c70463          	beq	a4,a2,6522 <print+0x204>
    649e:	07a00613          	li	a2,122
    64a2:	08c70063          	beq	a4,a2,6522 <print+0x204>
    64a6:	06c00593          	li	a1,108
    64aa:	4601                	li	a2,0
    64ac:	00b71a63          	bne	a4,a1,64c0 <print+0x1a2>
    64b0:	00190583          	lb	a1,1(s2)
    64b4:	460d                	li	a2,3
    64b6:	00e59463          	bne	a1,a4,64be <print+0x1a0>
    64ba:	0905                	addi	s2,s2,1
    64bc:	4611                	li	a2,4
    64be:	0905                	addi	s2,s2,1
    64c0:	00090703          	lb	a4,0(s2)
    64c4:	06000593          	li	a1,96
    64c8:	06100813          	li	a6,97
    64cc:	00e5c463          	blt	a1,a4,64d4 <print+0x1b6>
    64d0:	04100813          	li	a6,65
    64d4:	06700593          	li	a1,103
    64d8:	06e5c263          	blt	a1,a4,653c <print+0x21e>
    64dc:	06500593          	li	a1,101
    64e0:	16b75963          	bge	a4,a1,6652 <print+0x334>
    64e4:	04700593          	li	a1,71
    64e8:	02e5cf63          	blt	a1,a4,6526 <print+0x208>
    64ec:	04500613          	li	a2,69
    64f0:	16c75163          	bge	a4,a2,6652 <print+0x334>
    64f4:	04300693          	li	a3,67
    64f8:	e8d71ae3          	bne	a4,a3,638c <print+0x6e>
    64fc:	4018                	lw	a4,0(s0)
    64fe:	00440c93          	addi	s9,s0,4
    6502:	00010ea3          	sb	zero,29(sp)
    6506:	00e10e23          	sb	a4,28(sp)
    650a:	86be                	mv	a3,a5
    650c:	4701                	li	a4,0
    650e:	862a                	mv	a2,a0
    6510:	086c                	addi	a1,sp,28
    6512:	a071                	j	659e <print+0x280>
    6514:	00190583          	lb	a1,1(s2)
    6518:	4601                	li	a2,0
    651a:	fae593e3          	bne	a1,a4,64c0 <print+0x1a2>
    651e:	0909                	addi	s2,s2,2
    6520:	b745                	j	64c0 <print+0x1a2>
    6522:	0905                	addi	s2,s2,1
    6524:	b795                	j	6488 <print+0x16a>
    6526:	06300693          	li	a3,99
    652a:	fcd709e3          	beq	a4,a3,64fc <print+0x1de>
    652e:	06e6ce63          	blt	a3,a4,65aa <print+0x28c>
    6532:	05800693          	li	a3,88
    6536:	02d70363          	beq	a4,a3,655c <print+0x23e>
    653a:	bd89                	j	638c <print+0x6e>
    653c:	07300693          	li	a3,115
    6540:	04d70663          	beq	a4,a3,658c <print+0x26e>
    6544:	02e6cd63          	blt	a3,a4,657e <print+0x260>
    6548:	06f00693          	li	a3,111
    654c:	0cd70b63          	beq	a4,a3,6622 <print+0x304>
    6550:	07000693          	li	a3,112
    6554:	0047e793          	ori	a5,a5,4
    6558:	e2d71ae3          	bne	a4,a3,638c <print+0x6e>
    655c:	4711                	li	a4,4
    655e:	0ae61b63          	bne	a2,a4,6614 <print+0x2f6>
    6562:	041d                	addi	s0,s0,7
    6564:	ff847713          	andi	a4,s0,-8
    6568:	430c                	lw	a1,0(a4)
    656a:	4350                	lw	a2,4(a4)
    656c:	00870413          	addi	s0,a4,8
    6570:	88c2                	mv	a7,a6
    6572:	c002                	sw	zero,0(sp)
    6574:	883e                	mv	a6,a5
    6576:	4701                	li	a4,0
    6578:	87aa                	mv	a5,a0
    657a:	46c1                	li	a3,16
    657c:	a0b9                	j	65ca <print+0x2ac>
    657e:	07500693          	li	a3,117
    6582:	06d70363          	beq	a4,a3,65e8 <print+0x2ca>
    6586:	07800693          	li	a3,120
    658a:	b775                	j	6536 <print+0x218>
    658c:	4018                	lw	a4,0(s0)
    658e:	00440c93          	addi	s9,s0,4
    6592:	85da                	mv	a1,s6
    6594:	c311                	beqz	a4,6598 <print+0x27a>
    6596:	85ba                	mv	a1,a4
    6598:	8752                	mv	a4,s4
    659a:	86be                	mv	a3,a5
    659c:	862a                	mv	a2,a0
    659e:	854e                	mv	a0,s3
    65a0:	985ff0ef          	jal	ra,5f24 <prints>
    65a4:	94aa                	add	s1,s1,a0
    65a6:	8466                	mv	s0,s9
    65a8:	b3d5                	j	638c <print+0x6e>
    65aa:	4711                	li	a4,4
    65ac:	02e61463          	bne	a2,a4,65d4 <print+0x2b6>
    65b0:	041d                	addi	s0,s0,7
    65b2:	ff847713          	andi	a4,s0,-8
    65b6:	430c                	lw	a1,0(a4)
    65b8:	4350                	lw	a2,4(a4)
    65ba:	00870413          	addi	s0,a4,8
    65be:	88c2                	mv	a7,a6
    65c0:	c002                	sw	zero,0(sp)
    65c2:	883e                	mv	a6,a5
    65c4:	4705                	li	a4,1
    65c6:	87aa                	mv	a5,a0
    65c8:	46a9                	li	a3,10
    65ca:	854e                	mv	a0,s3
    65cc:	b2dff0ef          	jal	ra,60f8 <printLongLongInt>
    65d0:	94aa                	add	s1,s1,a0
    65d2:	bb6d                	j	638c <print+0x6e>
    65d4:	400c                	lw	a1,0(s0)
    65d6:	88d2                	mv	a7,s4
    65d8:	0411                	addi	s0,s0,4
    65da:	872a                	mv	a4,a0
    65dc:	4685                	li	a3,1
    65de:	4629                	li	a2,10
    65e0:	854e                	mv	a0,s3
    65e2:	a23ff0ef          	jal	ra,6004 <printInt>
    65e6:	b7ed                	j	65d0 <print+0x2b2>
    65e8:	4711                	li	a4,4
    65ea:	00e61f63          	bne	a2,a4,6608 <print+0x2ea>
    65ee:	041d                	addi	s0,s0,7
    65f0:	ff847713          	andi	a4,s0,-8
    65f4:	430c                	lw	a1,0(a4)
    65f6:	4350                	lw	a2,4(a4)
    65f8:	00870413          	addi	s0,a4,8
    65fc:	88c2                	mv	a7,a6
    65fe:	c002                	sw	zero,0(sp)
    6600:	883e                	mv	a6,a5
    6602:	4701                	li	a4,0
    6604:	87aa                	mv	a5,a0
    6606:	b7c9                	j	65c8 <print+0x2aa>
    6608:	400c                	lw	a1,0(s0)
    660a:	88d2                	mv	a7,s4
    660c:	0411                	addi	s0,s0,4
    660e:	872a                	mv	a4,a0
    6610:	4681                	li	a3,0
    6612:	b7f1                	j	65de <print+0x2c0>
    6614:	400c                	lw	a1,0(s0)
    6616:	88d2                	mv	a7,s4
    6618:	0411                	addi	s0,s0,4
    661a:	872a                	mv	a4,a0
    661c:	4681                	li	a3,0
    661e:	4641                	li	a2,16
    6620:	b7c1                	j	65e0 <print+0x2c2>
    6622:	4711                	li	a4,4
    6624:	02e61063          	bne	a2,a4,6644 <print+0x326>
    6628:	041d                	addi	s0,s0,7
    662a:	ff847713          	andi	a4,s0,-8
    662e:	430c                	lw	a1,0(a4)
    6630:	4350                	lw	a2,4(a4)
    6632:	00870413          	addi	s0,a4,8
    6636:	88c2                	mv	a7,a6
    6638:	c002                	sw	zero,0(sp)
    663a:	883e                	mv	a6,a5
    663c:	4701                	li	a4,0
    663e:	87aa                	mv	a5,a0
    6640:	46a1                	li	a3,8
    6642:	b761                	j	65ca <print+0x2ac>
    6644:	400c                	lw	a1,0(s0)
    6646:	88d2                	mv	a7,s4
    6648:	0411                	addi	s0,s0,4
    664a:	872a                	mv	a4,a0
    664c:	4681                	li	a3,0
    664e:	4621                	li	a2,8
    6650:	bf41                	j	65e0 <print+0x2c2>
    6652:	041d                	addi	s0,s0,7
    6654:	ff847613          	andi	a2,s0,-8
    6658:	00860413          	addi	s0,a2,8 # 7f800008 <_eusrstack+0x5f7f8008>
    665c:	420c                	lw	a1,0(a2)
    665e:	4250                	lw	a2,4(a2)
    6660:	40d50733          	sub	a4,a0,a3
    6664:	88c2                	mv	a7,a6
    6666:	177d                	addi	a4,a4,-1
    6668:	883e                	mv	a6,a5
    666a:	854e                	mv	a0,s3
    666c:	87b6                	mv	a5,a3
    666e:	46a9                	li	a3,10
    6670:	bafff0ef          	jal	ra,621e <printDouble>
    6674:	bfb1                	j	65d0 <print+0x2b2>

00006676 <printf>:
    6676:	7139                	addi	sp,sp,-64
    6678:	d22e                	sw	a1,36(sp)
    667a:	d432                	sw	a2,40(sp)
    667c:	85aa                	mv	a1,a0
    667e:	1050                	addi	a2,sp,36
    6680:	4501                	li	a0,0
    6682:	ce06                	sw	ra,28(sp)
    6684:	d636                	sw	a3,44(sp)
    6686:	d83a                	sw	a4,48(sp)
    6688:	da3e                	sw	a5,52(sp)
    668a:	dc42                	sw	a6,56(sp)
    668c:	de46                	sw	a7,60(sp)
    668e:	c632                	sw	a2,12(sp)
    6690:	c8fff0ef          	jal	ra,631e <print>
    6694:	40f2                	lw	ra,28(sp)
    6696:	6121                	addi	sp,sp,64
    6698:	8082                	ret

0000669a <puts>:
    669a:	1101                	addi	sp,sp,-32
    669c:	cc22                	sw	s0,24(sp)
    669e:	ca26                	sw	s1,20(sp)
    66a0:	ce06                	sw	ra,28(sp)
    66a2:	00054783          	lbu	a5,0(a0)
    66a6:	84aa                	mv	s1,a0
    66a8:	4401                	li	s0,0
    66aa:	00f107a3          	sb	a5,15(sp)
    66ae:	00f10783          	lb	a5,15(sp)
    66b2:	0405                	addi	s0,s0,1
    66b4:	e385                	bnez	a5,66d4 <puts+0x3a>
    66b6:	47a9                	li	a5,10
    66b8:	00f10593          	addi	a1,sp,15
    66bc:	4605                	li	a2,1
    66be:	4501                	li	a0,0
    66c0:	00f107a3          	sb	a5,15(sp)
    66c4:	804ff0ef          	jal	ra,56c8 <_write>
    66c8:	8522                	mv	a0,s0
    66ca:	40f2                	lw	ra,28(sp)
    66cc:	4462                	lw	s0,24(sp)
    66ce:	44d2                	lw	s1,20(sp)
    66d0:	6105                	addi	sp,sp,32
    66d2:	8082                	ret
    66d4:	4605                	li	a2,1
    66d6:	00f10593          	addi	a1,sp,15
    66da:	4501                	li	a0,0
    66dc:	fedfe0ef          	jal	ra,56c8 <_write>
    66e0:	008487b3          	add	a5,s1,s0
    66e4:	0007c783          	lbu	a5,0(a5)
    66e8:	00f107a3          	sb	a5,15(sp)
    66ec:	b7c9                	j	66ae <puts+0x14>

000066ee <__divdi3>:
    66ee:	4801                	li	a6,0
    66f0:	0e05c663          	bltz	a1,67dc <__divdi3+0xee>
    66f4:	0006db63          	bgez	a3,670a <__divdi3+0x1c>
    66f8:	40c00633          	neg	a2,a2
    66fc:	00c037b3          	snez	a5,a2
    6700:	40d006b3          	neg	a3,a3
    6704:	fff84813          	not	a6,a6
    6708:	8e9d                	sub	a3,a3,a5
    670a:	87b6                	mv	a5,a3
    670c:	8332                	mv	t1,a2
    670e:	8eaa                	mv	t4,a0
    6710:	88ae                	mv	a7,a1
    6712:	18069163          	bnez	a3,6894 <__divdi3+0x1a6>
    6716:	0cc5fc63          	bgeu	a1,a2,67ee <__divdi3+0x100>
    671a:	6741                	lui	a4,0x10
    671c:	1ee66163          	bltu	a2,a4,68fe <__divdi3+0x210>
    6720:	010007b7          	lui	a5,0x1000
    6724:	36f66563          	bltu	a2,a5,6a8e <__divdi3+0x3a0>
    6728:	01865693          	srli	a3,a2,0x18
    672c:	47e1                	li	a5,24
    672e:	00003717          	auipc	a4,0x3
    6732:	5ce70713          	addi	a4,a4,1486 # 9cfc <__clz_tab>
    6736:	9736                	add	a4,a4,a3
    6738:	00074703          	lbu	a4,0(a4)
    673c:	97ba                	add	a5,a5,a4
    673e:	02000713          	li	a4,32
    6742:	8f1d                	sub	a4,a4,a5
    6744:	cb19                	beqz	a4,675a <__divdi3+0x6c>
    6746:	00e595b3          	sll	a1,a1,a4
    674a:	00f557b3          	srl	a5,a0,a5
    674e:	00e61333          	sll	t1,a2,a4
    6752:	00b7e8b3          	or	a7,a5,a1
    6756:	00e51eb3          	sll	t4,a0,a4
    675a:	01035613          	srli	a2,t1,0x10
    675e:	02c8d7b3          	divu	a5,a7,a2
    6762:	01031693          	slli	a3,t1,0x10
    6766:	82c1                	srli	a3,a3,0x10
    6768:	010ed713          	srli	a4,t4,0x10
    676c:	02c8f5b3          	remu	a1,a7,a2
    6770:	02f68533          	mul	a0,a3,a5
    6774:	05c2                	slli	a1,a1,0x10
    6776:	00e5e8b3          	or	a7,a1,a4
    677a:	00a8fa63          	bgeu	a7,a0,678e <__divdi3+0xa0>
    677e:	989a                	add	a7,a7,t1
    6780:	fff78713          	addi	a4,a5,-1 # ffffff <_data_lma+0xff6203>
    6784:	0068e463          	bltu	a7,t1,678c <__divdi3+0x9e>
    6788:	32a8e963          	bltu	a7,a0,6aba <__divdi3+0x3cc>
    678c:	87ba                	mv	a5,a4
    678e:	40a888b3          	sub	a7,a7,a0
    6792:	02c8d5b3          	divu	a1,a7,a2
    6796:	0ec2                	slli	t4,t4,0x10
    6798:	010ede93          	srli	t4,t4,0x10
    679c:	02c8f8b3          	remu	a7,a7,a2
    67a0:	02b686b3          	mul	a3,a3,a1
    67a4:	08c2                	slli	a7,a7,0x10
    67a6:	01d8e8b3          	or	a7,a7,t4
    67aa:	00d8fb63          	bgeu	a7,a3,67c0 <__divdi3+0xd2>
    67ae:	989a                	add	a7,a7,t1
    67b0:	fff58713          	addi	a4,a1,-1
    67b4:	0068e563          	bltu	a7,t1,67be <__divdi3+0xd0>
    67b8:	15f9                	addi	a1,a1,-2
    67ba:	00d8e363          	bltu	a7,a3,67c0 <__divdi3+0xd2>
    67be:	85ba                	mv	a1,a4
    67c0:	01079513          	slli	a0,a5,0x10
    67c4:	8d4d                	or	a0,a0,a1
    67c6:	4581                	li	a1,0
    67c8:	00080963          	beqz	a6,67da <__divdi3+0xec>
    67cc:	40a00533          	neg	a0,a0
    67d0:	00a037b3          	snez	a5,a0
    67d4:	40b005b3          	neg	a1,a1
    67d8:	8d9d                	sub	a1,a1,a5
    67da:	8082                	ret
    67dc:	40a00533          	neg	a0,a0
    67e0:	00a037b3          	snez	a5,a0
    67e4:	40b005b3          	neg	a1,a1
    67e8:	8d9d                	sub	a1,a1,a5
    67ea:	587d                	li	a6,-1
    67ec:	b721                	j	66f4 <__divdi3+0x6>
    67ee:	e601                	bnez	a2,67f6 <__divdi3+0x108>
    67f0:	4305                	li	t1,1
    67f2:	02d35333          	divu	t1,t1,a3
    67f6:	6741                	lui	a4,0x10
    67f8:	0ee36a63          	bltu	t1,a4,68ec <__divdi3+0x1fe>
    67fc:	010007b7          	lui	a5,0x1000
    6800:	28f36b63          	bltu	t1,a5,6a96 <__divdi3+0x3a8>
    6804:	01835693          	srli	a3,t1,0x18
    6808:	47e1                	li	a5,24
    680a:	00003717          	auipc	a4,0x3
    680e:	4f270713          	addi	a4,a4,1266 # 9cfc <__clz_tab>
    6812:	9736                	add	a4,a4,a3
    6814:	00074703          	lbu	a4,0(a4)
    6818:	97ba                	add	a5,a5,a4
    681a:	02000713          	li	a4,32
    681e:	8f1d                	sub	a4,a4,a5
    6820:	eb65                	bnez	a4,6910 <__divdi3+0x222>
    6822:	01031893          	slli	a7,t1,0x10
    6826:	406586b3          	sub	a3,a1,t1
    682a:	01035f13          	srli	t5,t1,0x10
    682e:	0108d893          	srli	a7,a7,0x10
    6832:	4585                	li	a1,1
    6834:	010ed713          	srli	a4,t4,0x10
    6838:	03e6d7b3          	divu	a5,a3,t5
    683c:	03e6f6b3          	remu	a3,a3,t5
    6840:	03178633          	mul	a2,a5,a7
    6844:	06c2                	slli	a3,a3,0x10
    6846:	8f55                	or	a4,a4,a3
    6848:	00c77a63          	bgeu	a4,a2,685c <__divdi3+0x16e>
    684c:	971a                	add	a4,a4,t1
    684e:	fff78693          	addi	a3,a5,-1 # ffffff <_data_lma+0xff6203>
    6852:	00676463          	bltu	a4,t1,685a <__divdi3+0x16c>
    6856:	26c76563          	bltu	a4,a2,6ac0 <__divdi3+0x3d2>
    685a:	87b6                	mv	a5,a3
    685c:	8f11                	sub	a4,a4,a2
    685e:	03e756b3          	divu	a3,a4,t5
    6862:	0ec2                	slli	t4,t4,0x10
    6864:	010ede93          	srli	t4,t4,0x10
    6868:	03e77733          	remu	a4,a4,t5
    686c:	031688b3          	mul	a7,a3,a7
    6870:	0742                	slli	a4,a4,0x10
    6872:	01d76733          	or	a4,a4,t4
    6876:	01177b63          	bgeu	a4,a7,688c <__divdi3+0x19e>
    687a:	971a                	add	a4,a4,t1
    687c:	fff68613          	addi	a2,a3,-1
    6880:	00676563          	bltu	a4,t1,688a <__divdi3+0x19c>
    6884:	16f9                	addi	a3,a3,-2
    6886:	01176363          	bltu	a4,a7,688c <__divdi3+0x19e>
    688a:	86b2                	mv	a3,a2
    688c:	01079513          	slli	a0,a5,0x10
    6890:	8d55                	or	a0,a0,a3
    6892:	bf1d                	j	67c8 <__divdi3+0xda>
    6894:	04d5e163          	bltu	a1,a3,68d6 <__divdi3+0x1e8>
    6898:	67c1                	lui	a5,0x10
    689a:	04f6e163          	bltu	a3,a5,68dc <__divdi3+0x1ee>
    689e:	010007b7          	lui	a5,0x1000
    68a2:	1ef6e263          	bltu	a3,a5,6a86 <__divdi3+0x398>
    68a6:	0186d893          	srli	a7,a3,0x18
    68aa:	4761                	li	a4,24
    68ac:	00003797          	auipc	a5,0x3
    68b0:	45078793          	addi	a5,a5,1104 # 9cfc <__clz_tab>
    68b4:	97c6                	add	a5,a5,a7
    68b6:	0007c303          	lbu	t1,0(a5)
    68ba:	02000793          	li	a5,32
    68be:	933a                	add	t1,t1,a4
    68c0:	406787b3          	sub	a5,a5,t1
    68c4:	ebe9                	bnez	a5,6996 <__divdi3+0x2a8>
    68c6:	1cb6ec63          	bltu	a3,a1,6a9e <__divdi3+0x3b0>
    68ca:	00c53533          	sltu	a0,a0,a2
    68ce:	00154513          	xori	a0,a0,1
    68d2:	4581                	li	a1,0
    68d4:	bdd5                	j	67c8 <__divdi3+0xda>
    68d6:	4581                	li	a1,0
    68d8:	4501                	li	a0,0
    68da:	b5fd                	j	67c8 <__divdi3+0xda>
    68dc:	0ff00793          	li	a5,255
    68e0:	1cd7f263          	bgeu	a5,a3,6aa4 <__divdi3+0x3b6>
    68e4:	0086d893          	srli	a7,a3,0x8
    68e8:	4721                	li	a4,8
    68ea:	b7c9                	j	68ac <__divdi3+0x1be>
    68ec:	0ff00713          	li	a4,255
    68f0:	869a                	mv	a3,t1
    68f2:	f0677ce3          	bgeu	a4,t1,680a <__divdi3+0x11c>
    68f6:	00835693          	srli	a3,t1,0x8
    68fa:	47a1                	li	a5,8
    68fc:	b739                	j	680a <__divdi3+0x11c>
    68fe:	0ff00713          	li	a4,255
    6902:	86b2                	mv	a3,a2
    6904:	e2c775e3          	bgeu	a4,a2,672e <__divdi3+0x40>
    6908:	00865693          	srli	a3,a2,0x8
    690c:	47a1                	li	a5,8
    690e:	b505                	j	672e <__divdi3+0x40>
    6910:	00e31333          	sll	t1,t1,a4
    6914:	00f5d633          	srl	a2,a1,a5
    6918:	01035f13          	srli	t5,t1,0x10
    691c:	03e65e33          	divu	t3,a2,t5
    6920:	00e596b3          	sll	a3,a1,a4
    6924:	00f557b3          	srl	a5,a0,a5
    6928:	8edd                	or	a3,a3,a5
    692a:	01031893          	slli	a7,t1,0x10
    692e:	0108d893          	srli	a7,a7,0x10
    6932:	00e51eb3          	sll	t4,a0,a4
    6936:	0106d593          	srli	a1,a3,0x10
    693a:	03e677b3          	remu	a5,a2,t5
    693e:	03c88733          	mul	a4,a7,t3
    6942:	07c2                	slli	a5,a5,0x10
    6944:	8fcd                	or	a5,a5,a1
    6946:	00e7fb63          	bgeu	a5,a4,695c <__divdi3+0x26e>
    694a:	979a                	add	a5,a5,t1
    694c:	fffe0613          	addi	a2,t3,-1
    6950:	1667e363          	bltu	a5,t1,6ab6 <__divdi3+0x3c8>
    6954:	16e7f163          	bgeu	a5,a4,6ab6 <__divdi3+0x3c8>
    6958:	1e79                	addi	t3,t3,-2
    695a:	979a                	add	a5,a5,t1
    695c:	8f99                	sub	a5,a5,a4
    695e:	03e7d633          	divu	a2,a5,t5
    6962:	01069713          	slli	a4,a3,0x10
    6966:	8341                	srli	a4,a4,0x10
    6968:	03e7f7b3          	remu	a5,a5,t5
    696c:	02c88533          	mul	a0,a7,a2
    6970:	01079693          	slli	a3,a5,0x10
    6974:	8ed9                	or	a3,a3,a4
    6976:	00a6fb63          	bgeu	a3,a0,698c <__divdi3+0x29e>
    697a:	969a                	add	a3,a3,t1
    697c:	fff60793          	addi	a5,a2,-1
    6980:	1266e763          	bltu	a3,t1,6aae <__divdi3+0x3c0>
    6984:	12a6f563          	bgeu	a3,a0,6aae <__divdi3+0x3c0>
    6988:	1679                	addi	a2,a2,-2
    698a:	969a                	add	a3,a3,t1
    698c:	010e1593          	slli	a1,t3,0x10
    6990:	8e89                	sub	a3,a3,a0
    6992:	8dd1                	or	a1,a1,a2
    6994:	b545                	j	6834 <__divdi3+0x146>
    6996:	00665733          	srl	a4,a2,t1
    699a:	00f696b3          	sll	a3,a3,a5
    699e:	8ed9                	or	a3,a3,a4
    69a0:	0065d8b3          	srl	a7,a1,t1
    69a4:	0106df13          	srli	t5,a3,0x10
    69a8:	03e8deb3          	divu	t4,a7,t5
    69ac:	01069e13          	slli	t3,a3,0x10
    69b0:	00655333          	srl	t1,a0,t1
    69b4:	010e5e13          	srli	t3,t3,0x10
    69b8:	00f595b3          	sll	a1,a1,a5
    69bc:	00b365b3          	or	a1,t1,a1
    69c0:	0105d713          	srli	a4,a1,0x10
    69c4:	00f61633          	sll	a2,a2,a5
    69c8:	03e8f8b3          	remu	a7,a7,t5
    69cc:	03de0333          	mul	t1,t3,t4
    69d0:	08c2                	slli	a7,a7,0x10
    69d2:	00e8e733          	or	a4,a7,a4
    69d6:	00677b63          	bgeu	a4,t1,69ec <__divdi3+0x2fe>
    69da:	9736                	add	a4,a4,a3
    69dc:	fffe8893          	addi	a7,t4,-1
    69e0:	0cd76963          	bltu	a4,a3,6ab2 <__divdi3+0x3c4>
    69e4:	0c677763          	bgeu	a4,t1,6ab2 <__divdi3+0x3c4>
    69e8:	1ef9                	addi	t4,t4,-2
    69ea:	9736                	add	a4,a4,a3
    69ec:	40670733          	sub	a4,a4,t1
    69f0:	03e75333          	divu	t1,a4,t5
    69f4:	05c2                	slli	a1,a1,0x10
    69f6:	81c1                	srli	a1,a1,0x10
    69f8:	03e77733          	remu	a4,a4,t5
    69fc:	026e08b3          	mul	a7,t3,t1
    6a00:	0742                	slli	a4,a4,0x10
    6a02:	8dd9                	or	a1,a1,a4
    6a04:	0115fb63          	bgeu	a1,a7,6a1a <__divdi3+0x32c>
    6a08:	95b6                	add	a1,a1,a3
    6a0a:	fff30713          	addi	a4,t1,-1
    6a0e:	08d5ee63          	bltu	a1,a3,6aaa <__divdi3+0x3bc>
    6a12:	0915fc63          	bgeu	a1,a7,6aaa <__divdi3+0x3bc>
    6a16:	1379                	addi	t1,t1,-2
    6a18:	95b6                	add	a1,a1,a3
    6a1a:	0ec2                	slli	t4,t4,0x10
    6a1c:	6f41                	lui	t5,0x10
    6a1e:	006eeeb3          	or	t4,t4,t1
    6a22:	ffff0713          	addi	a4,t5,-1 # ffff <_data_lma+0x6203>
    6a26:	00eef6b3          	and	a3,t4,a4
    6a2a:	010ed313          	srli	t1,t4,0x10
    6a2e:	8f71                	and	a4,a4,a2
    6a30:	8241                	srli	a2,a2,0x10
    6a32:	02e68e33          	mul	t3,a3,a4
    6a36:	411585b3          	sub	a1,a1,a7
    6a3a:	02c686b3          	mul	a3,a3,a2
    6a3e:	010e5893          	srli	a7,t3,0x10
    6a42:	02e30733          	mul	a4,t1,a4
    6a46:	96ba                	add	a3,a3,a4
    6a48:	96c6                	add	a3,a3,a7
    6a4a:	02c30633          	mul	a2,t1,a2
    6a4e:	00e6f363          	bgeu	a3,a4,6a54 <__divdi3+0x366>
    6a52:	967a                	add	a2,a2,t5
    6a54:	0106d313          	srli	t1,a3,0x10
    6a58:	961a                	add	a2,a2,t1
    6a5a:	02c5e263          	bltu	a1,a2,6a7e <__divdi3+0x390>
    6a5e:	00c58563          	beq	a1,a2,6a68 <__divdi3+0x37a>
    6a62:	8576                	mv	a0,t4
    6a64:	4581                	li	a1,0
    6a66:	b38d                	j	67c8 <__divdi3+0xda>
    6a68:	6741                	lui	a4,0x10
    6a6a:	177d                	addi	a4,a4,-1
    6a6c:	8ef9                	and	a3,a3,a4
    6a6e:	06c2                	slli	a3,a3,0x10
    6a70:	00ee7e33          	and	t3,t3,a4
    6a74:	00f517b3          	sll	a5,a0,a5
    6a78:	96f2                	add	a3,a3,t3
    6a7a:	fed7f4e3          	bgeu	a5,a3,6a62 <__divdi3+0x374>
    6a7e:	fffe8513          	addi	a0,t4,-1
    6a82:	4581                	li	a1,0
    6a84:	b391                	j	67c8 <__divdi3+0xda>
    6a86:	0106d893          	srli	a7,a3,0x10
    6a8a:	4741                	li	a4,16
    6a8c:	b505                	j	68ac <__divdi3+0x1be>
    6a8e:	01065693          	srli	a3,a2,0x10
    6a92:	47c1                	li	a5,16
    6a94:	b969                	j	672e <__divdi3+0x40>
    6a96:	01035693          	srli	a3,t1,0x10
    6a9a:	47c1                	li	a5,16
    6a9c:	b3bd                	j	680a <__divdi3+0x11c>
    6a9e:	4581                	li	a1,0
    6aa0:	4505                	li	a0,1
    6aa2:	b31d                	j	67c8 <__divdi3+0xda>
    6aa4:	88b6                	mv	a7,a3
    6aa6:	4701                	li	a4,0
    6aa8:	b511                	j	68ac <__divdi3+0x1be>
    6aaa:	833a                	mv	t1,a4
    6aac:	b7bd                	j	6a1a <__divdi3+0x32c>
    6aae:	863e                	mv	a2,a5
    6ab0:	bdf1                	j	698c <__divdi3+0x29e>
    6ab2:	8ec6                	mv	t4,a7
    6ab4:	bf25                	j	69ec <__divdi3+0x2fe>
    6ab6:	8e32                	mv	t3,a2
    6ab8:	b555                	j	695c <__divdi3+0x26e>
    6aba:	17f9                	addi	a5,a5,-2
    6abc:	989a                	add	a7,a7,t1
    6abe:	b9c1                	j	678e <__divdi3+0xa0>
    6ac0:	17f9                	addi	a5,a5,-2
    6ac2:	971a                	add	a4,a4,t1
    6ac4:	bb61                	j	685c <__divdi3+0x16e>

00006ac6 <__udivdi3>:
    6ac6:	87b6                	mv	a5,a3
    6ac8:	88b2                	mv	a7,a2
    6aca:	832a                	mv	t1,a0
    6acc:	882e                	mv	a6,a1
    6ace:	14069d63          	bnez	a3,6c28 <__udivdi3+0x162>
    6ad2:	0ac5f963          	bgeu	a1,a2,6b84 <__udivdi3+0xbe>
    6ad6:	6741                	lui	a4,0x10
    6ad8:	1ae66e63          	bltu	a2,a4,6c94 <__udivdi3+0x1ce>
    6adc:	010007b7          	lui	a5,0x1000
    6ae0:	34f66363          	bltu	a2,a5,6e26 <__udivdi3+0x360>
    6ae4:	01865693          	srli	a3,a2,0x18
    6ae8:	47e1                	li	a5,24
    6aea:	00003717          	auipc	a4,0x3
    6aee:	21270713          	addi	a4,a4,530 # 9cfc <__clz_tab>
    6af2:	9736                	add	a4,a4,a3
    6af4:	00074703          	lbu	a4,0(a4)
    6af8:	97ba                	add	a5,a5,a4
    6afa:	02000713          	li	a4,32
    6afe:	8f1d                	sub	a4,a4,a5
    6b00:	cb19                	beqz	a4,6b16 <__udivdi3+0x50>
    6b02:	00e59833          	sll	a6,a1,a4
    6b06:	00f557b3          	srl	a5,a0,a5
    6b0a:	00e618b3          	sll	a7,a2,a4
    6b0e:	0107e833          	or	a6,a5,a6
    6b12:	00e51333          	sll	t1,a0,a4
    6b16:	0108d613          	srli	a2,a7,0x10
    6b1a:	02c85533          	divu	a0,a6,a2
    6b1e:	01089693          	slli	a3,a7,0x10
    6b22:	82c1                	srli	a3,a3,0x10
    6b24:	01035793          	srli	a5,t1,0x10
    6b28:	02c87733          	remu	a4,a6,a2
    6b2c:	02a685b3          	mul	a1,a3,a0
    6b30:	0742                	slli	a4,a4,0x10
    6b32:	00f76833          	or	a6,a4,a5
    6b36:	00b87a63          	bgeu	a6,a1,6b4a <__udivdi3+0x84>
    6b3a:	9846                	add	a6,a6,a7
    6b3c:	fff50793          	addi	a5,a0,-1
    6b40:	01186463          	bltu	a6,a7,6b48 <__udivdi3+0x82>
    6b44:	30b86763          	bltu	a6,a1,6e52 <__udivdi3+0x38c>
    6b48:	853e                	mv	a0,a5
    6b4a:	40b80833          	sub	a6,a6,a1
    6b4e:	02c85733          	divu	a4,a6,a2
    6b52:	0342                	slli	t1,t1,0x10
    6b54:	01035313          	srli	t1,t1,0x10
    6b58:	02c87833          	remu	a6,a6,a2
    6b5c:	02e686b3          	mul	a3,a3,a4
    6b60:	0842                	slli	a6,a6,0x10
    6b62:	00686833          	or	a6,a6,t1
    6b66:	00d87b63          	bgeu	a6,a3,6b7c <__udivdi3+0xb6>
    6b6a:	9846                	add	a6,a6,a7
    6b6c:	fff70793          	addi	a5,a4,-1
    6b70:	01186563          	bltu	a6,a7,6b7a <__udivdi3+0xb4>
    6b74:	1779                	addi	a4,a4,-2
    6b76:	00d86363          	bltu	a6,a3,6b7c <__udivdi3+0xb6>
    6b7a:	873e                	mv	a4,a5
    6b7c:	0542                	slli	a0,a0,0x10
    6b7e:	8d59                	or	a0,a0,a4
    6b80:	4581                	li	a1,0
    6b82:	8082                	ret
    6b84:	e601                	bnez	a2,6b8c <__udivdi3+0xc6>
    6b86:	4705                	li	a4,1
    6b88:	02c758b3          	divu	a7,a4,a2
    6b8c:	6741                	lui	a4,0x10
    6b8e:	0ee8ea63          	bltu	a7,a4,6c82 <__udivdi3+0x1bc>
    6b92:	010007b7          	lui	a5,0x1000
    6b96:	28f8ec63          	bltu	a7,a5,6e2e <__udivdi3+0x368>
    6b9a:	0188d693          	srli	a3,a7,0x18
    6b9e:	47e1                	li	a5,24
    6ba0:	00003717          	auipc	a4,0x3
    6ba4:	15c70713          	addi	a4,a4,348 # 9cfc <__clz_tab>
    6ba8:	9736                	add	a4,a4,a3
    6baa:	00074683          	lbu	a3,0(a4)
    6bae:	96be                	add	a3,a3,a5
    6bb0:	02000793          	li	a5,32
    6bb4:	8f95                	sub	a5,a5,a3
    6bb6:	ebe5                	bnez	a5,6ca6 <__udivdi3+0x1e0>
    6bb8:	01089e93          	slli	t4,a7,0x10
    6bbc:	41158733          	sub	a4,a1,a7
    6bc0:	0108df13          	srli	t5,a7,0x10
    6bc4:	010ede93          	srli	t4,t4,0x10
    6bc8:	4585                	li	a1,1
    6bca:	01035793          	srli	a5,t1,0x10
    6bce:	03e75533          	divu	a0,a4,t5
    6bd2:	03e77733          	remu	a4,a4,t5
    6bd6:	03d506b3          	mul	a3,a0,t4
    6bda:	0742                	slli	a4,a4,0x10
    6bdc:	8fd9                	or	a5,a5,a4
    6bde:	00d7fa63          	bgeu	a5,a3,6bf2 <__udivdi3+0x12c>
    6be2:	97c6                	add	a5,a5,a7
    6be4:	fff50713          	addi	a4,a0,-1
    6be8:	0117e463          	bltu	a5,a7,6bf0 <__udivdi3+0x12a>
    6bec:	26d7e663          	bltu	a5,a3,6e58 <__udivdi3+0x392>
    6bf0:	853a                	mv	a0,a4
    6bf2:	8f95                	sub	a5,a5,a3
    6bf4:	03e7d733          	divu	a4,a5,t5
    6bf8:	0342                	slli	t1,t1,0x10
    6bfa:	01035313          	srli	t1,t1,0x10
    6bfe:	03e7f7b3          	remu	a5,a5,t5
    6c02:	03d70eb3          	mul	t4,a4,t4
    6c06:	07c2                	slli	a5,a5,0x10
    6c08:	0067e7b3          	or	a5,a5,t1
    6c0c:	01d7fb63          	bgeu	a5,t4,6c22 <__udivdi3+0x15c>
    6c10:	97c6                	add	a5,a5,a7
    6c12:	fff70693          	addi	a3,a4,-1
    6c16:	0117e563          	bltu	a5,a7,6c20 <__udivdi3+0x15a>
    6c1a:	1779                	addi	a4,a4,-2
    6c1c:	01d7e363          	bltu	a5,t4,6c22 <__udivdi3+0x15c>
    6c20:	8736                	mv	a4,a3
    6c22:	0542                	slli	a0,a0,0x10
    6c24:	8d59                	or	a0,a0,a4
    6c26:	8082                	ret
    6c28:	04d5e263          	bltu	a1,a3,6c6c <__udivdi3+0x1a6>
    6c2c:	67c1                	lui	a5,0x10
    6c2e:	04f6e263          	bltu	a3,a5,6c72 <__udivdi3+0x1ac>
    6c32:	010007b7          	lui	a5,0x1000
    6c36:	1ef6e463          	bltu	a3,a5,6e1e <__udivdi3+0x358>
    6c3a:	0186d713          	srli	a4,a3,0x18
    6c3e:	4861                	li	a6,24
    6c40:	00003797          	auipc	a5,0x3
    6c44:	0bc78793          	addi	a5,a5,188 # 9cfc <__clz_tab>
    6c48:	97ba                	add	a5,a5,a4
    6c4a:	0007c703          	lbu	a4,0(a5)
    6c4e:	02000e13          	li	t3,32
    6c52:	9742                	add	a4,a4,a6
    6c54:	40ee0e33          	sub	t3,t3,a4
    6c58:	0c0e1a63          	bnez	t3,6d2c <__udivdi3+0x266>
    6c5c:	1cb6ed63          	bltu	a3,a1,6e36 <__udivdi3+0x370>
    6c60:	00c53533          	sltu	a0,a0,a2
    6c64:	00154513          	xori	a0,a0,1
    6c68:	4581                	li	a1,0
    6c6a:	8082                	ret
    6c6c:	4581                	li	a1,0
    6c6e:	4501                	li	a0,0
    6c70:	8082                	ret
    6c72:	0ff00793          	li	a5,255
    6c76:	1cd7f363          	bgeu	a5,a3,6e3c <__udivdi3+0x376>
    6c7a:	0086d713          	srli	a4,a3,0x8
    6c7e:	4821                	li	a6,8
    6c80:	b7c1                	j	6c40 <__udivdi3+0x17a>
    6c82:	0ff00713          	li	a4,255
    6c86:	86c6                	mv	a3,a7
    6c88:	f1177ce3          	bgeu	a4,a7,6ba0 <__udivdi3+0xda>
    6c8c:	0088d693          	srli	a3,a7,0x8
    6c90:	47a1                	li	a5,8
    6c92:	b739                	j	6ba0 <__udivdi3+0xda>
    6c94:	0ff00713          	li	a4,255
    6c98:	86b2                	mv	a3,a2
    6c9a:	e4c778e3          	bgeu	a4,a2,6aea <__udivdi3+0x24>
    6c9e:	00865693          	srli	a3,a2,0x8
    6ca2:	47a1                	li	a5,8
    6ca4:	b599                	j	6aea <__udivdi3+0x24>
    6ca6:	00f898b3          	sll	a7,a7,a5
    6caa:	00d5d633          	srl	a2,a1,a3
    6cae:	0108df13          	srli	t5,a7,0x10
    6cb2:	03e65e33          	divu	t3,a2,t5
    6cb6:	00f59733          	sll	a4,a1,a5
    6cba:	00d556b3          	srl	a3,a0,a3
    6cbe:	8f55                	or	a4,a4,a3
    6cc0:	01089e93          	slli	t4,a7,0x10
    6cc4:	010ede93          	srli	t4,t4,0x10
    6cc8:	00f51333          	sll	t1,a0,a5
    6ccc:	01075593          	srli	a1,a4,0x10
    6cd0:	03e676b3          	remu	a3,a2,t5
    6cd4:	03ce87b3          	mul	a5,t4,t3
    6cd8:	06c2                	slli	a3,a3,0x10
    6cda:	8ecd                	or	a3,a3,a1
    6cdc:	00f6fb63          	bgeu	a3,a5,6cf2 <__udivdi3+0x22c>
    6ce0:	96c6                	add	a3,a3,a7
    6ce2:	fffe0613          	addi	a2,t3,-1
    6ce6:	1716e463          	bltu	a3,a7,6e4e <__udivdi3+0x388>
    6cea:	16f6f263          	bgeu	a3,a5,6e4e <__udivdi3+0x388>
    6cee:	1e79                	addi	t3,t3,-2
    6cf0:	96c6                	add	a3,a3,a7
    6cf2:	8e9d                	sub	a3,a3,a5
    6cf4:	03e6d633          	divu	a2,a3,t5
    6cf8:	01071793          	slli	a5,a4,0x10
    6cfc:	83c1                	srli	a5,a5,0x10
    6cfe:	03e6f6b3          	remu	a3,a3,t5
    6d02:	02ce8533          	mul	a0,t4,a2
    6d06:	01069713          	slli	a4,a3,0x10
    6d0a:	8f5d                	or	a4,a4,a5
    6d0c:	00a77b63          	bgeu	a4,a0,6d22 <__udivdi3+0x25c>
    6d10:	9746                	add	a4,a4,a7
    6d12:	fff60793          	addi	a5,a2,-1
    6d16:	13176863          	bltu	a4,a7,6e46 <__udivdi3+0x380>
    6d1a:	12a77663          	bgeu	a4,a0,6e46 <__udivdi3+0x380>
    6d1e:	1679                	addi	a2,a2,-2
    6d20:	9746                	add	a4,a4,a7
    6d22:	010e1593          	slli	a1,t3,0x10
    6d26:	8f09                	sub	a4,a4,a0
    6d28:	8dd1                	or	a1,a1,a2
    6d2a:	b545                	j	6bca <__udivdi3+0x104>
    6d2c:	00e657b3          	srl	a5,a2,a4
    6d30:	01c696b3          	sll	a3,a3,t3
    6d34:	8edd                	or	a3,a3,a5
    6d36:	00e5d333          	srl	t1,a1,a4
    6d3a:	0106df13          	srli	t5,a3,0x10
    6d3e:	03e357b3          	divu	a5,t1,t5
    6d42:	01069e93          	slli	t4,a3,0x10
    6d46:	010ede93          	srli	t4,t4,0x10
    6d4a:	01c59833          	sll	a6,a1,t3
    6d4e:	00e55733          	srl	a4,a0,a4
    6d52:	01076833          	or	a6,a4,a6
    6d56:	01085893          	srli	a7,a6,0x10
    6d5a:	01c61633          	sll	a2,a2,t3
    6d5e:	03e37333          	remu	t1,t1,t5
    6d62:	02fe85b3          	mul	a1,t4,a5
    6d66:	0342                	slli	t1,t1,0x10
    6d68:	011368b3          	or	a7,t1,a7
    6d6c:	00b8fb63          	bgeu	a7,a1,6d82 <__udivdi3+0x2bc>
    6d70:	98b6                	add	a7,a7,a3
    6d72:	fff78713          	addi	a4,a5,-1
    6d76:	0cd8ea63          	bltu	a7,a3,6e4a <__udivdi3+0x384>
    6d7a:	0cb8f863          	bgeu	a7,a1,6e4a <__udivdi3+0x384>
    6d7e:	17f9                	addi	a5,a5,-2
    6d80:	98b6                	add	a7,a7,a3
    6d82:	40b888b3          	sub	a7,a7,a1
    6d86:	03e8d733          	divu	a4,a7,t5
    6d8a:	0842                	slli	a6,a6,0x10
    6d8c:	01085813          	srli	a6,a6,0x10
    6d90:	03e8f8b3          	remu	a7,a7,t5
    6d94:	02ee8333          	mul	t1,t4,a4
    6d98:	08c2                	slli	a7,a7,0x10
    6d9a:	0108e5b3          	or	a1,a7,a6
    6d9e:	0065fb63          	bgeu	a1,t1,6db4 <__udivdi3+0x2ee>
    6da2:	95b6                	add	a1,a1,a3
    6da4:	fff70813          	addi	a6,a4,-1
    6da8:	08d5ed63          	bltu	a1,a3,6e42 <__udivdi3+0x37c>
    6dac:	0865fb63          	bgeu	a1,t1,6e42 <__udivdi3+0x37c>
    6db0:	1779                	addi	a4,a4,-2
    6db2:	95b6                	add	a1,a1,a3
    6db4:	07c2                	slli	a5,a5,0x10
    6db6:	6f41                	lui	t5,0x10
    6db8:	8fd9                	or	a5,a5,a4
    6dba:	ffff0713          	addi	a4,t5,-1 # ffff <_data_lma+0x6203>
    6dbe:	00e7f6b3          	and	a3,a5,a4
    6dc2:	0107d893          	srli	a7,a5,0x10
    6dc6:	8f71                	and	a4,a4,a2
    6dc8:	8241                	srli	a2,a2,0x10
    6dca:	02e68eb3          	mul	t4,a3,a4
    6dce:	406585b3          	sub	a1,a1,t1
    6dd2:	02c686b3          	mul	a3,a3,a2
    6dd6:	010ed813          	srli	a6,t4,0x10
    6dda:	02e88733          	mul	a4,a7,a4
    6dde:	96ba                	add	a3,a3,a4
    6de0:	96c2                	add	a3,a3,a6
    6de2:	02c88633          	mul	a2,a7,a2
    6de6:	00e6f363          	bgeu	a3,a4,6dec <__udivdi3+0x326>
    6dea:	967a                	add	a2,a2,t5
    6dec:	0106d893          	srli	a7,a3,0x10
    6df0:	9646                	add	a2,a2,a7
    6df2:	02c5e263          	bltu	a1,a2,6e16 <__udivdi3+0x350>
    6df6:	00c58563          	beq	a1,a2,6e00 <__udivdi3+0x33a>
    6dfa:	853e                	mv	a0,a5
    6dfc:	4581                	li	a1,0
    6dfe:	8082                	ret
    6e00:	6741                	lui	a4,0x10
    6e02:	177d                	addi	a4,a4,-1
    6e04:	8ef9                	and	a3,a3,a4
    6e06:	06c2                	slli	a3,a3,0x10
    6e08:	00eefeb3          	and	t4,t4,a4
    6e0c:	01c51533          	sll	a0,a0,t3
    6e10:	96f6                	add	a3,a3,t4
    6e12:	fed574e3          	bgeu	a0,a3,6dfa <__udivdi3+0x334>
    6e16:	fff78513          	addi	a0,a5,-1
    6e1a:	4581                	li	a1,0
    6e1c:	8082                	ret
    6e1e:	0106d713          	srli	a4,a3,0x10
    6e22:	4841                	li	a6,16
    6e24:	bd31                	j	6c40 <__udivdi3+0x17a>
    6e26:	01065693          	srli	a3,a2,0x10
    6e2a:	47c1                	li	a5,16
    6e2c:	b97d                	j	6aea <__udivdi3+0x24>
    6e2e:	0108d693          	srli	a3,a7,0x10
    6e32:	47c1                	li	a5,16
    6e34:	b3b5                	j	6ba0 <__udivdi3+0xda>
    6e36:	4581                	li	a1,0
    6e38:	4505                	li	a0,1
    6e3a:	8082                	ret
    6e3c:	8736                	mv	a4,a3
    6e3e:	4801                	li	a6,0
    6e40:	b501                	j	6c40 <__udivdi3+0x17a>
    6e42:	8742                	mv	a4,a6
    6e44:	bf85                	j	6db4 <__udivdi3+0x2ee>
    6e46:	863e                	mv	a2,a5
    6e48:	bde9                	j	6d22 <__udivdi3+0x25c>
    6e4a:	87ba                	mv	a5,a4
    6e4c:	bf1d                	j	6d82 <__udivdi3+0x2bc>
    6e4e:	8e32                	mv	t3,a2
    6e50:	b54d                	j	6cf2 <__udivdi3+0x22c>
    6e52:	1579                	addi	a0,a0,-2
    6e54:	9846                	add	a6,a6,a7
    6e56:	b9d5                	j	6b4a <__udivdi3+0x84>
    6e58:	1579                	addi	a0,a0,-2
    6e5a:	97c6                	add	a5,a5,a7
    6e5c:	bb59                	j	6bf2 <__udivdi3+0x12c>

00006e5e <__umoddi3>:
    6e5e:	87b6                	mv	a5,a3
    6e60:	8832                	mv	a6,a2
    6e62:	832a                	mv	t1,a0
    6e64:	872e                	mv	a4,a1
    6e66:	8e2e                	mv	t3,a1
    6e68:	14069363          	bnez	a3,6fae <__umoddi3+0x150>
    6e6c:	0ac5f163          	bgeu	a1,a2,6f0e <__umoddi3+0xb0>
    6e70:	6741                	lui	a4,0x10
    6e72:	1ae67863          	bgeu	a2,a4,7022 <__umoddi3+0x1c4>
    6e76:	0ff00713          	li	a4,255
    6e7a:	86b2                	mv	a3,a2
    6e7c:	00c77563          	bgeu	a4,a2,6e86 <__umoddi3+0x28>
    6e80:	00865693          	srli	a3,a2,0x8
    6e84:	47a1                	li	a5,8
    6e86:	00003717          	auipc	a4,0x3
    6e8a:	e7670713          	addi	a4,a4,-394 # 9cfc <__clz_tab>
    6e8e:	9736                	add	a4,a4,a3
    6e90:	00074703          	lbu	a4,0(a4)
    6e94:	02000893          	li	a7,32
    6e98:	97ba                	add	a5,a5,a4
    6e9a:	40f888b3          	sub	a7,a7,a5
    6e9e:	00088c63          	beqz	a7,6eb6 <__umoddi3+0x58>
    6ea2:	011595b3          	sll	a1,a1,a7
    6ea6:	00f557b3          	srl	a5,a0,a5
    6eaa:	01161833          	sll	a6,a2,a7
    6eae:	00b7ee33          	or	t3,a5,a1
    6eb2:	01151333          	sll	t1,a0,a7
    6eb6:	01085613          	srli	a2,a6,0x10
    6eba:	02ce57b3          	divu	a5,t3,a2
    6ebe:	01081513          	slli	a0,a6,0x10
    6ec2:	8141                	srli	a0,a0,0x10
    6ec4:	01035693          	srli	a3,t1,0x10
    6ec8:	02ce7e33          	remu	t3,t3,a2
    6ecc:	02f507b3          	mul	a5,a0,a5
    6ed0:	0e42                	slli	t3,t3,0x10
    6ed2:	00de6733          	or	a4,t3,a3
    6ed6:	00f77863          	bgeu	a4,a5,6ee6 <__umoddi3+0x88>
    6eda:	9742                	add	a4,a4,a6
    6edc:	01076563          	bltu	a4,a6,6ee6 <__umoddi3+0x88>
    6ee0:	00f77363          	bgeu	a4,a5,6ee6 <__umoddi3+0x88>
    6ee4:	9742                	add	a4,a4,a6
    6ee6:	8f1d                	sub	a4,a4,a5
    6ee8:	02c756b3          	divu	a3,a4,a2
    6eec:	01031793          	slli	a5,t1,0x10
    6ef0:	83c1                	srli	a5,a5,0x10
    6ef2:	02c77733          	remu	a4,a4,a2
    6ef6:	02d50533          	mul	a0,a0,a3
    6efa:	0742                	slli	a4,a4,0x10
    6efc:	8fd9                	or	a5,a5,a4
    6efe:	08a7ec63          	bltu	a5,a0,6f96 <__umoddi3+0x138>
    6f02:	40a78533          	sub	a0,a5,a0
    6f06:	01155533          	srl	a0,a0,a7
    6f0a:	4581                	li	a1,0
    6f0c:	8082                	ret
    6f0e:	e601                	bnez	a2,6f16 <__umoddi3+0xb8>
    6f10:	4705                	li	a4,1
    6f12:	02c75833          	divu	a6,a4,a2
    6f16:	6741                	lui	a4,0x10
    6f18:	0ee86c63          	bltu	a6,a4,7010 <__umoddi3+0x1b2>
    6f1c:	010007b7          	lui	a5,0x1000
    6f20:	2af86563          	bltu	a6,a5,71ca <__umoddi3+0x36c>
    6f24:	01885693          	srli	a3,a6,0x18
    6f28:	47e1                	li	a5,24
    6f2a:	00003717          	auipc	a4,0x3
    6f2e:	dd270713          	addi	a4,a4,-558 # 9cfc <__clz_tab>
    6f32:	9736                	add	a4,a4,a3
    6f34:	00074703          	lbu	a4,0(a4)
    6f38:	02000893          	li	a7,32
    6f3c:	97ba                	add	a5,a5,a4
    6f3e:	40f888b3          	sub	a7,a7,a5
    6f42:	1e089a63          	bnez	a7,7136 <__umoddi3+0x2d8>
    6f46:	01081e13          	slli	t3,a6,0x10
    6f4a:	410585b3          	sub	a1,a1,a6
    6f4e:	01085613          	srli	a2,a6,0x10
    6f52:	010e5e13          	srli	t3,t3,0x10
    6f56:	01035713          	srli	a4,t1,0x10
    6f5a:	02c5d6b3          	divu	a3,a1,a2
    6f5e:	02c5f5b3          	remu	a1,a1,a2
    6f62:	03c686b3          	mul	a3,a3,t3
    6f66:	05c2                	slli	a1,a1,0x10
    6f68:	8f4d                	or	a4,a4,a1
    6f6a:	00d77763          	bgeu	a4,a3,6f78 <__umoddi3+0x11a>
    6f6e:	9742                	add	a4,a4,a6
    6f70:	01076463          	bltu	a4,a6,6f78 <__umoddi3+0x11a>
    6f74:	26d76a63          	bltu	a4,a3,71e8 <__umoddi3+0x38a>
    6f78:	8f15                	sub	a4,a4,a3
    6f7a:	02c75533          	divu	a0,a4,a2
    6f7e:	0342                	slli	t1,t1,0x10
    6f80:	01035313          	srli	t1,t1,0x10
    6f84:	02c77733          	remu	a4,a4,a2
    6f88:	03c50533          	mul	a0,a0,t3
    6f8c:	0742                	slli	a4,a4,0x10
    6f8e:	006767b3          	or	a5,a4,t1
    6f92:	00a7f863          	bgeu	a5,a0,6fa2 <__umoddi3+0x144>
    6f96:	97c2                	add	a5,a5,a6
    6f98:	0107e563          	bltu	a5,a6,6fa2 <__umoddi3+0x144>
    6f9c:	00a7f363          	bgeu	a5,a0,6fa2 <__umoddi3+0x144>
    6fa0:	97c2                	add	a5,a5,a6
    6fa2:	40a78533          	sub	a0,a5,a0
    6fa6:	01155533          	srl	a0,a0,a7
    6faa:	4581                	li	a1,0
    6fac:	8082                	ret
    6fae:	882a                	mv	a6,a0
    6fb0:	f4d5eee3          	bltu	a1,a3,6f0c <__umoddi3+0xae>
    6fb4:	67c1                	lui	a5,0x10
    6fb6:	04f6e563          	bltu	a3,a5,7000 <__umoddi3+0x1a2>
    6fba:	010007b7          	lui	a5,0x1000
    6fbe:	20f6e263          	bltu	a3,a5,71c2 <__umoddi3+0x364>
    6fc2:	0186d313          	srli	t1,a3,0x18
    6fc6:	48e1                	li	a7,24
    6fc8:	00003797          	auipc	a5,0x3
    6fcc:	d3478793          	addi	a5,a5,-716 # 9cfc <__clz_tab>
    6fd0:	979a                	add	a5,a5,t1
    6fd2:	0007ce03          	lbu	t3,0(a5)
    6fd6:	02000313          	li	t1,32
    6fda:	9e46                	add	t3,t3,a7
    6fdc:	41c30333          	sub	t1,t1,t3
    6fe0:	04031963          	bnez	t1,7032 <__umoddi3+0x1d4>
    6fe4:	00b6e463          	bltu	a3,a1,6fec <__umoddi3+0x18e>
    6fe8:	00c56963          	bltu	a0,a2,6ffa <__umoddi3+0x19c>
    6fec:	40c50833          	sub	a6,a0,a2
    6ff0:	8d95                	sub	a1,a1,a3
    6ff2:	01053733          	sltu	a4,a0,a6
    6ff6:	40e58733          	sub	a4,a1,a4
    6ffa:	8542                	mv	a0,a6
    6ffc:	85ba                	mv	a1,a4
    6ffe:	8082                	ret
    7000:	0ff00793          	li	a5,255
    7004:	1cd7fb63          	bgeu	a5,a3,71da <__umoddi3+0x37c>
    7008:	0086d313          	srli	t1,a3,0x8
    700c:	48a1                	li	a7,8
    700e:	bf6d                	j	6fc8 <__umoddi3+0x16a>
    7010:	0ff00713          	li	a4,255
    7014:	86c2                	mv	a3,a6
    7016:	f1077ae3          	bgeu	a4,a6,6f2a <__umoddi3+0xcc>
    701a:	00885693          	srli	a3,a6,0x8
    701e:	47a1                	li	a5,8
    7020:	b729                	j	6f2a <__umoddi3+0xcc>
    7022:	010007b7          	lui	a5,0x1000
    7026:	1af66663          	bltu	a2,a5,71d2 <__umoddi3+0x374>
    702a:	01865693          	srli	a3,a2,0x18
    702e:	47e1                	li	a5,24
    7030:	bd99                	j	6e86 <__umoddi3+0x28>
    7032:	01c657b3          	srl	a5,a2,t3
    7036:	006696b3          	sll	a3,a3,t1
    703a:	8edd                	or	a3,a3,a5
    703c:	01c5d8b3          	srl	a7,a1,t3
    7040:	0106d713          	srli	a4,a3,0x10
    7044:	02e8deb3          	divu	t4,a7,a4
    7048:	01069f13          	slli	t5,a3,0x10
    704c:	01c557b3          	srl	a5,a0,t3
    7050:	010f5f13          	srli	t5,t5,0x10
    7054:	006595b3          	sll	a1,a1,t1
    7058:	8ddd                	or	a1,a1,a5
    705a:	0105d813          	srli	a6,a1,0x10
    705e:	00661633          	sll	a2,a2,t1
    7062:	00651533          	sll	a0,a0,t1
    7066:	02e8f8b3          	remu	a7,a7,a4
    706a:	03df07b3          	mul	a5,t5,t4
    706e:	08c2                	slli	a7,a7,0x10
    7070:	0108e833          	or	a6,a7,a6
    7074:	00f87b63          	bgeu	a6,a5,708a <__umoddi3+0x22c>
    7078:	9836                	add	a6,a6,a3
    707a:	fffe8893          	addi	a7,t4,-1
    707e:	16d86363          	bltu	a6,a3,71e4 <__umoddi3+0x386>
    7082:	16f87163          	bgeu	a6,a5,71e4 <__umoddi3+0x386>
    7086:	1ef9                	addi	t4,t4,-2
    7088:	9836                	add	a6,a6,a3
    708a:	40f80833          	sub	a6,a6,a5
    708e:	02e857b3          	divu	a5,a6,a4
    7092:	05c2                	slli	a1,a1,0x10
    7094:	81c1                	srli	a1,a1,0x10
    7096:	02e87833          	remu	a6,a6,a4
    709a:	02ff0f33          	mul	t5,t5,a5
    709e:	01081713          	slli	a4,a6,0x10
    70a2:	8f4d                	or	a4,a4,a1
    70a4:	01e77b63          	bgeu	a4,t5,70ba <__umoddi3+0x25c>
    70a8:	9736                	add	a4,a4,a3
    70aa:	fff78593          	addi	a1,a5,-1 # ffffff <_data_lma+0xff6203>
    70ae:	12d76963          	bltu	a4,a3,71e0 <__umoddi3+0x382>
    70b2:	13e77763          	bgeu	a4,t5,71e0 <__umoddi3+0x382>
    70b6:	17f9                	addi	a5,a5,-2
    70b8:	9736                	add	a4,a4,a3
    70ba:	0ec2                	slli	t4,t4,0x10
    70bc:	62c1                	lui	t0,0x10
    70be:	00feeeb3          	or	t4,t4,a5
    70c2:	fff28813          	addi	a6,t0,-1 # ffff <_data_lma+0x6203>
    70c6:	010ef8b3          	and	a7,t4,a6
    70ca:	01065593          	srli	a1,a2,0x10
    70ce:	010ede93          	srli	t4,t4,0x10
    70d2:	01067833          	and	a6,a2,a6
    70d6:	03088fb3          	mul	t6,a7,a6
    70da:	41e70733          	sub	a4,a4,t5
    70de:	030e8833          	mul	a6,t4,a6
    70e2:	010fd793          	srli	a5,t6,0x10
    70e6:	02b888b3          	mul	a7,a7,a1
    70ea:	98c2                	add	a7,a7,a6
    70ec:	97c6                	add	a5,a5,a7
    70ee:	02be8eb3          	mul	t4,t4,a1
    70f2:	0107f363          	bgeu	a5,a6,70f8 <__umoddi3+0x29a>
    70f6:	9e96                	add	t4,t4,t0
    70f8:	6841                	lui	a6,0x10
    70fa:	187d                	addi	a6,a6,-1
    70fc:	0107d593          	srli	a1,a5,0x10
    7100:	0107f7b3          	and	a5,a5,a6
    7104:	07c2                	slli	a5,a5,0x10
    7106:	010fffb3          	and	t6,t6,a6
    710a:	95f6                	add	a1,a1,t4
    710c:	97fe                	add	a5,a5,t6
    710e:	0ab76263          	bltu	a4,a1,71b2 <__umoddi3+0x354>
    7112:	08b70e63          	beq	a4,a1,71ae <__umoddi3+0x350>
    7116:	40f507b3          	sub	a5,a0,a5
    711a:	00f53533          	sltu	a0,a0,a5
    711e:	40b705b3          	sub	a1,a4,a1
    7122:	8d89                	sub	a1,a1,a0
    7124:	01c59e33          	sll	t3,a1,t3
    7128:	0067d533          	srl	a0,a5,t1
    712c:	00ae6533          	or	a0,t3,a0
    7130:	0065d5b3          	srl	a1,a1,t1
    7134:	8082                	ret
    7136:	01181833          	sll	a6,a6,a7
    713a:	00f5d733          	srl	a4,a1,a5
    713e:	01085613          	srli	a2,a6,0x10
    7142:	02c756b3          	divu	a3,a4,a2
    7146:	01081e13          	slli	t3,a6,0x10
    714a:	00f557b3          	srl	a5,a0,a5
    714e:	010e5e13          	srli	t3,t3,0x10
    7152:	011595b3          	sll	a1,a1,a7
    7156:	8ddd                	or	a1,a1,a5
    7158:	0105de93          	srli	t4,a1,0x10
    715c:	01151333          	sll	t1,a0,a7
    7160:	02c77733          	remu	a4,a4,a2
    7164:	02de07b3          	mul	a5,t3,a3
    7168:	01071693          	slli	a3,a4,0x10
    716c:	01d6e6b3          	or	a3,a3,t4
    7170:	00f6f863          	bgeu	a3,a5,7180 <__umoddi3+0x322>
    7174:	96c2                	add	a3,a3,a6
    7176:	0106e563          	bltu	a3,a6,7180 <__umoddi3+0x322>
    717a:	00f6f363          	bgeu	a3,a5,7180 <__umoddi3+0x322>
    717e:	96c2                	add	a3,a3,a6
    7180:	8e9d                	sub	a3,a3,a5
    7182:	02c6d733          	divu	a4,a3,a2
    7186:	01059793          	slli	a5,a1,0x10
    718a:	83c1                	srli	a5,a5,0x10
    718c:	02c6f6b3          	remu	a3,a3,a2
    7190:	02ee0733          	mul	a4,t3,a4
    7194:	01069593          	slli	a1,a3,0x10
    7198:	8ddd                	or	a1,a1,a5
    719a:	00e5f863          	bgeu	a1,a4,71aa <__umoddi3+0x34c>
    719e:	95c2                	add	a1,a1,a6
    71a0:	0105e563          	bltu	a1,a6,71aa <__umoddi3+0x34c>
    71a4:	00e5f363          	bgeu	a1,a4,71aa <__umoddi3+0x34c>
    71a8:	95c2                	add	a1,a1,a6
    71aa:	8d99                	sub	a1,a1,a4
    71ac:	b36d                	j	6f56 <__umoddi3+0xf8>
    71ae:	f6f574e3          	bgeu	a0,a5,7116 <__umoddi3+0x2b8>
    71b2:	40c78633          	sub	a2,a5,a2
    71b6:	00c7b7b3          	sltu	a5,a5,a2
    71ba:	97b6                	add	a5,a5,a3
    71bc:	8d9d                	sub	a1,a1,a5
    71be:	87b2                	mv	a5,a2
    71c0:	bf99                	j	7116 <__umoddi3+0x2b8>
    71c2:	0106d313          	srli	t1,a3,0x10
    71c6:	48c1                	li	a7,16
    71c8:	b501                	j	6fc8 <__umoddi3+0x16a>
    71ca:	01085693          	srli	a3,a6,0x10
    71ce:	47c1                	li	a5,16
    71d0:	bba9                	j	6f2a <__umoddi3+0xcc>
    71d2:	01065693          	srli	a3,a2,0x10
    71d6:	47c1                	li	a5,16
    71d8:	b17d                	j	6e86 <__umoddi3+0x28>
    71da:	8336                	mv	t1,a3
    71dc:	4881                	li	a7,0
    71de:	b3ed                	j	6fc8 <__umoddi3+0x16a>
    71e0:	87ae                	mv	a5,a1
    71e2:	bde1                	j	70ba <__umoddi3+0x25c>
    71e4:	8ec6                	mv	t4,a7
    71e6:	b555                	j	708a <__umoddi3+0x22c>
    71e8:	9742                	add	a4,a4,a6
    71ea:	b379                	j	6f78 <__umoddi3+0x11a>

000071ec <__ledf2>:
    71ec:	002027f3          	frrm	a5
    71f0:	001007b7          	lui	a5,0x100
    71f4:	0145d713          	srli	a4,a1,0x14
    71f8:	17fd                	addi	a5,a5,-1
    71fa:	0146d813          	srli	a6,a3,0x14
    71fe:	7ff77713          	andi	a4,a4,2047
    7202:	7ff00893          	li	a7,2047
    7206:	00b7f333          	and	t1,a5,a1
    720a:	8e2a                	mv	t3,a0
    720c:	8ff5                	and	a5,a5,a3
    720e:	81fd                	srli	a1,a1,0x1f
    7210:	8eb2                	mv	t4,a2
    7212:	7ff87813          	andi	a6,a6,2047
    7216:	82fd                	srli	a3,a3,0x1f
    7218:	03170f63          	beq	a4,a7,7256 <__ledf2+0x6a>
    721c:	01180d63          	beq	a6,a7,7236 <__ledf2+0x4a>
    7220:	e321                	bnez	a4,7260 <__ledf2+0x74>
    7222:	00a368b3          	or	a7,t1,a0
    7226:	02081063          	bnez	a6,7246 <__ledf2+0x5a>
    722a:	8e5d                	or	a2,a2,a5
    722c:	ee09                	bnez	a2,7246 <__ledf2+0x5a>
    722e:	4501                	li	a0,0
    7230:	00089f63          	bnez	a7,724e <__ledf2+0x62>
    7234:	8082                	ret
    7236:	00c7e8b3          	or	a7,a5,a2
    723a:	fe0883e3          	beqz	a7,7220 <__ledf2+0x34>
    723e:	00186073          	csrsi	fflags,16
    7242:	4509                	li	a0,2
    7244:	8082                	ret
    7246:	02088f63          	beqz	a7,7284 <__ledf2+0x98>
    724a:	02d58363          	beq	a1,a3,7270 <__ledf2+0x84>
    724e:	4505                	li	a0,1
    7250:	d1f5                	beqz	a1,7234 <__ledf2+0x48>
    7252:	557d                	li	a0,-1
    7254:	8082                	ret
    7256:	00a36533          	or	a0,t1,a0
    725a:	f175                	bnez	a0,723e <__ledf2+0x52>
    725c:	02e80763          	beq	a6,a4,728a <__ledf2+0x9e>
    7260:	00081463          	bnez	a6,7268 <__ledf2+0x7c>
    7264:	8e5d                	or	a2,a2,a5
    7266:	d665                	beqz	a2,724e <__ledf2+0x62>
    7268:	fed593e3          	bne	a1,a3,724e <__ledf2+0x62>
    726c:	fee841e3          	blt	a6,a4,724e <__ledf2+0x62>
    7270:	01074863          	blt	a4,a6,7280 <__ledf2+0x94>
    7274:	fc67ede3          	bltu	a5,t1,724e <__ledf2+0x62>
    7278:	00f30e63          	beq	t1,a5,7294 <__ledf2+0xa8>
    727c:	00f37a63          	bgeu	t1,a5,7290 <__ledf2+0xa4>
    7280:	e199                	bnez	a1,7286 <__ledf2+0x9a>
    7282:	bfc1                	j	7252 <__ledf2+0x66>
    7284:	d6f9                	beqz	a3,7252 <__ledf2+0x66>
    7286:	4505                	li	a0,1
    7288:	8082                	ret
    728a:	8e5d                	or	a2,a2,a5
    728c:	de71                	beqz	a2,7268 <__ledf2+0x7c>
    728e:	bf45                	j	723e <__ledf2+0x52>
    7290:	4501                	li	a0,0
    7292:	8082                	ret
    7294:	fbceede3          	bltu	t4,t3,724e <__ledf2+0x62>
    7298:	4501                	li	a0,0
    729a:	f9de7de3          	bgeu	t3,t4,7234 <__ledf2+0x48>
    729e:	f5e5                	bnez	a1,7286 <__ledf2+0x9a>
    72a0:	bf4d                	j	7252 <__ledf2+0x66>

000072a2 <__muldf3>:
    72a2:	7139                	addi	sp,sp,-64
    72a4:	d452                	sw	s4,40(sp)
    72a6:	de06                	sw	ra,60(sp)
    72a8:	dc22                	sw	s0,56(sp)
    72aa:	da26                	sw	s1,52(sp)
    72ac:	d84a                	sw	s2,48(sp)
    72ae:	d64e                	sw	s3,44(sp)
    72b0:	d256                	sw	s5,36(sp)
    72b2:	d05a                	sw	s6,32(sp)
    72b4:	ce5e                	sw	s7,28(sp)
    72b6:	cc62                	sw	s8,24(sp)
    72b8:	ca66                	sw	s9,20(sp)
    72ba:	8a2a                	mv	s4,a0
    72bc:	00202b73          	frrm	s6
    72c0:	0145d913          	srli	s2,a1,0x14
    72c4:	00c59993          	slli	s3,a1,0xc
    72c8:	7ff97913          	andi	s2,s2,2047
    72cc:	00c9d993          	srli	s3,s3,0xc
    72d0:	01f5db93          	srli	s7,a1,0x1f
    72d4:	12090e63          	beqz	s2,7410 <__muldf3+0x16e>
    72d8:	7ff00793          	li	a5,2047
    72dc:	16f90d63          	beq	s2,a5,7456 <__muldf3+0x1b4>
    72e0:	01d55413          	srli	s0,a0,0x1d
    72e4:	098e                	slli	s3,s3,0x3
    72e6:	013469b3          	or	s3,s0,s3
    72ea:	00800437          	lui	s0,0x800
    72ee:	0089e433          	or	s0,s3,s0
    72f2:	00351493          	slli	s1,a0,0x3
    72f6:	c0190913          	addi	s2,s2,-1023
    72fa:	4a01                	li	s4,0
    72fc:	4c81                	li	s9,0
    72fe:	4a81                	li	s5,0
    7300:	0146d793          	srli	a5,a3,0x14
    7304:	00c69993          	slli	s3,a3,0xc
    7308:	7ff7f793          	andi	a5,a5,2047
    730c:	85b2                	mv	a1,a2
    730e:	00c9d993          	srli	s3,s3,0xc
    7312:	01f6dc13          	srli	s8,a3,0x1f
    7316:	cfd5                	beqz	a5,73d2 <__muldf3+0x130>
    7318:	7ff00713          	li	a4,2047
    731c:	04e78463          	beq	a5,a4,7364 <__muldf3+0xc2>
    7320:	00399513          	slli	a0,s3,0x3
    7324:	01d65993          	srli	s3,a2,0x1d
    7328:	00a9e9b3          	or	s3,s3,a0
    732c:	c0178793          	addi	a5,a5,-1023 # ffc01 <_data_lma+0xf5e05>
    7330:	00800537          	lui	a0,0x800
    7334:	00a9e9b3          	or	s3,s3,a0
    7338:	00361593          	slli	a1,a2,0x3
    733c:	993e                	add	s2,s2,a5
    733e:	4801                	li	a6,0
    7340:	018bc633          	xor	a2,s7,s8
    7344:	47bd                	li	a5,15
    7346:	86b2                	mv	a3,a2
    7348:	00190713          	addi	a4,s2,1
    734c:	1747ef63          	bltu	a5,s4,74ca <__muldf3+0x228>
    7350:	00003517          	auipc	a0,0x3
    7354:	96c50513          	addi	a0,a0,-1684 # 9cbc <atanlo+0x18>
    7358:	0a0a                	slli	s4,s4,0x2
    735a:	9a2a                	add	s4,s4,a0
    735c:	000a2783          	lw	a5,0(s4)
    7360:	97aa                	add	a5,a5,a0
    7362:	8782                	jr	a5
    7364:	00c9e633          	or	a2,s3,a2
    7368:	7ff90913          	addi	s2,s2,2047
    736c:	12060863          	beqz	a2,749c <__muldf3+0x1fa>
    7370:	00c99793          	slli	a5,s3,0xc
    7374:	003a6a13          	ori	s4,s4,3
    7378:	480d                	li	a6,3
    737a:	fc07c3e3          	bltz	a5,7340 <__muldf3+0x9e>
    737e:	4ac1                	li	s5,16
    7380:	b7c1                	j	7340 <__muldf3+0x9e>
    7382:	86e2                	mv	a3,s8
    7384:	844e                	mv	s0,s3
    7386:	84ae                	mv	s1,a1
    7388:	8cc2                	mv	s9,a6
    738a:	4789                	li	a5,2
    738c:	12fc8963          	beq	s9,a5,74be <__muldf3+0x21c>
    7390:	478d                	li	a5,3
    7392:	10fc8b63          	beq	s9,a5,74a8 <__muldf3+0x206>
    7396:	4785                	li	a5,1
    7398:	8636                	mv	a2,a3
    739a:	4cfc9263          	bne	s9,a5,785e <__muldf3+0x5bc>
    739e:	4701                	li	a4,0
    73a0:	4781                	li	a5,0
    73a2:	4401                	li	s0,0
    73a4:	07b2                	slli	a5,a5,0xc
    73a6:	0752                	slli	a4,a4,0x14
    73a8:	83b1                	srli	a5,a5,0xc
    73aa:	067e                	slli	a2,a2,0x1f
    73ac:	8fd9                	or	a5,a5,a4
    73ae:	8fd1                	or	a5,a5,a2
    73b0:	8522                	mv	a0,s0
    73b2:	85be                	mv	a1,a5
    73b4:	340a9963          	bnez	s5,7706 <__muldf3+0x464>
    73b8:	50f2                	lw	ra,60(sp)
    73ba:	5462                	lw	s0,56(sp)
    73bc:	54d2                	lw	s1,52(sp)
    73be:	5942                	lw	s2,48(sp)
    73c0:	59b2                	lw	s3,44(sp)
    73c2:	5a22                	lw	s4,40(sp)
    73c4:	5a92                	lw	s5,36(sp)
    73c6:	5b02                	lw	s6,32(sp)
    73c8:	4bf2                	lw	s7,28(sp)
    73ca:	4c62                	lw	s8,24(sp)
    73cc:	4cd2                	lw	s9,20(sp)
    73ce:	6121                	addi	sp,sp,64
    73d0:	8082                	ret
    73d2:	00c9e7b3          	or	a5,s3,a2
    73d6:	cfcd                	beqz	a5,7490 <__muldf3+0x1ee>
    73d8:	34098a63          	beqz	s3,772c <__muldf3+0x48a>
    73dc:	854e                	mv	a0,s3
    73de:	c432                	sw	a2,8(sp)
    73e0:	6f6010ef          	jal	ra,8ad6 <__clzsi2>
    73e4:	4622                	lw	a2,8(sp)
    73e6:	87aa                	mv	a5,a0
    73e8:	ff550693          	addi	a3,a0,-11
    73ec:	4775                	li	a4,29
    73ee:	ff878593          	addi	a1,a5,-8
    73f2:	8f15                	sub	a4,a4,a3
    73f4:	00b999b3          	sll	s3,s3,a1
    73f8:	00e65733          	srl	a4,a2,a4
    73fc:	013769b3          	or	s3,a4,s3
    7400:	00b615b3          	sll	a1,a2,a1
    7404:	40f90933          	sub	s2,s2,a5
    7408:	c0d90913          	addi	s2,s2,-1011
    740c:	4801                	li	a6,0
    740e:	bf0d                	j	7340 <__muldf3+0x9e>
    7410:	00a9e433          	or	s0,s3,a0
    7414:	c825                	beqz	s0,7484 <__muldf3+0x1e2>
    7416:	c636                	sw	a3,12(sp)
    7418:	c432                	sw	a2,8(sp)
    741a:	2e098963          	beqz	s3,770c <__muldf3+0x46a>
    741e:	854e                	mv	a0,s3
    7420:	6b6010ef          	jal	ra,8ad6 <__clzsi2>
    7424:	4622                	lw	a2,8(sp)
    7426:	46b2                	lw	a3,12(sp)
    7428:	87aa                	mv	a5,a0
    742a:	ff550713          	addi	a4,a0,-11
    742e:	4475                	li	s0,29
    7430:	ff878493          	addi	s1,a5,-8
    7434:	8c19                	sub	s0,s0,a4
    7436:	009999b3          	sll	s3,s3,s1
    743a:	008a5433          	srl	s0,s4,s0
    743e:	01346433          	or	s0,s0,s3
    7442:	009a14b3          	sll	s1,s4,s1
    7446:	c0d00913          	li	s2,-1011
    744a:	40f90933          	sub	s2,s2,a5
    744e:	4a01                	li	s4,0
    7450:	4c81                	li	s9,0
    7452:	4a81                	li	s5,0
    7454:	b575                	j	7300 <__muldf3+0x5e>
    7456:	00a9e433          	or	s0,s3,a0
    745a:	cc11                	beqz	s0,7476 <__muldf3+0x1d4>
    745c:	00c99793          	slli	a5,s3,0xc
    7460:	84aa                	mv	s1,a0
    7462:	844e                	mv	s0,s3
    7464:	4a31                	li	s4,12
    7466:	7ff00913          	li	s2,2047
    746a:	4c8d                	li	s9,3
    746c:	4ac1                	li	s5,16
    746e:	e807d9e3          	bgez	a5,7300 <__muldf3+0x5e>
    7472:	4a81                	li	s5,0
    7474:	b571                	j	7300 <__muldf3+0x5e>
    7476:	4a21                	li	s4,8
    7478:	4481                	li	s1,0
    747a:	7ff00913          	li	s2,2047
    747e:	4c89                	li	s9,2
    7480:	4a81                	li	s5,0
    7482:	bdbd                	j	7300 <__muldf3+0x5e>
    7484:	4a11                	li	s4,4
    7486:	4481                	li	s1,0
    7488:	4901                	li	s2,0
    748a:	4c85                	li	s9,1
    748c:	4a81                	li	s5,0
    748e:	bd8d                	j	7300 <__muldf3+0x5e>
    7490:	001a6a13          	ori	s4,s4,1
    7494:	4981                	li	s3,0
    7496:	4581                	li	a1,0
    7498:	4805                	li	a6,1
    749a:	b55d                	j	7340 <__muldf3+0x9e>
    749c:	002a6a13          	ori	s4,s4,2
    74a0:	4981                	li	s3,0
    74a2:	4581                	li	a1,0
    74a4:	4809                	li	a6,2
    74a6:	bd69                	j	7340 <__muldf3+0x9e>
    74a8:	4601                	li	a2,0
    74aa:	7ff00713          	li	a4,2047
    74ae:	000807b7          	lui	a5,0x80
    74b2:	4401                	li	s0,0
    74b4:	bdc5                	j	73a4 <__muldf3+0x102>
    74b6:	4789                	li	a5,2
    74b8:	86de                	mv	a3,s7
    74ba:	ecfc9be3          	bne	s9,a5,7390 <__muldf3+0xee>
    74be:	8636                	mv	a2,a3
    74c0:	7ff00713          	li	a4,2047
    74c4:	4781                	li	a5,0
    74c6:	4401                	li	s0,0
    74c8:	bdf1                	j	73a4 <__muldf3+0x102>
    74ca:	6341                	lui	t1,0x10
    74cc:	fff30793          	addi	a5,t1,-1 # ffff <_data_lma+0x6203>
    74d0:	0104d513          	srli	a0,s1,0x10
    74d4:	0105de13          	srli	t3,a1,0x10
    74d8:	8cfd                	and	s1,s1,a5
    74da:	8dfd                	and	a1,a1,a5
    74dc:	029587b3          	mul	a5,a1,s1
    74e0:	02b508b3          	mul	a7,a0,a1
    74e4:	0107d393          	srli	t2,a5,0x10
    74e8:	029e0833          	mul	a6,t3,s1
    74ec:	9846                	add	a6,a6,a7
    74ee:	93c2                	add	t2,t2,a6
    74f0:	03c50833          	mul	a6,a0,t3
    74f4:	0113f363          	bgeu	t2,a7,74fa <__muldf3+0x258>
    74f8:	981a                	add	a6,a6,t1
    74fa:	6341                	lui	t1,0x10
    74fc:	fff30e93          	addi	t4,t1,-1 # ffff <_data_lma+0x6203>
    7500:	0109d293          	srli	t0,s3,0x10
    7504:	01d9f9b3          	and	s3,s3,t4
    7508:	01d3f8b3          	and	a7,t2,t4
    750c:	01d7f7b3          	and	a5,a5,t4
    7510:	08c2                	slli	a7,a7,0x10
    7512:	03348eb3          	mul	t4,s1,s3
    7516:	98be                	add	a7,a7,a5
    7518:	0103d393          	srli	t2,t2,0x10
    751c:	03350fb3          	mul	t6,a0,s3
    7520:	010edf13          	srli	t5,t4,0x10
    7524:	029284b3          	mul	s1,t0,s1
    7528:	94fe                	add	s1,s1,t6
    752a:	94fa                	add	s1,s1,t5
    752c:	025507b3          	mul	a5,a0,t0
    7530:	01f4f363          	bgeu	s1,t6,7536 <__muldf3+0x294>
    7534:	979a                	add	a5,a5,t1
    7536:	6341                	lui	t1,0x10
    7538:	fff30b93          	addi	s7,t1,-1 # ffff <_data_lma+0x6203>
    753c:	01045a13          	srli	s4,s0,0x10
    7540:	01747533          	and	a0,s0,s7
    7544:	0174ffb3          	and	t6,s1,s7
    7548:	80c1                	srli	s1,s1,0x10
    754a:	00f48f33          	add	t5,s1,a5
    754e:	02a58433          	mul	s0,a1,a0
    7552:	017efeb3          	and	t4,t4,s7
    7556:	0fc2                	slli	t6,t6,0x10
    7558:	9ff6                	add	t6,t6,t4
    755a:	93fe                	add	t2,t2,t6
    755c:	02ae07b3          	mul	a5,t3,a0
    7560:	01045e93          	srli	t4,s0,0x10
    7564:	02ba05b3          	mul	a1,s4,a1
    7568:	97ae                	add	a5,a5,a1
    756a:	9ebe                	add	t4,t4,a5
    756c:	034e0e33          	mul	t3,t3,s4
    7570:	00bef363          	bgeu	t4,a1,7576 <__muldf3+0x2d4>
    7574:	9e1a                	add	t3,t3,t1
    7576:	67c1                	lui	a5,0x10
    7578:	fff78593          	addi	a1,a5,-1 # ffff <_data_lma+0x6203>
    757c:	00bef333          	and	t1,t4,a1
    7580:	8c6d                	and	s0,s0,a1
    7582:	0342                	slli	t1,t1,0x10
    7584:	9322                	add	t1,t1,s0
    7586:	010ede93          	srli	t4,t4,0x10
    758a:	033505b3          	mul	a1,a0,s3
    758e:	9e76                	add	t3,t3,t4
    7590:	02a28533          	mul	a0,t0,a0
    7594:	0105d413          	srli	s0,a1,0x10
    7598:	033a09b3          	mul	s3,s4,s3
    759c:	954e                	add	a0,a0,s3
    759e:	9522                	add	a0,a0,s0
    75a0:	034282b3          	mul	t0,t0,s4
    75a4:	01357363          	bgeu	a0,s3,75aa <__muldf3+0x308>
    75a8:	92be                	add	t0,t0,a5
    75aa:	6ec1                	lui	t4,0x10
    75ac:	1efd                	addi	t4,t4,-1
    75ae:	01d577b3          	and	a5,a0,t4
    75b2:	07c2                	slli	a5,a5,0x10
    75b4:	01d5feb3          	and	t4,a1,t4
    75b8:	97f6                	add	a5,a5,t4
    75ba:	007805b3          	add	a1,a6,t2
    75be:	01f5bfb3          	sltu	t6,a1,t6
    75c2:	97fa                	add	a5,a5,t5
    75c4:	959a                	add	a1,a1,t1
    75c6:	01f78433          	add	s0,a5,t6
    75ca:	0065b833          	sltu	a6,a1,t1
    75ce:	01c40eb3          	add	t4,s0,t3
    75d2:	010e8333          	add	t1,t4,a6
    75d6:	01f43433          	sltu	s0,s0,t6
    75da:	01e7b7b3          	sltu	a5,a5,t5
    75de:	8fc1                	or	a5,a5,s0
    75e0:	01033833          	sltu	a6,t1,a6
    75e4:	01055413          	srli	s0,a0,0x10
    75e8:	01cebe33          	sltu	t3,t4,t3
    75ec:	943e                	add	s0,s0,a5
    75ee:	010e6833          	or	a6,t3,a6
    75f2:	9442                	add	s0,s0,a6
    75f4:	00959493          	slli	s1,a1,0x9
    75f8:	9416                	add	s0,s0,t0
    75fa:	01735513          	srli	a0,t1,0x17
    75fe:	0114e4b3          	or	s1,s1,a7
    7602:	0426                	slli	s0,s0,0x9
    7604:	009034b3          	snez	s1,s1
    7608:	81dd                	srli	a1,a1,0x17
    760a:	8c49                	or	s0,s0,a0
    760c:	8ccd                	or	s1,s1,a1
    760e:	0326                	slli	t1,t1,0x9
    7610:	00741793          	slli	a5,s0,0x7
    7614:	0064e4b3          	or	s1,s1,t1
    7618:	0007db63          	bgez	a5,762e <__muldf3+0x38c>
    761c:	0014d793          	srli	a5,s1,0x1
    7620:	8885                	andi	s1,s1,1
    7622:	01f41593          	slli	a1,s0,0x1f
    7626:	8cdd                	or	s1,s1,a5
    7628:	8ccd                	or	s1,s1,a1
    762a:	8005                	srli	s0,s0,0x1
    762c:	893a                	mv	s2,a4
    762e:	3ff90713          	addi	a4,s2,1023
    7632:	04e05963          	blez	a4,7684 <__muldf3+0x3e2>
    7636:	0074f793          	andi	a5,s1,7
    763a:	cb99                	beqz	a5,7650 <__muldf3+0x3ae>
    763c:	4789                	li	a5,2
    763e:	001aea93          	ori	s5,s5,1
    7642:	20fb0b63          	beq	s6,a5,7858 <__muldf3+0x5b6>
    7646:	478d                	li	a5,3
    7648:	1efb0d63          	beq	s6,a5,7842 <__muldf3+0x5a0>
    764c:	1c0b0f63          	beqz	s6,782a <__muldf3+0x588>
    7650:	00741793          	slli	a5,s0,0x7
    7654:	0007d863          	bgez	a5,7664 <__muldf3+0x3c2>
    7658:	ff0007b7          	lui	a5,0xff000
    765c:	17fd                	addi	a5,a5,-1
    765e:	8c7d                	and	s0,s0,a5
    7660:	40090713          	addi	a4,s2,1024
    7664:	7fe00793          	li	a5,2046
    7668:	10e7c963          	blt	a5,a4,777a <__muldf3+0x4d8>
    766c:	0034d693          	srli	a3,s1,0x3
    7670:	00941793          	slli	a5,s0,0x9
    7674:	01d41493          	slli	s1,s0,0x1d
    7678:	00d4e433          	or	s0,s1,a3
    767c:	83b1                	srli	a5,a5,0xc
    767e:	7ff77713          	andi	a4,a4,2047
    7682:	b30d                	j	73a4 <__muldf3+0x102>
    7684:	4785                	li	a5,1
    7686:	8f99                	sub	a5,a5,a4
    7688:	e379                	bnez	a4,774e <__muldf3+0x4ac>
    768a:	0074f593          	andi	a1,s1,7
    768e:	8722                	mv	a4,s0
    7690:	cd81                	beqz	a1,76a8 <__muldf3+0x406>
    7692:	4709                	li	a4,2
    7694:	001aea93          	ori	s5,s5,1
    7698:	20eb0963          	beq	s6,a4,78aa <__muldf3+0x608>
    769c:	470d                	li	a4,3
    769e:	1eeb0d63          	beq	s6,a4,7898 <__muldf3+0x5f6>
    76a2:	8722                	mv	a4,s0
    76a4:	1c0b0f63          	beqz	s6,7882 <__muldf3+0x5e0>
    76a8:	8361                	srli	a4,a4,0x18
    76aa:	00174713          	xori	a4,a4,1
    76ae:	00177593          	andi	a1,a4,1
    76b2:	41e90913          	addi	s2,s2,1054
    76b6:	01249733          	sll	a4,s1,s2
    76ba:	01241933          	sll	s2,s0,s2
    76be:	00f4d4b3          	srl	s1,s1,a5
    76c2:	00e03733          	snez	a4,a4
    76c6:	009964b3          	or	s1,s2,s1
    76ca:	8cd9                	or	s1,s1,a4
    76cc:	0074f513          	andi	a0,s1,7
    76d0:	00f45733          	srl	a4,s0,a5
    76d4:	c919                	beqz	a0,76ea <__muldf3+0x448>
    76d6:	4789                	li	a5,2
    76d8:	001aea93          	ori	s5,s5,1
    76dc:	1efb0863          	beq	s6,a5,78cc <__muldf3+0x62a>
    76e0:	478d                	li	a5,3
    76e2:	1cfb0a63          	beq	s6,a5,78b6 <__muldf3+0x614>
    76e6:	1e0b0863          	beqz	s6,78d6 <__muldf3+0x634>
    76ea:	00871793          	slli	a5,a4,0x8
    76ee:	1807d063          	bgez	a5,786e <__muldf3+0x5cc>
    76f2:	001aea93          	ori	s5,s5,1
    76f6:	16059663          	bnez	a1,7862 <__muldf3+0x5c0>
    76fa:	067e                	slli	a2,a2,0x1f
    76fc:	001007b7          	lui	a5,0x100
    7700:	8fd1                	or	a5,a5,a2
    7702:	4501                	li	a0,0
    7704:	85be                	mv	a1,a5
    7706:	001aa073          	csrs	fflags,s5
    770a:	b17d                	j	73b8 <__muldf3+0x116>
    770c:	3ca010ef          	jal	ra,8ad6 <__clzsi2>
    7710:	01550713          	addi	a4,a0,21
    7714:	45f1                	li	a1,28
    7716:	02050793          	addi	a5,a0,32
    771a:	4622                	lw	a2,8(sp)
    771c:	46b2                	lw	a3,12(sp)
    771e:	d0e5d8e3          	bge	a1,a4,742e <__muldf3+0x18c>
    7722:	1561                	addi	a0,a0,-8
    7724:	00aa1433          	sll	s0,s4,a0
    7728:	4481                	li	s1,0
    772a:	bb31                	j	7446 <__muldf3+0x1a4>
    772c:	8532                	mv	a0,a2
    772e:	c432                	sw	a2,8(sp)
    7730:	3a6010ef          	jal	ra,8ad6 <__clzsi2>
    7734:	01550693          	addi	a3,a0,21
    7738:	4771                	li	a4,28
    773a:	02050793          	addi	a5,a0,32
    773e:	4622                	lw	a2,8(sp)
    7740:	cad756e3          	bge	a4,a3,73ec <__muldf3+0x14a>
    7744:	1561                	addi	a0,a0,-8
    7746:	4581                	li	a1,0
    7748:	00a619b3          	sll	s3,a2,a0
    774c:	b965                	j	7404 <__muldf3+0x162>
    774e:	03800593          	li	a1,56
    7752:	06f5d963          	bge	a1,a5,77c4 <__muldf3+0x522>
    7756:	8c45                	or	s0,s0,s1
    7758:	cc01                	beqz	s0,7770 <__muldf3+0x4ce>
    775a:	4789                	li	a5,2
    775c:	001aea93          	ori	s5,s5,1
    7760:	00d03433          	snez	s0,a3
    7764:	00fb0663          	beq	s6,a5,7770 <__muldf3+0x4ce>
    7768:	478d                	li	a5,3
    776a:	4401                	li	s0,0
    776c:	18fb0163          	beq	s6,a5,78ee <__muldf3+0x64c>
    7770:	002aea93          	ori	s5,s5,2
    7774:	4681                	li	a3,0
    7776:	4781                	li	a5,0
    7778:	a015                	j	779c <__muldf3+0x4fa>
    777a:	4789                	li	a5,2
    777c:	0cfb0c63          	beq	s6,a5,7854 <__muldf3+0x5b2>
    7780:	478d                	li	a5,3
    7782:	08fb0e63          	beq	s6,a5,781e <__muldf3+0x57c>
    7786:	080b0d63          	beqz	s6,7820 <__muldf3+0x57e>
    778a:	00100437          	lui	s0,0x100
    778e:	fff40793          	addi	a5,s0,-1 # fffff <_data_lma+0xf6203>
    7792:	7fe00693          	li	a3,2046
    7796:	547d                	li	s0,-1
    7798:	005aea93          	ori	s5,s5,5
    779c:	00c79713          	slli	a4,a5,0xc
    77a0:	8331                	srli	a4,a4,0xc
    77a2:	01469793          	slli	a5,a3,0x14
    77a6:	067e                	slli	a2,a2,0x1f
    77a8:	8fd9                	or	a5,a5,a4
    77aa:	8fd1                	or	a5,a5,a2
    77ac:	8522                	mv	a0,s0
    77ae:	85be                	mv	a1,a5
    77b0:	001aa073          	csrs	fflags,s5
    77b4:	b111                	j	73b8 <__muldf3+0x116>
    77b6:	4501                	li	a0,0
    77b8:	7ff805b7          	lui	a1,0x7ff80
    77bc:	4ac1                	li	s5,16
    77be:	001aa073          	csrs	fflags,s5
    77c2:	bedd                	j	73b8 <__muldf3+0x116>
    77c4:	45fd                	li	a1,31
    77c6:	12f5d763          	bge	a1,a5,78f4 <__muldf3+0x652>
    77ca:	5585                	li	a1,-31
    77cc:	40e58733          	sub	a4,a1,a4
    77d0:	02000593          	li	a1,32
    77d4:	00e45733          	srl	a4,s0,a4
    77d8:	00b78763          	beq	a5,a1,77e6 <__muldf3+0x544>
    77dc:	43e90913          	addi	s2,s2,1086
    77e0:	01241433          	sll	s0,s0,s2
    77e4:	8cc1                	or	s1,s1,s0
    77e6:	009034b3          	snez	s1,s1
    77ea:	8cd9                	or	s1,s1,a4
    77ec:	0074f793          	andi	a5,s1,7
    77f0:	cb99                	beqz	a5,7806 <__muldf3+0x564>
    77f2:	4789                	li	a5,2
    77f4:	001aea93          	ori	s5,s5,1
    77f8:	0cfb0863          	beq	s6,a5,78c8 <__muldf3+0x626>
    77fc:	478d                	li	a5,3
    77fe:	0afb0a63          	beq	s6,a5,78b2 <__muldf3+0x610>
    7802:	0c0b0863          	beqz	s6,78d2 <__muldf3+0x630>
    7806:	0034d413          	srli	s0,s1,0x3
    780a:	4781                	li	a5,0
    780c:	001af693          	andi	a3,s5,1
    7810:	4701                	li	a4,0
    7812:	b80689e3          	beqz	a3,73a4 <__muldf3+0x102>
    7816:	4681                	li	a3,0
    7818:	002aea93          	ori	s5,s5,2
    781c:	b741                	j	779c <__muldf3+0x4fa>
    781e:	f6b5                	bnez	a3,778a <__muldf3+0x4e8>
    7820:	7ff00693          	li	a3,2047
    7824:	4781                	li	a5,0
    7826:	4401                	li	s0,0
    7828:	bf85                	j	7798 <__muldf3+0x4f6>
    782a:	00f4f793          	andi	a5,s1,15
    782e:	4591                	li	a1,4
    7830:	e2b780e3          	beq	a5,a1,7650 <__muldf3+0x3ae>
    7834:	00448793          	addi	a5,s1,4
    7838:	0097b4b3          	sltu	s1,a5,s1
    783c:	9426                	add	s0,s0,s1
    783e:	84be                	mv	s1,a5
    7840:	bd01                	j	7650 <__muldf3+0x3ae>
    7842:	e00697e3          	bnez	a3,7650 <__muldf3+0x3ae>
    7846:	00848793          	addi	a5,s1,8
    784a:	0097b4b3          	sltu	s1,a5,s1
    784e:	9426                	add	s0,s0,s1
    7850:	84be                	mv	s1,a5
    7852:	bbfd                	j	7650 <__muldf3+0x3ae>
    7854:	da9d                	beqz	a3,778a <__muldf3+0x4e8>
    7856:	b7e9                	j	7820 <__muldf3+0x57e>
    7858:	de068ce3          	beqz	a3,7650 <__muldf3+0x3ae>
    785c:	b7ed                	j	7846 <__muldf3+0x5a4>
    785e:	893a                	mv	s2,a4
    7860:	b3f9                	j	762e <__muldf3+0x38c>
    7862:	4685                	li	a3,1
    7864:	4781                	li	a5,0
    7866:	4401                	li	s0,0
    7868:	002aea93          	ori	s5,s5,2
    786c:	bf05                	j	779c <__muldf3+0x4fa>
    786e:	00971793          	slli	a5,a4,0x9
    7872:	0034d413          	srli	s0,s1,0x3
    7876:	0776                	slli	a4,a4,0x1d
    7878:	83b1                	srli	a5,a5,0xc
    787a:	8c59                	or	s0,s0,a4
    787c:	f9c1                	bnez	a1,780c <__muldf3+0x56a>
    787e:	4701                	li	a4,0
    7880:	b615                	j	73a4 <__muldf3+0x102>
    7882:	00f4f593          	andi	a1,s1,15
    7886:	4511                	li	a0,4
    7888:	e2a580e3          	beq	a1,a0,76a8 <__muldf3+0x406>
    788c:	ffc4b713          	sltiu	a4,s1,-4
    7890:	00174713          	xori	a4,a4,1
    7894:	9722                	add	a4,a4,s0
    7896:	bd09                	j	76a8 <__muldf3+0x406>
    7898:	8722                	mv	a4,s0
    789a:	e00697e3          	bnez	a3,76a8 <__muldf3+0x406>
    789e:	ff84b713          	sltiu	a4,s1,-8
    78a2:	00174713          	xori	a4,a4,1
    78a6:	9722                	add	a4,a4,s0
    78a8:	b501                	j	76a8 <__muldf3+0x406>
    78aa:	8722                	mv	a4,s0
    78ac:	de068ee3          	beqz	a3,76a8 <__muldf3+0x406>
    78b0:	b7fd                	j	789e <__muldf3+0x5fc>
    78b2:	4585                	li	a1,1
    78b4:	4701                	li	a4,0
    78b6:	e2069ae3          	bnez	a3,76ea <__muldf3+0x448>
    78ba:	00848793          	addi	a5,s1,8
    78be:	0097b4b3          	sltu	s1,a5,s1
    78c2:	9726                	add	a4,a4,s1
    78c4:	84be                	mv	s1,a5
    78c6:	b515                	j	76ea <__muldf3+0x448>
    78c8:	4585                	li	a1,1
    78ca:	4701                	li	a4,0
    78cc:	e0068fe3          	beqz	a3,76ea <__muldf3+0x448>
    78d0:	b7ed                	j	78ba <__muldf3+0x618>
    78d2:	4585                	li	a1,1
    78d4:	4701                	li	a4,0
    78d6:	00f4f793          	andi	a5,s1,15
    78da:	4691                	li	a3,4
    78dc:	e0d787e3          	beq	a5,a3,76ea <__muldf3+0x448>
    78e0:	00448793          	addi	a5,s1,4
    78e4:	0097b4b3          	sltu	s1,a5,s1
    78e8:	9726                	add	a4,a4,s1
    78ea:	84be                	mv	s1,a5
    78ec:	bbfd                	j	76ea <__muldf3+0x448>
    78ee:	0016b413          	seqz	s0,a3
    78f2:	bdbd                	j	7770 <__muldf3+0x4ce>
    78f4:	4585                	li	a1,1
    78f6:	bb75                	j	76b2 <__muldf3+0x410>

000078f8 <__subdf3>:
    78f8:	1101                	addi	sp,sp,-32
    78fa:	ce06                	sw	ra,28(sp)
    78fc:	cc22                	sw	s0,24(sp)
    78fe:	ca26                	sw	s1,20(sp)
    7900:	c84a                	sw	s2,16(sp)
    7902:	c64e                	sw	s3,12(sp)
    7904:	c452                	sw	s4,8(sp)
    7906:	002029f3          	frrm	s3
    790a:	00100837          	lui	a6,0x100
    790e:	187d                	addi	a6,a6,-1
    7910:	00b87733          	and	a4,a6,a1
    7914:	0146d893          	srli	a7,a3,0x14
    7918:	00d87833          	and	a6,a6,a3
    791c:	0145d413          	srli	s0,a1,0x14
    7920:	00371e13          	slli	t3,a4,0x3
    7924:	01d55793          	srli	a5,a0,0x1d
    7928:	080e                	slli	a6,a6,0x3
    792a:	01d65313          	srli	t1,a2,0x1d
    792e:	7ff8f893          	andi	a7,a7,2047
    7932:	7ff00e93          	li	t4,2047
    7936:	01f5d493          	srli	s1,a1,0x1f
    793a:	01c7e733          	or	a4,a5,t3
    793e:	7ff47413          	andi	s0,s0,2047
    7942:	00351e13          	slli	t3,a0,0x3
    7946:	82fd                	srli	a3,a3,0x1f
    7948:	01036833          	or	a6,t1,a6
    794c:	00361593          	slli	a1,a2,0x3
    7950:	1dd88263          	beq	a7,t4,7b14 <__subdf3+0x21c>
    7954:	0016c693          	xori	a3,a3,1
    7958:	41140333          	sub	t1,s0,a7
    795c:	16d48763          	beq	s1,a3,7aca <__subdf3+0x1d2>
    7960:	1c605363          	blez	t1,7b26 <__subdf3+0x22e>
    7964:	22088463          	beqz	a7,7b8c <__subdf3+0x294>
    7968:	008007b7          	lui	a5,0x800
    796c:	00f86833          	or	a6,a6,a5
    7970:	6dd40263          	beq	s0,t4,8034 <__subdf3+0x73c>
    7974:	03800793          	li	a5,56
    7978:	3a67cd63          	blt	a5,t1,7d32 <__subdf3+0x43a>
    797c:	47fd                	li	a5,31
    797e:	5267c263          	blt	a5,t1,7ea2 <__subdf3+0x5aa>
    7982:	02000793          	li	a5,32
    7986:	406787b3          	sub	a5,a5,t1
    798a:	0065d933          	srl	s2,a1,t1
    798e:	00f81633          	sll	a2,a6,a5
    7992:	00f595b3          	sll	a1,a1,a5
    7996:	01266633          	or	a2,a2,s2
    799a:	00685333          	srl	t1,a6,t1
    799e:	00b03933          	snez	s2,a1
    79a2:	01266633          	or	a2,a2,s2
    79a6:	40670733          	sub	a4,a4,t1
    79aa:	40ce0933          	sub	s2,t3,a2
    79ae:	012e3633          	sltu	a2,t3,s2
    79b2:	8f11                	sub	a4,a4,a2
    79b4:	00871793          	slli	a5,a4,0x8
    79b8:	2a07da63          	bgez	a5,7c6c <__subdf3+0x374>
    79bc:	00971a13          	slli	s4,a4,0x9
    79c0:	009a5a13          	srli	s4,s4,0x9
    79c4:	340a0b63          	beqz	s4,7d1a <__subdf3+0x422>
    79c8:	8552                	mv	a0,s4
    79ca:	10c010ef          	jal	ra,8ad6 <__clzsi2>
    79ce:	1561                	addi	a0,a0,-8
    79d0:	02000793          	li	a5,32
    79d4:	8f89                	sub	a5,a5,a0
    79d6:	00aa1733          	sll	a4,s4,a0
    79da:	00f957b3          	srl	a5,s2,a5
    79de:	8fd9                	or	a5,a5,a4
    79e0:	00a91a33          	sll	s4,s2,a0
    79e4:	32854063          	blt	a0,s0,7d04 <__subdf3+0x40c>
    79e8:	8d01                	sub	a0,a0,s0
    79ea:	00150713          	addi	a4,a0,1
    79ee:	46fd                	li	a3,31
    79f0:	44e6c063          	blt	a3,a4,7e30 <__subdf3+0x538>
    79f4:	02000693          	li	a3,32
    79f8:	8e99                	sub	a3,a3,a4
    79fa:	00ea5933          	srl	s2,s4,a4
    79fe:	00d79633          	sll	a2,a5,a3
    7a02:	00da16b3          	sll	a3,s4,a3
    7a06:	01266633          	or	a2,a2,s2
    7a0a:	00d036b3          	snez	a3,a3
    7a0e:	00d66933          	or	s2,a2,a3
    7a12:	00e7d733          	srl	a4,a5,a4
    7a16:	00e967b3          	or	a5,s2,a4
    7a1a:	16078063          	beqz	a5,7b7a <__subdf3+0x282>
    7a1e:	00797793          	andi	a5,s2,7
    7a22:	00191593          	slli	a1,s2,0x1
    7a26:	00171613          	slli	a2,a4,0x1
    7a2a:	01f95693          	srli	a3,s2,0x1f
    7a2e:	0075f513          	andi	a0,a1,7
    7a32:	96b2                	add	a3,a3,a2
    7a34:	4301                	li	t1,0
    7a36:	c911                	beqz	a0,7a4a <__subdf3+0x152>
    7a38:	4609                	li	a2,2
    7a3a:	66c98163          	beq	s3,a2,809c <__subdf3+0x7a4>
    7a3e:	460d                	li	a2,3
    7a40:	4305                	li	t1,1
    7a42:	64c98563          	beq	s3,a2,808c <__subdf3+0x794>
    7a46:	62098863          	beqz	s3,8076 <__subdf3+0x77e>
    7a4a:	01000637          	lui	a2,0x1000
    7a4e:	8ef1                	and	a3,a3,a2
    7a50:	0016b513          	seqz	a0,a3
    7a54:	10078ce3          	beqz	a5,836c <__subdf3+0xa74>
    7a58:	4401                	li	s0,0
    7a5a:	4789                	li	a5,2
    7a5c:	26f98c63          	beq	s3,a5,7cd4 <__subdf3+0x3dc>
    7a60:	478d                	li	a5,3
    7a62:	28f98863          	beq	s3,a5,7cf2 <__subdf3+0x3fa>
    7a66:	24098263          	beqz	s3,7caa <__subdf3+0x3b2>
    7a6a:	008005b7          	lui	a1,0x800
    7a6e:	8df9                	and	a1,a1,a4
    7a70:	4305                	li	t1,1
    7a72:	c119                	beqz	a0,7a78 <__subdf3+0x180>
    7a74:	00236313          	ori	t1,t1,2
    7a78:	4a058363          	beqz	a1,7f1e <__subdf3+0x626>
    7a7c:	0405                	addi	s0,s0,1
    7a7e:	7ff00793          	li	a5,2047
    7a82:	20f40363          	beq	s0,a5,7c88 <__subdf3+0x390>
    7a86:	ff8007b7          	lui	a5,0xff800
    7a8a:	17fd                	addi	a5,a5,-1
    7a8c:	8ff9                	and	a5,a5,a4
    7a8e:	01d79613          	slli	a2,a5,0x1d
    7a92:	00395913          	srli	s2,s2,0x3
    7a96:	07a6                	slli	a5,a5,0x9
    7a98:	01266633          	or	a2,a2,s2
    7a9c:	83b1                	srli	a5,a5,0xc
    7a9e:	7ff47413          	andi	s0,s0,2047
    7aa2:	8885                	andi	s1,s1,1
    7aa4:	00c79713          	slli	a4,a5,0xc
    7aa8:	0452                	slli	s0,s0,0x14
    7aaa:	8331                	srli	a4,a4,0xc
    7aac:	04fe                	slli	s1,s1,0x1f
    7aae:	8f41                	or	a4,a4,s0
    7ab0:	8f45                	or	a4,a4,s1
    7ab2:	8532                	mv	a0,a2
    7ab4:	85ba                	mv	a1,a4
    7ab6:	2a031463          	bnez	t1,7d5e <__subdf3+0x466>
    7aba:	40f2                	lw	ra,28(sp)
    7abc:	4462                	lw	s0,24(sp)
    7abe:	44d2                	lw	s1,20(sp)
    7ac0:	4942                	lw	s2,16(sp)
    7ac2:	49b2                	lw	s3,12(sp)
    7ac4:	4a22                	lw	s4,8(sp)
    7ac6:	6105                	addi	sp,sp,32
    7ac8:	8082                	ret
    7aca:	0c605d63          	blez	t1,7ba4 <__subdf3+0x2ac>
    7ace:	16088c63          	beqz	a7,7c46 <__subdf3+0x34e>
    7ad2:	008007b7          	lui	a5,0x800
    7ad6:	00f86833          	or	a6,a6,a5
    7ada:	51d40a63          	beq	s0,t4,7fee <__subdf3+0x6f6>
    7ade:	03800793          	li	a5,56
    7ae2:	3667cc63          	blt	a5,t1,7e5a <__subdf3+0x562>
    7ae6:	47fd                	li	a5,31
    7ae8:	4667d063          	bge	a5,t1,7f48 <__subdf3+0x650>
    7aec:	fe030613          	addi	a2,t1,-32
    7af0:	02000793          	li	a5,32
    7af4:	00c85633          	srl	a2,a6,a2
    7af8:	00f30a63          	beq	t1,a5,7b0c <__subdf3+0x214>
    7afc:	04000793          	li	a5,64
    7b00:	40678333          	sub	t1,a5,t1
    7b04:	00681833          	sll	a6,a6,t1
    7b08:	0105e5b3          	or	a1,a1,a6
    7b0c:	00b035b3          	snez	a1,a1
    7b10:	8e4d                	or	a2,a2,a1
    7b12:	ae81                	j	7e62 <__subdf3+0x56a>
    7b14:	00b867b3          	or	a5,a6,a1
    7b18:	80140313          	addi	t1,s0,-2047
    7b1c:	e399                	bnez	a5,7b22 <__subdf3+0x22a>
    7b1e:	0016c693          	xori	a3,a3,1
    7b22:	08d48163          	beq	s1,a3,7ba4 <__subdf3+0x2ac>
    7b26:	0c031563          	bnez	t1,7bf0 <__subdf3+0x2f8>
    7b2a:	00140793          	addi	a5,s0,1
    7b2e:	7fe7f793          	andi	a5,a5,2046
    7b32:	24079263          	bnez	a5,7d76 <__subdf3+0x47e>
    7b36:	01c76eb3          	or	t4,a4,t3
    7b3a:	00b867b3          	or	a5,a6,a1
    7b3e:	5a041263          	bnez	s0,80e2 <__subdf3+0x7ea>
    7b42:	480e8e63          	beqz	t4,7fde <__subdf3+0x6e6>
    7b46:	4a078263          	beqz	a5,7fea <__subdf3+0x6f2>
    7b4a:	40be0533          	sub	a0,t3,a1
    7b4e:	00ae37b3          	sltu	a5,t3,a0
    7b52:	41070633          	sub	a2,a4,a6
    7b56:	8e1d                	sub	a2,a2,a5
    7b58:	00861793          	slli	a5,a2,0x8
    7b5c:	6a07d463          	bgez	a5,8204 <__subdf3+0x90c>
    7b60:	41c58933          	sub	s2,a1,t3
    7b64:	40e807b3          	sub	a5,a6,a4
    7b68:	0125b5b3          	sltu	a1,a1,s2
    7b6c:	40b78733          	sub	a4,a5,a1
    7b70:	00e967b3          	or	a5,s2,a4
    7b74:	84b6                	mv	s1,a3
    7b76:	ea0794e3          	bnez	a5,7a1e <__subdf3+0x126>
    7b7a:	4601                	li	a2,0
    7b7c:	4401                	li	s0,0
    7b7e:	4301                	li	t1,0
    7b80:	07b2                	slli	a5,a5,0xc
    7b82:	83b1                	srli	a5,a5,0xc
    7b84:	7ff47413          	andi	s0,s0,2047
    7b88:	8885                	andi	s1,s1,1
    7b8a:	bf29                	j	7aa4 <__subdf3+0x1ac>
    7b8c:	00b867b3          	or	a5,a6,a1
    7b90:	1a078663          	beqz	a5,7d3c <__subdf3+0x444>
    7b94:	fff30793          	addi	a5,t1,-1
    7b98:	48078063          	beqz	a5,8018 <__subdf3+0x720>
    7b9c:	45d30963          	beq	t1,t4,7fee <__subdf3+0x6f6>
    7ba0:	833e                	mv	t1,a5
    7ba2:	bbc9                	j	7974 <__subdf3+0x7c>
    7ba4:	20031063          	bnez	t1,7da4 <__subdf3+0x4ac>
    7ba8:	00140693          	addi	a3,s0,1
    7bac:	7fe6f793          	andi	a5,a3,2046
    7bb0:	4e079a63          	bnez	a5,80a4 <__subdf3+0x7ac>
    7bb4:	01c766b3          	or	a3,a4,t3
    7bb8:	3e041e63          	bnez	s0,7fb4 <__subdf3+0x6bc>
    7bbc:	00b867b3          	or	a5,a6,a1
    7bc0:	5a068a63          	beqz	a3,8174 <__subdf3+0x87c>
    7bc4:	42078363          	beqz	a5,7fea <__subdf3+0x6f2>
    7bc8:	00be0933          	add	s2,t3,a1
    7bcc:	010707b3          	add	a5,a4,a6
    7bd0:	01c93633          	sltu	a2,s2,t3
    7bd4:	00c78733          	add	a4,a5,a2
    7bd8:	00871793          	slli	a5,a4,0x8
    7bdc:	e207dde3          	bgez	a5,7a16 <__subdf3+0x11e>
    7be0:	ff8007b7          	lui	a5,0xff800
    7be4:	17fd                	addi	a5,a5,-1
    7be6:	8f7d                	and	a4,a4,a5
    7be8:	4405                	li	s0,1
    7bea:	00797793          	andi	a5,s2,7
    7bee:	a069                	j	7c78 <__subdf3+0x380>
    7bf0:	408887b3          	sub	a5,a7,s0
    7bf4:	20041363          	bnez	s0,7dfa <__subdf3+0x502>
    7bf8:	01c76533          	or	a0,a4,t3
    7bfc:	c125                	beqz	a0,7c5c <__subdf3+0x364>
    7bfe:	fff78513          	addi	a0,a5,-1 # ff7fffff <_eusrstack+0xdf7f7fff>
    7c02:	54050f63          	beqz	a0,8160 <__subdf3+0x868>
    7c06:	7ff00313          	li	t1,2047
    7c0a:	60678663          	beq	a5,t1,8216 <__subdf3+0x91e>
    7c0e:	87aa                	mv	a5,a0
    7c10:	03800613          	li	a2,56
    7c14:	2af64b63          	blt	a2,a5,7eca <__subdf3+0x5d2>
    7c18:	467d                	li	a2,31
    7c1a:	50f64863          	blt	a2,a5,812a <__subdf3+0x832>
    7c1e:	02000513          	li	a0,32
    7c22:	8d1d                	sub	a0,a0,a5
    7c24:	00a71633          	sll	a2,a4,a0
    7c28:	00fe5333          	srl	t1,t3,a5
    7c2c:	00ae1533          	sll	a0,t3,a0
    7c30:	00666633          	or	a2,a2,t1
    7c34:	00a03933          	snez	s2,a0
    7c38:	00f757b3          	srl	a5,a4,a5
    7c3c:	01266633          	or	a2,a2,s2
    7c40:	40f80833          	sub	a6,a6,a5
    7c44:	a479                	j	7ed2 <__subdf3+0x5da>
    7c46:	00b867b3          	or	a5,a6,a1
    7c4a:	cbed                	beqz	a5,7d3c <__subdf3+0x444>
    7c4c:	fff30793          	addi	a5,t1,-1
    7c50:	32078063          	beqz	a5,7f70 <__subdf3+0x678>
    7c54:	4bd30b63          	beq	t1,t4,810a <__subdf3+0x812>
    7c58:	833e                	mv	t1,a5
    7c5a:	b551                	j	7ade <__subdf3+0x1e6>
    7c5c:	7ff00713          	li	a4,2047
    7c60:	5ee78a63          	beq	a5,a4,8254 <__subdf3+0x95c>
    7c64:	8742                	mv	a4,a6
    7c66:	892e                	mv	s2,a1
    7c68:	843e                	mv	s0,a5
    7c6a:	84b6                	mv	s1,a3
    7c6c:	00e967b3          	or	a5,s2,a4
    7c70:	da0405e3          	beqz	s0,7a1a <__subdf3+0x122>
    7c74:	00797793          	andi	a5,s2,7
    7c78:	4501                	li	a0,0
    7c7a:	de0790e3          	bnez	a5,7a5a <__subdf3+0x162>
    7c7e:	008005b7          	lui	a1,0x800
    7c82:	8df9                	and	a1,a1,a4
    7c84:	4301                	li	t1,0
    7c86:	bbcd                	j	7a78 <__subdf3+0x180>
    7c88:	0c098f63          	beqz	s3,7d66 <__subdf3+0x46e>
    7c8c:	478d                	li	a5,3
    7c8e:	0cf98b63          	beq	s3,a5,7d64 <__subdf3+0x46c>
    7c92:	4789                	li	a5,2
    7c94:	30f98b63          	beq	s3,a5,7faa <__subdf3+0x6b2>
    7c98:	00536313          	ori	t1,t1,5
    7c9c:	200007b7          	lui	a5,0x20000
    7ca0:	567d                	li	a2,-1
    7ca2:	17fd                	addi	a5,a5,-1
    7ca4:	7fe00413          	li	s0,2046
    7ca8:	bde1                	j	7b80 <__subdf3+0x288>
    7caa:	008005b7          	lui	a1,0x800
    7cae:	00f97793          	andi	a5,s2,15
    7cb2:	4691                	li	a3,4
    7cb4:	4305                	li	t1,1
    7cb6:	8df9                	and	a1,a1,a4
    7cb8:	dad78de3          	beq	a5,a3,7a72 <__subdf3+0x17a>
    7cbc:	ffc93793          	sltiu	a5,s2,-4
    7cc0:	0017c793          	xori	a5,a5,1
    7cc4:	973e                	add	a4,a4,a5
    7cc6:	008005b7          	lui	a1,0x800
    7cca:	8df9                	and	a1,a1,a4
    7ccc:	0911                	addi	s2,s2,4
    7cce:	da0513e3          	bnez	a0,7a74 <__subdf3+0x17c>
    7cd2:	b35d                	j	7a78 <__subdf3+0x180>
    7cd4:	d8048be3          	beqz	s1,7a6a <__subdf3+0x172>
    7cd8:	00890793          	addi	a5,s2,8
    7cdc:	0127b633          	sltu	a2,a5,s2
    7ce0:	9732                	add	a4,a4,a2
    7ce2:	008005b7          	lui	a1,0x800
    7ce6:	8df9                	and	a1,a1,a4
    7ce8:	893e                	mv	s2,a5
    7cea:	4305                	li	t1,1
    7cec:	d80514e3          	bnez	a0,7a74 <__subdf3+0x17c>
    7cf0:	b361                	j	7a78 <__subdf3+0x180>
    7cf2:	d0fd                	beqz	s1,7cd8 <__subdf3+0x3e0>
    7cf4:	4305                	li	t1,1
    7cf6:	008005b7          	lui	a1,0x800
    7cfa:	8df9                	and	a1,a1,a4
    7cfc:	4485                	li	s1,1
    7cfe:	d6051be3          	bnez	a0,7a74 <__subdf3+0x17c>
    7d02:	bb9d                	j	7a78 <__subdf3+0x180>
    7d04:	ff800737          	lui	a4,0xff800
    7d08:	177d                	addi	a4,a4,-1
    7d0a:	8f7d                	and	a4,a4,a5
    7d0c:	8952                	mv	s2,s4
    7d0e:	8c09                	sub	s0,s0,a0
    7d10:	00e967b3          	or	a5,s2,a4
    7d14:	d00403e3          	beqz	s0,7a1a <__subdf3+0x122>
    7d18:	bfb1                	j	7c74 <__subdf3+0x37c>
    7d1a:	854a                	mv	a0,s2
    7d1c:	5bb000ef          	jal	ra,8ad6 <__clzsi2>
    7d20:	ff850793          	addi	a5,a0,-8
    7d24:	477d                	li	a4,31
    7d26:	0561                	addi	a0,a0,24
    7d28:	00f917b3          	sll	a5,s2,a5
    7d2c:	caa74ce3          	blt	a4,a0,79e4 <__subdf3+0xec>
    7d30:	b145                	j	79d0 <__subdf3+0xd8>
    7d32:	00b86833          	or	a6,a6,a1
    7d36:	01003633          	snez	a2,a6
    7d3a:	b985                	j	79aa <__subdf3+0xb2>
    7d3c:	31d30f63          	beq	t1,t4,805a <__subdf3+0x762>
    7d40:	008005b7          	lui	a1,0x800
    7d44:	841a                	mv	s0,t1
    7d46:	8df9                	and	a1,a1,a4
    7d48:	8972                	mv	s2,t3
    7d4a:	4301                	li	t1,0
    7d4c:	b335                	j	7a78 <__subdf3+0x180>
    7d4e:	48888863          	beq	a7,s0,81de <__subdf3+0x8e6>
    7d52:	48079f63          	bnez	a5,81f0 <__subdf3+0x8f8>
    7d56:	4501                	li	a0,0
    7d58:	7ff805b7          	lui	a1,0x7ff80
    7d5c:	4341                	li	t1,16
    7d5e:	00132073          	csrs	fflags,t1
    7d62:	bba1                	j	7aba <__subdf3+0x1c2>
    7d64:	f895                	bnez	s1,7c98 <__subdf3+0x3a0>
    7d66:	00536313          	ori	t1,t1,5
    7d6a:	8885                	andi	s1,s1,1
    7d6c:	7ff00413          	li	s0,2047
    7d70:	4781                	li	a5,0
    7d72:	4601                	li	a2,0
    7d74:	bb05                	j	7aa4 <__subdf3+0x1ac>
    7d76:	40be0933          	sub	s2,t3,a1
    7d7a:	012e37b3          	sltu	a5,t3,s2
    7d7e:	41070a33          	sub	s4,a4,a6
    7d82:	40fa0a33          	sub	s4,s4,a5
    7d86:	008a1793          	slli	a5,s4,0x8
    7d8a:	3407c263          	bltz	a5,80ce <__subdf3+0x7d6>
    7d8e:	014967b3          	or	a5,s2,s4
    7d92:	c20799e3          	bnez	a5,79c4 <__subdf3+0xcc>
    7d96:	ffe98493          	addi	s1,s3,-2
    7d9a:	0014b493          	seqz	s1,s1
    7d9e:	4601                	li	a2,0
    7da0:	4401                	li	s0,0
    7da2:	bbf9                	j	7b80 <__subdf3+0x288>
    7da4:	408887b3          	sub	a5,a7,s0
    7da8:	12040e63          	beqz	s0,7ee4 <__subdf3+0x5ec>
    7dac:	00800537          	lui	a0,0x800
    7db0:	7ff00693          	li	a3,2047
    7db4:	8f49                	or	a4,a4,a0
    7db6:	50d88763          	beq	a7,a3,82c4 <__subdf3+0x9cc>
    7dba:	03800693          	li	a3,56
    7dbe:	36f6c163          	blt	a3,a5,8120 <__subdf3+0x828>
    7dc2:	46fd                	li	a3,31
    7dc4:	46f6c363          	blt	a3,a5,822a <__subdf3+0x932>
    7dc8:	02000693          	li	a3,32
    7dcc:	8e9d                	sub	a3,a3,a5
    7dce:	00d71633          	sll	a2,a4,a3
    7dd2:	00fe5533          	srl	a0,t3,a5
    7dd6:	00de16b3          	sll	a3,t3,a3
    7dda:	8e49                	or	a2,a2,a0
    7ddc:	00d03933          	snez	s2,a3
    7de0:	00f757b3          	srl	a5,a4,a5
    7de4:	01266633          	or	a2,a2,s2
    7de8:	983e                	add	a6,a6,a5
    7dea:	00b60933          	add	s2,a2,a1
    7dee:	00b937b3          	sltu	a5,s2,a1
    7df2:	01078733          	add	a4,a5,a6
    7df6:	8446                	mv	s0,a7
    7df8:	a895                	j	7e6c <__subdf3+0x574>
    7dfa:	00800337          	lui	t1,0x800
    7dfe:	7ff00513          	li	a0,2047
    7e02:	00676733          	or	a4,a4,t1
    7e06:	e0a895e3          	bne	a7,a0,7c10 <__subdf3+0x318>
    7e0a:	00b865b3          	or	a1,a6,a1
    7e0e:	20058263          	beqz	a1,8012 <__subdf3+0x71a>
    7e12:	060e                	slli	a2,a2,0x3
    7e14:	820d                	srli	a2,a2,0x3
    7e16:	01d81793          	slli	a5,a6,0x1d
    7e1a:	00981713          	slli	a4,a6,0x9
    7e1e:	8e5d                	or	a2,a2,a5
    7e20:	84b6                	mv	s1,a3
    7e22:	00385793          	srli	a5,a6,0x3
    7e26:	4301                	li	t1,0
    7e28:	10074663          	bltz	a4,7f34 <__subdf3+0x63c>
    7e2c:	4341                	li	t1,16
    7e2e:	a219                	j	7f34 <__subdf3+0x63c>
    7e30:	1505                	addi	a0,a0,-31
    7e32:	02000693          	li	a3,32
    7e36:	00a7d533          	srl	a0,a5,a0
    7e3a:	00d70a63          	beq	a4,a3,7e4e <__subdf3+0x556>
    7e3e:	04000693          	li	a3,64
    7e42:	40e68733          	sub	a4,a3,a4
    7e46:	00e797b3          	sll	a5,a5,a4
    7e4a:	00fa6a33          	or	s4,s4,a5
    7e4e:	014037b3          	snez	a5,s4
    7e52:	8fc9                	or	a5,a5,a0
    7e54:	893e                	mv	s2,a5
    7e56:	4701                	li	a4,0
    7e58:	b6c9                	j	7a1a <__subdf3+0x122>
    7e5a:	00b86833          	or	a6,a6,a1
    7e5e:	01003633          	snez	a2,a6
    7e62:	01c60933          	add	s2,a2,t3
    7e66:	01c93633          	sltu	a2,s2,t3
    7e6a:	9732                	add	a4,a4,a2
    7e6c:	00871793          	slli	a5,a4,0x8
    7e70:	de07dee3          	bgez	a5,7c6c <__subdf3+0x374>
    7e74:	0405                	addi	s0,s0,1
    7e76:	7ff00793          	li	a5,2047
    7e7a:	08f40363          	beq	s0,a5,7f00 <__subdf3+0x608>
    7e7e:	ff8007b7          	lui	a5,0xff800
    7e82:	17fd                	addi	a5,a5,-1
    7e84:	8ff9                	and	a5,a5,a4
    7e86:	00197613          	andi	a2,s2,1
    7e8a:	00195713          	srli	a4,s2,0x1
    7e8e:	8e59                	or	a2,a2,a4
    7e90:	01f79913          	slli	s2,a5,0x1f
    7e94:	00c96933          	or	s2,s2,a2
    7e98:	0017d713          	srli	a4,a5,0x1
    7e9c:	00797793          	andi	a5,s2,7
    7ea0:	bbe1                	j	7c78 <__subdf3+0x380>
    7ea2:	fe030613          	addi	a2,t1,-32 # 7fffe0 <_data_lma+0x7f61e4>
    7ea6:	02000793          	li	a5,32
    7eaa:	00c85633          	srl	a2,a6,a2
    7eae:	00f30a63          	beq	t1,a5,7ec2 <__subdf3+0x5ca>
    7eb2:	04000793          	li	a5,64
    7eb6:	40678333          	sub	t1,a5,t1
    7eba:	00681833          	sll	a6,a6,t1
    7ebe:	0105e5b3          	or	a1,a1,a6
    7ec2:	00b035b3          	snez	a1,a1
    7ec6:	8e4d                	or	a2,a2,a1
    7ec8:	b4cd                	j	79aa <__subdf3+0xb2>
    7eca:	01c76633          	or	a2,a4,t3
    7ece:	00c03633          	snez	a2,a2
    7ed2:	40c58933          	sub	s2,a1,a2
    7ed6:	0125b7b3          	sltu	a5,a1,s2
    7eda:	40f80733          	sub	a4,a6,a5
    7ede:	8446                	mv	s0,a7
    7ee0:	84b6                	mv	s1,a3
    7ee2:	bcc9                	j	79b4 <__subdf3+0xbc>
    7ee4:	01c766b3          	or	a3,a4,t3
    7ee8:	28068963          	beqz	a3,817a <__subdf3+0x882>
    7eec:	fff78693          	addi	a3,a5,-1 # ff7fffff <_eusrstack+0xdf7f7fff>
    7ef0:	38068b63          	beqz	a3,8286 <__subdf3+0x98e>
    7ef4:	7ff00513          	li	a0,2047
    7ef8:	40a78e63          	beq	a5,a0,8314 <__subdf3+0xa1c>
    7efc:	87b6                	mv	a5,a3
    7efe:	bd75                	j	7dba <__subdf3+0x4c2>
    7f00:	20098363          	beqz	s3,8106 <__subdf3+0x80e>
    7f04:	478d                	li	a5,3
    7f06:	3ef98b63          	beq	s3,a5,82fc <__subdf3+0xa04>
    7f0a:	4789                	li	a5,2
    7f0c:	3cf98f63          	beq	s3,a5,82ea <__subdf3+0x9f2>
    7f10:	44099063          	bnez	s3,8350 <__subdf3+0xa58>
    7f14:	7fe00413          	li	s0,2046
    7f18:	4701                	li	a4,0
    7f1a:	490d                	li	s2,3
    7f1c:	4315                	li	t1,5
    7f1e:	01d71793          	slli	a5,a4,0x1d
    7f22:	00395613          	srli	a2,s2,0x3
    7f26:	7ff00693          	li	a3,2047
    7f2a:	8e5d                	or	a2,a2,a5
    7f2c:	00375793          	srli	a5,a4,0x3
    7f30:	c4d418e3          	bne	s0,a3,7b80 <__subdf3+0x288>
    7f34:	8fd1                	or	a5,a5,a2
    7f36:	e2078ae3          	beqz	a5,7d6a <__subdf3+0x472>
    7f3a:	4481                	li	s1,0
    7f3c:	7ff00413          	li	s0,2047
    7f40:	000807b7          	lui	a5,0x80
    7f44:	4601                	li	a2,0
    7f46:	beb9                	j	7aa4 <__subdf3+0x1ac>
    7f48:	02000793          	li	a5,32
    7f4c:	406787b3          	sub	a5,a5,t1
    7f50:	0065d933          	srl	s2,a1,t1
    7f54:	00f81633          	sll	a2,a6,a5
    7f58:	00f595b3          	sll	a1,a1,a5
    7f5c:	01266633          	or	a2,a2,s2
    7f60:	00685333          	srl	t1,a6,t1
    7f64:	00b03933          	snez	s2,a1
    7f68:	01266633          	or	a2,a2,s2
    7f6c:	971a                	add	a4,a4,t1
    7f6e:	bdd5                	j	7e62 <__subdf3+0x56a>
    7f70:	00be0933          	add	s2,t3,a1
    7f74:	010707b3          	add	a5,a4,a6
    7f78:	01c93633          	sltu	a2,s2,t3
    7f7c:	00c78733          	add	a4,a5,a2
    7f80:	00871793          	slli	a5,a4,0x8
    7f84:	4405                	li	s0,1
    7f86:	ce07d7e3          	bgez	a5,7c74 <__subdf3+0x37c>
    7f8a:	ff8007b7          	lui	a5,0xff800
    7f8e:	17fd                	addi	a5,a5,-1
    7f90:	8ff9                	and	a5,a5,a4
    7f92:	00195613          	srli	a2,s2,0x1
    7f96:	01f79913          	slli	s2,a5,0x1f
    7f9a:	00c96933          	or	s2,s2,a2
    7f9e:	0017d713          	srli	a4,a5,0x1
    7fa2:	4409                	li	s0,2
    7fa4:	00797793          	andi	a5,s2,7
    7fa8:	b9c1                	j	7c78 <__subdf3+0x380>
    7faa:	00536313          	ori	t1,t1,5
    7fae:	ce0487e3          	beqz	s1,7c9c <__subdf3+0x3a4>
    7fb2:	bb65                	j	7d6a <__subdf3+0x472>
    7fb4:	7ff00793          	li	a5,2047
    7fb8:	2ef40063          	beq	s0,a5,8298 <__subdf3+0x9a0>
    7fbc:	1ef88863          	beq	a7,a5,81ac <__subdf3+0x8b4>
    7fc0:	1e068c63          	beqz	a3,81b8 <__subdf3+0x8c0>
    7fc4:	00b86833          	or	a6,a6,a1
    7fc8:	f60819e3          	bnez	a6,7f3a <__subdf3+0x642>
    7fcc:	00351613          	slli	a2,a0,0x3
    7fd0:	01d71793          	slli	a5,a4,0x1d
    7fd4:	820d                	srli	a2,a2,0x3
    7fd6:	8e5d                	or	a2,a2,a5
    7fd8:	00375793          	srli	a5,a4,0x3
    7fdc:	bfa1                	j	7f34 <__subdf3+0x63c>
    7fde:	16078b63          	beqz	a5,8154 <__subdf3+0x85c>
    7fe2:	4781                	li	a5,0
    7fe4:	8742                	mv	a4,a6
    7fe6:	8e2e                	mv	t3,a1
    7fe8:	84b6                	mv	s1,a3
    7fea:	8972                	mv	s2,t3
    7fec:	bc1d                	j	7a22 <__subdf3+0x12a>
    7fee:	01c76633          	or	a2,a4,t3
    7ff2:	c20d                	beqz	a2,8014 <__subdf3+0x71c>
    7ff4:	00400337          	lui	t1,0x400
    7ff8:	050e                	slli	a0,a0,0x3
    7ffa:	00677333          	and	t1,a4,t1
    7ffe:	01d71613          	slli	a2,a4,0x1d
    8002:	810d                	srli	a0,a0,0x3
    8004:	00133313          	seqz	t1,t1
    8008:	8e49                	or	a2,a2,a0
    800a:	00375793          	srli	a5,a4,0x3
    800e:	0312                	slli	t1,t1,0x4
    8010:	b715                	j	7f34 <__subdf3+0x63c>
    8012:	84b6                	mv	s1,a3
    8014:	4301                	li	t1,0
    8016:	bb91                	j	7d6a <__subdf3+0x472>
    8018:	40be0933          	sub	s2,t3,a1
    801c:	410707b3          	sub	a5,a4,a6
    8020:	012e3633          	sltu	a2,t3,s2
    8024:	40c78733          	sub	a4,a5,a2
    8028:	00871793          	slli	a5,a4,0x8
    802c:	4405                	li	s0,1
    802e:	9807c7e3          	bltz	a5,79bc <__subdf3+0xc4>
    8032:	b189                	j	7c74 <__subdf3+0x37c>
    8034:	01c76633          	or	a2,a4,t3
    8038:	de71                	beqz	a2,8014 <__subdf3+0x71c>
    803a:	00400337          	lui	t1,0x400
    803e:	00351613          	slli	a2,a0,0x3
    8042:	00677333          	and	t1,a4,t1
    8046:	01d71793          	slli	a5,a4,0x1d
    804a:	820d                	srli	a2,a2,0x3
    804c:	00133313          	seqz	t1,t1
    8050:	8e5d                	or	a2,a2,a5
    8052:	0312                	slli	t1,t1,0x4
    8054:	00375793          	srli	a5,a4,0x3
    8058:	bdf1                	j	7f34 <__subdf3+0x63c>
    805a:	01c767b3          	or	a5,a4,t3
    805e:	ebcd                	bnez	a5,8110 <__subdf3+0x818>
    8060:	4701                	li	a4,0
    8062:	4e01                	li	t3,0
    8064:	4301                	li	t1,0
    8066:	01d71793          	slli	a5,a4,0x1d
    806a:	003e5613          	srli	a2,t3,0x3
    806e:	8e5d                	or	a2,a2,a5
    8070:	00375793          	srli	a5,a4,0x3
    8074:	b5c1                	j	7f34 <__subdf3+0x63c>
    8076:	00f5f613          	andi	a2,a1,15
    807a:	4511                	li	a0,4
    807c:	9ca607e3          	beq	a2,a0,7a4a <__subdf3+0x152>
    8080:	ffc5b593          	sltiu	a1,a1,-4
    8084:	0015c593          	xori	a1,a1,1
    8088:	96ae                	add	a3,a3,a1
    808a:	b2c1                	j	7a4a <__subdf3+0x152>
    808c:	9a049fe3          	bnez	s1,7a4a <__subdf3+0x152>
    8090:	ff85b613          	sltiu	a2,a1,-8
    8094:	00164613          	xori	a2,a2,1
    8098:	96b2                	add	a3,a3,a2
    809a:	ba45                	j	7a4a <__subdf3+0x152>
    809c:	4305                	li	t1,1
    809e:	9a0486e3          	beqz	s1,7a4a <__subdf3+0x152>
    80a2:	b7fd                	j	8090 <__subdf3+0x798>
    80a4:	7ff00793          	li	a5,2047
    80a8:	0ef68163          	beq	a3,a5,818a <__subdf3+0x892>
    80ac:	95f2                	add	a1,a1,t3
    80ae:	010707b3          	add	a5,a4,a6
    80b2:	01c5b733          	sltu	a4,a1,t3
    80b6:	97ba                	add	a5,a5,a4
    80b8:	01f79613          	slli	a2,a5,0x1f
    80bc:	8185                	srli	a1,a1,0x1
    80be:	00b66933          	or	s2,a2,a1
    80c2:	0017d713          	srli	a4,a5,0x1
    80c6:	8436                	mv	s0,a3
    80c8:	00797793          	andi	a5,s2,7
    80cc:	b675                	j	7c78 <__subdf3+0x380>
    80ce:	41c58933          	sub	s2,a1,t3
    80d2:	40e80833          	sub	a6,a6,a4
    80d6:	0125b5b3          	sltu	a1,a1,s2
    80da:	40b80a33          	sub	s4,a6,a1
    80de:	84b6                	mv	s1,a3
    80e0:	b0d5                	j	79c4 <__subdf3+0xcc>
    80e2:	7ff00593          	li	a1,2047
    80e6:	0eb40163          	beq	s0,a1,81c8 <__subdf3+0x8d0>
    80ea:	0eb88a63          	beq	a7,a1,81de <__subdf3+0x8e6>
    80ee:	c60e82e3          	beqz	t4,7d52 <__subdf3+0x45a>
    80f2:	e40794e3          	bnez	a5,7f3a <__subdf3+0x642>
    80f6:	050e                	slli	a0,a0,0x3
    80f8:	01d71613          	slli	a2,a4,0x1d
    80fc:	810d                	srli	a0,a0,0x3
    80fe:	8e49                	or	a2,a2,a0
    8100:	00375793          	srli	a5,a4,0x3
    8104:	bd05                	j	7f34 <__subdf3+0x63c>
    8106:	4315                	li	t1,5
    8108:	b18d                	j	7d6a <__subdf3+0x472>
    810a:	01c767b3          	or	a5,a4,t3
    810e:	d399                	beqz	a5,8014 <__subdf3+0x71c>
    8110:	00400337          	lui	t1,0x400
    8114:	00677333          	and	t1,a4,t1
    8118:	00133313          	seqz	t1,t1
    811c:	0312                	slli	t1,t1,0x4
    811e:	b7a1                	j	8066 <__subdf3+0x76e>
    8120:	01c76633          	or	a2,a4,t3
    8124:	00c03633          	snez	a2,a2
    8128:	b1c9                	j	7dea <__subdf3+0x4f2>
    812a:	fe078613          	addi	a2,a5,-32 # ff7fffe0 <_eusrstack+0xdf7f7fe0>
    812e:	02000513          	li	a0,32
    8132:	00c75933          	srl	s2,a4,a2
    8136:	00a78a63          	beq	a5,a0,814a <__subdf3+0x852>
    813a:	04000613          	li	a2,64
    813e:	40f607b3          	sub	a5,a2,a5
    8142:	00f717b3          	sll	a5,a4,a5
    8146:	00fe6e33          	or	t3,t3,a5
    814a:	01c03633          	snez	a2,t3
    814e:	01266633          	or	a2,a2,s2
    8152:	b341                	j	7ed2 <__subdf3+0x5da>
    8154:	ffe98493          	addi	s1,s3,-2
    8158:	0014b493          	seqz	s1,s1
    815c:	4601                	li	a2,0
    815e:	b40d                	j	7b80 <__subdf3+0x288>
    8160:	41c58933          	sub	s2,a1,t3
    8164:	40e807b3          	sub	a5,a6,a4
    8168:	0125b5b3          	sltu	a1,a1,s2
    816c:	40b78733          	sub	a4,a5,a1
    8170:	84b6                	mv	s1,a3
    8172:	bd5d                	j	8028 <__subdf3+0x730>
    8174:	8742                	mv	a4,a6
    8176:	892e                	mv	s2,a1
    8178:	b04d                	j	7a1a <__subdf3+0x122>
    817a:	7ff00713          	li	a4,2047
    817e:	0ee78863          	beq	a5,a4,826e <__subdf3+0x976>
    8182:	8742                	mv	a4,a6
    8184:	892e                	mv	s2,a1
    8186:	843e                	mv	s0,a5
    8188:	b4d5                	j	7c6c <__subdf3+0x374>
    818a:	f6098ee3          	beqz	s3,8106 <__subdf3+0x80e>
    818e:	478d                	li	a5,3
    8190:	1cf98563          	beq	s3,a5,835a <__subdf3+0xa62>
    8194:	4789                	li	a5,2
    8196:	14f98a63          	beq	s3,a5,82ea <__subdf3+0x9f2>
    819a:	1a099b63          	bnez	s3,8350 <__subdf3+0xa58>
    819e:	4501                	li	a0,0
    81a0:	4315                	li	t1,5
    81a2:	7fe00413          	li	s0,2046
    81a6:	577d                	li	a4,-1
    81a8:	597d                	li	s2,-1
    81aa:	be09                	j	7cbc <__subdf3+0x3c4>
    81ac:	00b865b3          	or	a1,a6,a1
    81b0:	10059263          	bnez	a1,82b4 <__subdf3+0x9bc>
    81b4:	e0069ce3          	bnez	a3,7fcc <__subdf3+0x6d4>
    81b8:	060e                	slli	a2,a2,0x3
    81ba:	01d81793          	slli	a5,a6,0x1d
    81be:	820d                	srli	a2,a2,0x3
    81c0:	8e5d                	or	a2,a2,a5
    81c2:	00385793          	srli	a5,a6,0x3
    81c6:	b3bd                	j	7f34 <__subdf3+0x63c>
    81c8:	b80e83e3          	beqz	t4,7d4e <__subdf3+0x456>
    81cc:	00971593          	slli	a1,a4,0x9
    81d0:	0005c363          	bltz	a1,81d6 <__subdf3+0x8de>
    81d4:	4341                	li	t1,16
    81d6:	7ff00593          	li	a1,2047
    81da:	f0b89ce3          	bne	a7,a1,80f2 <__subdf3+0x7fa>
    81de:	12078863          	beqz	a5,830e <__subdf3+0xa16>
    81e2:	00981793          	slli	a5,a6,0x9
    81e6:	0007c363          	bltz	a5,81ec <__subdf3+0x8f4>
    81ea:	4341                	li	t1,16
    81ec:	d40e97e3          	bnez	t4,7f3a <__subdf3+0x642>
    81f0:	00361793          	slli	a5,a2,0x3
    81f4:	838d                	srli	a5,a5,0x3
    81f6:	01d81613          	slli	a2,a6,0x1d
    81fa:	8e5d                	or	a2,a2,a5
    81fc:	84b6                	mv	s1,a3
    81fe:	00385793          	srli	a5,a6,0x3
    8202:	bb0d                	j	7f34 <__subdf3+0x63c>
    8204:	00c567b3          	or	a5,a0,a2
    8208:	d7b1                	beqz	a5,8154 <__subdf3+0x85c>
    820a:	8e2a                	mv	t3,a0
    820c:	00757793          	andi	a5,a0,7
    8210:	8732                	mv	a4,a2
    8212:	8972                	mv	s2,t3
    8214:	b039                	j	7a22 <__subdf3+0x12a>
    8216:	00b865b3          	or	a1,a6,a1
    821a:	de058ce3          	beqz	a1,8012 <__subdf3+0x71a>
    821e:	00361793          	slli	a5,a2,0x3
    8222:	838d                	srli	a5,a5,0x3
    8224:	01d81613          	slli	a2,a6,0x1d
    8228:	becd                	j	7e1a <__subdf3+0x522>
    822a:	fe078613          	addi	a2,a5,-32
    822e:	02000693          	li	a3,32
    8232:	00c75933          	srl	s2,a4,a2
    8236:	00d78a63          	beq	a5,a3,824a <__subdf3+0x952>
    823a:	04000693          	li	a3,64
    823e:	40f687b3          	sub	a5,a3,a5
    8242:	00f717b3          	sll	a5,a4,a5
    8246:	00fe6e33          	or	t3,t3,a5
    824a:	01c03633          	snez	a2,t3
    824e:	01266633          	or	a2,a2,s2
    8252:	be61                	j	7dea <__subdf3+0x4f2>
    8254:	00b86e33          	or	t3,a6,a1
    8258:	0e0e0263          	beqz	t3,833c <__subdf3+0xa44>
    825c:	00981793          	slli	a5,a6,0x9
    8260:	8742                	mv	a4,a6
    8262:	8e2e                	mv	t3,a1
    8264:	84b6                	mv	s1,a3
    8266:	0007ce63          	bltz	a5,8282 <__subdf3+0x98a>
    826a:	4341                	li	t1,16
    826c:	bbed                	j	8066 <__subdf3+0x76e>
    826e:	00b86e33          	or	t3,a6,a1
    8272:	0e0e0163          	beqz	t3,8354 <__subdf3+0xa5c>
    8276:	00981793          	slli	a5,a6,0x9
    827a:	8742                	mv	a4,a6
    827c:	8e2e                	mv	t3,a1
    827e:	fe07d6e3          	bgez	a5,826a <__subdf3+0x972>
    8282:	4301                	li	t1,0
    8284:	b3cd                	j	8066 <__subdf3+0x76e>
    8286:	00be0933          	add	s2,t3,a1
    828a:	010707b3          	add	a5,a4,a6
    828e:	00b935b3          	sltu	a1,s2,a1
    8292:	00b78733          	add	a4,a5,a1
    8296:	b1ed                	j	7f80 <__subdf3+0x688>
    8298:	c6d5                	beqz	a3,8344 <__subdf3+0xa4c>
    829a:	00971793          	slli	a5,a4,0x9
    829e:	0007c363          	bltz	a5,82a4 <__subdf3+0x9ac>
    82a2:	4341                	li	t1,16
    82a4:	7ff00793          	li	a5,2047
    82a8:	d0f89ee3          	bne	a7,a5,7fc4 <__subdf3+0x6cc>
    82ac:	00b865b3          	or	a1,a6,a1
    82b0:	d0058ee3          	beqz	a1,7fcc <__subdf3+0x6d4>
    82b4:	00981793          	slli	a5,a6,0x9
    82b8:	0007c363          	bltz	a5,82be <__subdf3+0x9c6>
    82bc:	4341                	li	t1,16
    82be:	ee068de3          	beqz	a3,81b8 <__subdf3+0x8c0>
    82c2:	b9a5                	j	7f3a <__subdf3+0x642>
    82c4:	00b865b3          	or	a1,a6,a1
    82c8:	d40586e3          	beqz	a1,8014 <__subdf3+0x71c>
    82cc:	00400337          	lui	t1,0x400
    82d0:	060e                	slli	a2,a2,0x3
    82d2:	00687333          	and	t1,a6,t1
    82d6:	01d81793          	slli	a5,a6,0x1d
    82da:	820d                	srli	a2,a2,0x3
    82dc:	00133313          	seqz	t1,t1
    82e0:	8e5d                	or	a2,a2,a5
    82e2:	0312                	slli	t1,t1,0x4
    82e4:	00385793          	srli	a5,a6,0x3
    82e8:	b1b1                	j	7f34 <__subdf3+0x63c>
    82ea:	e0049ee3          	bnez	s1,8106 <__subdf3+0x80e>
    82ee:	7fe00413          	li	s0,2046
    82f2:	577d                	li	a4,-1
    82f4:	597d                	li	s2,-1
    82f6:	4315                	li	t1,5
    82f8:	f84ff06f          	j	7a7c <__subdf3+0x184>
    82fc:	e00485e3          	beqz	s1,8106 <__subdf3+0x80e>
    8300:	7fe00413          	li	s0,2046
    8304:	4501                	li	a0,0
    8306:	597d                	li	s2,-1
    8308:	577d                	li	a4,-1
    830a:	4315                	li	t1,5
    830c:	b2ed                	j	7cf6 <__subdf3+0x3fe>
    830e:	a40e84e3          	beqz	t4,7d56 <__subdf3+0x45e>
    8312:	b3d5                	j	80f6 <__subdf3+0x7fe>
    8314:	00b865b3          	or	a1,a6,a1
    8318:	ce058ee3          	beqz	a1,8014 <__subdf3+0x71c>
    831c:	00400337          	lui	t1,0x400
    8320:	00361793          	slli	a5,a2,0x3
    8324:	00687333          	and	t1,a6,t1
    8328:	838d                	srli	a5,a5,0x3
    832a:	01d81613          	slli	a2,a6,0x1d
    832e:	00133313          	seqz	t1,t1
    8332:	8e5d                	or	a2,a2,a5
    8334:	0312                	slli	t1,t1,0x4
    8336:	00385793          	srli	a5,a6,0x3
    833a:	beed                	j	7f34 <__subdf3+0x63c>
    833c:	4701                	li	a4,0
    833e:	84b6                	mv	s1,a3
    8340:	4301                	li	t1,0
    8342:	b315                	j	8066 <__subdf3+0x76e>
    8344:	e6889ae3          	bne	a7,s0,81b8 <__subdf3+0x8c0>
    8348:	00b865b3          	or	a1,a6,a1
    834c:	f5a5                	bnez	a1,82b4 <__subdf3+0x9bc>
    834e:	b5ad                	j	81b8 <__subdf3+0x8c0>
    8350:	4315                	li	t1,5
    8352:	ba2d                	j	7c8c <__subdf3+0x394>
    8354:	4701                	li	a4,0
    8356:	4301                	li	t1,0
    8358:	b339                	j	8066 <__subdf3+0x76e>
    835a:	da0486e3          	beqz	s1,8106 <__subdf3+0x80e>
    835e:	4501                	li	a0,0
    8360:	7fe00413          	li	s0,2046
    8364:	597d                	li	s2,-1
    8366:	577d                	li	a4,-1
    8368:	4315                	li	t1,5
    836a:	b271                	j	7cf6 <__subdf3+0x3fe>
    836c:	008005b7          	lui	a1,0x800
    8370:	8df9                	and	a1,a1,a4
    8372:	4401                	li	s0,0
    8374:	f0069263          	bnez	a3,7a78 <__subdf3+0x180>
    8378:	f0030063          	beqz	t1,7a78 <__subdf3+0x180>
    837c:	00236313          	ori	t1,t1,2
    8380:	ef8ff06f          	j	7a78 <__subdf3+0x180>

00008384 <__fixdfdi>:
    8384:	882a                	mv	a6,a0
    8386:	002027f3          	frrm	a5
    838a:	00100537          	lui	a0,0x100
    838e:	0145d793          	srli	a5,a1,0x14
    8392:	fff50713          	addi	a4,a0,-1 # fffff <_data_lma+0xf6203>
    8396:	7ff7f793          	andi	a5,a5,2047
    839a:	3fe00893          	li	a7,1022
    839e:	86c2                	mv	a3,a6
    83a0:	8f6d                	and	a4,a4,a1
    83a2:	01f5d613          	srli	a2,a1,0x1f
    83a6:	02f8c263          	blt	a7,a5,83ca <__fixdfdi+0x46>
    83aa:	eb91                	bnez	a5,83be <__fixdfdi+0x3a>
    83ac:	01076733          	or	a4,a4,a6
    83b0:	4501                	li	a0,0
    83b2:	4581                	li	a1,0
    83b4:	cf3d                	beqz	a4,8432 <__fixdfdi+0xae>
    83b6:	4685                	li	a3,1
    83b8:	0016a073          	csrs	fflags,a3
    83bc:	8082                	ret
    83be:	4501                	li	a0,0
    83c0:	4581                	li	a1,0
    83c2:	4685                	li	a3,1
    83c4:	0016a073          	csrs	fflags,a3
    83c8:	bfd5                	j	83bc <__fixdfdi+0x38>
    83ca:	43d00593          	li	a1,1085
    83ce:	02f5da63          	bge	a1,a5,8402 <__fixdfdi+0x7e>
    83d2:	4585                	li	a1,1
    83d4:	8d91                	sub	a1,a1,a2
    83d6:	40b006b3          	neg	a3,a1
    83da:	41f5d513          	srai	a0,a1,0x1f
    83de:	800005b7          	lui	a1,0x80000
    83e2:	8d89                	sub	a1,a1,a0
    83e4:	00d038b3          	snez	a7,a3
    83e8:	8536                	mv	a0,a3
    83ea:	411585b3          	sub	a1,a1,a7
    83ee:	c241                	beqz	a2,846e <__fixdfdi+0xea>
    83f0:	43e00613          	li	a2,1086
    83f4:	46c1                	li	a3,16
    83f6:	fcc791e3          	bne	a5,a2,83b8 <__fixdfdi+0x34>
    83fa:	01076733          	or	a4,a4,a6
    83fe:	ff4d                	bnez	a4,83b8 <__fixdfdi+0x34>
    8400:	8082                	ret
    8402:	43200893          	li	a7,1074
    8406:	00a765b3          	or	a1,a4,a0
    840a:	02f8d563          	bge	a7,a5,8434 <__fixdfdi+0xb0>
    840e:	bad78713          	addi	a4,a5,-1107
    8412:	bcd78793          	addi	a5,a5,-1075
    8416:	08074363          	bltz	a4,849c <__fixdfdi+0x118>
    841a:	00e815b3          	sll	a1,a6,a4
    841e:	4501                	li	a0,0
    8420:	de51                	beqz	a2,83bc <__fixdfdi+0x38>
    8422:	40a00533          	neg	a0,a0
    8426:	00a037b3          	snez	a5,a0
    842a:	40b005b3          	neg	a1,a1
    842e:	8d9d                	sub	a1,a1,a5
    8430:	8082                	ret
    8432:	8082                	ret
    8434:	43300713          	li	a4,1075
    8438:	8f1d                	sub	a4,a4,a5
    843a:	457d                	li	a0,31
    843c:	02e54d63          	blt	a0,a4,8476 <__fixdfdi+0xf2>
    8440:	bed78793          	addi	a5,a5,-1043
    8444:	00f816b3          	sll	a3,a6,a5
    8448:	00e85533          	srl	a0,a6,a4
    844c:	00f597b3          	sll	a5,a1,a5
    8450:	00d036b3          	snez	a3,a3
    8454:	8d5d                	or	a0,a0,a5
    8456:	00e5d5b3          	srl	a1,a1,a4
    845a:	ca01                	beqz	a2,846a <__fixdfdi+0xe6>
    845c:	40a00533          	neg	a0,a0
    8460:	00a037b3          	snez	a5,a0
    8464:	40b005b3          	neg	a1,a1
    8468:	8d9d                	sub	a1,a1,a5
    846a:	f6b9                	bnez	a3,83b8 <__fixdfdi+0x34>
    846c:	8082                	ret
    846e:	46c1                	li	a3,16
    8470:	0016a073          	csrs	fflags,a3
    8474:	b7a1                	j	83bc <__fixdfdi+0x38>
    8476:	02000513          	li	a0,32
    847a:	00a70863          	beq	a4,a0,848a <__fixdfdi+0x106>
    847e:	c0d78693          	addi	a3,a5,-1011
    8482:	00d596b3          	sll	a3,a1,a3
    8486:	0106e6b3          	or	a3,a3,a6
    848a:	41300513          	li	a0,1043
    848e:	8d1d                	sub	a0,a0,a5
    8490:	00a5d533          	srl	a0,a1,a0
    8494:	00d036b3          	snez	a3,a3
    8498:	4581                	li	a1,0
    849a:	b7c1                	j	845a <__fixdfdi+0xd6>
    849c:	46fd                	li	a3,31
    849e:	00185713          	srli	a4,a6,0x1
    84a2:	8e9d                	sub	a3,a3,a5
    84a4:	00d75733          	srl	a4,a4,a3
    84a8:	00f595b3          	sll	a1,a1,a5
    84ac:	8dd9                	or	a1,a1,a4
    84ae:	00f81533          	sll	a0,a6,a5
    84b2:	b7bd                	j	8420 <__fixdfdi+0x9c>

000084b4 <__floatdidf>:
    84b4:	1101                	addi	sp,sp,-32
    84b6:	ce06                	sw	ra,28(sp)
    84b8:	cc22                	sw	s0,24(sp)
    84ba:	ca26                	sw	s1,20(sp)
    84bc:	c84a                	sw	s2,16(sp)
    84be:	c64e                	sw	s3,12(sp)
    84c0:	c452                	sw	s4,8(sp)
    84c2:	c256                	sw	s5,4(sp)
    84c4:	00202af3          	frrm	s5
    84c8:	00b567b3          	or	a5,a0,a1
    84cc:	c3a1                	beqz	a5,850c <__floatdidf+0x58>
    84ce:	89aa                	mv	s3,a0
    84d0:	8a2e                	mv	s4,a1
    84d2:	01f5d913          	srli	s2,a1,0x1f
    84d6:	0605c163          	bltz	a1,8538 <__floatdidf+0x84>
    84da:	842e                	mv	s0,a1
    84dc:	84d2                	mv	s1,s4
    84de:	060a0a63          	beqz	s4,8552 <__floatdidf+0x9e>
    84e2:	8552                	mv	a0,s4
    84e4:	2bcd                	jal	8ad6 <__clzsi2>
    84e6:	43e00693          	li	a3,1086
    84ea:	8e89                	sub	a3,a3,a0
    84ec:	43300793          	li	a5,1075
    84f0:	08d7ce63          	blt	a5,a3,858c <__floatdidf+0xd8>
    84f4:	00ca1793          	slli	a5,s4,0xc
    84f8:	462d                	li	a2,11
    84fa:	874e                	mv	a4,s3
    84fc:	7ff6f693          	andi	a3,a3,2047
    8500:	83b1                	srli	a5,a5,0xc
    8502:	00a65963          	bge	a2,a0,8514 <__floatdidf+0x60>
    8506:	ff550613          	addi	a2,a0,-11
    850a:	a09d                	j	8570 <__floatdidf+0xbc>
    850c:	4901                	li	s2,0
    850e:	4681                	li	a3,0
    8510:	4781                	li	a5,0
    8512:	4701                	li	a4,0
    8514:	07b2                	slli	a5,a5,0xc
    8516:	06d2                	slli	a3,a3,0x14
    8518:	83b1                	srli	a5,a5,0xc
    851a:	01f91613          	slli	a2,s2,0x1f
    851e:	8fd5                	or	a5,a5,a3
    8520:	8fd1                	or	a5,a5,a2
    8522:	853a                	mv	a0,a4
    8524:	85be                	mv	a1,a5
    8526:	40f2                	lw	ra,28(sp)
    8528:	4462                	lw	s0,24(sp)
    852a:	44d2                	lw	s1,20(sp)
    852c:	4942                	lw	s2,16(sp)
    852e:	49b2                	lw	s3,12(sp)
    8530:	4a22                	lw	s4,8(sp)
    8532:	4a92                	lw	s5,4(sp)
    8534:	6105                	addi	sp,sp,32
    8536:	8082                	ret
    8538:	40a00533          	neg	a0,a0
    853c:	00a03733          	snez	a4,a0
    8540:	40b00a33          	neg	s4,a1
    8544:	40ea0a33          	sub	s4,s4,a4
    8548:	89aa                	mv	s3,a0
    854a:	842e                	mv	s0,a1
    854c:	84d2                	mv	s1,s4
    854e:	f80a1ae3          	bnez	s4,84e2 <__floatdidf+0x2e>
    8552:	854e                	mv	a0,s3
    8554:	2349                	jal	8ad6 <__clzsi2>
    8556:	862a                	mv	a2,a0
    8558:	43e00693          	li	a3,1086
    855c:	02050513          	addi	a0,a0,32
    8560:	8e89                	sub	a3,a3,a0
    8562:	02a00793          	li	a5,42
    8566:	7ff6f693          	andi	a3,a3,2047
    856a:	0ca7c263          	blt	a5,a0,862e <__floatdidf+0x17a>
    856e:	0655                	addi	a2,a2,21
    8570:	02b00713          	li	a4,43
    8574:	8f09                	sub	a4,a4,a0
    8576:	00ca17b3          	sll	a5,s4,a2
    857a:	00e9d733          	srl	a4,s3,a4
    857e:	8f5d                	or	a4,a4,a5
    8580:	00c71793          	slli	a5,a4,0xc
    8584:	83b1                	srli	a5,a5,0xc
    8586:	00c99733          	sll	a4,s3,a2
    858a:	b769                	j	8514 <__floatdidf+0x60>
    858c:	43600793          	li	a5,1078
    8590:	02d7da63          	bge	a5,a3,85c4 <__floatdidf+0x110>
    8594:	44a1                	li	s1,8
    8596:	8c89                	sub	s1,s1,a0
    8598:	fe048613          	addi	a2,s1,-32
    859c:	0c064f63          	bltz	a2,867a <__floatdidf+0x1c6>
    85a0:	00ca5633          	srl	a2,s4,a2
    85a4:	4481                	li	s1,0
    85a6:	01850713          	addi	a4,a0,24
    85aa:	03850793          	addi	a5,a0,56
    85ae:	0a074963          	bltz	a4,8660 <__floatdidf+0x1ac>
    85b2:	00e99a33          	sll	s4,s3,a4
    85b6:	4981                	li	s3,0
    85b8:	0149e9b3          	or	s3,s3,s4
    85bc:	013039b3          	snez	s3,s3
    85c0:	013669b3          	or	s3,a2,s3
    85c4:	47a1                	li	a5,8
    85c6:	04a7c763          	blt	a5,a0,8614 <__floatdidf+0x160>
    85ca:	ff800737          	lui	a4,0xff800
    85ce:	177d                	addi	a4,a4,-1
    85d0:	0079f793          	andi	a5,s3,7
    85d4:	8cf9                	and	s1,s1,a4
    85d6:	c7a5                	beqz	a5,863e <__floatdidf+0x18a>
    85d8:	4789                	li	a5,2
    85da:	0afa8c63          	beq	s5,a5,8692 <__floatdidf+0x1de>
    85de:	478d                	li	a5,3
    85e0:	0efa8563          	beq	s5,a5,86ca <__floatdidf+0x216>
    85e4:	0c0a8b63          	beqz	s5,86ba <__floatdidf+0x206>
    85e8:	00949713          	slli	a4,s1,0x9
    85ec:	7ff6f693          	andi	a3,a3,2047
    85f0:	01469593          	slli	a1,a3,0x14
    85f4:	00c75693          	srli	a3,a4,0xc
    85f8:	8ecd                	or	a3,a3,a1
    85fa:	0039d993          	srli	s3,s3,0x3
    85fe:	01f91613          	slli	a2,s2,0x1f
    8602:	04f6                	slli	s1,s1,0x1d
    8604:	0134e4b3          	or	s1,s1,s3
    8608:	8e55                	or	a2,a2,a3
    860a:	8526                	mv	a0,s1
    860c:	85b2                	mv	a1,a2
    860e:	0010e073          	csrsi	fflags,1
    8612:	bf11                	j	8526 <__floatdidf+0x72>
    8614:	02800793          	li	a5,40
    8618:	ff850713          	addi	a4,a0,-8
    861c:	8f89                	sub	a5,a5,a0
    861e:	00f9d7b3          	srl	a5,s3,a5
    8622:	00e494b3          	sll	s1,s1,a4
    8626:	8cdd                	or	s1,s1,a5
    8628:	00e999b3          	sll	s3,s3,a4
    862c:	bf79                	j	85ca <__floatdidf+0x116>
    862e:	ff560713          	addi	a4,a2,-11 # fffff5 <_data_lma+0xff61f9>
    8632:	00e997b3          	sll	a5,s3,a4
    8636:	07b2                	slli	a5,a5,0xc
    8638:	83b1                	srli	a5,a5,0xc
    863a:	4701                	li	a4,0
    863c:	bde1                	j	8514 <__floatdidf+0x60>
    863e:	00949713          	slli	a4,s1,0x9
    8642:	7ff6f693          	andi	a3,a3,2047
    8646:	06d2                	slli	a3,a3,0x14
    8648:	8331                	srli	a4,a4,0xc
    864a:	0039d513          	srli	a0,s3,0x3
    864e:	04f6                	slli	s1,s1,0x1d
    8650:	01f91793          	slli	a5,s2,0x1f
    8654:	8ed9                	or	a3,a3,a4
    8656:	8cc9                	or	s1,s1,a0
    8658:	8fd5                	or	a5,a5,a3
    865a:	8526                	mv	a0,s1
    865c:	85be                	mv	a1,a5
    865e:	b5e1                	j	8526 <__floatdidf+0x72>
    8660:	45fd                	li	a1,31
    8662:	0019d713          	srli	a4,s3,0x1
    8666:	8d9d                	sub	a1,a1,a5
    8668:	00b75733          	srl	a4,a4,a1
    866c:	00fa1a33          	sll	s4,s4,a5
    8670:	01476a33          	or	s4,a4,s4
    8674:	00f999b3          	sll	s3,s3,a5
    8678:	b781                	j	85b8 <__floatdidf+0x104>
    867a:	477d                	li	a4,31
    867c:	8f05                	sub	a4,a4,s1
    867e:	001a1793          	slli	a5,s4,0x1
    8682:	0099d633          	srl	a2,s3,s1
    8686:	00e797b3          	sll	a5,a5,a4
    868a:	8e5d                	or	a2,a2,a5
    868c:	009a54b3          	srl	s1,s4,s1
    8690:	bf19                	j	85a6 <__floatdidf+0xf2>
    8692:	f4045be3          	bgez	s0,85e8 <__floatdidf+0x134>
    8696:	00898713          	addi	a4,s3,8
    869a:	013739b3          	sltu	s3,a4,s3
    869e:	94ce                	add	s1,s1,s3
    86a0:	008007b7          	lui	a5,0x800
    86a4:	8fe5                	and	a5,a5,s1
    86a6:	89ba                	mv	s3,a4
    86a8:	d3a1                	beqz	a5,85e8 <__floatdidf+0x134>
    86aa:	ff8007b7          	lui	a5,0xff800
    86ae:	17fd                	addi	a5,a5,-1
    86b0:	43f00693          	li	a3,1087
    86b4:	8cfd                	and	s1,s1,a5
    86b6:	8e89                	sub	a3,a3,a0
    86b8:	bf05                	j	85e8 <__floatdidf+0x134>
    86ba:	00f9f793          	andi	a5,s3,15
    86be:	4711                	li	a4,4
    86c0:	f2e784e3          	beq	a5,a4,85e8 <__floatdidf+0x134>
    86c4:	00498713          	addi	a4,s3,4
    86c8:	bfc9                	j	869a <__floatdidf+0x1e6>
    86ca:	fc0456e3          	bgez	s0,8696 <__floatdidf+0x1e2>
    86ce:	bf29                	j	85e8 <__floatdidf+0x134>

000086d0 <__extendsfdf2>:
    86d0:	1141                	addi	sp,sp,-16
    86d2:	c606                	sw	ra,12(sp)
    86d4:	c422                	sw	s0,8(sp)
    86d6:	c226                	sw	s1,4(sp)
    86d8:	e00507d3          	fmv.x.w	a5,fa0
    86dc:	00202773          	frrm	a4
    86e0:	0177d513          	srli	a0,a5,0x17
    86e4:	0ff57513          	andi	a0,a0,255
    86e8:	00150713          	addi	a4,a0,1
    86ec:	00979413          	slli	s0,a5,0x9
    86f0:	0fe77713          	andi	a4,a4,254
    86f4:	8025                	srli	s0,s0,0x9
    86f6:	01f7d493          	srli	s1,a5,0x1f
    86fa:	c31d                	beqz	a4,8720 <__extendsfdf2+0x50>
    86fc:	00345793          	srli	a5,s0,0x3
    8700:	38050513          	addi	a0,a0,896
    8704:	0476                	slli	s0,s0,0x1d
    8706:	07b2                	slli	a5,a5,0xc
    8708:	0552                	slli	a0,a0,0x14
    870a:	83b1                	srli	a5,a5,0xc
    870c:	8fc9                	or	a5,a5,a0
    870e:	04fe                	slli	s1,s1,0x1f
    8710:	8fc5                	or	a5,a5,s1
    8712:	8522                	mv	a0,s0
    8714:	85be                	mv	a1,a5
    8716:	40b2                	lw	ra,12(sp)
    8718:	4422                	lw	s0,8(sp)
    871a:	4492                	lw	s1,4(sp)
    871c:	0141                	addi	sp,sp,16
    871e:	8082                	ret
    8720:	e90d                	bnez	a0,8752 <__extendsfdf2+0x82>
    8722:	c435                	beqz	s0,878e <__extendsfdf2+0xbe>
    8724:	8522                	mv	a0,s0
    8726:	2e45                	jal	8ad6 <__clzsi2>
    8728:	47a9                	li	a5,10
    872a:	08a7c163          	blt	a5,a0,87ac <__extendsfdf2+0xdc>
    872e:	472d                	li	a4,11
    8730:	8f09                	sub	a4,a4,a0
    8732:	01550793          	addi	a5,a0,21
    8736:	00e45733          	srl	a4,s0,a4
    873a:	00f41433          	sll	s0,s0,a5
    873e:	00c71793          	slli	a5,a4,0xc
    8742:	38900713          	li	a4,905
    8746:	40a70533          	sub	a0,a4,a0
    874a:	83b1                	srli	a5,a5,0xc
    874c:	7ff57513          	andi	a0,a0,2047
    8750:	bf5d                	j	8706 <__extendsfdf2+0x36>
    8752:	c815                	beqz	s0,8786 <__extendsfdf2+0xb6>
    8754:	00080737          	lui	a4,0x80
    8758:	00345793          	srli	a5,s0,0x3
    875c:	8fd9                	or	a5,a5,a4
    875e:	00100737          	lui	a4,0x100
    8762:	177d                	addi	a4,a4,-1
    8764:	00941613          	slli	a2,s0,0x9
    8768:	01d41693          	slli	a3,s0,0x1d
    876c:	8ff9                	and	a5,a5,a4
    876e:	02065363          	bgez	a2,8794 <__extendsfdf2+0xc4>
    8772:	8f7d                	and	a4,a4,a5
    8774:	01f49793          	slli	a5,s1,0x1f
    8778:	7ff004b7          	lui	s1,0x7ff00
    877c:	8cd9                	or	s1,s1,a4
    877e:	8fc5                	or	a5,a5,s1
    8780:	8536                	mv	a0,a3
    8782:	85be                	mv	a1,a5
    8784:	bf49                	j	8716 <__extendsfdf2+0x46>
    8786:	7ff00513          	li	a0,2047
    878a:	4781                	li	a5,0
    878c:	bfad                	j	8706 <__extendsfdf2+0x36>
    878e:	4501                	li	a0,0
    8790:	4781                	li	a5,0
    8792:	bf95                	j	8706 <__extendsfdf2+0x36>
    8794:	8f7d                	and	a4,a4,a5
    8796:	01f49793          	slli	a5,s1,0x1f
    879a:	7ff004b7          	lui	s1,0x7ff00
    879e:	8f45                	or	a4,a4,s1
    87a0:	8fd9                	or	a5,a5,a4
    87a2:	8536                	mv	a0,a3
    87a4:	85be                	mv	a1,a5
    87a6:	00186073          	csrsi	fflags,16
    87aa:	b7b5                	j	8716 <__extendsfdf2+0x46>
    87ac:	ff550713          	addi	a4,a0,-11
    87b0:	00e41733          	sll	a4,s0,a4
    87b4:	4401                	li	s0,0
    87b6:	b761                	j	873e <__extendsfdf2+0x6e>

000087b8 <__truncdfsf2>:
    87b8:	002028f3          	frrm	a7
    87bc:	0145d693          	srli	a3,a1,0x14
    87c0:	00c59713          	slli	a4,a1,0xc
    87c4:	7ff6f693          	andi	a3,a3,2047
    87c8:	8331                	srli	a4,a4,0xc
    87ca:	00168813          	addi	a6,a3,1
    87ce:	070e                	slli	a4,a4,0x3
    87d0:	01d55613          	srli	a2,a0,0x1d
    87d4:	7fe87813          	andi	a6,a6,2046
    87d8:	81fd                	srli	a1,a1,0x1f
    87da:	8f51                	or	a4,a4,a2
    87dc:	00351793          	slli	a5,a0,0x3
    87e0:	0a080b63          	beqz	a6,8896 <__truncdfsf2+0xde>
    87e4:	c8068613          	addi	a2,a3,-896
    87e8:	0fe00813          	li	a6,254
    87ec:	02c85f63          	bge	a6,a2,882a <__truncdfsf2+0x72>
    87f0:	12088f63          	beqz	a7,892e <__truncdfsf2+0x176>
    87f4:	478d                	li	a5,3
    87f6:	26f88063          	beq	a7,a5,8a56 <__truncdfsf2+0x29e>
    87fa:	4789                	li	a5,2
    87fc:	26f88763          	beq	a7,a5,8a6a <__truncdfsf2+0x2b2>
    8800:	26089663          	bnez	a7,8a6c <__truncdfsf2+0x2b4>
    8804:	0fe00613          	li	a2,254
    8808:	470d                	li	a4,3
    880a:	4515                	li	a0,5
    880c:	071a                	slli	a4,a4,0x6
    880e:	8325                	srli	a4,a4,0x9
    8810:	0ff67613          	andi	a2,a2,255
    8814:	00971793          	slli	a5,a4,0x9
    8818:	065e                	slli	a2,a2,0x17
    881a:	83a5                	srli	a5,a5,0x9
    881c:	05fe                	slli	a1,a1,0x1f
    881e:	8fd1                	or	a5,a5,a2
    8820:	8fcd                	or	a5,a5,a1
    8822:	e53d                	bnez	a0,8890 <__truncdfsf2+0xd8>
    8824:	f0078553          	fmv.w.x	fa0,a5
    8828:	8082                	ret
    882a:	10c05a63          	blez	a2,893e <__truncdfsf2+0x186>
    882e:	051a                	slli	a0,a0,0x6
    8830:	00a03533          	snez	a0,a0
    8834:	070e                	slli	a4,a4,0x3
    8836:	83f5                	srli	a5,a5,0x1d
    8838:	8f49                	or	a4,a4,a0
    883a:	8f5d                	or	a4,a4,a5
    883c:	00777793          	andi	a5,a4,7
    8840:	4501                	li	a0,0
    8842:	d7e9                	beqz	a5,880c <__truncdfsf2+0x54>
    8844:	4789                	li	a5,2
    8846:	1ef88e63          	beq	a7,a5,8a42 <__truncdfsf2+0x28a>
    884a:	478d                	li	a5,3
    884c:	16f88863          	beq	a7,a5,89bc <__truncdfsf2+0x204>
    8850:	4781                	li	a5,0
    8852:	4505                	li	a0,1
    8854:	fa089ce3          	bnez	a7,880c <__truncdfsf2+0x54>
    8858:	00f77693          	andi	a3,a4,15
    885c:	4811                	li	a6,4
    885e:	4505                	li	a0,1
    8860:	01068463          	beq	a3,a6,8868 <__truncdfsf2+0xb0>
    8864:	0711                	addi	a4,a4,4
    8866:	4505                	li	a0,1
    8868:	c399                	beqz	a5,886e <__truncdfsf2+0xb6>
    886a:	00256513          	ori	a0,a0,2
    886e:	00571793          	slli	a5,a4,0x5
    8872:	f807dde3          	bgez	a5,880c <__truncdfsf2+0x54>
    8876:	0605                	addi	a2,a2,1
    8878:	0ff00793          	li	a5,255
    887c:	f8f618e3          	bne	a2,a5,880c <__truncdfsf2+0x54>
    8880:	00556513          	ori	a0,a0,5
    8884:	10089c63          	bnez	a7,899c <__truncdfsf2+0x1e4>
    8888:	05fe                	slli	a1,a1,0x1f
    888a:	7f8007b7          	lui	a5,0x7f800
    888e:	8fcd                	or	a5,a5,a1
    8890:	00152073          	csrs	fflags,a0
    8894:	bf41                	j	8824 <__truncdfsf2+0x6c>
    8896:	00f76633          	or	a2,a4,a5
    889a:	eaa9                	bnez	a3,88ec <__truncdfsf2+0x134>
    889c:	01f59793          	slli	a5,a1,0x1f
    88a0:	d251                	beqz	a2,8824 <__truncdfsf2+0x6c>
    88a2:	4789                	li	a5,2
    88a4:	16f88d63          	beq	a7,a5,8a1e <__truncdfsf2+0x266>
    88a8:	478d                	li	a5,3
    88aa:	14f88563          	beq	a7,a5,89f4 <__truncdfsf2+0x23c>
    88ae:	4705                	li	a4,1
    88b0:	4789                	li	a5,2
    88b2:	4685                	li	a3,1
    88b4:	1e088963          	beqz	a7,8aa6 <__truncdfsf2+0x2ee>
    88b8:	83ed                	srli	a5,a5,0x1b
    88ba:	0017c793          	xori	a5,a5,1
    88be:	8b85                	andi	a5,a5,1
    88c0:	4505                	li	a0,1
    88c2:	20068163          	beqz	a3,8ac4 <__truncdfsf2+0x30c>
    88c6:	4689                	li	a3,2
    88c8:	18d88563          	beq	a7,a3,8a52 <__truncdfsf2+0x29a>
    88cc:	468d                	li	a3,3
    88ce:	16d88863          	beq	a7,a3,8a3e <__truncdfsf2+0x286>
    88d2:	4601                	li	a2,0
    88d4:	f80882e3          	beqz	a7,8858 <__truncdfsf2+0xa0>
    88d8:	4505                	li	a0,1
    88da:	10079a63          	bnez	a5,89ee <__truncdfsf2+0x236>
    88de:	00571793          	slli	a5,a4,0x5
    88e2:	4605                	li	a2,1
    88e4:	f207c4e3          	bltz	a5,880c <__truncdfsf2+0x54>
    88e8:	4601                	li	a2,0
    88ea:	b70d                	j	880c <__truncdfsf2+0x54>
    88ec:	ca15                	beqz	a2,8920 <__truncdfsf2+0x168>
    88ee:	7ff00793          	li	a5,2047
    88f2:	4501                	li	a0,0
    88f4:	00f69863          	bne	a3,a5,8904 <__truncdfsf2+0x14c>
    88f8:	00400637          	lui	a2,0x400
    88fc:	8f71                	and	a4,a4,a2
    88fe:	00173513          	seqz	a0,a4
    8902:	0512                	slli	a0,a0,0x4
    8904:	00400737          	lui	a4,0x400
    8908:	0ff00613          	li	a2,255
    890c:	00971793          	slli	a5,a4,0x9
    8910:	4581                	li	a1,0
    8912:	065e                	slli	a2,a2,0x17
    8914:	83a5                	srli	a5,a5,0x9
    8916:	05fe                	slli	a1,a1,0x1f
    8918:	8fd1                	or	a5,a5,a2
    891a:	8fcd                	or	a5,a5,a1
    891c:	d501                	beqz	a0,8824 <__truncdfsf2+0x6c>
    891e:	bf8d                	j	8890 <__truncdfsf2+0xd8>
    8920:	05fe                	slli	a1,a1,0x1f
    8922:	7f8007b7          	lui	a5,0x7f800
    8926:	8fcd                	or	a5,a5,a1
    8928:	f0078553          	fmv.w.x	fa0,a5
    892c:	8082                	ret
    892e:	05fe                	slli	a1,a1,0x1f
    8930:	7f8007b7          	lui	a5,0x7f800
    8934:	8fcd                	or	a5,a5,a1
    8936:	4515                	li	a0,5
    8938:	00152073          	csrs	fflags,a0
    893c:	b5e5                	j	8824 <__truncdfsf2+0x6c>
    893e:	5525                	li	a0,-23
    8940:	08a64763          	blt	a2,a0,89ce <__truncdfsf2+0x216>
    8944:	4579                	li	a0,30
    8946:	00800337          	lui	t1,0x800
    894a:	8d11                	sub	a0,a0,a2
    894c:	487d                	li	a6,31
    894e:	00676733          	or	a4,a4,t1
    8952:	0aa85863          	bge	a6,a0,8a02 <__truncdfsf2+0x24a>
    8956:	5879                	li	a6,-2
    8958:	40c80633          	sub	a2,a6,a2
    895c:	02000813          	li	a6,32
    8960:	00c75633          	srl	a2,a4,a2
    8964:	01050763          	beq	a0,a6,8972 <__truncdfsf2+0x1ba>
    8968:	ca268693          	addi	a3,a3,-862
    896c:	00d716b3          	sll	a3,a4,a3
    8970:	8fd5                	or	a5,a5,a3
    8972:	00f03733          	snez	a4,a5
    8976:	8f51                	or	a4,a4,a2
    8978:	01f59793          	slli	a5,a1,0x1f
    897c:	ea0704e3          	beqz	a4,8824 <__truncdfsf2+0x6c>
    8980:	00171793          	slli	a5,a4,0x1
    8984:	0077f613          	andi	a2,a5,7
    8988:	00777693          	andi	a3,a4,7
    898c:	10061063          	bnez	a2,8a8c <__truncdfsf2+0x2d4>
    8990:	83ed                	srli	a5,a5,0x1b
    8992:	0017c793          	xori	a5,a5,1
    8996:	8b85                	andi	a5,a5,1
    8998:	4501                	li	a0,0
    899a:	b725                	j	88c2 <__truncdfsf2+0x10a>
    899c:	478d                	li	a5,3
    899e:	0cf88363          	beq	a7,a5,8a64 <__truncdfsf2+0x2ac>
    89a2:	4789                	li	a5,2
    89a4:	08f88463          	beq	a7,a5,8a2c <__truncdfsf2+0x274>
    89a8:	ff000737          	lui	a4,0xff000
    89ac:	1779                	addi	a4,a4,-2
    89ae:	05fe                	slli	a1,a1,0x1f
    89b0:	8305                	srli	a4,a4,0x1
    89b2:	00b767b3          	or	a5,a4,a1
    89b6:	00152073          	csrs	fflags,a0
    89ba:	b5ad                	j	8824 <__truncdfsf2+0x6c>
    89bc:	4781                	li	a5,0
    89be:	852e                	mv	a0,a1
    89c0:	ea0594e3          	bnez	a1,8868 <__truncdfsf2+0xb0>
    89c4:	0721                	addi	a4,a4,8
    89c6:	4505                	li	a0,1
    89c8:	ea0791e3          	bnez	a5,886a <__truncdfsf2+0xb2>
    89cc:	b54d                	j	886e <__truncdfsf2+0xb6>
    89ce:	4709                	li	a4,2
    89d0:	04e88763          	beq	a7,a4,8a1e <__truncdfsf2+0x266>
    89d4:	478d                	li	a5,3
    89d6:	00f88f63          	beq	a7,a5,89f4 <__truncdfsf2+0x23c>
    89da:	04088c63          	beqz	a7,8a32 <__truncdfsf2+0x27a>
    89de:	0ce88f63          	beq	a7,a4,8abc <__truncdfsf2+0x304>
    89e2:	0cf88963          	beq	a7,a5,8ab4 <__truncdfsf2+0x2fc>
    89e6:	4785                	li	a5,1
    89e8:	4705                	li	a4,1
    89ea:	04088863          	beqz	a7,8a3a <__truncdfsf2+0x282>
    89ee:	853e                	mv	a0,a5
    89f0:	4601                	li	a2,0
    89f2:	bda5                	j	886a <__truncdfsf2+0xb2>
    89f4:	4685                	li	a3,1
    89f6:	4705                	li	a4,1
    89f8:	4789                	li	a5,2
    89fa:	ea059fe3          	bnez	a1,88b8 <__truncdfsf2+0x100>
    89fe:	07a1                	addi	a5,a5,8
    8a00:	bd65                	j	88b8 <__truncdfsf2+0x100>
    8a02:	c8268693          	addi	a3,a3,-894
    8a06:	00d79633          	sll	a2,a5,a3
    8a0a:	00c03633          	snez	a2,a2
    8a0e:	00d716b3          	sll	a3,a4,a3
    8a12:	00a7d7b3          	srl	a5,a5,a0
    8a16:	00d66733          	or	a4,a2,a3
    8a1a:	8f5d                	or	a4,a4,a5
    8a1c:	bfb1                	j	8978 <__truncdfsf2+0x1c0>
    8a1e:	4685                	li	a3,1
    8a20:	4705                	li	a4,1
    8a22:	4789                	li	a5,2
    8a24:	e8058ae3          	beqz	a1,88b8 <__truncdfsf2+0x100>
    8a28:	07a1                	addi	a5,a5,8
    8a2a:	b579                	j	88b8 <__truncdfsf2+0x100>
    8a2c:	ddb5                	beqz	a1,89a8 <__truncdfsf2+0x1f0>
    8a2e:	4585                	li	a1,1
    8a30:	bda1                	j	8888 <__truncdfsf2+0xd0>
    8a32:	4705                	li	a4,1
    8a34:	4601                	li	a2,0
    8a36:	4785                	li	a5,1
    8a38:	b505                	j	8858 <__truncdfsf2+0xa0>
    8a3a:	4601                	li	a2,0
    8a3c:	b525                	j	8864 <__truncdfsf2+0xac>
    8a3e:	4601                	li	a2,0
    8a40:	bfbd                	j	89be <__truncdfsf2+0x206>
    8a42:	4781                	li	a5,0
    8a44:	4505                	li	a0,1
    8a46:	e20581e3          	beqz	a1,8868 <__truncdfsf2+0xb0>
    8a4a:	0721                	addi	a4,a4,8
    8a4c:	e0079fe3          	bnez	a5,886a <__truncdfsf2+0xb2>
    8a50:	bd39                	j	886e <__truncdfsf2+0xb6>
    8a52:	4601                	li	a2,0
    8a54:	bfc5                	j	8a44 <__truncdfsf2+0x28c>
    8a56:	e185                	bnez	a1,8a76 <__truncdfsf2+0x2be>
    8a58:	7f8007b7          	lui	a5,0x7f800
    8a5c:	4515                	li	a0,5
    8a5e:	00152073          	csrs	fflags,a0
    8a62:	b3c9                	j	8824 <__truncdfsf2+0x6c>
    8a64:	e20582e3          	beqz	a1,8888 <__truncdfsf2+0xd0>
    8a68:	b781                	j	89a8 <__truncdfsf2+0x1f0>
    8a6a:	e999                	bnez	a1,8a80 <__truncdfsf2+0x2c8>
    8a6c:	577d                	li	a4,-1
    8a6e:	0fe00613          	li	a2,254
    8a72:	4515                	li	a0,5
    8a74:	b509                	j	8876 <__truncdfsf2+0xbe>
    8a76:	0fe00613          	li	a2,254
    8a7a:	577d                	li	a4,-1
    8a7c:	4515                	li	a0,5
    8a7e:	bbc5                	j	886e <__truncdfsf2+0xb6>
    8a80:	ff8007b7          	lui	a5,0xff800
    8a84:	4515                	li	a0,5
    8a86:	00152073          	csrs	fflags,a0
    8a8a:	bb69                	j	8824 <__truncdfsf2+0x6c>
    8a8c:	4609                	li	a2,2
    8a8e:	f8c88be3          	beq	a7,a2,8a24 <__truncdfsf2+0x26c>
    8a92:	460d                	li	a2,3
    8a94:	f6c883e3          	beq	a7,a2,89fa <__truncdfsf2+0x242>
    8a98:	e20890e3          	bnez	a7,88b8 <__truncdfsf2+0x100>
    8a9c:	00f7f613          	andi	a2,a5,15
    8aa0:	4511                	li	a0,4
    8aa2:	e0a60be3          	beq	a2,a0,88b8 <__truncdfsf2+0x100>
    8aa6:	0791                	addi	a5,a5,4
    8aa8:	83ed                	srli	a5,a5,0x1b
    8aaa:	0017c793          	xori	a5,a5,1
    8aae:	8b85                	andi	a5,a5,1
    8ab0:	4505                	li	a0,1
    8ab2:	bd01                	j	88c2 <__truncdfsf2+0x10a>
    8ab4:	4705                	li	a4,1
    8ab6:	4601                	li	a2,0
    8ab8:	4785                	li	a5,1
    8aba:	b711                	j	89be <__truncdfsf2+0x206>
    8abc:	4705                	li	a4,1
    8abe:	4601                	li	a2,0
    8ac0:	4785                	li	a5,1
    8ac2:	b749                	j	8a44 <__truncdfsf2+0x28c>
    8ac4:	e0078de3          	beqz	a5,88de <__truncdfsf2+0x126>
    8ac8:	f505                	bnez	a0,89f0 <__truncdfsf2+0x238>
    8aca:	00571793          	slli	a5,a4,0x5
    8ace:	4605                	li	a2,1
    8ad0:	d207cee3          	bltz	a5,880c <__truncdfsf2+0x54>
    8ad4:	bd11                	j	88e8 <__truncdfsf2+0x130>

00008ad6 <__clzsi2>:
    8ad6:	67c1                	lui	a5,0x10
    8ad8:	02f57e63          	bgeu	a0,a5,8b14 <__clzsi2+0x3e>
    8adc:	0ff00793          	li	a5,255
    8ae0:	02000713          	li	a4,32
    8ae4:	00a7ec63          	bltu	a5,a0,8afc <__clzsi2+0x26>
    8ae8:	00001797          	auipc	a5,0x1
    8aec:	21478793          	addi	a5,a5,532 # 9cfc <__clz_tab>
    8af0:	97aa                	add	a5,a5,a0
    8af2:	0007c503          	lbu	a0,0(a5)
    8af6:	40a70533          	sub	a0,a4,a0
    8afa:	8082                	ret
    8afc:	8121                	srli	a0,a0,0x8
    8afe:	00001797          	auipc	a5,0x1
    8b02:	1fe78793          	addi	a5,a5,510 # 9cfc <__clz_tab>
    8b06:	97aa                	add	a5,a5,a0
    8b08:	0007c503          	lbu	a0,0(a5)
    8b0c:	4761                	li	a4,24
    8b0e:	40a70533          	sub	a0,a4,a0
    8b12:	8082                	ret
    8b14:	010007b7          	lui	a5,0x1000
    8b18:	00f56e63          	bltu	a0,a5,8b34 <__clzsi2+0x5e>
    8b1c:	8161                	srli	a0,a0,0x18
    8b1e:	00001797          	auipc	a5,0x1
    8b22:	1de78793          	addi	a5,a5,478 # 9cfc <__clz_tab>
    8b26:	97aa                	add	a5,a5,a0
    8b28:	0007c503          	lbu	a0,0(a5)
    8b2c:	4721                	li	a4,8
    8b2e:	40a70533          	sub	a0,a4,a0
    8b32:	8082                	ret
    8b34:	8141                	srli	a0,a0,0x10
    8b36:	00001797          	auipc	a5,0x1
    8b3a:	1c678793          	addi	a5,a5,454 # 9cfc <__clz_tab>
    8b3e:	97aa                	add	a5,a5,a0
    8b40:	0007c503          	lbu	a0,0(a5)
    8b44:	4741                	li	a4,16
    8b46:	40a70533          	sub	a0,a4,a0
    8b4a:	8082                	ret

00008b4c <__errno>:
    8b4c:	82418793          	addi	a5,gp,-2012 # 200000dc <_impure_ptr>
    8b50:	4388                	lw	a0,0(a5)
    8b52:	8082                	ret

00008b54 <memcmp>:
    8b54:	4701                	li	a4,0
    8b56:	00e61463          	bne	a2,a4,8b5e <memcmp+0xa>
    8b5a:	4501                	li	a0,0
    8b5c:	8082                	ret
    8b5e:	00e507b3          	add	a5,a0,a4
    8b62:	0705                	addi	a4,a4,1
    8b64:	00e586b3          	add	a3,a1,a4
    8b68:	0007c783          	lbu	a5,0(a5)
    8b6c:	fff6c683          	lbu	a3,-1(a3)
    8b70:	fed783e3          	beq	a5,a3,8b56 <memcmp+0x2>
    8b74:	40d78533          	sub	a0,a5,a3
    8b78:	8082                	ret

00008b7a <memcpy>:
    8b7a:	00a5c7b3          	xor	a5,a1,a0
    8b7e:	8b8d                	andi	a5,a5,3
    8b80:	00c50733          	add	a4,a0,a2
    8b84:	e781                	bnez	a5,8b8c <memcpy+0x12>
    8b86:	478d                	li	a5,3
    8b88:	00c7ee63          	bltu	a5,a2,8ba4 <memcpy+0x2a>
    8b8c:	87aa                	mv	a5,a0
    8b8e:	0ae57063          	bgeu	a0,a4,8c2e <memcpy+0xb4>
    8b92:	0005c683          	lbu	a3,0(a1) # 80000000 <_eusrstack+0x5fff8000>
    8b96:	0785                	addi	a5,a5,1
    8b98:	0585                	addi	a1,a1,1
    8b9a:	fed78fa3          	sb	a3,-1(a5)
    8b9e:	fee7eae3          	bltu	a5,a4,8b92 <memcpy+0x18>
    8ba2:	8082                	ret
    8ba4:	00357693          	andi	a3,a0,3
    8ba8:	87aa                	mv	a5,a0
    8baa:	ca91                	beqz	a3,8bbe <memcpy+0x44>
    8bac:	0005c683          	lbu	a3,0(a1)
    8bb0:	0785                	addi	a5,a5,1
    8bb2:	0585                	addi	a1,a1,1
    8bb4:	fed78fa3          	sb	a3,-1(a5)
    8bb8:	0037f693          	andi	a3,a5,3
    8bbc:	b7fd                	j	8baa <memcpy+0x30>
    8bbe:	ffc77693          	andi	a3,a4,-4
    8bc2:	fe068613          	addi	a2,a3,-32
    8bc6:	06c7f063          	bgeu	a5,a2,8c26 <memcpy+0xac>
    8bca:	0005a383          	lw	t2,0(a1)
    8bce:	0045a283          	lw	t0,4(a1)
    8bd2:	0085af83          	lw	t6,8(a1)
    8bd6:	00c5af03          	lw	t5,12(a1)
    8bda:	0105ae83          	lw	t4,16(a1)
    8bde:	0145ae03          	lw	t3,20(a1)
    8be2:	0185a303          	lw	t1,24(a1)
    8be6:	01c5a883          	lw	a7,28(a1)
    8bea:	02458593          	addi	a1,a1,36
    8bee:	0077a023          	sw	t2,0(a5)
    8bf2:	ffc5a803          	lw	a6,-4(a1)
    8bf6:	0057a223          	sw	t0,4(a5)
    8bfa:	01f7a423          	sw	t6,8(a5)
    8bfe:	01e7a623          	sw	t5,12(a5)
    8c02:	01d7a823          	sw	t4,16(a5)
    8c06:	01c7aa23          	sw	t3,20(a5)
    8c0a:	0067ac23          	sw	t1,24(a5)
    8c0e:	0117ae23          	sw	a7,28(a5)
    8c12:	02478793          	addi	a5,a5,36
    8c16:	ff07ae23          	sw	a6,-4(a5)
    8c1a:	b775                	j	8bc6 <memcpy+0x4c>
    8c1c:	4190                	lw	a2,0(a1)
    8c1e:	0791                	addi	a5,a5,4
    8c20:	0591                	addi	a1,a1,4
    8c22:	fec7ae23          	sw	a2,-4(a5)
    8c26:	fed7ebe3          	bltu	a5,a3,8c1c <memcpy+0xa2>
    8c2a:	f6e7e4e3          	bltu	a5,a4,8b92 <memcpy+0x18>
    8c2e:	8082                	ret
    8c30:	f2fe                	fsw	ft11,100(sp)
    8c32:	f1aac4ab          	0xf1aac4ab
    8c36:	dfdf afbb dfdf      	0xdfdfafbbdfdf
    8c3c:	aab8                	fsd	fa4,80(a3)
    8c3e:	aaaa                	fsd	fa0,336(sp)
    8c40:	88b0                	0x88b0
    8c42:	00c7c5c3          	fmadd.s	fa1,fa5,fa2,ft0,rmm
    8c46:	0000                	unimp
    8c48:	b1d8                	fsd	fa4,160(a1)
    8c4a:	f3b9                	bnez	a5,8b90 <memcpy+0x16>
    8c4c:	b691a38b          	0xb691a38b
    8c50:	b409                	j	8652 <__floatdidf+0x19e>
    8c52:	00d9                	addi	ra,ra,22
    8c54:	b1da                	fsd	fs6,224(sp)
    8c56:	f3b9                	bnez	a5,8b9c <memcpy+0x22>
    8c58:	b691a38b          	0xb691a38b
    8c5c:	b4da                	fsd	fs6,104(sp)
    8c5e:	00da                	slli	ra,ra,0x16
    8c60:	0a3d                	addi	s4,s4,15
    8c62:	00003e57          	0x3e57
    8c66:	44b4                	lw	a3,72(s1)
    8c68:	4f4d                	li	t5,19
    8c6a:	4f54                	lw	a3,28(a4)
    8c6c:	2052                	fld	ft0,272(sp)
    8c6e:	4e55                	li	t3,21
    8c70:	4f4c                	lw	a1,28(a4)
    8c72:	44454b43          	0x44454b43
    8c76:	2121                	jal	907e <dmp_memory+0x26e>
    8c78:	2121                	jal	9080 <dmp_memory+0x270>
    8c7a:	0000                	unimp
    8c7c:	4f4d                	li	t5,19
    8c7e:	4f54                	lw	a3,28(a4)
    8c80:	2052                	fld	ft0,272(sp)
    8c82:	21214b4f          	fnmadd.s	fs6,ft2,fs2,ft4,rmm
    8c86:	2121                	jal	908e <dmp_memory+0x27e>
    8c88:	0000                	unimp
    8c8a:	0000                	unimp
    8c8c:	74737953          	0x74737953
    8c90:	6d65                	lui	s10,0x19
    8c92:	3a6b6c43          	fmadd.d	fs8,fs6,ft6,ft7,unknown
    8c96:	6425                	lui	s0,0x9
    8c98:	0a0d                	addi	s4,s4,3
    8c9a:	0000                	unimp
    8c9c:	6854                	flw	fa3,20(s0)
    8c9e:	7369                	lui	t1,0xffffa
    8ca0:	6920                	flw	fs0,80(a0)
    8ca2:	72702073          	csrr	zero,0x727
    8ca6:	6e69                	lui	t3,0x1a
    8ca8:	6674                	flw	fa3,76(a2)
    8caa:	6520                	flw	fs0,72(a0)
    8cac:	6178                	flw	fa4,68(a0)
    8cae:	706d                	c.lui	zero,0xffffb
    8cb0:	656c                	flw	fa1,76(a0)
    8cb2:	000d                	c.nop	3
    8cb4:	1f18                	addi	a4,sp,944
    8cb6:	0000                	unimp
    8cb8:	1f24                	addi	s1,sp,952
    8cba:	0000                	unimp
    8cbc:	1f2a                	slli	t5,t5,0x2a
    8cbe:	0000                	unimp
    8cc0:	1f30                	addi	a2,sp,952
    8cc2:	0000                	unimp
    8cc4:	1f34                	addi	a3,sp,952
    8cc6:	0000                	unimp
    8cc8:	1f38                	addi	a4,sp,952
	...

00008ccc <hw>:
    8ccc:	00d0 0400 0076 0154 fdf7 0100 0000 3080     ....v.T........0
    8cdc:	0000 c000 3333 4265 706d 2075 6d64 2070     ....33eBmpu dmp 
    8cec:	6e69 7469 4f20 214b 000d 0000 0000 4303     init OK!.......C
    8cfc:	0000 4283 3333 4203 3333 4183 6e55 7573     ...B33.B33.AUnsu
    8d0c:	7070 726f 6574 2064 6f73 7466 6177 6572     pported software
    8d1c:	7020 6f72 7564 7463 7220 7665 2520 2e64      product rev %d.
    8d2c:	000a 0000 7250 646f 6375 2074 4449 7220     ....Product ID r
    8d3c:	6165 2064 7361 3020 6920 646e 6369 7461     ead as 0 indicat
    8d4c:	7365 6420 7665 6369 2065 7369 6520 7469     es device is eit
    8d5c:	6568 2072 6e69 6f63 706d 7461 6269 656c     her incompatible
    8d6c:	6f20 2072 6e61 4d20 5550 3033 3035 002e      or an MPU3050..
    8d7c:	6148 666c 7320 6e65 6973 6974 6976 7974     Half sensitivity
    8d8c:	7020 7261 2074 6f66 6e75 2e64 0000 0000      part found.....
    8d9c:	0000 41c8 147b 3eae 5a1d 3f84 0000 3780     ...A{..>.Z.?...7
    8dac:	0000 3f80 51ec 3e38 999a 3e99 3333 3f73     ...?.Q8>...>33s?
    8dbc:	e354 3f85 5c29 3e0f 0000 4120 0000 42d2     T..?)\.>.. A...B

00008dcc <reg>:
    8dcc:	1975 0c1a 236a 1c1b 201f 7472 3b43 3841     u...j#... rtC;A8
    8ddc:	3a39 6c6b 6f37 2406 6e6d 0070               9:kl7o.$mnp.

00008de8 <test>:
    8de8:	0083 0000 0800 0000 0100 1800 0032 0005     ............2...
    8df8:	0000 4120 0000 42d2 5c29 3e0f 999a 3e99     .. A...B)\.>...>
    8e08:	3333 3f73 51ec 3e38                         33s?.Q8>

00008e10 <dmp_memory>:
    8e10:	0000 0070 0000 2400 0000 0200 0300 0000     ..p....$........
    8e20:	6500 5400 efff 0000 80fa 0b00 8212 0100     .e.T............
    8e30:	0c03 c330 8c0e e98c d514 0240 7113 8e0f     ..0.......@..q..
    8e40:	8338 83f8 0030 83f8 8e25 83f8 0030 83f8     8...0...%...0...
    8e50:	ffff ffff fe0f d6a9 0024 0004 821a a179     ........$.....y.
    8e60:	0000 3c00 ffff 0000 1000 0000 8338 a26f     ...<........8.o.
    8e70:	3e00 3003 0040 0000 ca02 09e3 803e 0000     .>.0@.......>...
    8e80:	0020 0000 0000 0000 0040 0000 0060 0000      .......@...`...
    8e90:	0c00 0000 0c00 6e18 0000 9206 160a dfc0     .......n........
    8ea0:	ffff 5602 8cfd 77d3 e1ff 96c4 c5e0 aabe     ...V...w........
    8eb0:	0000 0000 ffff 2b0b 0000 5716 0000 5903     .......+...W...Y
    8ec0:	0040 0000 0000 fa1d 0200 1d6c 0000 0000     @.........l.....
    8ed0:	ff3f ebdf 3e00 b6b3 0d00 7822 0000 3c2f     ?....>...."x../<
    8ee0:	0000 0000 1900 b542 0000 a239 0000 65b3     ......B...9....e
    8ef0:	0ed9 c99f cf1d 344c 0030 0000 0050 0000     ......L40...P...
    8f00:	b63b e87a 6400 0000 c800 0000 0000 0000     ;.z..d..........
    8f10:	0010 0000 0010 92fa 0010 5e22 0d00 9f22     .........."^..".
    8f20:	0100 0000 3200 0000 46ff 0000 d463 0000     .....2...F..c...
    8f30:	0010 0000 d604 0000 cc04 0000 cc04 0000     ................
    8f40:	0000 7210 0000 4000 0000 0000 0000 0000     ...r...@........
    8f50:	0600 0200 0500 0700 0000 0000 6400 0000     .............d..
    8f60:	0000 0000 0000 0500 0500 6400 2000 0000     ...........d. ..
	...
    8f78:	0000 0040 0000 0003 0000 3200 98f8 0000     ..@........2....
    8f88:	65ff 0000 0f83 0000 9bff 00fc 0000 0000     .e..............
	...
    8fbc:	0000 0010 0040 0000 0000 0600 0000 6ab2     ....@..........j
    8fcc:	0200 0000 0100 83fb 6800 0000 d900 00fc     .........h......
    8fdc:	f17c 83ff 0000 0000 6500 0000 6400 e803     |........e...d..
    8fec:	6400 2800 0000 2500 0000 0000 a016 0000     .d.(...%........
    8ffc:	0000 0010 0000 0010 2f00 0000 0000 f401     ........./......
    900c:	0000 0010 2800 0000 ffff 8145 ffff 72fa     .....(....E....r
	...
    9024:	4400 0500 0500 c6ba 4700 a278 0000 0100     .D.......Gx.....
    9034:	0000 0000 0000 0006 0000 1400 0000 4d25     ..............%M
    9044:	2f00 6d70 0000 ae05 0c00 d002 0000 0000     ./pm............
	...
    9060:	1b00 0000 0000 0000 0000 0000 0000 0000     ................
    9070:	6400 0000 0800 0000 0000 0000 0000 0000     .d..............
	...
    90d0:	1b00 0000 0000 0000 0000 0000 0e00 0e00     ................
    90e0:	0000 c70a 0400 0000 0000 3200 ffff 9cff     ...........2....
    90f0:	0000 2b0b 0000 0200 0000 0100 0000 6400     ...+...........d
    9100:	e5ff 0000 0000 0000 0000 0000 0000 0000     ................
    9110:	0000 0100 0000 0000 0100 0000 0000 0000     ................
    9120:	0100 0080 0100 0080 0100 0080 2400 d326     .............$&.
	...
    9138:	0600 1000 9600 3c00 0000 0000 0000 0000     .......<........
	...
    9150:	0a0c 684e cfcd 0977 1650 5967 19c6 82ce     ..Nh..w.P.gY....
	...
    9178:	d717 0084 0003 0000 0000 0000 0000 0000     ................
    9188:	93c7 9d8f 1b1e 191c 0000 0000 0000 0000     ................
	...
    91a8:	0302 8518 0000 0040 0000 0300 0000 0300     ......@.........
	...
    91c0:	0040 0000 0000 0000 0000 0000 0000 0000     @...............
	...
    91f4:	7d67 7edf 9072 552e f64c 88e6 0000 0000     g}.~r..UL.......
	...
    9210:	dcd8 b8b4 d8b0 abb9 f8f3 b3fa bbb7 9e8e     ................
    9220:	f1ae f532 f11b b8b4 80b0 f197 dfa9 dfdf     ..2.............
    9230:	dfaa dfdf aaf2 cdc5 a9c7 c90c 972c a9f1     ............,...
    9240:	2689 6646 89b2 a999 552d b07d 8ab0 96a8     .&Ff....-U}.....
    9250:	5636 f176 a3ba b2b4 c080 a8b8 1197 83b2     6Vv.............
    9260:	ba98 f0a3 0824 1044 1864 b9b2 98b4 f183     ....$.D.d.......
    9270:	29a3 7d55 b5ba a3b1 9383 00f0 5028 b2f5     .)U}........(P..
    9280:	aab6 9383 5428 f17c a3b9 9382 ba61 daa2     ....(T|.....a...
    9290:	dfde 81db b99a f5ae 6860 f170 bada dfa2     ........`hp.....
    92a0:	bad9 faa2 a3b9 9282 31db a2ba bad9 f8a2     .........1......
    92b0:	85df d0a4 bbc1 83ad c5c2 b8c7 dfa2 dfdf     ................
    92c0:	a0ba dfdf d8df f1d8 aab8 8db3 98b4 350d     ...............5
    92d0:	b25d bab6 8caf 1996 9f8f 0ea7 1e16 9ab4     ]...............
    92e0:	aab8 2c87 7c54 a4ba 8ab0 91b6 5632 b276     ...,T|......2Vv.
    92f0:	9484 c8a4 cd08 b8d8 b0b4 99f1 a882 552d     ..............-U
    9300:	987d 0ea8 1e16 2ca2 7c54 a492 2cf0 7850     }......,T|...,Px
    9310:	84f1 98a8 cdc4 d8fc db0d fca8 f32d bad9     ............-...
    9320:	f8a6 bada dea6 bad8 b6b2 9686 d0a6 c8f3     ................
    9330:	da41 c8a6 d8f8 b4b0 82b8 92a8 2cf5 8854     A............,T.
    9340:	f198 d935 18f4 f1d8 d0a2 f9f8 84a8 c7d9     ..5.............
    9350:	f8df 83f8 dac5 69df 83df d8c1 01f4 f114     .......i........
    9360:	82a8 a84e f384 d111 f582 92d9 9728 f188     ..N.........(...
    9370:	f409 1c1c 84d8 f3a8 f9c0 d9d1 8297 29f1     ...............)
    9380:	0df4 f3d8 f9f9 d9d1 f482 03c2 ded8 1adf     ................
    9390:	f1d8 faa2 a8f9 9884 c7d9 f8df f8f8 c783     ................
    93a0:	dfda df69 83f8 d8c3 01f4 f114 a898 2e82     ..i.............
    93b0:	84a8 11f3 82d1 d9f5 5092 8897 09f1 1cf4     .........P......
    93c0:	84d8 f3a8 f8c0 d1f9 97d9 f182 f449 d80d     ............I...
    93d0:	f9f3 d1f9 82d9 c4f4 d803 dfde f1d8 88ad     ................
    93e0:	cc98 09a8 d9f9 9282 f5a8 f17c 3a88 94cf     ..........|..:..
    93f0:	6e4a db98 3169 adda def2 d8f9 9587 f2a8     Jn..i1..........
    9400:	d121 a5da f4f9 d917 aef1 d08e c3c0 82ae     !...............
    9410:	84c6 a8c3 9585 a5c8 f288 f1c0 01f4 f10e     ................
    9420:	9e8e c6a8 563e 54f5 88f1 f472 1501 98f1     ....>V.T..r.....
    9430:	8545 f56e 9e8e 8804 42f1 5a98 9e8e 8806     E.n......B.Z....
    9440:	f469 1c01 98f1 111e d008 04f5 1ef1 0297     i...............
    9450:	9802 2536 f9db 85d9 f3a5 dac1 a585 dff3     ..6%............
    9460:	85d8 a895 09f3 a5da d8fa 9282 f5a8 f178     ..............x.
    9470:	1a88 9f84 8826 2198 f4da f31d 87d8 399f     ....&..!.......9
    9480:	afd1 dfd9 fbdf f4f9 f30c fad8 f8d0 f9da     ................
    9490:	d0f9 d9df d8f9 0bf4 f3d8 9f87 d139 d9af     ............9...
    94a0:	dfdf 1df4 d8f3 fcfa 69a8 f9f9 d0af deda     .........i......
    94b0:	d9fa 8ff8 a89f ccf1 98f3 45db afd9 d0df     ...........E....
    94c0:	d8f8 8ff1 a89f f3ca 0988 afda cb8f d8f8     ................
    94d0:	adf2 8d97 d90c dfa5 baf9 f3a6 f4fa f212     ................
    94e0:	95d8 d10d bad9 f3a6 dafa f2a5 bac1 f3a6     ................
    94f0:	d8df baf1 b6b2 9686 d0a6 f3ca da49 cba6     ............I...
    9500:	d8f8 b4b0 d8b8 84ad c0f2 f1df cb8f a8c3     ................
    9510:	b6b2 9686 c1c8 c3cb b0f3 88b4 a898 db21     ..............!.
    9520:	8d71 719d 9585 d921 f2ad d8fa 9785 28a8     q..q..!........(
    9530:	f4d9 d808 8df2 da29 05f4 f2d9 a485 f2c2     ......).........
    9540:	a8d8 948d d101 f4d9 f211 87d8 d821 0af4     ............!...
    9550:	f2d8 9884 c8a8 d101 f4d9 d811 a4f3 bbc8     ................
    9560:	d0af def2 f8f8 f8f8 f8f8 f8f8 f1d8 f6b8     ................
    9570:	b9b5 8ab0 a395 3cde d9a3 d8f8 a35c f8d9     .......<....\...
    9580:	7cd8 d9a3 d8f8 f9f8 a5d1 dfd9 fada b1d8     .|..............
    9590:	3085 d9f7 d8de 30f8 daad d8de b4f2 998c     .0.....0........
    95a0:	2da3 7d55 83a0 dfdf b5df a091 29f6 fbd9     .-U}.........)..
    95b0:	a0d8 29fc fad9 a0d8 51d0 f8d9 fcd8 d951     ...).....Q....Q.
    95c0:	d8f9 d979 d8fb d0a0 79fc fad9 a1d8 f9f9     ..y......y......
    95d0:	f9f9 a0f9 dfda dfdf a1d8 f8f8 f8f8 acf8     ................
    95e0:	f8de dead 9383 2cac 7c54 a8f1 dfdf f6df     .......,T|......
    95f0:	2c9d a0da d9df dbfa f82d a8d8 da50 d0a0     .,......-...P...
    9600:	d9de f8d0 f8f8 55db d8f8 78a8 a0da dfd0     .......U...x....
    9610:	d0d9 f8fa f8f8 dbf8 f87d 9cd8 8ca8 30f5     ........}......0
    9620:	38db d0d9 dfde d0a0 dfde a8d8 db48 d958     .8..........H.X.
    9630:	d0df a0de d0df d8de 68a8 70db dfd9 a0df     .........h.p....
    9640:	dfdf f1d8 88a8 2c90 7c54 a898 5cd0 d138     .......,T|...\8.
    9650:	f2da 8cae f9df b0d8 a887 c1c1 88b1 c6a8     ................
    9660:	f9f9 36da a8d8 daf9 d836 f9a8 36da a8d8     ...6....6....6..
    9670:	daf9 d836 f9a8 36da f7d8 9d8d f8ad da18     ..6....6........
    9680:	aef2 d8df adf7 30fa a4d9 f9de f2d8 deae     .......0........
    9690:	f9fa a783 c3d9 c7c5 88f1 a79b ad7a def7     ............z...
    96a0:	a4df 84f8 0894 97a7 00f3 f2ae 1998 88a4     ................
    96b0:	a3c6 8894 32f6 f2df 9383 09db f2d9 dfaa     .....2..........
    96c0:	d8d8 f8ae d1f9 f3da dea4 f1a7 9b88 d87a     ..............z.
    96d0:	84f3 ae94 f919 aada dff1 a8d8 c081 c5c3     ................
    96e0:	a3c7 8392 28f6 dead f8d9 a3d8 ad50 f8d9     .....(......P...
    96f0:	a3d8 ad78 f8d9 f8d8 d1f9 daa1 c3de c7c5     ..x.............
    9700:	a1d8 9481 18f8 b0f2 ac89 c5c3 f1c7 b8d8     ................
    9710:	b0b4 8697 31a8 069b 0799 97ab 8828 f09b     .....1......(...
    9720:	200c 4014 b4b0 f0b8 8aa8 289a 7850 9bb7     . .@.......(Px..
    9730:	29a8 7951 7024 4459 3869 4864 f131 abbb     .)Qy$pYDi8dH1...
    9740:	0088 542c f07c 8bb3 a8b8 2804 7850 b0f1     ..,T|......(Px..
    9750:	b488 2697 59a8 bb98 b3ab 028b 4626 b066     ...&.Y......&Ff.
    9760:	f0b8 9c8a 29a8 7951 298b 7951 248a 5970     .....)Qy.)Qy.$pY
    9770:	208b 7158 448a 3869 398b 6840 648a 3148     . Xq.Di8.9@h.dH1
    9780:	308b 6049 f188 00ac 542c f07c a88c 2804     .0I`....,T|....(
    9790:	7850 88f1 2697 59a8 ac98 028c 4626 f066     Px...&.Y....&Ff.
    97a0:	9c89 29a8 7951 7024 4459 3869 4864 a931     ...)Qy$pYDi8dH1.
    97b0:	0988 5920 ab70 3811 6940 19a8 4831 8c60     .. Yp..8@i..1H`.
    97c0:	3ca8 5c41 7c20 f100 9887 8619 6ea8 7e76     .<A\ |.......nv~
    97d0:	99a9 2d88 7d55 b1d8 b9b5 dfa3 dfdf d0ae     ...-U}..........
    97e0:	aadf ded0 abf2 f9f8 b0d9 c487 f1aa dfdf     ................
    97f0:	afbb dfdf d8b9 f1b1 97a3 608e b0df f284     ...........`....
    9800:	f8c8 d9f9 d8de 8593 4af1 83b1 08a3 83b5     .........J......
    9810:	089a b710 109f f1d8 bab0 b0ae c28a b6b2     ................
    9820:	9e8e fbf1 f4d9 d81d d9f9 f10c f8d8 adf8     ................
    9830:	d961 fbae f4d8 f10c f8d8 adf8 d919 fbae     a...............
    9840:	d8df 16f4 d8f1 adf8 618d f4d9 acf4 9cf5     .........a......
    9850:	8d9c 2bdf b6ba faae f4f8 d80b aef1 f8d0     ...+............
    9860:	51ad aeda f8fa d8f1 b1b9 a3b6 9c83 b908     .Q..............
    9870:	83b1 b59a c0aa 30fd b783 109f 8bb5 f293     .......0........
    9880:	0202 abd1 deda f1d8 80b0 abba c3c0 84b2     ................
    9890:	c3c1 b1d8 f3b9 a38b b691 b409 abd9 b0de     ................
    98a0:	9c87 a3b9 f1dd 8bb3 8b8b 8b8b 87b0 a3a3     ................
    98b0:	a3a3 8bb2 9bb6 a3f2 a3a3 a3a3 a3a3 a3a3     ................
    98c0:	f1a3 87b0 9ab5 f3a3 a39b dca3 acba b9df     ................
    98d0:	a3a3 a3a3 a3a3 a3a3 a3a3 a3a3 a3a3 a3a3     ................
    98e0:	d8d8 bbd8 b7b3 aaf1 daf9 d9ff 9a80 28aa     ...............(
    98f0:	80b4 a798 b720 8797 66a8 f088 5179 90f1     .... ....f..yQ..
    9900:	872c a70c 9781 9362 71f0 6071 9485 2901     ,.....b..qq`...)
    9910:	7951 a590 28f1 6c4c 0c87 1895 7885 83a3     Qy...(Ll.....x..
    9920:	2890 6c4c 6c88 f3d8 82a2 f200 a810 1992     .(Ll.l..........
    9930:	a280 d9f2 d826 88f1 4da8 48d9 96d8 39a8     ....&....M.H...9
    9940:	d980 d83c 8095 39a8 86a6 d998 da2c a787     ..<....9....,...
    9950:	d82c 89a8 1995 80a9 38d9 a8d8 3989 80a9     ,........8...9..
    9960:	3cda a8d8 a82e 9039 0cd9 a8d8 3195 d998     .<....9......1..
    9970:	d80c 09a8 ffd9 01d8 ffda 95d8 a939 26da     ............9..&
    9980:	d8ff a890 890d a899 8010 2198 2eda 89d8     ...........!....
    9990:	a899 8031 2eda a8d8 9686 8031 2eda a8d8     ..1.......1.....
    99a0:	3187 da80 d82e 82a8 f392 8041 d9f1 d82e     .1........A.....
    99b0:	82a8 19f3 f180 2ed9 82d8 f3ac a2c0 2280     ..............."
    99c0:	a6f1 a72e a92e 9822 29a8 acda ffde a2d8     ......"..)......
    99d0:	2af2 a9f1 822e a892 31f2 a680 f196 00d9     .*.......1......
    99e0:	8cac 0c9c ac30 d0de ffde 8cd8 ac9c 10d0     ....0...........
    99f0:	deac 9280 f2a2 824c f1a8 f2ca f135 8896     ......L.....5...
    9a00:	d9a6 d800 fff1 0000 0000 4348 0000 4680     ..........HC...F
    9a10:	0000 4640 0000 4600 0000 45c0 0000 4580     ..@F...F...E...E
    9a20:	0000 4540 0000 4500 0000 44c0 706d 5f75     ..@E...E...Dmpu_
    9a30:	6d64 5f70 6e69 7469 6520 7272 6320 646f     dmp_init err cod
    9a40:	3a65 6425 0a0d 0000 6143 696c 7262 7461     e:%d....Calibrat
    9a50:	6974 6e6f 6156 756c 3a65 6425 000a 0000     tionValue:%d....
    9a60:	0000 4248 6179 5f77 6966 746c 6465 253d     ..HByaw_filted=%
    9a70:	0d66 000a 6970 6374 5f68 6966 746c 6465     f...pitch_filted
    9a80:	253d 0d66 000a 0000 6f72 6c6c 665f 6c69     =%f.....roll_fil
    9a90:	6574 3d64 6625 0a0d 0000 0000 7661 795f     ted=%f......av_y
    9aa0:	7761 665f 6c69 6574 3d64 6425 0a0d 0000     aw_filted=%d....
    9ab0:	7661 705f 7469 6863 665f 6c69 6574 3d64     av_pitch_filted=
    9ac0:	6425 0a0d 0000 0000 7661 725f 6c6f 5f6c     %d......av_roll_
    9ad0:	6966 746c 6465 253d 0d64 000a 5750 314d     filted=%d...PWM1
    9ae0:	253a 0d64 000a 0000 5750 324d 253a 0d64     :%d.....PWM2:%d.
    9af0:	000a 0000 5750 334d 253a 0d64 000a 0000     ....PWM3:%d.....
    9b00:	5750 344d 253a 0d64 000a 0000 6863 3a32     PWM4:%d.....ch2:
    9b10:	6425 0000 6c66 6769 7468 6d5f 646f 3a65     %d..flight_mode:
    9b20:	5047 0d53 0000 0000 6c66 6769 7468 6d5f     GPS.....flight_m
    9b30:	646f 3a65 7453 6261 656c 000d 6c66 6769     ode:Stable..flig
    9b40:	7468 6d5f 646f 3a65 7246 6565 000d 0000     ht_mode:Free....
    9b50:	6854 6f72 7474 656c 5520 6c6e 636f 656b     Throttle Unlocke
    9b60:	0d64 0000 6854 6f72 7474 656c 4c20 636f     d...Throttle Loc
    9b70:	656b 0d64 0000 0000 6f43 746e 6f72 5f6c     ked.....Control_
    9b80:	6f6d 6564 503a 4449 0a0d 0000 6f43 746e     mode:PID....Cont
    9b90:	6f72 5f6c 6f6d 6564 523a 5741 0a0d 0000     rol_mode:RAW....
    9ba0:	8d50 3d17 0000 3f00 c000 44a8 0000 40a0     P..=...?...D...@
    9bb0:	4000 459c 4000 c59c ff00 477f ff00 c77f     .@.E.@.....G....
    9bc0:	6666 3ee6 8000 453b 8000 c53b 0000 c120     ff.>..;E..;... .
    9bd0:	0000 8000 0000 4100 d70a 3c23 7953 7473     .......A..#<Syst
    9be0:	6d65 495f 696e 2074 4b4f 0d21 0000 0000     em_Init OK!.....
    9bf0:	7361 6e69 0066 0000 bd2e b33b 0fdb 3fc9     asinf.....;....?
    9c00:	f2ca 7149 ef08 3811 7f04 3a4f 1146 bd24     ..Iq...8..O:F.$.
    9c10:	0aa8 3e4e b090 bea6 aaab 3e2a c62e 3d9d     ..N>......*>...=
    9c20:	3361 bf30 572d 4001 d139 c019 0000 4000     a30.-W.@9......@
    9c30:	bd2e 333b 0fdb 3f49 0fdb 4049 0fdb c049     ..;3..I?..I@..I.
    9c40:	0fdb bfc9 cbe4 4016 cbe4 c016 0fdb bf49     .......@......I.
    9c50:	bd2e 33bb 0000 0000 0000 0000 0000 7ff8     ...3............
    9c60:	0000 bf80 0000 3fc0 69d7 3c85 da59 3d4b     .......?.i.<Y.K=
    9c70:	6b35 3d88 2e6e 3dba 4925 3e12 aaab 3eaa     5k.=n..=%I.>...>
    9c80:	a221 bd15 f16b bd6e 8795 bd9d 8e38 bde3     !...k.n.....8...
    9c90:	cccd be4c                                   ..L.

00009c94 <atanhi>:
    9c94:	6338 3eed 0fda 3f49 985e 3f7b 0fda 3fc9     8c.>..I?^.{?...?

00009ca4 <atanlo>:
    9ca4:	3769 31ac 2168 3322 0fb4 3314 2168 33a2     i7.1h!"3...3h!.3
    9cb4:	6e28 6c75 296c 0000 d80e ffff d6c8 ffff     (null)..........
    9cc4:	d6c8 ffff d6c6 ffff d6ce ffff d6ce ffff     ................
    9cd4:	dafa ffff d6c6 ffff d6ce ffff dafa ffff     ................
    9ce4:	d6ce ffff d6c6 ffff d7fa ffff d7fa ffff     ................
    9cf4:	d7fa ffff d7ec ffff                         ........

00009cfc <__clz_tab>:
    9cfc:	0100 0202 0303 0303 0404 0404 0404 0404     ................
    9d0c:	0505 0505 0505 0505 0505 0505 0505 0505     ................
    9d1c:	0606 0606 0606 0606 0606 0606 0606 0606     ................
    9d2c:	0606 0606 0606 0606 0606 0606 0606 0606     ................
    9d3c:	0707 0707 0707 0707 0707 0707 0707 0707     ................
    9d4c:	0707 0707 0707 0707 0707 0707 0707 0707     ................
    9d5c:	0707 0707 0707 0707 0707 0707 0707 0707     ................
    9d6c:	0707 0707 0707 0707 0707 0707 0707 0707     ................
    9d7c:	0808 0808 0808 0808 0808 0808 0808 0808     ................
    9d8c:	0808 0808 0808 0808 0808 0808 0808 0808     ................
    9d9c:	0808 0808 0808 0808 0808 0808 0808 0808     ................
    9dac:	0808 0808 0808 0808 0808 0808 0808 0808     ................
    9dbc:	0808 0808 0808 0808 0808 0808 0808 0808     ................
    9dcc:	0808 0808 0808 0808 0808 0808 0808 0808     ................
    9ddc:	0808 0808 0808 0808 0808 0808 0808 0808     ................
    9dec:	0808 0808 0808 0808 0808 0808 0808 0808     ................
