
FreeRTOS.elf:     file format elf32-littleriscv
FreeRTOS.elf
architecture: riscv:rv32, flags 0x00000112:
EXEC_P, HAS_SYMS, D_PAGED
start address 0x00000000

Program Header:
    LOAD off    0x00001000 vaddr 0x00000000 paddr 0x00000000 align 2**12
         filesz 0x0000c8a0 memsz 0x0000c8a0 flags r-x
    LOAD off    0x0000e000 vaddr 0x20000000 paddr 0x0000c8a0 align 2**12
         filesz 0x00000108 memsz 0x00004720 flags rw-
    LOAD off    0x0000e800 vaddr 0x20007800 paddr 0x20007800 align 2**12
         filesz 0x00000000 memsz 0x00000800 flags rw-

Sections:
Idx Name          Size      VMA       LMA       File off  Algn
  0 .init         00000004  00000000  00000000  00001000  2**1
                  CONTENTS, ALLOC, LOAD, READONLY, CODE
  1 .vector       000001bc  00000004  00000004  00001004  2**1
                  CONTENTS, ALLOC, LOAD, READONLY, CODE
  2 .text         0000c6a0  00000200  00000200  00001200  2**8
                  CONTENTS, ALLOC, LOAD, READONLY, CODE
  3 .fini         00000000  0000c8a0  0000c8a0  0000e108  2**0
                  CONTENTS, ALLOC, LOAD, CODE
  4 .dalign       00000000  20000000  20000000  0000e108  2**0
                  CONTENTS
  5 .dlalign      00000000  0000c8a0  0000c8a0  0000e108  2**0
                  CONTENTS
  6 .data         00000108  20000000  0000c8a0  0000e000  2**2
                  CONTENTS, ALLOC, LOAD, DATA
  7 .bss          00004618  20000108  0000c9a8  0000e108  2**2
                  ALLOC
  8 .stack        00000800  20007800  20007800  0000e800  2**0
                  ALLOC
  9 .debug_info   00031549  00000000  00000000  0000e108  2**0
                  CONTENTS, READONLY, DEBUGGING
 10 .debug_abbrev 000076e0  00000000  00000000  0003f651  2**0
                  CONTENTS, READONLY, DEBUGGING
 11 .debug_loc    0000ef5d  00000000  00000000  00046d31  2**0
                  CONTENTS, READONLY, DEBUGGING
 12 .debug_aranges 000015a0  00000000  00000000  00055c90  2**3
                  CONTENTS, READONLY, DEBUGGING
 13 .debug_ranges 00002108  00000000  00000000  00057230  2**3
                  CONTENTS, READONLY, DEBUGGING
 14 .debug_line   00025e66  00000000  00000000  00059338  2**0
                  CONTENTS, READONLY, DEBUGGING
 15 .debug_str    000072e1  00000000  00000000  0007f19e  2**0
                  CONTENTS, READONLY, DEBUGGING
 16 .comment      00000033  00000000  00000000  0008647f  2**0
                  CONTENTS, READONLY
 17 .debug_frame  00004180  00000000  00000000  000864b4  2**2
                  CONTENTS, READONLY, DEBUGGING
SYMBOL TABLE:
00000000 l    d  .init	00000000 .init
00000004 l    d  .vector	00000000 .vector
00000200 l    d  .text	00000000 .text
0000c8a0 l    d  .fini	00000000 .fini
20000000 l    d  .dalign	00000000 .dalign
0000c8a0 l    d  .dlalign	00000000 .dlalign
20000000 l    d  .data	00000000 .data
20000108 l    d  .bss	00000000 .bss
20007800 l    d  .stack	00000000 .stack
00000000 l    d  .debug_info	00000000 .debug_info
00000000 l    d  .debug_abbrev	00000000 .debug_abbrev
00000000 l    d  .debug_loc	00000000 .debug_loc
00000000 l    d  .debug_aranges	00000000 .debug_aranges
00000000 l    d  .debug_ranges	00000000 .debug_ranges
00000000 l    d  .debug_line	00000000 .debug_line
00000000 l    d  .debug_str	00000000 .debug_str
00000000 l    d  .comment	00000000 .comment
00000000 l    d  .debug_frame	00000000 .debug_frame
00000000 l    df *ABS*	00000000 ./Startup/startup_ch32v30x_D8C.o
00000004 l       .vector	00000000 _vector_base
00000000 l    df *ABS*	00000000 ./FreeRTOS/portable/GCC/RISC-V/portASM.o
00000264 l       .text	00000000 processed_source
00000428 l       .text	00000000 chip_specific_stack_frame
00000000 l    df *ABS*	00000000 IMU_handle.c
00000000 l    df *ABS*	00000000 Print_status.c
00000000 l    df *ABS*	00000000 control_handle.c
00000000 l    df *ABS*	00000000 soft_stast.c
00000000 l    df *ABS*	00000000 RTOS_tasks.c
00000000 l    df *ABS*	00000000 ch32v30x_it.c
00000000 l    df *ABS*	00000000 main.c
00000000 l    df *ABS*	00000000 system_ch32v30x.c
00000000 l    df *ABS*	00000000 ch32v30x_adc.c
00000000 l    df *ABS*	00000000 ch32v30x_dma.c
00000000 l    df *ABS*	00000000 ch32v30x_gpio.c
00000000 l    df *ABS*	00000000 ch32v30x_i2c.c
00000000 l    df *ABS*	00000000 ch32v30x_misc.c
00000000 l    df *ABS*	00000000 ch32v30x_rcc.c
20000010 l     O .data	00000010 APBAHBPrescTable
200000e8 l     O .data	00000004 ADCPrescTable
00000000 l    df *ABS*	00000000 ch32v30x_tim.c
00000000 l    df *ABS*	00000000 ch32v30x_usart.c
00000000 l    df *ABS*	00000000 inv_mpu.c
00002404 l     F .text	0000037e get_st_biases
00002782 l     F .text	00000058 set_int_enable
20000020 l     O .data	00000009 gyro_orientation
2000002c l     O .data	0000002c st
00000000 l    df *ABS*	00000000 inv_mpu_dmp_motion_driver.c
000039c4 l     F .text	00000032 dmp_enable_gyro_cal.part.0
0000b878 l     O .text	00000bf6 dmp_memory
20000428 l     O .bss	00000010 dmp
00000000 l    df *ABS*	00000000 BMP280.c
00000000 l    df *ABS*	00000000 MPU6050.c
00004768 l     F .text	0000001e MPU6050_WriteByte
00000000 l    df *ABS*	00000000 MyI2C.c
00000000 l    df *ABS*	00000000 adc.c
00000000 l    df *ABS*	00000000 bsp_filter.c
00000000 l    df *ABS*	00000000 gpio.c
00000000 l    df *ABS*	00000000 pwm.c
00000000 l    df *ABS*	00000000 tim.c
00000000 l    df *ABS*	00000000 uart.c
00000000 l    df *ABS*	00000000 CRC.c
00000000 l    df *ABS*	00000000 CRSF.c
00000000 l    df *ABS*	00000000 pid.c
00000000 l    df *ABS*	00000000 system.c
00000000 l    df *ABS*	00000000 heap_4.c
000055de l     F .text	0000004c prvInsertBlockIntoFreeList
200005dc l     O .bss	00004000 ucHeap
20000124 l     O .bss	00000004 pxEnd
20000128 l     O .bss	00000004 xBlockAllocatedBit
2000012c l     O .bss	00000004 xFreeBytesRemaining
20000130 l     O .bss	00000004 xMinimumEverFreeBytesRemaining
20000134 l     O .bss	00000004 xNumberOfSuccessfulAllocations
20000138 l     O .bss	00000004 xNumberOfSuccessfulFrees
2000013c l     O .bss	00000008 xStart
00000000 l    df *ABS*	00000000 port.c
200000f0 l     O .data	00000004 uxCriticalNesting
00000000 l    df *ABS*	00000000 list.c
00000000 l    df *ABS*	00000000 queue.c
00005a2a l     F .text	0000001e prvIsQueueEmpty
00005a48 l     F .text	00000028 prvCopyDataFromQueue
00005a70 l     F .text	00000076 prvUnlockQueue
00000000 l    df *ABS*	00000000 tasks.c
00005e40 l     F .text	00000024 prvResetNextTaskUnblockTime
00005e64 l     F .text	000000a6 prvAddCurrentTaskToDelayedList
00005f0a l     F .text	00000052 prvIdleTask
2000461c l     O .bss	00000078 pxReadyTasksLists
20004694 l     O .bss	00000014 xDelayedTaskList1
200046a8 l     O .bss	00000014 xDelayedTaskList2
200046bc l     O .bss	00000014 xPendingReadyList
200046d0 l     O .bss	00000014 xSuspendedTaskList
200046e4 l     O .bss	00000014 xTasksWaitingTermination
20000148 l     O .bss	00000004 pxDelayedTaskList
2000014c l     O .bss	00000004 pxOverflowDelayedTaskList
20000150 l     O .bss	00000004 uxCurrentNumberOfTasks
20000154 l     O .bss	00000004 uxDeletedTasksWaitingCleanUp
20000158 l     O .bss	00000004 uxSchedulerSuspended
2000015c l     O .bss	00000004 uxTaskNumber
20000160 l     O .bss	00000004 uxTopReadyPriority
20000164 l     O .bss	00000004 xIdleTaskHandle
20000168 l     O .bss	00000004 xNextTaskUnblockTime
2000016c l     O .bss	00000004 xNumOfOverflows
20000170 l     O .bss	00000004 xPendedTicks
20000174 l     O .bss	00000004 xSchedulerRunning
20000178 l     O .bss	00000004 xTickCount
2000017c l     O .bss	00000004 xYieldPending
00000000 l    df *ABS*	00000000 timers.c
000068f6 l     F .text	00000066 prvCheckForValidListAndQueue
0000695c l     F .text	00000046 prvInsertTimerInActiveList
000069a2 l     F .text	0000002a prvReloadTimer
000069cc l     F .text	00000046 prvProcessExpiredTimer
00006a12 l     F .text	00000030 prvSwitchTimerLists
00006a42 l     F .text	00000198 prvTimerTask
200046f8 l     O .bss	00000014 xActiveTimerList1
2000470c l     O .bss	00000014 xActiveTimerList2
20000180 l     O .bss	00000004 pxCurrentTimerList
20000184 l     O .bss	00000004 pxOverflowTimerList
20000188 l     O .bss	00000004 xLastTime.6265
2000018c l     O .bss	00000004 xTimerQueue
20000190 l     O .bss	00000004 xTimerTaskHandle
00000000 l    df *ABS*	00000000 debug.c
20000194 l     O .bss	00000002 p_ms
20000196 l     O .bss	00000001 p_us
00000000 l    df *ABS*	00000000 wf_asin.c
00000000 l    df *ABS*	00000000 wf_atan2.c
00000000 l    df *ABS*	00000000 ef_asin.c
00000000 l    df *ABS*	00000000 ef_atan2.c
00000000 l    df *ABS*	00000000 ef_sqrt.c
00000000 l    df *ABS*	00000000 s_matherr.c
00000000 l    df *ABS*	00000000 s_nan.c
00000000 l    df *ABS*	00000000 sf_atan.c
0000c678 l     O .text	00000010 atanhi
0000c688 l     O .text	00000010 atanlo
00000000 l    df *ABS*	00000000 sf_fabs.c
00000000 l    df *ABS*	00000000 printfloat.c
00000000 l    df *ABS*	00000000 libgcc2.c
00000000 l    df *ABS*	00000000 libgcc2.c
00000000 l    df *ABS*	00000000 libgcc2.c
00000000 l    df *ABS*	00000000 adddf3.c
00000000 l    df *ABS*	00000000 ledf2.c
00000000 l    df *ABS*	00000000 muldf3.c
00000000 l    df *ABS*	00000000 subdf3.c
00000000 l    df *ABS*	00000000 fixunsdfsi.c
00000000 l    df *ABS*	00000000 floatsidf.c
00000000 l    df *ABS*	00000000 fixdfdi.c
00000000 l    df *ABS*	00000000 floatdidf.c
00000000 l    df *ABS*	00000000 addsf3.c
00000000 l    df *ABS*	00000000 divsf3.c
00000000 l    df *ABS*	00000000 eqsf2.c
00000000 l    df *ABS*	00000000 gesf2.c
00000000 l    df *ABS*	00000000 lesf2.c
00000000 l    df *ABS*	00000000 mulsf3.c
00000000 l    df *ABS*	00000000 subsf3.c
00000000 l    df *ABS*	00000000 unordsf2.c
00000000 l    df *ABS*	00000000 fixsfsi.c
00000000 l    df *ABS*	00000000 fixunssfsi.c
00000000 l    df *ABS*	00000000 floatsisf.c
00000000 l    df *ABS*	00000000 floatunsisf.c
00000000 l    df *ABS*	00000000 extendsfdf2.c
00000000 l    df *ABS*	00000000 truncdfsf2.c
00000000 l    df *ABS*	00000000 libgcc2.c
00000000 l    df *ABS*	00000000 errno.c
00000000 l    df *ABS*	00000000 memcmp.c
00000000 l    df *ABS*	00000000 memcpy.c
00000000 l    df *ABS*	00000000 libgcc2.c
00000000 l    df *ABS*	00000000 impure.c
20000078 l     O .data	00000060 impure_data
00000000 l    df *ABS*	00000000 s_lib_ver.c
000079f0  w    F .text	00000100 printDouble
000013e8  w      .text	00000000 EXTI2_IRQHandler
000013e8  w      .text	00000000 TIM8_TRG_COM_IRQHandler
000013e8  w      .text	00000000 TIM8_CC_IRQHandler
0000226e g     F .text	00000004 TIM_SetCompare2
0000191a g     F .text	00000014 DMA_Cmd
000013e8  w      .text	00000000 UART8_IRQHandler
000044aa g     F .text	0000003a BMP280_Write_Byte
00007eb6 g     F .text	000003d4 .hidden __divdi3
00002c5a g     F .text	00000098 mpu_read_fifo_stream
00007af0  w    F .text	00000358 print
00005980 g     F .text	00000042 vPortExitCritical
00009f0c g     F .text	000001b6 .hidden __floatdidf
00003fa8 g     F .text	0000003e dmp_set_shake_reject_thresh
200001ac g     O .bss	00000014 MPU6050_para_filted
00007e48  w    F .text	00000024 printf
200008d8 g       .data	00000000 __global_pointer$
000004ee g     F .text	00000028 .hidden __riscv_save_8
20000220 g     O .bss	00000208 control
000013e8  w      .text	00000000 TIM1_CC_IRQHandler
00001c26 g     F .text	00000008 I2C_ReceiveData
000032ae g     F .text	00000080 mpu_set_dmp_state
00001128 g     F .text	00000002 HardFault_Handler
00005de4 g     F .text	0000005c vQueueWaitForMessageRestricted
00003a16 g     F .text	000000fa dmp_set_orientation
0000525e g     F .text	00000038 ShiftRxBuffer
00002950 g     F .text	0000007c mpu_set_gyro_fsr
00002e18 g     F .text	000000a8 mpu_lp_accel_mode
000077dc  w    F .text	000000f2 printInt
00003d04 g     F .text	00000056 dmp_set_fifo_rate
00001528 g     F .text	00000012 ADC_DMACmd
0000053a g     F .text	0000000c .hidden __riscv_restore_3
000013e8  w      .text	00000000 TIM6_IRQHandler
0000a42c g     F .text	000002b2 .hidden __divsf3
00002222 g     F .text	0000000e TIM_OC1PreloadConfig
000029cc g     F .text	00000046 mpu_get_accel_fsr
00005932 g     F .text	00000038 SysTick_Handler
0000154c g     F .text	0000000a ADC_StartCalibration
0000b834 g     O .text	0000001b reg
00001c92 g     F .text	000000aa NVIC_Init
000013e8  w      .text	00000000 PVD_IRQHandler
000013e8  w      .text	00000000 SDIO_IRQHandler
00002dbc g     F .text	0000005c mpu_set_int_latched
000013e8  w      .text	00000000 TIM9_BRK_IRQHandler
00000526 g     F .text	00000020 .hidden __riscv_restore_10
000006b6 g     F .text	00000028 IMU_task
00000d02 g     F .text	0000018e Flight_control
00000ef8 g     F .text	0000009c control_handle_task
000013e8  w      .text	00000000 DMA2_Channel8_IRQHandler
00001124 g     F .text	00000004 NMI_Handler
0000aea4 g     F .text	00000062 .hidden __fixsfsi
000013e8  w      .text	00000000 CAN2_RX1_IRQHandler
000013e8  w      .text	00000000 EXTI3_IRQHandler
000004ee g     F .text	00000028 .hidden __riscv_save_11
00000c00 g     F .text	0000003a Yaw_innerloop_ctr
0000b374 g     F .text	00000008 __errno
00000b32 g     F .text	0000002c ELRS_Convert_flight_mode
20000144 g     O .bss	00000004 pxCurrentTCB
000013e8  w      .text	00000000 USBHS_IRQHandler
200000dc g     O .data	00000004 Motor_speed_set
00003142 g     F .text	00000062 mpu_write_mem
000023b2 g     F .text	0000000a USART_GetFlagStatus
000013e8  w      .text	00000000 DMA2_Channel9_IRQHandler
000013e8  w      .text	00000000 TIM10_CC_IRQHandler
20000108 g       .bss	00000000 _sbss
00000800 g       *ABS*	00000000 __stack_size
00004ab8 g     F .text	0000003c MyI2C_Init
00005188 g     F .text	00000050 UART_RxCpltCallback
00002ad0 g     F .text	0000007e mpu_set_lpf
00006cdc g     F .text	0000005a USART_Printf_Init
000018e2 g     F .text	00000038 DMA_Init
0000aae0 g     F .text	00000388 .hidden __subsf3
00004f0e g     F .text	0000004e PWM_Init
000013e8  w      .text	00000000 USBFS_IRQHandler
000067ee g     F .text	00000016 vTaskInternalSetTimeOutState
0000053a g     F .text	0000000c .hidden __riscv_restore_2
00002bb4 g     F .text	0000004e mpu_get_accel_sens
00005474 g     F .text	0000001c pid_reset
00002f5a g     F .text	000000b8 mpu_set_sensors
000058a2 g     F .text	00000090 xPortStartScheduler
000021f2 g     F .text	00000016 TIM_CtrlPWMOutputs
0000b3a0 g     F .text	000000b2 memcpy
00006644 g     F .text	00000048 vTaskPlaceOnEventList
00001518 g     F .text	00000010 ADC_Cmd
00001a06 g     F .text	000000c4 GPIO_PinRemapConfig
00005868  w    F .text	0000003a vPortSetupTimerInterrupt
00009dde g     F .text	00000072 .hidden __floatsidf
000078ce  w    F .text	00000122 printLongLongInt
000090d6 g     F .text	000000b6 .hidden __ltdf2
000013e8  w      .text	00000000 EXTI0_IRQHandler
000013e8  w      .text	00000000 I2C2_EV_IRQHandler
000013e8  w      .text	00000000 TIM10_TRG_COM_IRQHandler
2000011c g     O .bss	00000002 Calibrattion_Val
000021da g     F .text	00000018 TIM_Cmd
00007e6c  w    F .text	0000004a puts
000057b6 g     F .text	000000a8 vPortFree
00002254 g     F .text	00000016 TIM_OC4PreloadConfig
200000e4 g     O .data	00000004 SystemCoreClock
20008000 g       .stack	00000000 __freertos_irq_stack_top
000023aa g     F .text	00000008 USART_ReceiveData
0000228e g     F .text	0000000c TIM_ClearFlag
00000004 g       .init	00000000 _einit
00000caa g     F .text	00000020 Check_control_mode
0000a7c0 g     F .text	0000008c .hidden __lesf2
00001e72 g     F .text	0000001e RCC_APB2PeriphClockCmd
00009d82 g     F .text	0000005c .hidden __fixunsdfsi
000004e6 g     F .text	00000030 .hidden __riscv_save_12
00002284 g     F .text	00000004 TIM_GetCapture3
000013e8  w      .text	00000000 CAN2_SCE_IRQHandler
000013e8  w      .text	00000000 ADC1_2_IRQHandler
00004a56 g     F .text	00000020 MyI2C_W_SCL
0000192e g     F .text	000000c0 GPIO_Init
00003f2a g     F .text	0000002e dmp_set_tap_count
00001d3c g     F .text	00000012 RCC_ADCCLKConfig
000013e8  w      .text	00000000 Break_Point_Handler
00000526 g     F .text	00000020 .hidden __riscv_restore_11
20000118 g     O .bss	00000004 NVIC_Priority_Group
000013e8  w      .text	00000000 SPI1_IRQHandler
0000153a g     F .text	0000000a ADC_ResetCalibration
00002356 g     F .text	00000016 USART_Cmd
0000227c g     F .text	00000004 TIM_GetCapture1
00005024 g     F .text	00000094 Motor_ctr_SOFT_START
000013e8  w      .text	00000000 TAMPER_IRQHandler
00000516 g     F .text	0000000c .hidden __riscv_save_1
00004dce g     F .text	00000044 LED_Init
0000053a g     F .text	0000000c .hidden __riscv_restore_0
000076ac g     F .text	00000006 fabsf
000020a6 g     F .text	000000ac TIM_OC3Init
000059d6 g     F .text	00000006 vListInitialiseItem
000004fc g     F .text	0000001a .hidden __riscv_save_7
0000088e g     F .text	0000000e Print_status_task
00005c18 g     F .text	00000160 xQueueReceive
000013e8  w      .text	00000000 CAN2_RX0_IRQHandler
200045dc g     O .bss	00000040 xQueueRegistry
00000c72 g     F .text	00000038 Pitch_innerloop_ctr
0000b0f0 g     F .text	000000ac .hidden __extendsfdf2
000013e8  w      .text	00000000 TIM8_UP_IRQHandler
20000114 g     O .bss	00000004 PrintTask_Handler
00001088 g     F .text	0000009c RTOS_init
00001e90 g     F .text	0000001e RCC_APB1PeriphClockCmd
000089a6 g     F .text	00000730 .hidden __adddf3
0000a6de g     F .text	0000005c .hidden __nesf2
000013e8  w      .text	00000000 Ecall_M_Mode_Handler
20007800 g       .stack	00000000 _heap_end
20000120 g     O .bss	00000002 TxBuf
0000861c g     F .text	0000038a .hidden __umoddi3
0000370a g     F .text	00000030 inv_row_2_scale
200000f8 g     O .data	00000004 __fdlib_version
00006c68 g     F .text	0000003a Delay_Us
00000530 g     F .text	00000016 .hidden __riscv_restore_5
00003808 g     F .text	000001bc mpu_dmp_get_data
00002912 g     F .text	0000003e mpu_get_gyro_fsr
000013e8  w      .text	00000000 DMA2_Channel2_IRQHandler
00001e54 g     F .text	0000001e RCC_AHBPeriphClockCmd
0000828a g     F .text	00000392 .hidden __udivdi3
00004b2e g     F .text	00000030 MyI2C_SendByte
000013e8  w      .text	00000000 DMA1_Channel4_IRQHandler
00001576 g     F .text	000000b8 ADC_RegularChannelConfig
00001c22 g     F .text	00000004 I2C_SendData
0000562a g     F .text	0000018c pvPortMalloc
00003206 g     F .text	000000a8 mpu_load_firmware
000059c2 g     F .text	00000014 vListInitialise
00001aca g     F .text	000000f2 I2C_Init
000013e8  w      .text	00000000 TIM9_UP_IRQHandler
00000530 g     F .text	00000016 .hidden __riscv_restore_6
000013e8  w      .text	00000000 USART3_IRQHandler
00006226 g     F .text	0000000a xTaskGetTickCount
00002cf2 g     F .text	000000ca mpu_set_bypass
00000b94 g     F .text	00000036 Roll_innerloop_ctr
000013e8  w      .text	00000000 RTC_IRQHandler
00001556 g     F .text	00000008 ADC_GetCalibrationStatus
20004720 g       .bss	00000000 _ebss
000023c8 g     F .text	0000003c USART_GetITStatus
000013e8  w      .text	00000000 DMA1_Channel7_IRQHandler
00001f76 g     F .text	00000082 TIM_OC1Init
0000155e g     F .text	00000018 ADC_SoftwareStartConvCmd
00002246 g     F .text	0000000e TIM_OC3PreloadConfig
00001544 g     F .text	00000008 ADC_GetResetCalibrationStatus
000040cc g     F .text	000001d6 dmp_enable_feature
0000540e g     F .text	00000066 HandleByteReceived
000013e8  w      .text	00000000 CAN1_RX1_IRQHandler
00006c3a g     F .text	0000002e Delay_Init
000013e8  w      .text	00000000 DVP_IRQHandler
000013e8  w      .text	00000000 UART5_IRQHandler
0000a73a g     F .text	00000086 .hidden __gtsf2
00006702 g     F .text	000000ec xTaskRemoveFromEventList
00004e12 g     F .text	000000fc TIM9_PWMOut_Init
000019f8 g     F .text	00000004 GPIO_SetBits
0000332e g     F .text	00000352 mpu_run_self_test
000050ca g     F .text	00000012 TIM4_IRQHandler
000090d6 g     F .text	000000b6 .hidden __ledf2
00002208 g     F .text	0000001a TIM_ARRPreloadConfig
000004ee g     F .text	00000028 .hidden __riscv_save_9
000019fc g     F .text	0000000a GPIO_WriteBit
000013e8  w      .text	00000000 DMA2_Channel1_IRQHandler
20000198 g     O .bss	00000014 MPU6050_para
00006e34 g     F .text	00000370 __ieee754_asinf
00001bd4 g     F .text	0000001a I2C_GenerateSTART
20000068 g     O .data	00000010 pid_func
000004fc g     F .text	0000001a .hidden __riscv_save_4
000013e8  w      .text	00000000 I2C1_EV_IRQHandler
20000100 g     O .data	00000004 xISRStackTop
0000112a g     F .text	00000034 GPIO_Toggle_INIT
00000ad4 g     F .text	00000048 ELRS_Convert_throttle
000054c8 g     F .text	000000e4 pid_calc
00001d4e g     F .text	00000106 RCC_GetClocksFreq
00003b10 g     F .text	000000f8 dmp_set_gyro_bias
000013e8  w      .text	00000000 DMA1_Channel6_IRQHandler
00000b1c g     F .text	00000016 ELRS_Convert_lock
0000b306 g     F .text	0000006e .hidden __clzsi2
000013e8  w      .text	00000000 UART4_IRQHandler
000013e8  w      .text	00000000 DMA2_Channel4_IRQHandler
00004b14 g     F .text	0000001a MyI2C_Stop
0000229a g     F .text	000000bc USART_Init
00006804 g     F .text	000000ca xTaskCheckForTimeOut
000050b8 g     F .text	00000012 TIM3_IRQHandler
000013e8  w      .text	00000000 RCC_IRQHandler
00004a96 g     F .text	00000022 MyI2C_R_SDA
00000516 g     F .text	0000000c .hidden __riscv_save_3
000013e8  w      .text	00000000 TIM1_TRG_COM_IRQHandler
000005ee g     F .text	0000006a load_filter_data
0000b850 g     O .text	00000028 test
00002b68 g     F .text	0000004c mpu_get_gyro_sens
000013e8  w      .text	00000000 DMA1_Channel1_IRQHandler
00000000 g       .init	00000000 _start
000013e8  w      .text	00000000 DMA2_Channel7_IRQHandler
00006216 g     F .text	00000010 vTaskSuspendAll
20000000 g     O .data	00000010 AHBPrescTable
00001c56 g     F .text	00000032 I2C_GetFlagStatus
00003ee4 g     F .text	00000046 dmp_set_tap_axes
000031a4 g     F .text	00000062 mpu_read_mem
00002230 g     F .text	00000016 TIM_OC2PreloadConfig
0000af5c g     F .text	000000c6 .hidden __floatsisf
000076fc  w    F .text	000000e0 prints
00005a0a g     F .text	00000020 uxListRemove
000013e8  w      .text	00000000 EXTI15_10_IRQHandler
00002a12 g     F .text	00000074 mpu_set_accel_fsr
20000058 g     O .data	00000010 Motor_pos
00001ff8 g     F .text	000000ae TIM_OC2Init
0000236c g     F .text	00000036 USART_ITConfig
00000ec8 g     F .text	00000030 Stop_motor
200001c0 g     O .bss	00000060 gyro_filter
0000a6de g     F .text	0000005c .hidden __eqsf2
2000010c g     O .bss	00000004 IMU_Task_Handler
200000d8 g     O .data	00000004 IMU_IO_STATUS
000065aa g     F .text	0000009a vTaskSwitchContext
00001bbc g     F .text	00000018 I2C_Cmd
0000668c g     F .text	00000076 vTaskPlaceOnEventListRestricted
000013e8  w      .text	00000000 TIM7_IRQHandler
000013e8  w      .text	00000000 CAN2_TX_IRQHandler
20000000 g       .dalign	00000000 _data_vma
00000e90 g     F .text	00000038 control_para_init
000050dc g     F .text	000000ac USARTx_CFG
20000122 g     O .bss	00000001 RxBuf_Index
000013e8  w      .text	00000000 TIM5_IRQHandler
00002272 g     F .text	00000004 TIM_SetCompare3
0000b37c g     F .text	00000024 memcmp
00000f94 g     F .text	000000f4 Motor_sort_start
00002152 g     F .text	00000088 TIM_OC4Init
20000550 g     O .bss	00000040 CrsfChannels
000042a2 g     F .text	000001c4 dmp_read_fifo
000013e8  w      .text	00000000 EXTI9_5_IRQHandler
20000590 g     O .bss	0000000a LinkStatistics
0000918c g     F .text	000004b8 .hidden __muldf3
000004ee g     F .text	00000028 .hidden __riscv_save_10
00001c2e g     F .text	00000012 I2C_Send7bitAddress
000013e8  w      .text	00000000 ETH_WKUP_IRQHandler
00004098 g     F .text	00000034 dmp_enable_6x_lp_quat
00000530 g     F .text	00000016 .hidden __riscv_restore_4
00000526 g     F .text	00000020 .hidden __riscv_restore_8
00000b5e g     F .text	00000036 Roll_outerloop_ctr
000004fc g     F .text	0000001a .hidden __riscv_save_6
00004d50 g     F .text	00000052 FilterSample
000013e8  w      .text	00000000 SPI2_IRQHandler
00000546 g     F .text	000000a8 memset
00007336 g     F .text	000000dc __ieee754_sqrtf
00004c90 g     F .text	00000060 DMA_Tx_Init
00003680 g     F .text	00000002 mget_ms
00000526 g     F .text	00000020 .hidden __riscv_restore_9
00000530 g     F .text	00000016 .hidden __riscv_restore_7
0000115e g     F .text	00000066 main
00003682 g     F .text	00000088 run_self_test
000013e8  w      .text	00000000 TIM10_BRK_IRQHandler
0000489c g     F .text	0000012e MPU6050_I2C_Mem_Read
0000a7c0 g     F .text	0000008c .hidden __ltsf2
000013e8  w      .text	00000000 TIM9_CC_IRQHandler
000059dc g     F .text	0000002e vListInsert
000055ac g     F .text	00000032 System_Init
00003d5a g     F .text	0000018a dmp_set_tap_thresh
00007412 g     F .text	00000004 matherr
000013e8  w      .text	00000000 DMA2_Channel5_IRQHandler
00006bda g     F .text	00000060 xTimerCreateTimerTask
0000b19c g     F .text	0000016a .hidden __truncdfsf2
00004da2 g     F .text	0000002c FilterAverage
00004af4 g     F .text	00000020 MyI2C_Start
00004b5e g     F .text	00000040 MyI2C_ReceiveByte
000054aa g     F .text	0000001e pid_clc
00001646 g     F .text	00000130 Get_CalibrationValue
000013e8  w      .text	00000000 DMA1_Channel5_IRQHandler
00004036 g     F .text	0000002e dmp_enable_gyro_cal
000013e8  w      .text	00000000 EXTI4_IRQHandler
00006ca2 g     F .text	0000003a Delay_Ms
00005baa g     F .text	0000006e xQueueGenericCreate
000013e8  w      .text	00000000 USB_LP_CAN1_RX0_IRQHandler
000006de g     F .text	000001b0 String_print
0000a84c g     F .text	00000294 .hidden __mulsf3
00004a06 g     F .text	00000050 MPU6050_MPU_DMP_GetData
20000108 g     O .bss	00000004 Control_task_Handler
00002276 g     F .text	00000006 TIM_SetCompare4
00004f5c g     F .text	000000c8 Motor_ctr
0000162e g     F .text	00000018 ADC_BufferCmd
00002280 g     F .text	00000004 TIM_GetCapture2
00004cf0 g     F .text	00000060 BAT_ADC_Init
00005296 g     F .text	00000112 PacketChannelsPacked
000023bc g     F .text	0000000c USART_ClearFlag
000011c4 g     F .text	000000fa SystemInit
0000b734 g     O .text	0000000c hw
000013e8  w      .text	00000000 RNG_IRQHandler
00000bca g     F .text	00000036 Yaw_outerloop_ctr
000039f6 g     F .text	00000020 dmp_load_motion_driver_firmware
000076b2  w    F .text	0000004a printchar
200000e0 g     O .data	00000004 last_RC_lock_state
000063dc g     F .text	00000168 xTaskResumeAll
00004466 g     F .text	00000044 BMP280_Read_Byte
200000f4 g     O .data	00000004 uxTopUsedPriority
000013e8  w      .text	00000000 USB_HP_CAN1_TX_IRQHandler
0000c7a0 g     O .text	00000100 .hidden __clz_tab
00006184 g     F .text	00000092 vTaskStartScheduler
000053d6 g     F .text	00000038 ProcessPacketIn
00000000 g       .init	00000000 _sinit
00009e50 g     F .text	000000bc .hidden __fixdfdi
000049ca g     F .text	0000003c MPU6050_Get_Data
0000a73a g     F .text	00000086 .hidden __gesf2
00000300 g       .text	00000000 xPortStartFirstTask
000013e8  w      .text	00000000 DMA1_Channel3_IRQHandler
00002ec0 g     F .text	0000009a mpu_set_sample_rate
00002a86 g     F .text	0000004a mpu_get_lpf
000013e8  w      .text	00000000 ETH_IRQHandler
200000fc g     O .data	00000004 _impure_ptr
00004bc0 g     F .text	000000d0 ADC_Function_Init
000013e8  w      .text	00000000 TIM1_UP_IRQHandler
00006e32 g     F .text	00000002 atan2f
000013e8  w      .text	00000000 WWDG_IRQHandler
2000059c g     O .bss	00000040 RxBuf
000013e8  w      .text	00000000 USBHSWakeup_IRQHandler
00004528 g     F .text	00000174 Bmp_Init
000013e8  w      .text	00000000 DMA2_Channel11_IRQHandler
000013e8  w      .text	00000000 Ecall_U_Mode_Handler
000068ce g     F .text	0000000c vTaskMissedYield
000013e8  w      .text	00000000 DMA2_Channel6_IRQHandler
00000a96 g     F .text	0000003e ELRS_Convert_angle
000013e8  w      .text	00000000 TIM2_IRQHandler
20008000 g       .stack	00000000 _eusrstack
00000516 g     F .text	0000000c .hidden __riscv_save_2
00000200 g       .text	00000000 SW_Handler
00005d78 g     F .text	0000006c vQueueAddToRegistry
00004b9e g     F .text	00000022 MyI2C_ReceiveAck
00003012 g     F .text	00000130 mpu_init
20000438 g     O .bss	00000018 bmp280_inst
00007416 g     F .text	0000000e nan
00006230 g     F .text	000001ac xTaskIncrementTick
00003766 g     F .text	000000a2 mpu_dmp_init
0000147c g     F .text	00000046 ADC_DeInit
000053a8 g     F .text	0000002e PacketLinkStatistics
000013e8  w      .text	00000000 TIM1_BRK_IRQHandler
000014c2 g     F .text	00000056 ADC_Init
000023a2 g     F .text	00000008 USART_SendData
000013e8  w      .text	00000000 DMA2_Channel10_IRQHandler
00004a76 g     F .text	00000020 MyI2C_W_SDA
000013e8  w      .text	00000000 EXTI1_IRQHandler
000004fc g     F .text	0000001a .hidden __riscv_save_5
00005ae6 g     F .text	000000c4 xQueueGenericReset
000044e4 g     F .text	00000022 BMP280_Set_TemOversamp
00006d36 g     F .text	0000003e _write
200000ec g     O .data	00000004 bmp280
20000108 g       .data	00000000 _edata
00002288 g     F .text	00000006 TIM_GetCapture4
20004720 g       .bss	00000000 _end
0000ae68 g     F .text	0000003c .hidden __unordsf2
0000373a g     F .text	0000002c inv_orientation_matrix_to_scalar
00001ecc g     F .text	000000aa TIM_TimeBaseInit
000013e8  w      .text	00000000 RTCAlarm_IRQHandler
00004506 g     F .text	00000022 BMP280_Set_Standby_FILTER
00005f5c g     F .text	00000228 xTaskCreate
0000c8a0 g       .dlalign	00000000 _data_lma
000013e8  w      .text	00000000 TIM10_UP_IRQHandler
00005490 g     F .text	0000001a pid_init
000013e8  w      .text	00000000 TIM9_TRG_COM_IRQHandler
000013e8  w      .text	00000000 UART7_IRQHandler
00000c3a g     F .text	00000038 Pitch_outerloop_ctr
000051d8 g     F .text	00000034 USART2_IRQHandler
000013e8  w      .text	00000000 UART6_IRQHandler
00005240 g     F .text	0000001e Calc
0000469c g     F .text	000000cc MPU6050_I2C_Mem_Write
000012be g     F .text	0000012a SystemCoreClockUpdate
0000b022 g     F .text	000000ce .hidden __floatunsisf
00002b4e g     F .text	0000001a mpu_get_sample_rate
00000658 g     F .text	0000005e calc_IMU_filter
000013e8  w      .text	00000000 I2C2_ER_IRQHandler
00006544 g     F .text	00000066 vTaskDelay
000013e8  w      .text	00000000 DMA1_Channel2_IRQHandler
00007424 g     F .text	00000288 atanf
00003f80 g     F .text	00000028 dmp_set_tap_time_multi
00000522 g     F .text	00000024 .hidden __riscv_restore_12
000013e8  w      .text	00000000 TIM8_BRK_IRQHandler
000068da g     F .text	0000001c xTaskGetSchedulerState
000013ea  w      .text	00000000 handle_reset
000013e8  w      .text	00000000 CAN1_SCE_IRQHandler
0000af06 g     F .text	00000056 .hidden __fixunssfsi
000013e8  w      .text	00000000 FLASH_IRQHandler
00000516 g     F .text	0000000c .hidden __riscv_save_0
20000110 g     O .bss	00000004 Motor_SoftStart_Handler
00003c08 g     F .text	000000fc dmp_set_accel_bias
000013e8  w      .text	00000000 USART1_IRQHandler
00004064 g     F .text	00000034 dmp_enable_lp_quat
00001c08 g     F .text	0000001a I2C_AcknowledgeConfig
00004786 g     F .text	00000116 MPU6050_Init
00000400 g       .text	00000000 pxPortInitialiseStack
000013e8  w      .text	00000000 SPI3_IRQHandler
00001c40 g     F .text	00000016 I2C_CheckEvent
00001eae g     F .text	0000001e RCC_APB2PeriphResetCmd
20000450 g     O .bss	00000100 _lut
00001bee g     F .text	0000001a I2C_GenerateSTOP
000013e8  w      .text	00000000 I2C1_ER_IRQHandler
00001c88 g     F .text	0000000a NVIC_PriorityGroupConfig
0000596a g     F .text	00000016 vPortEnterCritical
00001776 g     F .text	0000016c DMA_DeInit
00000cca g     F .text	00000038 Update_ELRS
00006d74 g     F .text	000000be asinf
00003f58 g     F .text	00000028 dmp_set_tap_time
0000400e g     F .text	00000028 dmp_set_shake_reject_timeout
0000053a g     F .text	0000000c .hidden __riscv_restore_1
00003fe6 g     F .text	00000028 dmp_set_shake_reject_time
00009644 g     F .text	0000073e .hidden __subdf3
0000226a g     F .text	00000004 TIM_SetCompare1
000019ee g     F .text	0000000a GPIO_ReadInputDataBit
00002c02 g     F .text	00000058 mpu_configure_fifo
0000a0c2 g     F .text	0000036a .hidden __addsf3
0000520c g     F .text	00000034 Crc_init
000013e8  w      .text	00000000 USBWakeUp_IRQHandler
000027da g     F .text	00000138 mpu_reset_fifo
0000585e g     F .text	0000000a xPortGetMinimumEverFreeHeapSize
0000089c g     F .text	000001fa PIDSTRUCT_Init
000013e8  w      .text	00000000 DMA2_Channel3_IRQHandler
000071a4 g     F .text	00000192 __ieee754_atan2f



Disassembly of section .init:

00000000 <_sinit>:
   0:	3ea0106f          	j	13ea <handle_reset>

Disassembly of section .vector:

00000004 <_vector_base>:
	...
   c:	1124                	addi	s1,sp,168
   e:	0000                	unimp
  10:	1128                	addi	a0,sp,168
  12:	0000                	unimp
  14:	0000                	unimp
  16:	0000                	unimp
  18:	13e8                	addi	a0,sp,492
	...
  22:	0000                	unimp
  24:	13e8                	addi	a0,sp,492
  26:	0000                	unimp
  28:	13e8                	addi	a0,sp,492
	...
  32:	0000                	unimp
  34:	5932                	lw	s2,44(sp)
  36:	0000                	unimp
  38:	0000                	unimp
  3a:	0000                	unimp
  3c:	0200                	addi	s0,sp,256
  3e:	0000                	unimp
  40:	0000                	unimp
  42:	0000                	unimp
  44:	13e8                	addi	a0,sp,492
  46:	0000                	unimp
  48:	13e8                	addi	a0,sp,492
  4a:	0000                	unimp
  4c:	13e8                	addi	a0,sp,492
  4e:	0000                	unimp
  50:	13e8                	addi	a0,sp,492
  52:	0000                	unimp
  54:	13e8                	addi	a0,sp,492
  56:	0000                	unimp
  58:	13e8                	addi	a0,sp,492
  5a:	0000                	unimp
  5c:	13e8                	addi	a0,sp,492
  5e:	0000                	unimp
  60:	13e8                	addi	a0,sp,492
  62:	0000                	unimp
  64:	13e8                	addi	a0,sp,492
  66:	0000                	unimp
  68:	13e8                	addi	a0,sp,492
  6a:	0000                	unimp
  6c:	13e8                	addi	a0,sp,492
  6e:	0000                	unimp
  70:	13e8                	addi	a0,sp,492
  72:	0000                	unimp
  74:	13e8                	addi	a0,sp,492
  76:	0000                	unimp
  78:	13e8                	addi	a0,sp,492
  7a:	0000                	unimp
  7c:	13e8                	addi	a0,sp,492
  7e:	0000                	unimp
  80:	13e8                	addi	a0,sp,492
  82:	0000                	unimp
  84:	13e8                	addi	a0,sp,492
  86:	0000                	unimp
  88:	13e8                	addi	a0,sp,492
  8a:	0000                	unimp
  8c:	13e8                	addi	a0,sp,492
  8e:	0000                	unimp
  90:	13e8                	addi	a0,sp,492
  92:	0000                	unimp
  94:	13e8                	addi	a0,sp,492
  96:	0000                	unimp
  98:	13e8                	addi	a0,sp,492
  9a:	0000                	unimp
  9c:	13e8                	addi	a0,sp,492
  9e:	0000                	unimp
  a0:	13e8                	addi	a0,sp,492
  a2:	0000                	unimp
  a4:	13e8                	addi	a0,sp,492
  a6:	0000                	unimp
  a8:	13e8                	addi	a0,sp,492
  aa:	0000                	unimp
  ac:	13e8                	addi	a0,sp,492
  ae:	0000                	unimp
  b0:	13e8                	addi	a0,sp,492
  b2:	0000                	unimp
  b4:	13e8                	addi	a0,sp,492
  b6:	0000                	unimp
  b8:	50b8                	lw	a4,96(s1)
  ba:	0000                	unimp
  bc:	50ca                	lw	ra,176(sp)
  be:	0000                	unimp
  c0:	13e8                	addi	a0,sp,492
  c2:	0000                	unimp
  c4:	13e8                	addi	a0,sp,492
  c6:	0000                	unimp
  c8:	13e8                	addi	a0,sp,492
  ca:	0000                	unimp
  cc:	13e8                	addi	a0,sp,492
  ce:	0000                	unimp
  d0:	13e8                	addi	a0,sp,492
  d2:	0000                	unimp
  d4:	13e8                	addi	a0,sp,492
  d6:	0000                	unimp
  d8:	13e8                	addi	a0,sp,492
  da:	0000                	unimp
  dc:	51d8                	lw	a4,36(a1)
  de:	0000                	unimp
  e0:	13e8                	addi	a0,sp,492
  e2:	0000                	unimp
  e4:	13e8                	addi	a0,sp,492
  e6:	0000                	unimp
  e8:	13e8                	addi	a0,sp,492
  ea:	0000                	unimp
  ec:	13e8                	addi	a0,sp,492
  ee:	0000                	unimp
  f0:	13e8                	addi	a0,sp,492
  f2:	0000                	unimp
  f4:	13e8                	addi	a0,sp,492
  f6:	0000                	unimp
  f8:	13e8                	addi	a0,sp,492
  fa:	0000                	unimp
  fc:	13e8                	addi	a0,sp,492
  fe:	0000                	unimp
 100:	13e8                	addi	a0,sp,492
 102:	0000                	unimp
 104:	0000                	unimp
 106:	0000                	unimp
 108:	13e8                	addi	a0,sp,492
 10a:	0000                	unimp
 10c:	13e8                	addi	a0,sp,492
 10e:	0000                	unimp
 110:	13e8                	addi	a0,sp,492
 112:	0000                	unimp
 114:	13e8                	addi	a0,sp,492
 116:	0000                	unimp
 118:	13e8                	addi	a0,sp,492
 11a:	0000                	unimp
 11c:	13e8                	addi	a0,sp,492
 11e:	0000                	unimp
 120:	13e8                	addi	a0,sp,492
 122:	0000                	unimp
 124:	13e8                	addi	a0,sp,492
 126:	0000                	unimp
 128:	13e8                	addi	a0,sp,492
 12a:	0000                	unimp
 12c:	13e8                	addi	a0,sp,492
 12e:	0000                	unimp
 130:	13e8                	addi	a0,sp,492
 132:	0000                	unimp
 134:	13e8                	addi	a0,sp,492
 136:	0000                	unimp
 138:	13e8                	addi	a0,sp,492
 13a:	0000                	unimp
 13c:	13e8                	addi	a0,sp,492
 13e:	0000                	unimp
 140:	13e8                	addi	a0,sp,492
 142:	0000                	unimp
 144:	13e8                	addi	a0,sp,492
 146:	0000                	unimp
 148:	13e8                	addi	a0,sp,492
 14a:	0000                	unimp
 14c:	13e8                	addi	a0,sp,492
 14e:	0000                	unimp
 150:	13e8                	addi	a0,sp,492
 152:	0000                	unimp
 154:	13e8                	addi	a0,sp,492
 156:	0000                	unimp
 158:	13e8                	addi	a0,sp,492
 15a:	0000                	unimp
 15c:	13e8                	addi	a0,sp,492
 15e:	0000                	unimp
 160:	13e8                	addi	a0,sp,492
 162:	0000                	unimp
 164:	13e8                	addi	a0,sp,492
 166:	0000                	unimp
 168:	13e8                	addi	a0,sp,492
 16a:	0000                	unimp
 16c:	13e8                	addi	a0,sp,492
 16e:	0000                	unimp
 170:	13e8                	addi	a0,sp,492
 172:	0000                	unimp
 174:	13e8                	addi	a0,sp,492
 176:	0000                	unimp
 178:	13e8                	addi	a0,sp,492
 17a:	0000                	unimp
 17c:	13e8                	addi	a0,sp,492
 17e:	0000                	unimp
 180:	13e8                	addi	a0,sp,492
 182:	0000                	unimp
 184:	13e8                	addi	a0,sp,492
 186:	0000                	unimp
 188:	13e8                	addi	a0,sp,492
 18a:	0000                	unimp
 18c:	13e8                	addi	a0,sp,492
 18e:	0000                	unimp
 190:	13e8                	addi	a0,sp,492
 192:	0000                	unimp
 194:	13e8                	addi	a0,sp,492
 196:	0000                	unimp
 198:	13e8                	addi	a0,sp,492
 19a:	0000                	unimp
 19c:	13e8                	addi	a0,sp,492
 19e:	0000                	unimp
 1a0:	13e8                	addi	a0,sp,492
	...

Disassembly of section .text:

00000200 <SW_Handler>:
     200:	f8810113          	addi	sp,sp,-120
     204:	c206                	sw	ra,4(sp)
     206:	c416                	sw	t0,8(sp)
     208:	c61a                	sw	t1,12(sp)
     20a:	c81e                	sw	t2,16(sp)
     20c:	ca22                	sw	s0,20(sp)
     20e:	cc26                	sw	s1,24(sp)
     210:	ce2a                	sw	a0,28(sp)
     212:	d02e                	sw	a1,32(sp)
     214:	d232                	sw	a2,36(sp)
     216:	d436                	sw	a3,40(sp)
     218:	d63a                	sw	a4,44(sp)
     21a:	d83e                	sw	a5,48(sp)
     21c:	da42                	sw	a6,52(sp)
     21e:	dc46                	sw	a7,56(sp)
     220:	de4a                	sw	s2,60(sp)
     222:	c0ce                	sw	s3,64(sp)
     224:	c2d2                	sw	s4,68(sp)
     226:	c4d6                	sw	s5,72(sp)
     228:	c6da                	sw	s6,76(sp)
     22a:	c8de                	sw	s7,80(sp)
     22c:	cae2                	sw	s8,84(sp)
     22e:	cce6                	sw	s9,88(sp)
     230:	ceea                	sw	s10,92(sp)
     232:	d0ee                	sw	s11,96(sp)
     234:	d2f2                	sw	t3,100(sp)
     236:	d4f6                	sw	t4,104(sp)
     238:	d6fa                	sw	t5,108(sp)
     23a:	d8fe                	sw	t6,112(sp)
     23c:	300022f3          	csrr	t0,mstatus
     240:	da96                	sw	t0,116(sp)
     242:	20000297          	auipc	t0,0x20000
     246:	f022a283          	lw	t0,-254(t0) # 20000144 <pxCurrentTCB>
     24a:	0022a023          	sw	sp,0(t0)
     24e:	341025f3          	csrr	a1,mepc
     252:	c02e                	sw	a1,0(sp)
     254:	02000593          	li	a1,32
     258:	8045a073          	csrs	0x804,a1
     25c:	8281a103          	lw	sp,-2008(gp) # 20000100 <xISRStackTop>
     260:	34a060ef          	jal	ra,65aa <vTaskSwitchContext>

00000264 <processed_source>:
     264:	20000317          	auipc	t1,0x20000
     268:	ee032303          	lw	t1,-288(t1) # 20000144 <pxCurrentTCB>
     26c:	00032103          	lw	sp,0(t1)
     270:	4282                	lw	t0,0(sp)
     272:	34129073          	csrw	mepc,t0
     276:	52d6                	lw	t0,116(sp)
     278:	30029073          	csrw	mstatus,t0
     27c:	4092                	lw	ra,4(sp)
     27e:	42a2                	lw	t0,8(sp)
     280:	4332                	lw	t1,12(sp)
     282:	43c2                	lw	t2,16(sp)
     284:	4452                	lw	s0,20(sp)
     286:	44e2                	lw	s1,24(sp)
     288:	4572                	lw	a0,28(sp)
     28a:	5582                	lw	a1,32(sp)
     28c:	5612                	lw	a2,36(sp)
     28e:	56a2                	lw	a3,40(sp)
     290:	5732                	lw	a4,44(sp)
     292:	57c2                	lw	a5,48(sp)
     294:	5852                	lw	a6,52(sp)
     296:	58e2                	lw	a7,56(sp)
     298:	5972                	lw	s2,60(sp)
     29a:	4986                	lw	s3,64(sp)
     29c:	4a16                	lw	s4,68(sp)
     29e:	4aa6                	lw	s5,72(sp)
     2a0:	4b36                	lw	s6,76(sp)
     2a2:	4bc6                	lw	s7,80(sp)
     2a4:	4c56                	lw	s8,84(sp)
     2a6:	4ce6                	lw	s9,88(sp)
     2a8:	4d76                	lw	s10,92(sp)
     2aa:	5d86                	lw	s11,96(sp)
     2ac:	5e16                	lw	t3,100(sp)
     2ae:	5ea6                	lw	t4,104(sp)
     2b0:	5f36                	lw	t5,108(sp)
     2b2:	5fc6                	lw	t6,112(sp)
     2b4:	07810113          	addi	sp,sp,120
     2b8:	30200073          	mret
     2bc:	00000013          	nop
     2c0:	00000013          	nop
     2c4:	00000013          	nop
     2c8:	00000013          	nop
     2cc:	00000013          	nop
     2d0:	00000013          	nop
     2d4:	00000013          	nop
     2d8:	00000013          	nop
     2dc:	00000013          	nop
     2e0:	00000013          	nop
     2e4:	00000013          	nop
     2e8:	00000013          	nop
     2ec:	00000013          	nop
     2f0:	00000013          	nop
     2f4:	00000013          	nop
     2f8:	00000013          	nop
     2fc:	00000013          	nop

00000300 <xPortStartFirstTask>:
     300:	8281a283          	lw	t0,-2008(gp) # 20000100 <xISRStackTop>
     304:	e0028293          	addi	t0,t0,-512
     308:	34029073          	csrw	mscratch,t0
     30c:	20000117          	auipc	sp,0x20000
     310:	e3812103          	lw	sp,-456(sp) # 20000144 <pxCurrentTCB>
     314:	4102                	lw	sp,0(sp)
     316:	4082                	lw	ra,0(sp)
     318:	4332                	lw	t1,12(sp)
     31a:	43c2                	lw	t2,16(sp)
     31c:	4452                	lw	s0,20(sp)
     31e:	44e2                	lw	s1,24(sp)
     320:	4572                	lw	a0,28(sp)
     322:	5582                	lw	a1,32(sp)
     324:	5612                	lw	a2,36(sp)
     326:	56a2                	lw	a3,40(sp)
     328:	5732                	lw	a4,44(sp)
     32a:	57c2                	lw	a5,48(sp)
     32c:	5852                	lw	a6,52(sp)
     32e:	58e2                	lw	a7,56(sp)
     330:	5972                	lw	s2,60(sp)
     332:	4986                	lw	s3,64(sp)
     334:	4a16                	lw	s4,68(sp)
     336:	4aa6                	lw	s5,72(sp)
     338:	4b36                	lw	s6,76(sp)
     33a:	4bc6                	lw	s7,80(sp)
     33c:	4c56                	lw	s8,84(sp)
     33e:	4ce6                	lw	s9,88(sp)
     340:	4d76                	lw	s10,92(sp)
     342:	5d86                	lw	s11,96(sp)
     344:	5e16                	lw	t3,100(sp)
     346:	5ea6                	lw	t4,104(sp)
     348:	5f36                	lw	t5,108(sp)
     34a:	5fc6                	lw	t6,112(sp)
     34c:	52d6                	lw	t0,116(sp)
     34e:	02a1                	addi	t0,t0,8
     350:	30029073          	csrw	mstatus,t0
     354:	42a2                	lw	t0,8(sp)
     356:	07810113          	addi	sp,sp,120
     35a:	8082                	ret
     35c:	00000013          	nop
     360:	00000013          	nop
     364:	00000013          	nop
     368:	00000013          	nop
     36c:	00000013          	nop
     370:	00000013          	nop
     374:	00000013          	nop
     378:	00000013          	nop
     37c:	00000013          	nop
     380:	00000013          	nop
     384:	00000013          	nop
     388:	00000013          	nop
     38c:	00000013          	nop
     390:	00000013          	nop
     394:	00000013          	nop
     398:	00000013          	nop
     39c:	00000013          	nop
     3a0:	00000013          	nop
     3a4:	00000013          	nop
     3a8:	00000013          	nop
     3ac:	00000013          	nop
     3b0:	00000013          	nop
     3b4:	00000013          	nop
     3b8:	00000013          	nop
     3bc:	00000013          	nop
     3c0:	00000013          	nop
     3c4:	00000013          	nop
     3c8:	00000013          	nop
     3cc:	00000013          	nop
     3d0:	00000013          	nop
     3d4:	00000013          	nop
     3d8:	00000013          	nop
     3dc:	00000013          	nop
     3e0:	00000013          	nop
     3e4:	00000013          	nop
     3e8:	00000013          	nop
     3ec:	00000013          	nop
     3f0:	00000013          	nop
     3f4:	00000013          	nop
     3f8:	00000013          	nop
     3fc:	00000013          	nop

00000400 <pxPortInitialiseStack>:
     400:	300022f3          	csrr	t0,mstatus
     404:	ff72f293          	andi	t0,t0,-9
     408:	78800313          	li	t1,1928
     40c:	0312                	slli	t1,t1,0x4
     40e:	0062e2b3          	or	t0,t0,t1
     412:	1571                	addi	a0,a0,-4
     414:	00552023          	sw	t0,0(a0)
     418:	fa850513          	addi	a0,a0,-88
     41c:	c110                	sw	a2,0(a0)
     41e:	1521                	addi	a0,a0,-24
     420:	00052023          	sw	zero,0(a0)
     424:	00000293          	li	t0,0

00000428 <chip_specific_stack_frame>:
     428:	00028763          	beqz	t0,436 <chip_specific_stack_frame+0xe>
     42c:	1571                	addi	a0,a0,-4
     42e:	00052023          	sw	zero,0(a0)
     432:	12fd                	addi	t0,t0,-1
     434:	bfd5                	j	428 <chip_specific_stack_frame>
     436:	1571                	addi	a0,a0,-4
     438:	c10c                	sw	a1,0(a0)
     43a:	8082                	ret
	...

000004e6 <__riscv_save_12>:
     4e6:	7139                	addi	sp,sp,-64
     4e8:	4301                	li	t1,0
     4ea:	c66e                	sw	s11,12(sp)
     4ec:	a019                	j	4f2 <__riscv_save_10+0x4>

000004ee <__riscv_save_10>:
     4ee:	7139                	addi	sp,sp,-64
     4f0:	5341                	li	t1,-16
     4f2:	c86a                	sw	s10,16(sp)
     4f4:	ca66                	sw	s9,20(sp)
     4f6:	cc62                	sw	s8,24(sp)
     4f8:	ce5e                	sw	s7,28(sp)
     4fa:	a019                	j	500 <__riscv_save_4+0x4>

000004fc <__riscv_save_4>:
     4fc:	7139                	addi	sp,sp,-64
     4fe:	5301                	li	t1,-32
     500:	d05a                	sw	s6,32(sp)
     502:	d256                	sw	s5,36(sp)
     504:	d452                	sw	s4,40(sp)
     506:	d64e                	sw	s3,44(sp)
     508:	d84a                	sw	s2,48(sp)
     50a:	da26                	sw	s1,52(sp)
     50c:	dc22                	sw	s0,56(sp)
     50e:	de06                	sw	ra,60(sp)
     510:	40610133          	sub	sp,sp,t1
     514:	8282                	jr	t0

00000516 <__riscv_save_0>:
     516:	1141                	addi	sp,sp,-16
     518:	c04a                	sw	s2,0(sp)
     51a:	c226                	sw	s1,4(sp)
     51c:	c422                	sw	s0,8(sp)
     51e:	c606                	sw	ra,12(sp)
     520:	8282                	jr	t0

00000522 <__riscv_restore_12>:
     522:	4db2                	lw	s11,12(sp)
     524:	0141                	addi	sp,sp,16

00000526 <__riscv_restore_10>:
     526:	4d02                	lw	s10,0(sp)
     528:	4c92                	lw	s9,4(sp)
     52a:	4c22                	lw	s8,8(sp)
     52c:	4bb2                	lw	s7,12(sp)
     52e:	0141                	addi	sp,sp,16

00000530 <__riscv_restore_4>:
     530:	4b02                	lw	s6,0(sp)
     532:	4a92                	lw	s5,4(sp)
     534:	4a22                	lw	s4,8(sp)
     536:	49b2                	lw	s3,12(sp)
     538:	0141                	addi	sp,sp,16

0000053a <__riscv_restore_0>:
     53a:	4902                	lw	s2,0(sp)
     53c:	4492                	lw	s1,4(sp)
     53e:	4422                	lw	s0,8(sp)
     540:	40b2                	lw	ra,12(sp)
     542:	0141                	addi	sp,sp,16
     544:	8082                	ret

00000546 <memset>:
     546:	433d                	li	t1,15
     548:	872a                	mv	a4,a0
     54a:	02c37363          	bgeu	t1,a2,570 <memset+0x2a>
     54e:	00f77793          	andi	a5,a4,15
     552:	efbd                	bnez	a5,5d0 <memset+0x8a>
     554:	e5ad                	bnez	a1,5be <memset+0x78>
     556:	ff067693          	andi	a3,a2,-16
     55a:	8a3d                	andi	a2,a2,15
     55c:	96ba                	add	a3,a3,a4
     55e:	c30c                	sw	a1,0(a4)
     560:	c34c                	sw	a1,4(a4)
     562:	c70c                	sw	a1,8(a4)
     564:	c74c                	sw	a1,12(a4)
     566:	0741                	addi	a4,a4,16
     568:	fed76be3          	bltu	a4,a3,55e <memset+0x18>
     56c:	e211                	bnez	a2,570 <memset+0x2a>
     56e:	8082                	ret
     570:	40c306b3          	sub	a3,t1,a2
     574:	068a                	slli	a3,a3,0x2
     576:	00000297          	auipc	t0,0x0
     57a:	9696                	add	a3,a3,t0
     57c:	00a68067          	jr	10(a3)
     580:	00b70723          	sb	a1,14(a4)
     584:	00b706a3          	sb	a1,13(a4)
     588:	00b70623          	sb	a1,12(a4)
     58c:	00b705a3          	sb	a1,11(a4)
     590:	00b70523          	sb	a1,10(a4)
     594:	00b704a3          	sb	a1,9(a4)
     598:	00b70423          	sb	a1,8(a4)
     59c:	00b703a3          	sb	a1,7(a4)
     5a0:	00b70323          	sb	a1,6(a4)
     5a4:	00b702a3          	sb	a1,5(a4)
     5a8:	00b70223          	sb	a1,4(a4)
     5ac:	00b701a3          	sb	a1,3(a4)
     5b0:	00b70123          	sb	a1,2(a4)
     5b4:	00b700a3          	sb	a1,1(a4)
     5b8:	00b70023          	sb	a1,0(a4)
     5bc:	8082                	ret
     5be:	0ff5f593          	andi	a1,a1,255
     5c2:	00859693          	slli	a3,a1,0x8
     5c6:	8dd5                	or	a1,a1,a3
     5c8:	01059693          	slli	a3,a1,0x10
     5cc:	8dd5                	or	a1,a1,a3
     5ce:	b761                	j	556 <memset+0x10>
     5d0:	00279693          	slli	a3,a5,0x2
     5d4:	00000297          	auipc	t0,0x0
     5d8:	9696                	add	a3,a3,t0
     5da:	8286                	mv	t0,ra
     5dc:	fa8680e7          	jalr	-88(a3)
     5e0:	8096                	mv	ra,t0
     5e2:	17c1                	addi	a5,a5,-16
     5e4:	8f1d                	sub	a4,a4,a5
     5e6:	963e                	add	a2,a2,a5
     5e8:	f8c374e3          	bgeu	t1,a2,570 <memset+0x2a>
     5ec:	b7a5                	j	554 <memset+0xe>

000005ee <load_filter_data>:
     5ee:	f29ff2ef          	jal	t0,516 <__riscv_save_0>
     5f2:	20000437          	lui	s0,0x20000
     5f6:	19840413          	addi	s0,s0,408 # 20000198 <MPU6050_para>
     5fa:	400c                	lw	a1,0(s0)
     5fc:	20000537          	lui	a0,0x20000
     600:	1c050493          	addi	s1,a0,448 # 200001c0 <gyro_filter>
     604:	1c050513          	addi	a0,a0,448
     608:	748040ef          	jal	ra,4d50 <FilterSample>
     60c:	404c                	lw	a1,4(s0)
     60e:	01048513          	addi	a0,s1,16
     612:	73e040ef          	jal	ra,4d50 <FilterSample>
     616:	440c                	lw	a1,8(s0)
     618:	02048513          	addi	a0,s1,32
     61c:	734040ef          	jal	ra,4d50 <FilterSample>
     620:	00c41503          	lh	a0,12(s0)
     624:	1390a0ef          	jal	ra,af5c <__floatsisf>
     628:	85aa                	mv	a1,a0
     62a:	03048513          	addi	a0,s1,48
     62e:	722040ef          	jal	ra,4d50 <FilterSample>
     632:	00e41503          	lh	a0,14(s0)
     636:	1270a0ef          	jal	ra,af5c <__floatsisf>
     63a:	85aa                	mv	a1,a0
     63c:	04048513          	addi	a0,s1,64
     640:	710040ef          	jal	ra,4d50 <FilterSample>
     644:	01041503          	lh	a0,16(s0)
     648:	1150a0ef          	jal	ra,af5c <__floatsisf>
     64c:	85aa                	mv	a1,a0
     64e:	05048513          	addi	a0,s1,80
     652:	6fe040ef          	jal	ra,4d50 <FilterSample>
     656:	b5d5                	j	53a <__riscv_restore_0>

00000658 <calc_IMU_filter>:
     658:	ebfff2ef          	jal	t0,516 <__riscv_save_0>
     65c:	20000537          	lui	a0,0x20000
     660:	1c050493          	addi	s1,a0,448 # 200001c0 <gyro_filter>
     664:	20000437          	lui	s0,0x20000
     668:	1c050513          	addi	a0,a0,448
     66c:	1ac40413          	addi	s0,s0,428 # 200001ac <MPU6050_para_filted>
     670:	732040ef          	jal	ra,4da2 <FilterAverage>
     674:	c008                	sw	a0,0(s0)
     676:	02048513          	addi	a0,s1,32
     67a:	728040ef          	jal	ra,4da2 <FilterAverage>
     67e:	c048                	sw	a0,4(s0)
     680:	01048513          	addi	a0,s1,16
     684:	71e040ef          	jal	ra,4da2 <FilterAverage>
     688:	c408                	sw	a0,8(s0)
     68a:	03048513          	addi	a0,s1,48
     68e:	714040ef          	jal	ra,4da2 <FilterAverage>
     692:	0130a0ef          	jal	ra,aea4 <__fixsfsi>
     696:	a44a                	sh	a0,12(s0)
     698:	04048513          	addi	a0,s1,64
     69c:	706040ef          	jal	ra,4da2 <FilterAverage>
     6a0:	0050a0ef          	jal	ra,aea4 <__fixsfsi>
     6a4:	a46a                	sh	a0,14(s0)
     6a6:	05048513          	addi	a0,s1,80
     6aa:	6f8040ef          	jal	ra,4da2 <FilterAverage>
     6ae:	7f60a0ef          	jal	ra,aea4 <__fixsfsi>
     6b2:	a80a                	sh	a0,16(s0)
     6b4:	b559                	j	53a <__riscv_restore_0>

000006b6 <IMU_task>:
     6b6:	e61ff2ef          	jal	t0,516 <__riscv_save_0>
     6ba:	20000437          	lui	s0,0x20000
     6be:	4905                	li	s2,1
     6c0:	0c042c23          	sw	zero,216(s0) # 200000d8 <IMU_IO_STATUS>
     6c4:	342040ef          	jal	ra,4a06 <MPU6050_MPU_DMP_GetData>
     6c8:	0d840493          	addi	s1,s0,216
     6cc:	e119                	bnez	a0,6d2 <IMU_task+0x1c>
     6ce:	3705                	jal	5ee <load_filter_data>
     6d0:	3761                	jal	658 <calc_IMU_filter>
     6d2:	4529                	li	a0,10
     6d4:	0124a023          	sw	s2,0(s1)
     6d8:	66d050ef          	jal	ra,6544 <vTaskDelay>
     6dc:	b7d5                	j	6c0 <IMU_task+0xa>

000006de <String_print>:
     6de:	e39ff2ef          	jal	t0,516 <__riscv_save_0>
     6e2:	17c050ef          	jal	ra,585e <xPortGetMinimumEverFreeHeapSize>
     6e6:	85aa                	mv	a1,a0
     6e8:	0000b537          	lui	a0,0xb
     6ec:	48450513          	addi	a0,a0,1156 # b484 <memcpy+0xe4>
     6f0:	758070ef          	jal	ra,7e48 <printf>
     6f4:	20000437          	lui	s0,0x20000
     6f8:	1ac42503          	lw	a0,428(s0) # 200001ac <MPU6050_para_filted>
     6fc:	1ac40413          	addi	s0,s0,428
     700:	40015937          	lui	s2,0x40015
     704:	1ed0a0ef          	jal	ra,b0f0 <__extendsfdf2>
     708:	862a                	mv	a2,a0
     70a:	0000b537          	lui	a0,0xb
     70e:	86ae                	mv	a3,a1
     710:	4ac50513          	addi	a0,a0,1196 # b4ac <memcpy+0x10c>
     714:	734070ef          	jal	ra,7e48 <printf>
     718:	4048                	lw	a0,4(s0)
     71a:	1d70a0ef          	jal	ra,b0f0 <__extendsfdf2>
     71e:	862a                	mv	a2,a0
     720:	0000b537          	lui	a0,0xb
     724:	86ae                	mv	a3,a1
     726:	4bc50513          	addi	a0,a0,1212 # b4bc <memcpy+0x11c>
     72a:	71e070ef          	jal	ra,7e48 <printf>
     72e:	4408                	lw	a0,8(s0)
     730:	1c10a0ef          	jal	ra,b0f0 <__extendsfdf2>
     734:	862a                	mv	a2,a0
     736:	0000b537          	lui	a0,0xb
     73a:	86ae                	mv	a3,a1
     73c:	4d050513          	addi	a0,a0,1232 # b4d0 <memcpy+0x130>
     740:	708070ef          	jal	ra,7e48 <printf>
     744:	00c41583          	lh	a1,12(s0)
     748:	0000b537          	lui	a0,0xb
     74c:	4e450513          	addi	a0,a0,1252 # b4e4 <memcpy+0x144>
     750:	6f8070ef          	jal	ra,7e48 <printf>
     754:	00e41583          	lh	a1,14(s0)
     758:	0000b537          	lui	a0,0xb
     75c:	4f850513          	addi	a0,a0,1272 # b4f8 <memcpy+0x158>
     760:	6e8070ef          	jal	ra,7e48 <printf>
     764:	01041583          	lh	a1,16(s0)
     768:	0000b537          	lui	a0,0xb
     76c:	20000437          	lui	s0,0x20000
     770:	51050513          	addi	a0,a0,1296 # b510 <memcpy+0x170>
     774:	6d4070ef          	jal	ra,7e48 <printf>
     778:	22040493          	addi	s1,s0,544 # 20000220 <control>
     77c:	5ce8                	lw	a0,124(s1)
     77e:	22040413          	addi	s0,s0,544
     782:	16f0a0ef          	jal	ra,b0f0 <__extendsfdf2>
     786:	862a                	mv	a2,a0
     788:	0000b537          	lui	a0,0xb
     78c:	86ae                	mv	a3,a1
     78e:	52450513          	addi	a0,a0,1316 # b524 <memcpy+0x184>
     792:	6b6070ef          	jal	ra,7e48 <printf>
     796:	1bc4a503          	lw	a0,444(s1)
     79a:	1570a0ef          	jal	ra,b0f0 <__extendsfdf2>
     79e:	862a                	mv	a2,a0
     7a0:	0000b537          	lui	a0,0xb
     7a4:	86ae                	mv	a3,a1
     7a6:	53450513          	addi	a0,a0,1332 # b534 <memcpy+0x194>
     7aa:	69e070ef          	jal	ra,7e48 <printf>
     7ae:	11c4a503          	lw	a0,284(s1)
     7b2:	13f0a0ef          	jal	ra,b0f0 <__extendsfdf2>
     7b6:	862a                	mv	a2,a0
     7b8:	0000b537          	lui	a0,0xb
     7bc:	86ae                	mv	a3,a1
     7be:	54450513          	addi	a0,a0,1348 # b544 <memcpy+0x1a4>
     7c2:	686070ef          	jal	ra,7e48 <printf>
     7c6:	c0090513          	addi	a0,s2,-1024 # 40014c00 <__freertos_irq_stack_top+0x2000cc00>
     7ca:	2b7010ef          	jal	ra,2280 <TIM_GetCapture2>
     7ce:	85aa                	mv	a1,a0
     7d0:	0000b537          	lui	a0,0xb
     7d4:	55850513          	addi	a0,a0,1368 # b558 <memcpy+0x1b8>
     7d8:	670070ef          	jal	ra,7e48 <printf>
     7dc:	c0090513          	addi	a0,s2,-1024
     7e0:	2a5010ef          	jal	ra,2284 <TIM_GetCapture3>
     7e4:	85aa                	mv	a1,a0
     7e6:	0000b537          	lui	a0,0xb
     7ea:	56450513          	addi	a0,a0,1380 # b564 <memcpy+0x1c4>
     7ee:	65a070ef          	jal	ra,7e48 <printf>
     7f2:	c0090513          	addi	a0,s2,-1024
     7f6:	287010ef          	jal	ra,227c <TIM_GetCapture1>
     7fa:	85aa                	mv	a1,a0
     7fc:	0000b537          	lui	a0,0xb
     800:	57050513          	addi	a0,a0,1392 # b570 <memcpy+0x1d0>
     804:	644070ef          	jal	ra,7e48 <printf>
     808:	c0090513          	addi	a0,s2,-1024
     80c:	27d010ef          	jal	ra,2288 <TIM_GetCapture4>
     810:	85aa                	mv	a1,a0
     812:	0000b537          	lui	a0,0xb
     816:	57c50513          	addi	a0,a0,1404 # b57c <memcpy+0x1dc>
     81a:	62e070ef          	jal	ra,7e48 <printf>
     81e:	30dc                	lbu	a5,5(s1)
     820:	4709                	li	a4,2
     822:	02e79c63          	bne	a5,a4,85a <__stack_size+0x5a>
     826:	0000b537          	lui	a0,0xb
     82a:	58850513          	addi	a0,a0,1416 # b588 <memcpy+0x1e8>
     82e:	63e070ef          	jal	ra,7e6c <puts>
     832:	205c                	lbu	a5,4(s0)
     834:	e3a1                	bnez	a5,874 <__stack_size+0x74>
     836:	0000b537          	lui	a0,0xb
     83a:	5c450513          	addi	a0,a0,1476 # b5c4 <memcpy+0x224>
     83e:	62e070ef          	jal	ra,7e6c <puts>
     842:	20042783          	lw	a5,512(s0)
     846:	4705                	li	a4,1
     848:	02e79b63          	bne	a5,a4,87e <__stack_size+0x7e>
     84c:	0000b537          	lui	a0,0xb
     850:	5ec50513          	addi	a0,a0,1516 # b5ec <memcpy+0x24c>
     854:	618070ef          	jal	ra,7e6c <puts>
     858:	b1cd                	j	53a <__riscv_restore_0>
     85a:	4705                	li	a4,1
     85c:	00e79763          	bne	a5,a4,86a <__stack_size+0x6a>
     860:	0000b537          	lui	a0,0xb
     864:	59c50513          	addi	a0,a0,1436 # b59c <memcpy+0x1fc>
     868:	b7d9                	j	82e <__stack_size+0x2e>
     86a:	0000b537          	lui	a0,0xb
     86e:	5b050513          	addi	a0,a0,1456 # b5b0 <memcpy+0x210>
     872:	bf75                	j	82e <__stack_size+0x2e>
     874:	0000b537          	lui	a0,0xb
     878:	5d850513          	addi	a0,a0,1496 # b5d8 <memcpy+0x238>
     87c:	b7c9                	j	83e <__stack_size+0x3e>
     87e:	4709                	li	a4,2
     880:	fce79ce3          	bne	a5,a4,858 <__stack_size+0x58>
     884:	0000b537          	lui	a0,0xb
     888:	60050513          	addi	a0,a0,1536 # b600 <memcpy+0x260>
     88c:	b7e1                	j	854 <__stack_size+0x54>

0000088e <Print_status_task>:
     88e:	c89ff2ef          	jal	t0,516 <__riscv_save_0>
     892:	35b1                	jal	6de <String_print>
     894:	4515                	li	a0,5
     896:	4af050ef          	jal	ra,6544 <vTaskDelay>
     89a:	bfe5                	j	892 <Print_status_task+0x4>

0000089c <PIDSTRUCT_Init>:
     89c:	c4bff2ef          	jal	t0,4e6 <__riscv_save_12>
     8a0:	200004b7          	lui	s1,0x20000
     8a4:	94818413          	addi	s0,gp,-1720 # 20000220 <control>
     8a8:	0684a783          	lw	a5,104(s1) # 20000068 <pid_func>
     8ac:	00840a93          	addi	s5,s0,8
     8b0:	1141                	addi	sp,sp,-16
     8b2:	8556                	mv	a0,s5
     8b4:	9782                	jalr	a5
     8b6:	0000b7b7          	lui	a5,0xb
     8ba:	6307a783          	lw	a5,1584(a5) # b630 <memcpy+0x290>
     8be:	06848913          	addi	s2,s1,104
     8c2:	00000b13          	li	s6,0
     8c6:	c41c                	sw	a5,8(s0)
     8c8:	0000b7b7          	lui	a5,0xb
     8cc:	6347ac83          	lw	s9,1588(a5) # b634 <memcpy+0x294>
     8d0:	0000b7b7          	lui	a5,0xb
     8d4:	6387ac03          	lw	s8,1592(a5) # b638 <memcpy+0x298>
     8d8:	0000b7b7          	lui	a5,0xb
     8dc:	63c7aa03          	lw	s4,1596(a5) # b63c <memcpy+0x29c>
     8e0:	0000b7b7          	lui	a5,0xb
     8e4:	6407a983          	lw	s3,1600(a5) # b640 <memcpy+0x2a0>
     8e8:	0000b7b7          	lui	a5,0xb
     8ec:	6447ab83          	lw	s7,1604(a5) # b644 <memcpy+0x2a4>
     8f0:	00492783          	lw	a5,4(s2)
     8f4:	01642623          	sw	s6,12(s0)
     8f8:	01642823          	sw	s6,16(s0)
     8fc:	03742e23          	sw	s7,60(s0)
     900:	8556                	mv	a0,s5
     902:	01942e23          	sw	s9,28(s0)
     906:	03842023          	sw	s8,32(s0)
     90a:	01442a23          	sw	s4,20(s0)
     90e:	01342c23          	sw	s3,24(s0)
     912:	9782                	jalr	a5
     914:	0684a783          	lw	a5,104(s1)
     918:	05840d13          	addi	s10,s0,88
     91c:	856a                	mv	a0,s10
     91e:	9782                	jalr	a5
     920:	0000b7b7          	lui	a5,0xb
     924:	6487a783          	lw	a5,1608(a5) # b648 <memcpy+0x2a8>
     928:	05642e23          	sw	s6,92(s0)
     92c:	07642023          	sw	s6,96(s0)
     930:	cc3c                	sw	a5,88(s0)
     932:	0000b7b7          	lui	a5,0xb
     936:	64c7ab03          	lw	s6,1612(a5) # b64c <memcpy+0x2ac>
     93a:	0000b7b7          	lui	a5,0xb
     93e:	6507aa83          	lw	s5,1616(a5) # b650 <memcpy+0x2b0>
     942:	00492783          	lw	a5,4(s2)
     946:	09742623          	sw	s7,140(s0)
     94a:	856a                	mv	a0,s10
     94c:	07642623          	sw	s6,108(s0)
     950:	07542823          	sw	s5,112(s0)
     954:	07442223          	sw	s4,100(s0)
     958:	07342423          	sw	s3,104(s0)
     95c:	9782                	jalr	a5
     95e:	0684a783          	lw	a5,104(s1)
     962:	0a840d13          	addi	s10,s0,168
     966:	856a                	mv	a0,s10
     968:	9782                	jalr	a5
     96a:	0000b737          	lui	a4,0xb
     96e:	65872703          	lw	a4,1624(a4) # b658 <memcpy+0x2b8>
     972:	0000b7b7          	lui	a5,0xb
     976:	6547a783          	lw	a5,1620(a5) # b654 <memcpy+0x2b4>
     97a:	0ae42623          	sw	a4,172(s0)
     97e:	0000b737          	lui	a4,0xb
     982:	65c72703          	lw	a4,1628(a4) # b65c <memcpy+0x2bc>
     986:	0af42423          	sw	a5,168(s0)
     98a:	856a                	mv	a0,s10
     98c:	0ae42823          	sw	a4,176(s0)
     990:	0000b737          	lui	a4,0xb
     994:	66072703          	lw	a4,1632(a4) # b660 <memcpy+0x2c0>
     998:	0b942e23          	sw	s9,188(s0)
     99c:	0d842023          	sw	s8,192(s0)
     9a0:	0ce42e23          	sw	a4,220(s0)
     9a4:	00492703          	lw	a4,4(s2)
     9a8:	0b442a23          	sw	s4,180(s0)
     9ac:	0b342c23          	sw	s3,184(s0)
     9b0:	c63e                	sw	a5,12(sp)
     9b2:	9702                	jalr	a4
     9b4:	0684a703          	lw	a4,104(s1)
     9b8:	0f840d93          	addi	s11,s0,248
     9bc:	856e                	mv	a0,s11
     9be:	9702                	jalr	a4
     9c0:	0000b737          	lui	a4,0xb
     9c4:	66472703          	lw	a4,1636(a4) # b664 <memcpy+0x2c4>
     9c8:	00000793          	li	a5,0
     9cc:	0ef42e23          	sw	a5,252(s0)
     9d0:	0ee42c23          	sw	a4,248(s0)
     9d4:	0000b737          	lui	a4,0xb
     9d8:	66872703          	lw	a4,1640(a4) # b668 <memcpy+0x2c8>
     9dc:	856e                	mv	a0,s11
     9de:	11642623          	sw	s6,268(s0)
     9e2:	10e42023          	sw	a4,256(s0)
     9e6:	0000b737          	lui	a4,0xb
     9ea:	66c72d03          	lw	s10,1644(a4) # b66c <memcpy+0x2cc>
     9ee:	00492703          	lw	a4,4(s2)
     9f2:	11542823          	sw	s5,272(s0)
     9f6:	11442223          	sw	s4,260(s0)
     9fa:	11342423          	sw	s3,264(s0)
     9fe:	13a42623          	sw	s10,300(s0)
     a02:	9702                	jalr	a4
     a04:	0684a703          	lw	a4,104(s1)
     a08:	14840d93          	addi	s11,s0,328
     a0c:	856e                	mv	a0,s11
     a0e:	9702                	jalr	a4
     a10:	47b2                	lw	a5,12(sp)
     a12:	17742e23          	sw	s7,380(s0)
     a16:	856e                	mv	a0,s11
     a18:	14f42423          	sw	a5,328(s0)
     a1c:	0000b7b7          	lui	a5,0xb
     a20:	6707a783          	lw	a5,1648(a5) # b670 <memcpy+0x2d0>
     a24:	15942e23          	sw	s9,348(s0)
     a28:	17842023          	sw	s8,352(s0)
     a2c:	14f42623          	sw	a5,332(s0)
     a30:	0000b7b7          	lui	a5,0xb
     a34:	6747a783          	lw	a5,1652(a5) # b674 <memcpy+0x2d4>
     a38:	15442a23          	sw	s4,340(s0)
     a3c:	15342c23          	sw	s3,344(s0)
     a40:	14f42823          	sw	a5,336(s0)
     a44:	00492783          	lw	a5,4(s2)
     a48:	19840b93          	addi	s7,s0,408
     a4c:	9782                	jalr	a5
     a4e:	0684a783          	lw	a5,104(s1)
     a52:	855e                	mv	a0,s7
     a54:	9782                	jalr	a5
     a56:	0000b7b7          	lui	a5,0xb
     a5a:	6787a783          	lw	a5,1656(a5) # b678 <memcpy+0x2d8>
     a5e:	1b642623          	sw	s6,428(s0)
     a62:	1b542823          	sw	s5,432(s0)
     a66:	18f42c23          	sw	a5,408(s0)
     a6a:	00000793          	li	a5,0
     a6e:	18f42e23          	sw	a5,412(s0)
     a72:	0000b7b7          	lui	a5,0xb
     a76:	67c7a783          	lw	a5,1660(a5) # b67c <memcpy+0x2dc>
     a7a:	1b442223          	sw	s4,420(s0)
     a7e:	1b342423          	sw	s3,424(s0)
     a82:	1af42023          	sw	a5,416(s0)
     a86:	00492783          	lw	a5,4(s2)
     a8a:	1da42623          	sw	s10,460(s0)
     a8e:	855e                	mv	a0,s7
     a90:	9782                	jalr	a5
     a92:	0141                	addi	sp,sp,16
     a94:	b479                	j	522 <__riscv_restore_12>

00000a96 <ELRS_Convert_angle>:
     a96:	a81ff2ef          	jal	t0,516 <__riscv_save_0>
     a9a:	3e800713          	li	a4,1000
     a9e:	87aa                	mv	a5,a0
     aa0:	02a75163          	bge	a4,a0,ac2 <ELRS_Convert_angle+0x2c>
     aa4:	c1850513          	addi	a0,a0,-1000
     aa8:	336090ef          	jal	ra,9dde <__floatsidf>
     aac:	0000b7b7          	lui	a5,0xb
     ab0:	6187a603          	lw	a2,1560(a5) # b618 <memcpy+0x278>
     ab4:	61c7a683          	lw	a3,1564(a5)
     ab8:	6d4080ef          	jal	ra,918c <__muldf3>
     abc:	6e00a0ef          	jal	ra,b19c <__truncdfsf2>
     ac0:	bcad                	j	53a <__riscv_restore_0>
     ac2:	3d800713          	li	a4,984
     ac6:	00000513          	li	a0,0
     aca:	fef74be3          	blt	a4,a5,ac0 <ELRS_Convert_angle+0x2a>
     ace:	c2778513          	addi	a0,a5,-985
     ad2:	bfd9                	j	aa8 <ELRS_Convert_angle+0x12>

00000ad4 <ELRS_Convert_throttle>:
     ad4:	0c800793          	li	a5,200
     ad8:	02a7ff63          	bgeu	a5,a0,b16 <ELRS_Convert_throttle+0x42>
     adc:	a3bff2ef          	jal	t0,516 <__riscv_save_0>
     ae0:	f3850513          	addi	a0,a0,-200
     ae4:	0542                	slli	a0,a0,0x10
     ae6:	8141                	srli	a0,a0,0x10
     ae8:	2f6090ef          	jal	ra,9dde <__floatsidf>
     aec:	0000b7b7          	lui	a5,0xb
     af0:	6207a603          	lw	a2,1568(a5) # b620 <memcpy+0x280>
     af4:	6247a683          	lw	a3,1572(a5)
     af8:	694080ef          	jal	ra,918c <__muldf3>
     afc:	0000b7b7          	lui	a5,0xb
     b00:	6287a603          	lw	a2,1576(a5) # b628 <memcpy+0x288>
     b04:	62c7a683          	lw	a3,1580(a5)
     b08:	69f070ef          	jal	ra,89a6 <__adddf3>
     b0c:	276090ef          	jal	ra,9d82 <__fixunsdfsi>
     b10:	0542                	slli	a0,a0,0x10
     b12:	8141                	srli	a0,a0,0x10
     b14:	b41d                	j	53a <__riscv_restore_0>
     b16:	54600513          	li	a0,1350
     b1a:	8082                	ret

00000b1c <ELRS_Convert_lock>:
     b1c:	c881a783          	lw	a5,-888(gp) # 20000560 <CrsfChannels+0x10>
     b20:	90778793          	addi	a5,a5,-1785
     b24:	0107b793          	sltiu	a5,a5,16
     b28:	0017c793          	xori	a5,a5,1
     b2c:	94f18623          	sb	a5,-1716(gp) # 20000224 <control+0x4>
     b30:	8082                	ret

00000b32 <ELRS_Convert_flight_mode>:
     b32:	c901a703          	lw	a4,-880(gp) # 20000568 <CrsfChannels+0x18>
     b36:	46bd                	li	a3,15
     b38:	90770613          	addi	a2,a4,-1785
     b3c:	94818793          	addi	a5,gp,-1720 # 20000220 <control>
     b40:	00c6e563          	bltu	a3,a2,b4a <ELRS_Convert_flight_mode+0x18>
     b44:	4709                	li	a4,2
     b46:	b3d8                	sb	a4,5(a5)
     b48:	8082                	ret
     b4a:	c2270713          	addi	a4,a4,-990
     b4e:	46d1                	li	a3,20
     b50:	00e6e463          	bltu	a3,a4,b58 <ELRS_Convert_flight_mode+0x26>
     b54:	4705                	li	a4,1
     b56:	bfc5                	j	b46 <ELRS_Convert_flight_mode+0x14>
     b58:	000782a3          	sb	zero,5(a5)
     b5c:	8082                	ret

00000b5e <Roll_outerloop_ctr>:
     b5e:	9b9ff2ef          	jal	t0,516 <__riscv_save_0>
     b62:	94818413          	addi	s0,gp,-1720 # 20000220 <control>
     b66:	200007b7          	lui	a5,0x20000
     b6a:	1b47a603          	lw	a2,436(a5) # 200001b4 <MPU6050_para_filted+0x8>
     b6e:	1f842503          	lw	a0,504(s0)
     b72:	1141                	addi	sp,sp,-16
     b74:	00000593          	li	a1,0
     b78:	c632                	sw	a2,12(sp)
     b7a:	548090ef          	jal	ra,a0c2 <__addsf3>
     b7e:	200007b7          	lui	a5,0x20000
     b82:	4632                	lw	a2,12(sp)
     b84:	0747a783          	lw	a5,116(a5) # 20000074 <pid_func+0xc>
     b88:	85aa                	mv	a1,a0
     b8a:	14840513          	addi	a0,s0,328
     b8e:	9782                	jalr	a5
     b90:	0141                	addi	sp,sp,16
     b92:	b265                	j	53a <__riscv_restore_0>

00000b94 <Roll_innerloop_ctr>:
     b94:	983ff2ef          	jal	t0,516 <__riscv_save_0>
     b98:	200007b7          	lui	a5,0x20000
     b9c:	1bc79503          	lh	a0,444(a5) # 200001bc <MPU6050_para_filted+0x10>
     ba0:	3bc0a0ef          	jal	ra,af5c <__floatsisf>
     ba4:	0000b7b7          	lui	a5,0xb
     ba8:	6807a583          	lw	a1,1664(a5) # b680 <memcpy+0x2e0>
     bac:	081090ef          	jal	ra,a42c <__divsf3>
     bb0:	94818793          	addi	a5,gp,-1720 # 20000220 <control>
     bb4:	20000737          	lui	a4,0x20000
     bb8:	07472703          	lw	a4,116(a4) # 20000074 <pid_func+0xc>
     bbc:	16c7a583          	lw	a1,364(a5)
     bc0:	862a                	mv	a2,a0
     bc2:	19878513          	addi	a0,a5,408
     bc6:	9702                	jalr	a4
     bc8:	ba8d                	j	53a <__riscv_restore_0>

00000bca <Yaw_outerloop_ctr>:
     bca:	94dff2ef          	jal	t0,516 <__riscv_save_0>
     bce:	94818413          	addi	s0,gp,-1720 # 20000220 <control>
     bd2:	200007b7          	lui	a5,0x20000
     bd6:	1ac7a603          	lw	a2,428(a5) # 200001ac <MPU6050_para_filted>
     bda:	400c                	lw	a1,0(s0)
     bdc:	1f042503          	lw	a0,496(s0)
     be0:	1141                	addi	sp,sp,-16
     be2:	c632                	sw	a2,12(sp)
     be4:	4de090ef          	jal	ra,a0c2 <__addsf3>
     be8:	200007b7          	lui	a5,0x20000
     bec:	4632                	lw	a2,12(sp)
     bee:	0747a783          	lw	a5,116(a5) # 20000074 <pid_func+0xc>
     bf2:	85aa                	mv	a1,a0
     bf4:	00840513          	addi	a0,s0,8
     bf8:	9782                	jalr	a5
     bfa:	0141                	addi	sp,sp,16
     bfc:	93fff06f          	j	53a <__riscv_restore_0>

00000c00 <Yaw_innerloop_ctr>:
     c00:	917ff2ef          	jal	t0,516 <__riscv_save_0>
     c04:	200007b7          	lui	a5,0x20000
     c08:	1b879503          	lh	a0,440(a5) # 200001b8 <MPU6050_para_filted+0xc>
     c0c:	40a00533          	neg	a0,a0
     c10:	34c0a0ef          	jal	ra,af5c <__floatsisf>
     c14:	0000b7b7          	lui	a5,0xb
     c18:	6807a583          	lw	a1,1664(a5) # b680 <memcpy+0x2e0>
     c1c:	011090ef          	jal	ra,a42c <__divsf3>
     c20:	94818793          	addi	a5,gp,-1720 # 20000220 <control>
     c24:	20000737          	lui	a4,0x20000
     c28:	07472703          	lw	a4,116(a4) # 20000074 <pid_func+0xc>
     c2c:	57cc                	lw	a1,44(a5)
     c2e:	862a                	mv	a2,a0
     c30:	05878513          	addi	a0,a5,88
     c34:	9702                	jalr	a4
     c36:	905ff06f          	j	53a <__riscv_restore_0>

00000c3a <Pitch_outerloop_ctr>:
     c3a:	8ddff2ef          	jal	t0,516 <__riscv_save_0>
     c3e:	94818413          	addi	s0,gp,-1720 # 20000220 <control>
     c42:	200007b7          	lui	a5,0x20000
     c46:	1b07a603          	lw	a2,432(a5) # 200001b0 <MPU6050_para_filted+0x4>
     c4a:	1f442503          	lw	a0,500(s0)
     c4e:	1141                	addi	sp,sp,-16
     c50:	00000593          	li	a1,0
     c54:	c632                	sw	a2,12(sp)
     c56:	46c090ef          	jal	ra,a0c2 <__addsf3>
     c5a:	200007b7          	lui	a5,0x20000
     c5e:	4632                	lw	a2,12(sp)
     c60:	0747a783          	lw	a5,116(a5) # 20000074 <pid_func+0xc>
     c64:	85aa                	mv	a1,a0
     c66:	0a840513          	addi	a0,s0,168
     c6a:	9782                	jalr	a5
     c6c:	0141                	addi	sp,sp,16
     c6e:	8cdff06f          	j	53a <__riscv_restore_0>

00000c72 <Pitch_innerloop_ctr>:
     c72:	8a5ff2ef          	jal	t0,516 <__riscv_save_0>
     c76:	200007b7          	lui	a5,0x20000
     c7a:	1ba79503          	lh	a0,442(a5) # 200001ba <MPU6050_para_filted+0xe>
     c7e:	2de0a0ef          	jal	ra,af5c <__floatsisf>
     c82:	0000b7b7          	lui	a5,0xb
     c86:	6807a583          	lw	a1,1664(a5) # b680 <memcpy+0x2e0>
     c8a:	7a2090ef          	jal	ra,a42c <__divsf3>
     c8e:	94818793          	addi	a5,gp,-1720 # 20000220 <control>
     c92:	20000737          	lui	a4,0x20000
     c96:	07472703          	lw	a4,116(a4) # 20000074 <pid_func+0xc>
     c9a:	0cc7a583          	lw	a1,204(a5)
     c9e:	862a                	mv	a2,a0
     ca0:	0f878513          	addi	a0,a5,248
     ca4:	9702                	jalr	a4
     ca6:	895ff06f          	j	53a <__riscv_restore_0>

00000caa <Check_control_mode>:
     caa:	c941a783          	lw	a5,-876(gp) # 2000056c <CrsfChannels+0x1c>
     cae:	0bf00713          	li	a4,191
     cb2:	00e79663          	bne	a5,a4,cbe <Check_control_mode+0x14>
     cb6:	4705                	li	a4,1
     cb8:	b4e1a423          	sw	a4,-1208(gp) # 20000420 <control+0x200>
     cbc:	8082                	ret
     cbe:	70000713          	li	a4,1792
     cc2:	fee79de3          	bne	a5,a4,cbc <Check_control_mode+0x12>
     cc6:	4709                	li	a4,2
     cc8:	bfc5                	j	cb8 <Check_control_mode+0xe>

00000cca <Update_ELRS>:
     cca:	84dff2ef          	jal	t0,516 <__riscv_save_0>
     cce:	c7818493          	addi	s1,gp,-904 # 20000550 <CrsfChannels>
     cd2:	44c8                	lw	a0,12(s1)
     cd4:	94818413          	addi	s0,gp,-1720 # 20000220 <control>
     cd8:	3b7d                	jal	a96 <ELRS_Convert_angle>
     cda:	1ea42823          	sw	a0,496(s0)
     cde:	c781a503          	lw	a0,-904(gp) # 20000550 <CrsfChannels>
     ce2:	3b55                	jal	a96 <ELRS_Convert_angle>
     ce4:	1ea42c23          	sw	a0,504(s0)
     ce8:	40c8                	lw	a0,4(s1)
     cea:	3375                	jal	a96 <ELRS_Convert_angle>
     cec:	1ea42a23          	sw	a0,500(s0)
     cf0:	4488                	lw	a0,8(s1)
     cf2:	33cd                	jal	ad4 <ELRS_Convert_throttle>
     cf4:	1ea41e23          	sh	a0,508(s0)
     cf8:	3515                	jal	b1c <ELRS_Convert_lock>
     cfa:	3d25                	jal	b32 <ELRS_Convert_flight_mode>
     cfc:	377d                	jal	caa <Check_control_mode>
     cfe:	83dff06f          	j	53a <__riscv_restore_0>

00000d02 <Flight_control>:
     d02:	fecff2ef          	jal	t0,4ee <__riscv_save_10>
     d06:	3da1                	jal	b5e <Roll_outerloop_ctr>
     d08:	3571                	jal	b94 <Roll_innerloop_ctr>
     d0a:	3f05                	jal	c3a <Pitch_outerloop_ctr>
     d0c:	379d                	jal	c72 <Pitch_innerloop_ctr>
     d0e:	3d75                	jal	bca <Yaw_outerloop_ctr>
     d10:	3dc5                	jal	c00 <Yaw_innerloop_ctr>
     d12:	94818493          	addi	s1,gp,-1720 # 20000220 <control>
     d16:	200007b7          	lui	a5,0x20000
     d1a:	1ac7a783          	lw	a5,428(a5) # 200001ac <MPU6050_para_filted>
     d1e:	1fc4db83          	lhu	s7,508(s1)
     d22:	94818413          	addi	s0,gp,-1720 # 20000220 <control>
     d26:	c09c                	sw	a5,0(s1)
     d28:	855e                	mv	a0,s7
     d2a:	2320a0ef          	jal	ra,af5c <__floatsisf>
     d2e:	11c4aa03          	lw	s4,284(s1)
     d32:	8c2a                	mv	s8,a0
     d34:	85d2                	mv	a1,s4
     d36:	38c090ef          	jal	ra,a0c2 <__addsf3>
     d3a:	1bc4a983          	lw	s3,444(s1)
     d3e:	07c4a903          	lw	s2,124(s1)
     d42:	8aaa                	mv	s5,a0
     d44:	85ce                	mv	a1,s3
     d46:	37c090ef          	jal	ra,a0c2 <__addsf3>
     d4a:	85ca                	mv	a1,s2
     d4c:	376090ef          	jal	ra,a0c2 <__addsf3>
     d50:	1b60a0ef          	jal	ra,af06 <__fixunssfsi>
     d54:	01051b13          	slli	s6,a0,0x10
     d58:	010b5b13          	srli	s6,s6,0x10
     d5c:	85ce                	mv	a1,s3
     d5e:	8556                	mv	a0,s5
     d60:	1f649423          	sh	s6,488(s1)
     d64:	57d090ef          	jal	ra,aae0 <__subsf3>
     d68:	85ca                	mv	a1,s2
     d6a:	577090ef          	jal	ra,aae0 <__subsf3>
     d6e:	1980a0ef          	jal	ra,af06 <__fixunssfsi>
     d72:	01051a93          	slli	s5,a0,0x10
     d76:	010ada93          	srli	s5,s5,0x10
     d7a:	85d2                	mv	a1,s4
     d7c:	8562                	mv	a0,s8
     d7e:	1f549523          	sh	s5,490(s1)
     d82:	55f090ef          	jal	ra,aae0 <__subsf3>
     d86:	85aa                	mv	a1,a0
     d88:	8c2a                	mv	s8,a0
     d8a:	854e                	mv	a0,s3
     d8c:	336090ef          	jal	ra,a0c2 <__addsf3>
     d90:	85ca                	mv	a1,s2
     d92:	330090ef          	jal	ra,a0c2 <__addsf3>
     d96:	1700a0ef          	jal	ra,af06 <__fixunssfsi>
     d9a:	01051a13          	slli	s4,a0,0x10
     d9e:	010a5a13          	srli	s4,s4,0x10
     da2:	85ce                	mv	a1,s3
     da4:	1f449623          	sh	s4,492(s1)
     da8:	8562                	mv	a0,s8
     daa:	537090ef          	jal	ra,aae0 <__subsf3>
     dae:	85ca                	mv	a1,s2
     db0:	531090ef          	jal	ra,aae0 <__subsf3>
     db4:	1520a0ef          	jal	ra,af06 <__fixunssfsi>
     db8:	0542                	slli	a0,a0,0x10
     dba:	8141                	srli	a0,a0,0x10
     dbc:	6785                	lui	a5,0x1
     dbe:	1ea49723          	sh	a0,494(s1)
     dc2:	b4078793          	addi	a5,a5,-1216 # b40 <ELRS_Convert_flight_mode+0xe>
     dc6:	0767f463          	bgeu	a5,s6,e2e <Flight_control+0x12c>
     dca:	1ef41423          	sh	a5,488(s0)
     dce:	6785                	lui	a5,0x1
     dd0:	b4078793          	addi	a5,a5,-1216 # b40 <ELRS_Convert_flight_mode+0xe>
     dd4:	0757f463          	bgeu	a5,s5,e3c <Flight_control+0x13a>
     dd8:	1ef41523          	sh	a5,490(s0)
     ddc:	6785                	lui	a5,0x1
     dde:	b4078793          	addi	a5,a5,-1216 # b40 <ELRS_Convert_flight_mode+0xe>
     de2:	0747f463          	bgeu	a5,s4,e4a <Flight_control+0x148>
     de6:	1ef41623          	sh	a5,492(s0)
     dea:	6785                	lui	a5,0x1
     dec:	b4078793          	addi	a5,a5,-1216 # b40 <ELRS_Convert_flight_mode+0xe>
     df0:	06a7f463          	bgeu	a5,a0,e58 <Flight_control+0x156>
     df4:	1ef41723          	sh	a5,494(s0)
     df8:	20042783          	lw	a5,512(s0)
     dfc:	4705                	li	a4,1
     dfe:	06e79463          	bne	a5,a4,e66 <Flight_control+0x164>
     e02:	1e845503          	lhu	a0,488(s0)
     e06:	4585                	li	a1,1
     e08:	154040ef          	jal	ra,4f5c <Motor_ctr>
     e0c:	1ea45503          	lhu	a0,490(s0)
     e10:	4589                	li	a1,2
     e12:	14a040ef          	jal	ra,4f5c <Motor_ctr>
     e16:	1ec45503          	lhu	a0,492(s0)
     e1a:	458d                	li	a1,3
     e1c:	140040ef          	jal	ra,4f5c <Motor_ctr>
     e20:	1ee45503          	lhu	a0,494(s0)
     e24:	4591                	li	a1,4
     e26:	136040ef          	jal	ra,4f5c <Motor_ctr>
     e2a:	efcff06f          	j	526 <__riscv_restore_10>
     e2e:	59f00793          	li	a5,1439
     e32:	f967eee3          	bltu	a5,s6,dce <Flight_control+0xcc>
     e36:	5a000793          	li	a5,1440
     e3a:	bf41                	j	dca <Flight_control+0xc8>
     e3c:	59f00793          	li	a5,1439
     e40:	f957eee3          	bltu	a5,s5,ddc <Flight_control+0xda>
     e44:	5a000793          	li	a5,1440
     e48:	bf41                	j	dd8 <Flight_control+0xd6>
     e4a:	59f00793          	li	a5,1439
     e4e:	f947eee3          	bltu	a5,s4,dea <Flight_control+0xe8>
     e52:	5a000793          	li	a5,1440
     e56:	bf41                	j	de6 <Flight_control+0xe4>
     e58:	59f00793          	li	a5,1439
     e5c:	f8a7eee3          	bltu	a5,a0,df8 <Flight_control+0xf6>
     e60:	5a000793          	li	a5,1440
     e64:	bf41                	j	df4 <Flight_control+0xf2>
     e66:	4709                	li	a4,2
     e68:	fce791e3          	bne	a5,a4,e2a <Flight_control+0x128>
     e6c:	4585                	li	a1,1
     e6e:	855e                	mv	a0,s7
     e70:	0ec040ef          	jal	ra,4f5c <Motor_ctr>
     e74:	1fc45503          	lhu	a0,508(s0)
     e78:	4589                	li	a1,2
     e7a:	0e2040ef          	jal	ra,4f5c <Motor_ctr>
     e7e:	1fc45503          	lhu	a0,508(s0)
     e82:	458d                	li	a1,3
     e84:	0d8040ef          	jal	ra,4f5c <Motor_ctr>
     e88:	4591                	li	a1,4
     e8a:	1fc45503          	lhu	a0,508(s0)
     e8e:	bf61                	j	e26 <Flight_control+0x124>

00000e90 <control_para_init>:
     e90:	94818793          	addi	a5,gp,-1720 # 20000220 <control>
     e94:	10100713          	li	a4,257
     e98:	00000693          	li	a3,0
     e9c:	a3da                	sh	a4,4(a5)
     e9e:	4705                	li	a4,1
     ea0:	c394                	sw	a3,0(a5)
     ea2:	00078323          	sb	zero,6(a5)
     ea6:	1e07a423          	sw	zero,488(a5)
     eaa:	1e07a623          	sw	zero,492(a5)
     eae:	1ed7a823          	sw	a3,496(a5)
     eb2:	1ed7aa23          	sw	a3,500(a5)
     eb6:	1ed7ac23          	sw	a3,504(a5)
     eba:	1e079e23          	sh	zero,508(a5)
     ebe:	20e7a023          	sw	a4,512(a5)
     ec2:	20e7a223          	sw	a4,516(a5)
     ec6:	8082                	ret

00000ec8 <Stop_motor>:
     ec8:	e4eff2ef          	jal	t0,516 <__riscv_save_0>
     ecc:	4585                	li	a1,1
     ece:	5a000513          	li	a0,1440
     ed2:	08a040ef          	jal	ra,4f5c <Motor_ctr>
     ed6:	4589                	li	a1,2
     ed8:	5a000513          	li	a0,1440
     edc:	080040ef          	jal	ra,4f5c <Motor_ctr>
     ee0:	458d                	li	a1,3
     ee2:	5a000513          	li	a0,1440
     ee6:	076040ef          	jal	ra,4f5c <Motor_ctr>
     eea:	4591                	li	a1,4
     eec:	5a000513          	li	a0,1440
     ef0:	06c040ef          	jal	ra,4f5c <Motor_ctr>
     ef4:	e46ff06f          	j	53a <__riscv_restore_0>

00000ef8 <control_handle_task>:
     ef8:	e04ff2ef          	jal	t0,4fc <__riscv_save_4>
     efc:	94818413          	addi	s0,gp,-1720 # 20000220 <control>
     f00:	200004b7          	lui	s1,0x20000
     f04:	3771                	jal	e90 <control_para_init>
     f06:	14840913          	addi	s2,s0,328
     f0a:	06848493          	addi	s1,s1,104 # 20000068 <pid_func>
     f0e:	19840993          	addi	s3,s0,408
     f12:	0a840a13          	addi	s4,s0,168
     f16:	0f840a93          	addi	s5,s0,248
     f1a:	00840b13          	addi	s6,s0,8
     f1e:	3375                	jal	cca <Update_ELRS>
     f20:	20442703          	lw	a4,516(s0)
     f24:	4789                	li	a5,2
     f26:	00f70b63          	beq	a4,a5,f3c <control_handle_task+0x44>
     f2a:	205c                	lbu	a5,4(s0)
     f2c:	ef9d                	bnez	a5,f6a <control_handle_task+0x72>
     f2e:	1fc45503          	lhu	a0,508(s0)
     f32:	6a300793          	li	a5,1699
     f36:	00a7f763          	bgeu	a5,a0,f44 <control_handle_task+0x4c>
     f3a:	33e1                	jal	d02 <Flight_control>
     f3c:	4551                	li	a0,20
     f3e:	606050ef          	jal	ra,6544 <vTaskDelay>
     f42:	bff1                	j	f1e <control_handle_task+0x26>
     f44:	4585                	li	a1,1
     f46:	016040ef          	jal	ra,4f5c <Motor_ctr>
     f4a:	1fc45503          	lhu	a0,508(s0)
     f4e:	4589                	li	a1,2
     f50:	00c040ef          	jal	ra,4f5c <Motor_ctr>
     f54:	1fc45503          	lhu	a0,508(s0)
     f58:	458d                	li	a1,3
     f5a:	002040ef          	jal	ra,4f5c <Motor_ctr>
     f5e:	1fc45503          	lhu	a0,508(s0)
     f62:	4591                	li	a1,4
     f64:	7f9030ef          	jal	ra,4f5c <Motor_ctr>
     f68:	bfd1                	j	f3c <control_handle_task+0x44>
     f6a:	3fb9                	jal	ec8 <Stop_motor>
     f6c:	449c                	lw	a5,8(s1)
     f6e:	854a                	mv	a0,s2
     f70:	9782                	jalr	a5
     f72:	449c                	lw	a5,8(s1)
     f74:	854e                	mv	a0,s3
     f76:	9782                	jalr	a5
     f78:	449c                	lw	a5,8(s1)
     f7a:	8552                	mv	a0,s4
     f7c:	9782                	jalr	a5
     f7e:	449c                	lw	a5,8(s1)
     f80:	8556                	mv	a0,s5
     f82:	9782                	jalr	a5
     f84:	449c                	lw	a5,8(s1)
     f86:	855a                	mv	a0,s6
     f88:	9782                	jalr	a5
     f8a:	449c                	lw	a5,8(s1)
     f8c:	05840513          	addi	a0,s0,88
     f90:	9782                	jalr	a5
     f92:	b76d                	j	f3c <control_handle_task+0x44>

00000f94 <Motor_sort_start>:
     f94:	d5aff2ef          	jal	t0,4ee <__riscv_save_10>
     f98:	20000437          	lui	s0,0x20000
     f9c:	22040793          	addi	a5,s0,544 # 20000220 <control>
     fa0:	4705                	li	a4,1
     fa2:	a3d8                	sb	a4,4(a5)
     fa4:	0000b7b7          	lui	a5,0xb
     fa8:	6847aa83          	lw	s5,1668(a5) # b684 <memcpy+0x2e4>
     fac:	0000b7b7          	lui	a5,0xb
     fb0:	6887ab03          	lw	s6,1672(a5) # b688 <memcpy+0x2e8>
     fb4:	22040413          	addi	s0,s0,544
     fb8:	0000ba37          	lui	s4,0xb
     fbc:	0000bc37          	lui	s8,0xb
     fc0:	205c                	lbu	a5,4(s0)
     fc2:	efd9                	bnez	a5,1060 <Motor_sort_start+0xcc>
     fc4:	80818493          	addi	s1,gp,-2040 # 200000e0 <last_RC_lock_state>
     fc8:	4098                	lw	a4,0(s1)
     fca:	4785                	li	a5,1
     fcc:	0af71363          	bne	a4,a5,1072 <Motor_sort_start+0xde>
     fd0:	68ca0513          	addi	a0,s4,1676 # b68c <memcpy+0x2ec>
     fd4:	699060ef          	jal	ra,7e6c <puts>
     fd8:	4789                	li	a5,2
     fda:	0004a023          	sw	zero,0(s1)
     fde:	20f42223          	sw	a5,516(s0)
     fe2:	4481                	li	s1,0
     fe4:	3e800c93          	li	s9,1000
     fe8:	8526                	mv	a0,s1
     fea:	773090ef          	jal	ra,af5c <__floatsisf>
     fee:	85d6                	mv	a1,s5
     ff0:	05d090ef          	jal	ra,a84c <__mulsf3>
     ff4:	85da                	mv	a1,s6
     ff6:	0cc090ef          	jal	ra,a0c2 <__addsf3>
     ffa:	80418913          	addi	s2,gp,-2044 # 200000dc <Motor_speed_set>
     ffe:	00a92023          	sw	a0,0(s2)
    1002:	705090ef          	jal	ra,af06 <__fixunssfsi>
    1006:	0542                	slli	a0,a0,0x10
    1008:	4585                	li	a1,1
    100a:	8141                	srli	a0,a0,0x10
    100c:	018040ef          	jal	ra,5024 <Motor_ctr_SOFT_START>
    1010:	00092503          	lw	a0,0(s2)
    1014:	6f3090ef          	jal	ra,af06 <__fixunssfsi>
    1018:	0542                	slli	a0,a0,0x10
    101a:	4589                	li	a1,2
    101c:	8141                	srli	a0,a0,0x10
    101e:	006040ef          	jal	ra,5024 <Motor_ctr_SOFT_START>
    1022:	00092503          	lw	a0,0(s2)
    1026:	6e1090ef          	jal	ra,af06 <__fixunssfsi>
    102a:	0542                	slli	a0,a0,0x10
    102c:	458d                	li	a1,3
    102e:	8141                	srli	a0,a0,0x10
    1030:	7f5030ef          	jal	ra,5024 <Motor_ctr_SOFT_START>
    1034:	00092503          	lw	a0,0(s2)
    1038:	6cf090ef          	jal	ra,af06 <__fixunssfsi>
    103c:	0542                	slli	a0,a0,0x10
    103e:	4591                	li	a1,4
    1040:	8141                	srli	a0,a0,0x10
    1042:	7e3030ef          	jal	ra,5024 <Motor_ctr_SOFT_START>
    1046:	205c                	lbu	a5,4(s0)
    1048:	4705                	li	a4,1
    104a:	02e79863          	bne	a5,a4,107a <Motor_sort_start+0xe6>
    104e:	20f42223          	sw	a5,516(s0)
    1052:	6a0c0513          	addi	a0,s8,1696 # b6a0 <memcpy+0x300>
    1056:	617060ef          	jal	ra,7e6c <puts>
    105a:	4785                	li	a5,1
    105c:	20f42223          	sw	a5,516(s0)
    1060:	205c                	lbu	a5,4(s0)
    1062:	4705                	li	a4,1
    1064:	00e79763          	bne	a5,a4,1072 <Motor_sort_start+0xde>
    1068:	80f1a423          	sw	a5,-2040(gp) # 200000e0 <last_RC_lock_state>
    106c:	20f42223          	sw	a5,516(s0)
    1070:	3da1                	jal	ec8 <Stop_motor>
    1072:	4529                	li	a0,10
    1074:	4d0050ef          	jal	ra,6544 <vTaskDelay>
    1078:	b7a1                	j	fc0 <Motor_sort_start+0x2c>
    107a:	4505                	li	a0,1
    107c:	0485                	addi	s1,s1,1
    107e:	4c6050ef          	jal	ra,6544 <vTaskDelay>
    1082:	f79493e3          	bne	s1,s9,fe8 <Motor_sort_start+0x54>
    1086:	b7f1                	j	1052 <Motor_sort_start+0xbe>

00001088 <RTOS_init>:
    1088:	c8eff2ef          	jal	t0,516 <__riscv_save_0>
    108c:	200007b7          	lui	a5,0x20000
    1090:	0000b5b7          	lui	a1,0xb
    1094:	00001537          	lui	a0,0x1
    1098:	11478793          	addi	a5,a5,276 # 20000114 <PrintTask_Handler>
    109c:	470d                	li	a4,3
    109e:	4681                	li	a3,0
    10a0:	10000613          	li	a2,256
    10a4:	6b058593          	addi	a1,a1,1712 # b6b0 <memcpy+0x310>
    10a8:	88e50513          	addi	a0,a0,-1906 # 88e <Print_status_task>
    10ac:	6b1040ef          	jal	ra,5f5c <xTaskCreate>
    10b0:	200007b7          	lui	a5,0x20000
    10b4:	0000b5b7          	lui	a1,0xb
    10b8:	00001537          	lui	a0,0x1
    10bc:	11078793          	addi	a5,a5,272 # 20000110 <Motor_SoftStart_Handler>
    10c0:	4711                	li	a4,4
    10c2:	4681                	li	a3,0
    10c4:	10000613          	li	a2,256
    10c8:	6b858593          	addi	a1,a1,1720 # b6b8 <memcpy+0x318>
    10cc:	f9450513          	addi	a0,a0,-108 # f94 <Motor_sort_start>
    10d0:	68d040ef          	jal	ra,5f5c <xTaskCreate>
    10d4:	200007b7          	lui	a5,0x20000
    10d8:	0000b5b7          	lui	a1,0xb
    10dc:	00001537          	lui	a0,0x1
    10e0:	10878793          	addi	a5,a5,264 # 20000108 <_edata>
    10e4:	4701                	li	a4,0
    10e6:	4681                	li	a3,0
    10e8:	60000613          	li	a2,1536
    10ec:	6c058593          	addi	a1,a1,1728 # b6c0 <memcpy+0x320>
    10f0:	ef850513          	addi	a0,a0,-264 # ef8 <control_handle_task>
    10f4:	669040ef          	jal	ra,5f5c <xTaskCreate>
    10f8:	200007b7          	lui	a5,0x20000
    10fc:	0000b5b7          	lui	a1,0xb
    1100:	00000537          	lui	a0,0x0
    1104:	10c78793          	addi	a5,a5,268 # 2000010c <IMU_Task_Handler>
    1108:	4709                	li	a4,2
    110a:	4681                	li	a3,0
    110c:	40000613          	li	a2,1024
    1110:	6c858593          	addi	a1,a1,1736 # b6c8 <memcpy+0x328>
    1114:	6b650513          	addi	a0,a0,1718 # 6b6 <IMU_task>
    1118:	645040ef          	jal	ra,5f5c <xTaskCreate>
    111c:	068050ef          	jal	ra,6184 <vTaskStartScheduler>
    1120:	c1aff06f          	j	53a <__riscv_restore_0>

00001124 <NMI_Handler>:
    1124:	30200073          	mret

00001128 <HardFault_Handler>:
    1128:	a001                	j	1128 <HardFault_Handler>

0000112a <GPIO_Toggle_INIT>:
    112a:	becff2ef          	jal	t0,516 <__riscv_save_0>
    112e:	1141                	addi	sp,sp,-16
    1130:	4585                	li	a1,1
    1132:	4511                	li	a0,4
    1134:	c202                	sw	zero,4(sp)
    1136:	c402                	sw	zero,8(sp)
    1138:	c602                	sw	zero,12(sp)
    113a:	539000ef          	jal	ra,1e72 <RCC_APB2PeriphClockCmd>
    113e:	478d                	li	a5,3
    1140:	827c                	sh	a5,4(sp)
    1142:	40011537          	lui	a0,0x40011
    1146:	47c1                	li	a5,16
    1148:	c63e                	sw	a5,12(sp)
    114a:	004c                	addi	a1,sp,4
    114c:	478d                	li	a5,3
    114e:	80050513          	addi	a0,a0,-2048 # 40010800 <__freertos_irq_stack_top+0x20008800>
    1152:	c43e                	sw	a5,8(sp)
    1154:	7da000ef          	jal	ra,192e <GPIO_Init>
    1158:	0141                	addi	sp,sp,16
    115a:	be0ff06f          	j	53a <__riscv_restore_0>

0000115e <main>:
    115e:	bb8ff2ef          	jal	t0,516 <__riscv_save_0>
    1162:	4509                	li	a0,2
    1164:	325000ef          	jal	ra,1c88 <NVIC_PriorityGroupConfig>
    1168:	2a99                	jal	12be <SystemCoreClockUpdate>
    116a:	2d1050ef          	jal	ra,6c3a <Delay_Init>
    116e:	0003f537          	lui	a0,0x3f
    1172:	80050513          	addi	a0,a0,-2048 # 3e800 <_data_lma+0x31f60>
    1176:	367050ef          	jal	ra,6cdc <USART_Printf_Init>
    117a:	0d500513          	li	a0,213
    117e:	08e040ef          	jal	ra,520c <Crc_init>
    1182:	80c1a583          	lw	a1,-2036(gp) # 200000e4 <SystemCoreClock>
    1186:	0000b537          	lui	a0,0xb
    118a:	6cc50513          	addi	a0,a0,1740 # b6cc <memcpy+0x32c>
    118e:	4bb060ef          	jal	ra,7e48 <printf>
    1192:	0000b5b7          	lui	a1,0xb
    1196:	0000b537          	lui	a0,0xb
    119a:	6dc58593          	addi	a1,a1,1756 # b6dc <memcpy+0x33c>
    119e:	6e450513          	addi	a0,a0,1764 # b6e4 <memcpy+0x344>
    11a2:	4a7060ef          	jal	ra,7e48 <printf>
    11a6:	3751                	jal	112a <GPIO_Toggle_INIT>
    11a8:	404040ef          	jal	ra,55ac <System_Init>
    11ac:	0c800513          	li	a0,200
    11b0:	2f3050ef          	jal	ra,6ca2 <Delay_Ms>
    11b4:	0000b437          	lui	s0,0xb
    11b8:	3dc1                	jal	1088 <RTOS_init>
    11ba:	70440513          	addi	a0,s0,1796 # b704 <memcpy+0x364>
    11be:	4af060ef          	jal	ra,7e6c <puts>
    11c2:	bfe5                	j	11ba <main+0x5c>

000011c4 <SystemInit>:
    11c4:	400217b7          	lui	a5,0x40021
    11c8:	4398                	lw	a4,0(a5)
    11ca:	f0ff06b7          	lui	a3,0xf0ff0
    11ce:	1141                	addi	sp,sp,-16
    11d0:	00176713          	ori	a4,a4,1
    11d4:	c398                	sw	a4,0(a5)
    11d6:	43d8                	lw	a4,4(a5)
    11d8:	00020637          	lui	a2,0x20
    11dc:	8f75                	and	a4,a4,a3
    11de:	c3d8                	sw	a4,4(a5)
    11e0:	4398                	lw	a4,0(a5)
    11e2:	fef706b7          	lui	a3,0xfef70
    11e6:	16fd                	addi	a3,a3,-1
    11e8:	8f75                	and	a4,a4,a3
    11ea:	c398                	sw	a4,0(a5)
    11ec:	4398                	lw	a4,0(a5)
    11ee:	fffc06b7          	lui	a3,0xfffc0
    11f2:	16fd                	addi	a3,a3,-1
    11f4:	8f75                	and	a4,a4,a3
    11f6:	c398                	sw	a4,0(a5)
    11f8:	43d8                	lw	a4,4(a5)
    11fa:	ff0106b7          	lui	a3,0xff010
    11fe:	16fd                	addi	a3,a3,-1
    1200:	8f75                	and	a4,a4,a3
    1202:	c3d8                	sw	a4,4(a5)
    1204:	4398                	lw	a4,0(a5)
    1206:	ec0006b7          	lui	a3,0xec000
    120a:	16fd                	addi	a3,a3,-1
    120c:	8f75                	and	a4,a4,a3
    120e:	c398                	sw	a4,0(a5)
    1210:	00ff0737          	lui	a4,0xff0
    1214:	c798                	sw	a4,8(a5)
    1216:	0207a623          	sw	zero,44(a5) # 4002102c <__freertos_irq_stack_top+0x2001902c>
    121a:	c402                	sw	zero,8(sp)
    121c:	c602                	sw	zero,12(sp)
    121e:	4398                	lw	a4,0(a5)
    1220:	66c1                	lui	a3,0x10
    1222:	8f55                	or	a4,a4,a3
    1224:	c398                	sw	a4,0(a5)
    1226:	400216b7          	lui	a3,0x40021
    122a:	6705                	lui	a4,0x1
    122c:	429c                	lw	a5,0(a3)
    122e:	8ff1                	and	a5,a5,a2
    1230:	c63e                	sw	a5,12(sp)
    1232:	47a2                	lw	a5,8(sp)
    1234:	0785                	addi	a5,a5,1
    1236:	c43e                	sw	a5,8(sp)
    1238:	47b2                	lw	a5,12(sp)
    123a:	e781                	bnez	a5,1242 <SystemInit+0x7e>
    123c:	47a2                	lw	a5,8(sp)
    123e:	fee797e3          	bne	a5,a4,122c <SystemInit+0x68>
    1242:	400217b7          	lui	a5,0x40021
    1246:	439c                	lw	a5,0(a5)
    1248:	00e79713          	slli	a4,a5,0xe
    124c:	06075763          	bgez	a4,12ba <SystemInit+0xf6>
    1250:	4785                	li	a5,1
    1252:	c63e                	sw	a5,12(sp)
    1254:	4732                	lw	a4,12(sp)
    1256:	4785                	li	a5,1
    1258:	04f71f63          	bne	a4,a5,12b6 <SystemInit+0xf2>
    125c:	400217b7          	lui	a5,0x40021
    1260:	43d8                	lw	a4,4(a5)
    1262:	ffc106b7          	lui	a3,0xffc10
    1266:	16fd                	addi	a3,a3,-1
    1268:	c3d8                	sw	a4,4(a5)
    126a:	43d8                	lw	a4,4(a5)
    126c:	c3d8                	sw	a4,4(a5)
    126e:	43d8                	lw	a4,4(a5)
    1270:	40076713          	ori	a4,a4,1024
    1274:	c3d8                	sw	a4,4(a5)
    1276:	43d8                	lw	a4,4(a5)
    1278:	8f75                	and	a4,a4,a3
    127a:	c3d8                	sw	a4,4(a5)
    127c:	43d8                	lw	a4,4(a5)
    127e:	001d06b7          	lui	a3,0x1d0
    1282:	8f55                	or	a4,a4,a3
    1284:	c3d8                	sw	a4,4(a5)
    1286:	4398                	lw	a4,0(a5)
    1288:	010006b7          	lui	a3,0x1000
    128c:	8f55                	or	a4,a4,a3
    128e:	c398                	sw	a4,0(a5)
    1290:	4398                	lw	a4,0(a5)
    1292:	00671693          	slli	a3,a4,0x6
    1296:	fe06dde3          	bgez	a3,1290 <SystemInit+0xcc>
    129a:	43d8                	lw	a4,4(a5)
    129c:	400216b7          	lui	a3,0x40021
    12a0:	9b71                	andi	a4,a4,-4
    12a2:	c3d8                	sw	a4,4(a5)
    12a4:	43d8                	lw	a4,4(a5)
    12a6:	00276713          	ori	a4,a4,2
    12aa:	c3d8                	sw	a4,4(a5)
    12ac:	4721                	li	a4,8
    12ae:	42dc                	lw	a5,4(a3)
    12b0:	8bb1                	andi	a5,a5,12
    12b2:	fee79ee3          	bne	a5,a4,12ae <SystemInit+0xea>
    12b6:	0141                	addi	sp,sp,16
    12b8:	8082                	ret
    12ba:	c602                	sw	zero,12(sp)
    12bc:	bf61                	j	1254 <SystemInit+0x90>

000012be <SystemCoreClockUpdate>:
    12be:	400216b7          	lui	a3,0x40021
    12c2:	42d8                	lw	a4,4(a3)
    12c4:	4611                	li	a2,4
    12c6:	8b31                	andi	a4,a4,12
    12c8:	80c18793          	addi	a5,gp,-2036 # 200000e4 <SystemCoreClock>
    12cc:	00c70563          	beq	a4,a2,12d6 <SystemCoreClockUpdate+0x18>
    12d0:	4621                	li	a2,8
    12d2:	02c70863          	beq	a4,a2,1302 <SystemCoreClockUpdate+0x44>
    12d6:	007a1737          	lui	a4,0x7a1
    12da:	20070713          	addi	a4,a4,512 # 7a1200 <_data_lma+0x794960>
    12de:	c398                	sw	a4,0(a5)
    12e0:	40021737          	lui	a4,0x40021
    12e4:	4358                	lw	a4,4(a4)
    12e6:	8311                	srli	a4,a4,0x4
    12e8:	00f77693          	andi	a3,a4,15
    12ec:	20000737          	lui	a4,0x20000
    12f0:	00070713          	mv	a4,a4
    12f4:	9736                	add	a4,a4,a3
    12f6:	2314                	lbu	a3,0(a4)
    12f8:	4398                	lw	a4,0(a5)
    12fa:	00d75733          	srl	a4,a4,a3
    12fe:	c398                	sw	a4,0(a5)
    1300:	8082                	ret
    1302:	42d8                	lw	a4,4(a3)
    1304:	42d4                	lw	a3,4(a3)
    1306:	6641                	lui	a2,0x10
    1308:	8349                	srli	a4,a4,0x12
    130a:	8b3d                	andi	a4,a4,15
    130c:	8ef1                	and	a3,a3,a2
    130e:	00270613          	addi	a2,a4,2 # 20000002 <_data_vma+0x2>
    1312:	cf15                	beqz	a4,134e <SystemCoreClockUpdate+0x90>
    1314:	473d                	li	a4,15
    1316:	02e60f63          	beq	a2,a4,1354 <SystemCoreClockUpdate+0x96>
    131a:	4741                	li	a4,16
    131c:	02e60f63          	beq	a2,a4,135a <SystemCoreClockUpdate+0x9c>
    1320:	4745                	li	a4,17
    1322:	4581                	li	a1,0
    1324:	00e61363          	bne	a2,a4,132a <SystemCoreClockUpdate+0x6c>
    1328:	4641                	li	a2,16
    132a:	e2a1                	bnez	a3,136a <SystemCoreClockUpdate+0xac>
    132c:	40024737          	lui	a4,0x40024
    1330:	80072703          	lw	a4,-2048(a4) # 40023800 <__freertos_irq_stack_top+0x2001b800>
    1334:	8b41                	andi	a4,a4,16
    1336:	c70d                	beqz	a4,1360 <SystemCoreClockUpdate+0xa2>
    1338:	007a1737          	lui	a4,0x7a1
    133c:	20070713          	addi	a4,a4,512 # 7a1200 <_data_lma+0x794960>
    1340:	02c70633          	mul	a2,a4,a2
    1344:	c390                	sw	a2,0(a5)
    1346:	ddc9                	beqz	a1,12e0 <SystemCoreClockUpdate+0x22>
    1348:	4398                	lw	a4,0(a5)
    134a:	8305                	srli	a4,a4,0x1
    134c:	bf49                	j	12de <SystemCoreClockUpdate+0x20>
    134e:	4581                	li	a1,0
    1350:	4649                	li	a2,18
    1352:	bfe1                	j	132a <SystemCoreClockUpdate+0x6c>
    1354:	4585                	li	a1,1
    1356:	4635                	li	a2,13
    1358:	bfc9                	j	132a <SystemCoreClockUpdate+0x6c>
    135a:	4581                	li	a1,0
    135c:	463d                	li	a2,15
    135e:	b7f1                	j	132a <SystemCoreClockUpdate+0x6c>
    1360:	003d1737          	lui	a4,0x3d1
    1364:	90070713          	addi	a4,a4,-1792 # 3d0900 <_data_lma+0x3c4060>
    1368:	bfe1                	j	1340 <SystemCoreClockUpdate+0x82>
    136a:	40021537          	lui	a0,0x40021
    136e:	5558                	lw	a4,44(a0)
    1370:	00f71693          	slli	a3,a4,0xf
    1374:	5558                	lw	a4,44(a0)
    1376:	0406df63          	bgez	a3,13d4 <SystemCoreClockUpdate+0x116>
    137a:	8311                	srli	a4,a4,0x4
    137c:	8b3d                	andi	a4,a4,15
    137e:	00170693          	addi	a3,a4,1
    1382:	007a1737          	lui	a4,0x7a1
    1386:	20070713          	addi	a4,a4,512 # 7a1200 <_data_lma+0x794960>
    138a:	02d75733          	divu	a4,a4,a3
    138e:	c398                	sw	a4,0(a5)
    1390:	5554                	lw	a3,44(a0)
    1392:	82a1                	srli	a3,a3,0x8
    1394:	8abd                	andi	a3,a3,15
    1396:	e28d                	bnez	a3,13b8 <SystemCoreClockUpdate+0xfa>
    1398:	4695                	li	a3,5
    139a:	02d70733          	mul	a4,a4,a3
    139e:	8305                	srli	a4,a4,0x1
    13a0:	c398                	sw	a4,0(a5)
    13a2:	40021737          	lui	a4,0x40021
    13a6:	5758                	lw	a4,44(a4)
    13a8:	4394                	lw	a3,0(a5)
    13aa:	8b3d                	andi	a4,a4,15
    13ac:	0705                	addi	a4,a4,1
    13ae:	02e6d733          	divu	a4,a3,a4
    13b2:	c398                	sw	a4,0(a5)
    13b4:	4398                	lw	a4,0(a5)
    13b6:	b769                	j	1340 <SystemCoreClockUpdate+0x82>
    13b8:	4505                	li	a0,1
    13ba:	00a69463          	bne	a3,a0,13c2 <SystemCoreClockUpdate+0x104>
    13be:	46e5                	li	a3,25
    13c0:	bfe9                	j	139a <SystemCoreClockUpdate+0xdc>
    13c2:	453d                	li	a0,15
    13c4:	00a69663          	bne	a3,a0,13d0 <SystemCoreClockUpdate+0x112>
    13c8:	46d1                	li	a3,20
    13ca:	02e68733          	mul	a4,a3,a4
    13ce:	bfc9                	j	13a0 <SystemCoreClockUpdate+0xe2>
    13d0:	0689                	addi	a3,a3,2
    13d2:	bfe5                	j	13ca <SystemCoreClockUpdate+0x10c>
    13d4:	8b3d                	andi	a4,a4,15
    13d6:	00170693          	addi	a3,a4,1 # 40021001 <__freertos_irq_stack_top+0x20019001>
    13da:	007a1737          	lui	a4,0x7a1
    13de:	20070713          	addi	a4,a4,512 # 7a1200 <_data_lma+0x794960>
    13e2:	02d75733          	divu	a4,a4,a3
    13e6:	b7f1                	j	13b2 <SystemCoreClockUpdate+0xf4>

000013e8 <ADC1_2_IRQHandler>:
    13e8:	a001                	j	13e8 <ADC1_2_IRQHandler>

000013ea <handle_reset>:
    13ea:	1ffff197          	auipc	gp,0x1ffff
    13ee:	4ee18193          	addi	gp,gp,1262 # 200008d8 <__global_pointer$>
    13f2:	20007117          	auipc	sp,0x20007
    13f6:	c0e10113          	addi	sp,sp,-1010 # 20008000 <__freertos_irq_stack_top>
    13fa:	0000b517          	auipc	a0,0xb
    13fe:	4a650513          	addi	a0,a0,1190 # c8a0 <_data_lma>
    1402:	1ffff597          	auipc	a1,0x1ffff
    1406:	bfe58593          	addi	a1,a1,-1026 # 20000000 <_data_vma>
    140a:	83018613          	addi	a2,gp,-2000 # 20000108 <_edata>
    140e:	00c5fa63          	bgeu	a1,a2,1422 <handle_reset+0x38>
    1412:	00052283          	lw	t0,0(a0)
    1416:	0055a023          	sw	t0,0(a1)
    141a:	0511                	addi	a0,a0,4
    141c:	0591                	addi	a1,a1,4
    141e:	fec5eae3          	bltu	a1,a2,1412 <handle_reset+0x28>
    1422:	1ffff517          	auipc	a0,0x1ffff
    1426:	ce650513          	addi	a0,a0,-794 # 20000108 <_edata>
    142a:	20003597          	auipc	a1,0x20003
    142e:	2f658593          	addi	a1,a1,758 # 20004720 <_ebss>
    1432:	00b57763          	bgeu	a0,a1,1440 <handle_reset+0x56>
    1436:	00052023          	sw	zero,0(a0)
    143a:	0511                	addi	a0,a0,4
    143c:	feb56de3          	bltu	a0,a1,1436 <handle_reset+0x4c>
    1440:	42fd                	li	t0,31
    1442:	bc029073          	csrw	0xbc0,t0
    1446:	42fd                	li	t0,31
    1448:	80429073          	csrw	0x804,t0
    144c:	000082b7          	lui	t0,0x8
    1450:	80028293          	addi	t0,t0,-2048 # 7800 <printInt+0x24>
    1454:	30029073          	csrw	mstatus,t0
    1458:	fffff297          	auipc	t0,0xfffff
    145c:	bac28293          	addi	t0,t0,-1108 # 4 <_einit>
    1460:	0032e293          	ori	t0,t0,3
    1464:	30529073          	csrw	mtvec,t0
    1468:	d5dff0ef          	jal	ra,11c4 <SystemInit>
    146c:	00000297          	auipc	t0,0x0
    1470:	cf228293          	addi	t0,t0,-782 # 115e <main>
    1474:	34129073          	csrw	mepc,t0
    1478:	30200073          	mret

0000147c <ADC_DeInit>:
    147c:	89aff2ef          	jal	t0,516 <__riscv_save_0>
    1480:	400127b7          	lui	a5,0x40012
    1484:	40078793          	addi	a5,a5,1024 # 40012400 <__freertos_irq_stack_top+0x2000a400>
    1488:	00f51e63          	bne	a0,a5,14a4 <ADC_DeInit+0x28>
    148c:	4585                	li	a1,1
    148e:	20000513          	li	a0,512
    1492:	21d000ef          	jal	ra,1eae <RCC_APB2PeriphResetCmd>
    1496:	4581                	li	a1,0
    1498:	20000513          	li	a0,512
    149c:	213000ef          	jal	ra,1eae <RCC_APB2PeriphResetCmd>
    14a0:	89aff06f          	j	53a <__riscv_restore_0>
    14a4:	400137b7          	lui	a5,0x40013
    14a8:	80078793          	addi	a5,a5,-2048 # 40012800 <__freertos_irq_stack_top+0x2000a800>
    14ac:	fef51ae3          	bne	a0,a5,14a0 <ADC_DeInit+0x24>
    14b0:	4585                	li	a1,1
    14b2:	40000513          	li	a0,1024
    14b6:	1f9000ef          	jal	ra,1eae <RCC_APB2PeriphResetCmd>
    14ba:	4581                	li	a1,0
    14bc:	40000513          	li	a0,1024
    14c0:	bff1                	j	149c <ADC_DeInit+0x20>

000014c2 <ADC_Init>:
    14c2:	415c                	lw	a5,4(a0)
    14c4:	e0f10737          	lui	a4,0xe0f10
    14c8:	eff70713          	addi	a4,a4,-257 # e0f0feff <__freertos_irq_stack_top+0xc0f07eff>
    14cc:	4d94                	lw	a3,24(a1)
    14ce:	8f7d                	and	a4,a4,a5
    14d0:	419c                	lw	a5,0(a1)
    14d2:	8fd5                	or	a5,a5,a3
    14d4:	4dd4                	lw	a3,28(a1)
    14d6:	8fd5                	or	a5,a5,a3
    14d8:	41d4                	lw	a3,4(a1)
    14da:	06a2                	slli	a3,a3,0x8
    14dc:	8fd5                	or	a5,a5,a3
    14de:	8fd9                	or	a5,a5,a4
    14e0:	c15c                	sw	a5,4(a0)
    14e2:	451c                	lw	a5,8(a0)
    14e4:	fff1f737          	lui	a4,0xfff1f
    14e8:	7fd70713          	addi	a4,a4,2045 # fff1f7fd <__freertos_irq_stack_top+0xdff177fd>
    14ec:	45d4                	lw	a3,12(a1)
    14ee:	8f7d                	and	a4,a4,a5
    14f0:	499c                	lw	a5,16(a1)
    14f2:	8fd5                	or	a5,a5,a3
    14f4:	4594                	lw	a3,8(a1)
    14f6:	0686                	slli	a3,a3,0x1
    14f8:	8fd5                	or	a5,a5,a3
    14fa:	8fd9                	or	a5,a5,a4
    14fc:	c51c                	sw	a5,8(a0)
    14fe:	555c                	lw	a5,44(a0)
    1500:	ff100737          	lui	a4,0xff100
    1504:	177d                	addi	a4,a4,-1
    1506:	8f7d                	and	a4,a4,a5
    1508:	29dc                	lbu	a5,20(a1)
    150a:	17fd                	addi	a5,a5,-1
    150c:	0ff7f793          	andi	a5,a5,255
    1510:	07d2                	slli	a5,a5,0x14
    1512:	8fd9                	or	a5,a5,a4
    1514:	d55c                	sw	a5,44(a0)
    1516:	8082                	ret

00001518 <ADC_Cmd>:
    1518:	451c                	lw	a5,8(a0)
    151a:	c589                	beqz	a1,1524 <ADC_Cmd+0xc>
    151c:	0017e793          	ori	a5,a5,1
    1520:	c51c                	sw	a5,8(a0)
    1522:	8082                	ret
    1524:	9bf9                	andi	a5,a5,-2
    1526:	bfed                	j	1520 <ADC_Cmd+0x8>

00001528 <ADC_DMACmd>:
    1528:	451c                	lw	a5,8(a0)
    152a:	c589                	beqz	a1,1534 <ADC_DMACmd+0xc>
    152c:	1007e793          	ori	a5,a5,256
    1530:	c51c                	sw	a5,8(a0)
    1532:	8082                	ret
    1534:	eff7f793          	andi	a5,a5,-257
    1538:	bfe5                	j	1530 <ADC_DMACmd+0x8>

0000153a <ADC_ResetCalibration>:
    153a:	451c                	lw	a5,8(a0)
    153c:	0087e793          	ori	a5,a5,8
    1540:	c51c                	sw	a5,8(a0)
    1542:	8082                	ret

00001544 <ADC_GetResetCalibrationStatus>:
    1544:	4508                	lw	a0,8(a0)
    1546:	810d                	srli	a0,a0,0x3
    1548:	8905                	andi	a0,a0,1
    154a:	8082                	ret

0000154c <ADC_StartCalibration>:
    154c:	451c                	lw	a5,8(a0)
    154e:	0047e793          	ori	a5,a5,4
    1552:	c51c                	sw	a5,8(a0)
    1554:	8082                	ret

00001556 <ADC_GetCalibrationStatus>:
    1556:	4508                	lw	a0,8(a0)
    1558:	8109                	srli	a0,a0,0x2
    155a:	8905                	andi	a0,a0,1
    155c:	8082                	ret

0000155e <ADC_SoftwareStartConvCmd>:
    155e:	451c                	lw	a5,8(a0)
    1560:	c591                	beqz	a1,156c <ADC_SoftwareStartConvCmd+0xe>
    1562:	00500737          	lui	a4,0x500
    1566:	8fd9                	or	a5,a5,a4
    1568:	c51c                	sw	a5,8(a0)
    156a:	8082                	ret
    156c:	ffb00737          	lui	a4,0xffb00
    1570:	177d                	addi	a4,a4,-1
    1572:	8ff9                	and	a5,a5,a4
    1574:	bfd5                	j	1568 <ADC_SoftwareStartConvCmd+0xa>

00001576 <ADC_RegularChannelConfig>:
    1576:	47a5                	li	a5,9
    1578:	04b7f763          	bgeu	a5,a1,15c6 <ADC_RegularChannelConfig+0x50>
    157c:	478d                	li	a5,3
    157e:	ff658713          	addi	a4,a1,-10
    1582:	02f70733          	mul	a4,a4,a5
    1586:	00c52803          	lw	a6,12(a0)
    158a:	479d                	li	a5,7
    158c:	00e797b3          	sll	a5,a5,a4
    1590:	fff7c793          	not	a5,a5
    1594:	0107f7b3          	and	a5,a5,a6
    1598:	00e696b3          	sll	a3,a3,a4
    159c:	8edd                	or	a3,a3,a5
    159e:	c554                	sw	a3,12(a0)
    15a0:	4799                	li	a5,6
    15a2:	04c7e363          	bltu	a5,a2,15e8 <ADC_RegularChannelConfig+0x72>
    15a6:	4795                	li	a5,5
    15a8:	167d                	addi	a2,a2,-1
    15aa:	02f60633          	mul	a2,a2,a5
    15ae:	5958                	lw	a4,52(a0)
    15b0:	47fd                	li	a5,31
    15b2:	00c797b3          	sll	a5,a5,a2
    15b6:	fff7c793          	not	a5,a5
    15ba:	8ff9                	and	a5,a5,a4
    15bc:	00c59633          	sll	a2,a1,a2
    15c0:	8e5d                	or	a2,a2,a5
    15c2:	d950                	sw	a2,52(a0)
    15c4:	8082                	ret
    15c6:	470d                	li	a4,3
    15c8:	02e58733          	mul	a4,a1,a4
    15cc:	01052803          	lw	a6,16(a0)
    15d0:	479d                	li	a5,7
    15d2:	00e797b3          	sll	a5,a5,a4
    15d6:	fff7c793          	not	a5,a5
    15da:	0107f7b3          	and	a5,a5,a6
    15de:	00e696b3          	sll	a3,a3,a4
    15e2:	8edd                	or	a3,a3,a5
    15e4:	c914                	sw	a3,16(a0)
    15e6:	bf6d                	j	15a0 <ADC_RegularChannelConfig+0x2a>
    15e8:	47b1                	li	a5,12
    15ea:	02c7e263          	bltu	a5,a2,160e <ADC_RegularChannelConfig+0x98>
    15ee:	4795                	li	a5,5
    15f0:	1665                	addi	a2,a2,-7
    15f2:	02f60633          	mul	a2,a2,a5
    15f6:	5918                	lw	a4,48(a0)
    15f8:	47fd                	li	a5,31
    15fa:	00c797b3          	sll	a5,a5,a2
    15fe:	fff7c793          	not	a5,a5
    1602:	8ff9                	and	a5,a5,a4
    1604:	00c59633          	sll	a2,a1,a2
    1608:	8e5d                	or	a2,a2,a5
    160a:	d910                	sw	a2,48(a0)
    160c:	8082                	ret
    160e:	4795                	li	a5,5
    1610:	164d                	addi	a2,a2,-13
    1612:	02f60633          	mul	a2,a2,a5
    1616:	5558                	lw	a4,44(a0)
    1618:	47fd                	li	a5,31
    161a:	00c797b3          	sll	a5,a5,a2
    161e:	fff7c793          	not	a5,a5
    1622:	8ff9                	and	a5,a5,a4
    1624:	00c595b3          	sll	a1,a1,a2
    1628:	8ddd                	or	a1,a1,a5
    162a:	d54c                	sw	a1,44(a0)
    162c:	8082                	ret

0000162e <ADC_BufferCmd>:
    162e:	415c                	lw	a5,4(a0)
    1630:	c591                	beqz	a1,163c <ADC_BufferCmd+0xe>
    1632:	04000737          	lui	a4,0x4000
    1636:	8fd9                	or	a5,a5,a4
    1638:	c15c                	sw	a5,4(a0)
    163a:	8082                	ret
    163c:	fc000737          	lui	a4,0xfc000
    1640:	177d                	addi	a4,a4,-1
    1642:	8ff9                	and	a5,a5,a4
    1644:	bfd5                	j	1638 <ADC_BufferCmd+0xa>

00001646 <Get_CalibrationValue>:
    1646:	ed1fe2ef          	jal	t0,516 <__riscv_save_0>
    164a:	1101                	addi	sp,sp,-32
    164c:	842a                	mv	s0,a0
    164e:	00010423          	sb	zero,8(sp)
    1652:	44a5                	li	s1,9
    1654:	841c                	lbu	a5,8(sp)
    1656:	04f4f963          	bgeu	s1,a5,16a8 <Get_CalibrationValue+0x62>
    165a:	00010423          	sb	zero,8(sp)
    165e:	46a5                	li	a3,9
    1660:	4621                	li	a2,8
    1662:	841c                	lbu	a5,8(sp)
    1664:	06f6fd63          	bgeu	a3,a5,16de <Get_CalibrationValue+0x98>
    1668:	00011523          	sh	zero,10(sp)
    166c:	00010423          	sb	zero,8(sp)
    1670:	4695                	li	a3,5
    1672:	841c                	lbu	a5,8(sp)
    1674:	0cf6ff63          	bgeu	a3,a5,1752 <Get_CalibrationValue+0x10c>
    1678:	8538                	lhu	a4,10(sp)
    167a:	853c                	lhu	a5,10(sp)
    167c:	4699                	li	a3,6
    167e:	460d                	li	a2,3
    1680:	02d7f7b3          	remu	a5,a5,a3
    1684:	6505                	lui	a0,0x1
    1686:	80050513          	addi	a0,a0,-2048 # 800 <__stack_size>
    168a:	02c7d7b3          	divu	a5,a5,a2
    168e:	02d75733          	divu	a4,a4,a3
    1692:	97ba                	add	a5,a5,a4
    1694:	07c2                	slli	a5,a5,0x10
    1696:	83c1                	srli	a5,a5,0x10
    1698:	857c                	sh	a5,10(sp)
    169a:	853c                	lhu	a5,10(sp)
    169c:	6105                	addi	sp,sp,32
    169e:	8d1d                	sub	a0,a0,a5
    16a0:	0542                	slli	a0,a0,0x10
    16a2:	8541                	srai	a0,a0,0x10
    16a4:	e97fe06f          	j	53a <__riscv_restore_0>
    16a8:	441c                	lw	a5,8(s0)
    16aa:	0087e793          	ori	a5,a5,8
    16ae:	c41c                	sw	a5,8(s0)
    16b0:	8522                	mv	a0,s0
    16b2:	3d49                	jal	1544 <ADC_GetResetCalibrationStatus>
    16b4:	fd75                	bnez	a0,16b0 <Get_CalibrationValue+0x6a>
    16b6:	441c                	lw	a5,8(s0)
    16b8:	0047e793          	ori	a5,a5,4
    16bc:	c41c                	sw	a5,8(s0)
    16be:	8522                	mv	a0,s0
    16c0:	3d59                	jal	1556 <ADC_GetCalibrationStatus>
    16c2:	fd75                	bnez	a0,16be <Get_CalibrationValue+0x78>
    16c4:	4478                	lw	a4,76(s0)
    16c6:	841c                	lbu	a5,8(sp)
    16c8:	1014                	addi	a3,sp,32
    16ca:	0786                	slli	a5,a5,0x1
    16cc:	97b6                	add	a5,a5,a3
    16ce:	fee79623          	sh	a4,-20(a5)
    16d2:	841c                	lbu	a5,8(sp)
    16d4:	0785                	addi	a5,a5,1
    16d6:	0ff7f793          	andi	a5,a5,255
    16da:	845c                	sb	a5,8(sp)
    16dc:	bfa5                	j	1654 <Get_CalibrationValue+0xe>
    16de:	000104a3          	sb	zero,9(sp)
    16e2:	849c                	lbu	a5,9(sp)
    16e4:	00f67863          	bgeu	a2,a5,16f4 <Get_CalibrationValue+0xae>
    16e8:	841c                	lbu	a5,8(sp)
    16ea:	0785                	addi	a5,a5,1
    16ec:	0ff7f793          	andi	a5,a5,255
    16f0:	845c                	sb	a5,8(sp)
    16f2:	bf85                	j	1662 <Get_CalibrationValue+0x1c>
    16f4:	8498                	lbu	a4,9(sp)
    16f6:	849c                	lbu	a5,9(sp)
    16f8:	100c                	addi	a1,sp,32
    16fa:	0706                	slli	a4,a4,0x1
    16fc:	0785                	addi	a5,a5,1
    16fe:	0786                	slli	a5,a5,0x1
    1700:	972e                	add	a4,a4,a1
    1702:	97ae                	add	a5,a5,a1
    1704:	fec75703          	lhu	a4,-20(a4) # fbffffec <__freertos_irq_stack_top+0xdbff7fec>
    1708:	fec7d783          	lhu	a5,-20(a5)
    170c:	02e7fd63          	bgeu	a5,a4,1746 <Get_CalibrationValue+0x100>
    1710:	849c                	lbu	a5,9(sp)
    1712:	0786                	slli	a5,a5,0x1
    1714:	97ae                	add	a5,a5,a1
    1716:	fec7d783          	lhu	a5,-20(a5)
    171a:	857c                	sh	a5,10(sp)
    171c:	849c                	lbu	a5,9(sp)
    171e:	8498                	lbu	a4,9(sp)
    1720:	0785                	addi	a5,a5,1
    1722:	0786                	slli	a5,a5,0x1
    1724:	97ae                	add	a5,a5,a1
    1726:	fec7d583          	lhu	a1,-20(a5)
    172a:	00171793          	slli	a5,a4,0x1
    172e:	1018                	addi	a4,sp,32
    1730:	97ba                	add	a5,a5,a4
    1732:	feb79623          	sh	a1,-20(a5)
    1736:	849c                	lbu	a5,9(sp)
    1738:	8538                	lhu	a4,10(sp)
    173a:	100c                	addi	a1,sp,32
    173c:	0785                	addi	a5,a5,1
    173e:	0786                	slli	a5,a5,0x1
    1740:	97ae                	add	a5,a5,a1
    1742:	fee79623          	sh	a4,-20(a5)
    1746:	849c                	lbu	a5,9(sp)
    1748:	0785                	addi	a5,a5,1
    174a:	0ff7f793          	andi	a5,a5,255
    174e:	84dc                	sb	a5,9(sp)
    1750:	bf49                	j	16e2 <Get_CalibrationValue+0x9c>
    1752:	841c                	lbu	a5,8(sp)
    1754:	1010                	addi	a2,sp,32
    1756:	8538                	lhu	a4,10(sp)
    1758:	0789                	addi	a5,a5,2
    175a:	0786                	slli	a5,a5,0x1
    175c:	97b2                	add	a5,a5,a2
    175e:	fec7d783          	lhu	a5,-20(a5)
    1762:	97ba                	add	a5,a5,a4
    1764:	07c2                	slli	a5,a5,0x10
    1766:	83c1                	srli	a5,a5,0x10
    1768:	857c                	sh	a5,10(sp)
    176a:	841c                	lbu	a5,8(sp)
    176c:	0785                	addi	a5,a5,1
    176e:	0ff7f793          	andi	a5,a5,255
    1772:	845c                	sb	a5,8(sp)
    1774:	bdfd                	j	1672 <Get_CalibrationValue+0x2c>

00001776 <DMA_DeInit>:
    1776:	411c                	lw	a5,0(a0)
    1778:	6741                	lui	a4,0x10
    177a:	1779                	addi	a4,a4,-2
    177c:	8ff9                	and	a5,a5,a4
    177e:	c11c                	sw	a5,0(a0)
    1780:	00052023          	sw	zero,0(a0)
    1784:	00052223          	sw	zero,4(a0)
    1788:	00052423          	sw	zero,8(a0)
    178c:	400207b7          	lui	a5,0x40020
    1790:	00052623          	sw	zero,12(a0)
    1794:	00878713          	addi	a4,a5,8 # 40020008 <__freertos_irq_stack_top+0x20018008>
    1798:	00e51763          	bne	a0,a4,17a6 <DMA_DeInit+0x30>
    179c:	43d8                	lw	a4,4(a5)
    179e:	00f76713          	ori	a4,a4,15
    17a2:	c3d8                	sw	a4,4(a5)
    17a4:	8082                	ret
    17a6:	01c78713          	addi	a4,a5,28
    17aa:	00e51663          	bne	a0,a4,17b6 <DMA_DeInit+0x40>
    17ae:	43d8                	lw	a4,4(a5)
    17b0:	0f076713          	ori	a4,a4,240
    17b4:	b7fd                	j	17a2 <DMA_DeInit+0x2c>
    17b6:	03078713          	addi	a4,a5,48
    17ba:	00e51863          	bne	a0,a4,17ca <DMA_DeInit+0x54>
    17be:	43d8                	lw	a4,4(a5)
    17c0:	6685                	lui	a3,0x1
    17c2:	f0068693          	addi	a3,a3,-256 # f00 <control_handle_task+0x8>
    17c6:	8f55                	or	a4,a4,a3
    17c8:	bfe9                	j	17a2 <DMA_DeInit+0x2c>
    17ca:	04478713          	addi	a4,a5,68
    17ce:	00e51563          	bne	a0,a4,17d8 <DMA_DeInit+0x62>
    17d2:	43d8                	lw	a4,4(a5)
    17d4:	66bd                	lui	a3,0xf
    17d6:	bfc5                	j	17c6 <DMA_DeInit+0x50>
    17d8:	05878713          	addi	a4,a5,88
    17dc:	00e51663          	bne	a0,a4,17e8 <DMA_DeInit+0x72>
    17e0:	43d8                	lw	a4,4(a5)
    17e2:	000f06b7          	lui	a3,0xf0
    17e6:	b7c5                	j	17c6 <DMA_DeInit+0x50>
    17e8:	06c78713          	addi	a4,a5,108
    17ec:	00e51663          	bne	a0,a4,17f8 <DMA_DeInit+0x82>
    17f0:	43d8                	lw	a4,4(a5)
    17f2:	00f006b7          	lui	a3,0xf00
    17f6:	bfc1                	j	17c6 <DMA_DeInit+0x50>
    17f8:	08078713          	addi	a4,a5,128
    17fc:	00e51663          	bne	a0,a4,1808 <DMA_DeInit+0x92>
    1800:	43d8                	lw	a4,4(a5)
    1802:	0f0006b7          	lui	a3,0xf000
    1806:	b7c1                	j	17c6 <DMA_DeInit+0x50>
    1808:	40878713          	addi	a4,a5,1032
    180c:	00e51963          	bne	a0,a4,181e <DMA_DeInit+0xa8>
    1810:	4047a703          	lw	a4,1028(a5)
    1814:	00f76713          	ori	a4,a4,15
    1818:	40e7a223          	sw	a4,1028(a5)
    181c:	8082                	ret
    181e:	41c78713          	addi	a4,a5,1052
    1822:	00e51763          	bne	a0,a4,1830 <DMA_DeInit+0xba>
    1826:	4047a703          	lw	a4,1028(a5)
    182a:	0f076713          	ori	a4,a4,240
    182e:	b7ed                	j	1818 <DMA_DeInit+0xa2>
    1830:	43078793          	addi	a5,a5,1072
    1834:	00f51b63          	bne	a0,a5,184a <DMA_DeInit+0xd4>
    1838:	400207b7          	lui	a5,0x40020
    183c:	4047a703          	lw	a4,1028(a5) # 40020404 <__freertos_irq_stack_top+0x20018404>
    1840:	6685                	lui	a3,0x1
    1842:	f0068693          	addi	a3,a3,-256 # f00 <control_handle_task+0x8>
    1846:	8f55                	or	a4,a4,a3
    1848:	bfc1                	j	1818 <DMA_DeInit+0xa2>
    184a:	400207b7          	lui	a5,0x40020
    184e:	44478713          	addi	a4,a5,1092 # 40020444 <__freertos_irq_stack_top+0x20018444>
    1852:	00e51663          	bne	a0,a4,185e <DMA_DeInit+0xe8>
    1856:	4047a703          	lw	a4,1028(a5)
    185a:	66bd                	lui	a3,0xf
    185c:	b7ed                	j	1846 <DMA_DeInit+0xd0>
    185e:	45878713          	addi	a4,a5,1112
    1862:	00e51763          	bne	a0,a4,1870 <DMA_DeInit+0xfa>
    1866:	4047a703          	lw	a4,1028(a5)
    186a:	000f06b7          	lui	a3,0xf0
    186e:	bfe1                	j	1846 <DMA_DeInit+0xd0>
    1870:	46c78713          	addi	a4,a5,1132
    1874:	00e51763          	bne	a0,a4,1882 <DMA_DeInit+0x10c>
    1878:	4047a703          	lw	a4,1028(a5)
    187c:	00f006b7          	lui	a3,0xf00
    1880:	b7d9                	j	1846 <DMA_DeInit+0xd0>
    1882:	48078713          	addi	a4,a5,1152
    1886:	00e51763          	bne	a0,a4,1894 <DMA_DeInit+0x11e>
    188a:	4047a703          	lw	a4,1028(a5)
    188e:	0f0006b7          	lui	a3,0xf000
    1892:	bf55                	j	1846 <DMA_DeInit+0xd0>
    1894:	49078713          	addi	a4,a5,1168
    1898:	00e51963          	bne	a0,a4,18aa <DMA_DeInit+0x134>
    189c:	4d47a703          	lw	a4,1236(a5)
    18a0:	00f76713          	ori	a4,a4,15
    18a4:	4ce7aa23          	sw	a4,1236(a5)
    18a8:	8082                	ret
    18aa:	4a078713          	addi	a4,a5,1184
    18ae:	00e51763          	bne	a0,a4,18bc <DMA_DeInit+0x146>
    18b2:	4d47a703          	lw	a4,1236(a5)
    18b6:	0f076713          	ori	a4,a4,240
    18ba:	b7ed                	j	18a4 <DMA_DeInit+0x12e>
    18bc:	4b078713          	addi	a4,a5,1200
    18c0:	00e51963          	bne	a0,a4,18d2 <DMA_DeInit+0x15c>
    18c4:	4d47a703          	lw	a4,1236(a5)
    18c8:	6685                	lui	a3,0x1
    18ca:	f0068693          	addi	a3,a3,-256 # f00 <control_handle_task+0x8>
    18ce:	8f55                	or	a4,a4,a3
    18d0:	bfd1                	j	18a4 <DMA_DeInit+0x12e>
    18d2:	4c078713          	addi	a4,a5,1216
    18d6:	fce519e3          	bne	a0,a4,18a8 <DMA_DeInit+0x132>
    18da:	4d47a703          	lw	a4,1236(a5)
    18de:	66bd                	lui	a3,0xf
    18e0:	b7fd                	j	18ce <DMA_DeInit+0x158>

000018e2 <DMA_Init>:
    18e2:	411c                	lw	a5,0(a0)
    18e4:	7761                	lui	a4,0xffff8
    18e6:	073d                	addi	a4,a4,15
    18e8:	5194                	lw	a3,32(a1)
    18ea:	8f7d                	and	a4,a4,a5
    18ec:	459c                	lw	a5,8(a1)
    18ee:	8fd5                	or	a5,a5,a3
    18f0:	4994                	lw	a3,16(a1)
    18f2:	8fd5                	or	a5,a5,a3
    18f4:	49d4                	lw	a3,20(a1)
    18f6:	8fd5                	or	a5,a5,a3
    18f8:	4d94                	lw	a3,24(a1)
    18fa:	8fd5                	or	a5,a5,a3
    18fc:	4dd4                	lw	a3,28(a1)
    18fe:	8fd5                	or	a5,a5,a3
    1900:	51d4                	lw	a3,36(a1)
    1902:	8fd5                	or	a5,a5,a3
    1904:	5594                	lw	a3,40(a1)
    1906:	8fd5                	or	a5,a5,a3
    1908:	8fd9                	or	a5,a5,a4
    190a:	c11c                	sw	a5,0(a0)
    190c:	45dc                	lw	a5,12(a1)
    190e:	c15c                	sw	a5,4(a0)
    1910:	419c                	lw	a5,0(a1)
    1912:	c51c                	sw	a5,8(a0)
    1914:	41dc                	lw	a5,4(a1)
    1916:	c55c                	sw	a5,12(a0)
    1918:	8082                	ret

0000191a <DMA_Cmd>:
    191a:	411c                	lw	a5,0(a0)
    191c:	c589                	beqz	a1,1926 <DMA_Cmd+0xc>
    191e:	0017e793          	ori	a5,a5,1
    1922:	c11c                	sw	a5,0(a0)
    1924:	8082                	ret
    1926:	6741                	lui	a4,0x10
    1928:	1779                	addi	a4,a4,-2
    192a:	8ff9                	and	a5,a5,a4
    192c:	bfdd                	j	1922 <DMA_Cmd+0x8>

0000192e <GPIO_Init>:
    192e:	459c                	lw	a5,8(a1)
    1930:	0107f713          	andi	a4,a5,16
    1934:	00f7f813          	andi	a6,a5,15
    1938:	c701                	beqz	a4,1940 <GPIO_Init+0x12>
    193a:	41d8                	lw	a4,4(a1)
    193c:	00e86833          	or	a6,a6,a4
    1940:	218e                	lhu	a1,0(a1)
    1942:	0ff5f713          	andi	a4,a1,255
    1946:	c339                	beqz	a4,198c <GPIO_Init+0x5e>
    1948:	4118                	lw	a4,0(a0)
    194a:	4681                	li	a3,0
    194c:	4e85                	li	t4,1
    194e:	4f3d                	li	t5,15
    1950:	02800f93          	li	t6,40
    1954:	04800293          	li	t0,72
    1958:	4e21                	li	t3,8
    195a:	00de9633          	sll	a2,t4,a3
    195e:	00c5f8b3          	and	a7,a1,a2
    1962:	03161163          	bne	a2,a7,1984 <GPIO_Init+0x56>
    1966:	00269893          	slli	a7,a3,0x2
    196a:	011f1333          	sll	t1,t5,a7
    196e:	fff34313          	not	t1,t1
    1972:	00e37733          	and	a4,t1,a4
    1976:	011818b3          	sll	a7,a6,a7
    197a:	00e8e733          	or	a4,a7,a4
    197e:	05f79f63          	bne	a5,t6,19dc <GPIO_Init+0xae>
    1982:	c950                	sw	a2,20(a0)
    1984:	0685                	addi	a3,a3,1
    1986:	fdc69ae3          	bne	a3,t3,195a <GPIO_Init+0x2c>
    198a:	c118                	sw	a4,0(a0)
    198c:	0ff00713          	li	a4,255
    1990:	04b77563          	bgeu	a4,a1,19da <GPIO_Init+0xac>
    1994:	4154                	lw	a3,4(a0)
    1996:	4621                	li	a2,8
    1998:	4e85                	li	t4,1
    199a:	4f3d                	li	t5,15
    199c:	02800f93          	li	t6,40
    19a0:	04800293          	li	t0,72
    19a4:	4e41                	li	t3,16
    19a6:	00ce98b3          	sll	a7,t4,a2
    19aa:	0115f733          	and	a4,a1,a7
    19ae:	02e89263          	bne	a7,a4,19d2 <GPIO_Init+0xa4>
    19b2:	00261713          	slli	a4,a2,0x2
    19b6:	1701                	addi	a4,a4,-32
    19b8:	00ef1333          	sll	t1,t5,a4
    19bc:	fff34313          	not	t1,t1
    19c0:	00d376b3          	and	a3,t1,a3
    19c4:	00e81733          	sll	a4,a6,a4
    19c8:	8ed9                	or	a3,a3,a4
    19ca:	01f79d63          	bne	a5,t6,19e4 <GPIO_Init+0xb6>
    19ce:	01152a23          	sw	a7,20(a0)
    19d2:	0605                	addi	a2,a2,1
    19d4:	fdc619e3          	bne	a2,t3,19a6 <GPIO_Init+0x78>
    19d8:	c154                	sw	a3,4(a0)
    19da:	8082                	ret
    19dc:	fa5794e3          	bne	a5,t0,1984 <GPIO_Init+0x56>
    19e0:	c910                	sw	a2,16(a0)
    19e2:	b74d                	j	1984 <GPIO_Init+0x56>
    19e4:	fe5797e3          	bne	a5,t0,19d2 <GPIO_Init+0xa4>
    19e8:	01152823          	sw	a7,16(a0)
    19ec:	b7dd                	j	19d2 <GPIO_Init+0xa4>

000019ee <GPIO_ReadInputDataBit>:
    19ee:	4508                	lw	a0,8(a0)
    19f0:	8d6d                	and	a0,a0,a1
    19f2:	00a03533          	snez	a0,a0
    19f6:	8082                	ret

000019f8 <GPIO_SetBits>:
    19f8:	c90c                	sw	a1,16(a0)
    19fa:	8082                	ret

000019fc <GPIO_WriteBit>:
    19fc:	c219                	beqz	a2,1a02 <GPIO_WriteBit+0x6>
    19fe:	c90c                	sw	a1,16(a0)
    1a00:	8082                	ret
    1a02:	c94c                	sw	a1,20(a0)
    1a04:	8082                	ret

00001a06 <GPIO_PinRemapConfig>:
    1a06:	400107b7          	lui	a5,0x40010
    1a0a:	04055763          	bgez	a0,1a58 <GPIO_PinRemapConfig+0x52>
    1a0e:	4fdc                	lw	a5,28(a5)
    1a10:	01055713          	srli	a4,a0,0x10
    1a14:	00f77693          	andi	a3,a4,15
    1a18:	01051613          	slli	a2,a0,0x10
    1a1c:	00300737          	lui	a4,0x300
    1a20:	8241                	srli	a2,a2,0x10
    1a22:	00e57833          	and	a6,a0,a4
    1a26:	04055c63          	bgez	a0,1a7e <GPIO_PinRemapConfig+0x78>
    1a2a:	02e81963          	bne	a6,a4,1a5c <GPIO_PinRemapConfig+0x56>
    1a2e:	01068713          	addi	a4,a3,16 # f010 <_data_lma+0x2770>
    1a32:	468d                	li	a3,3
    1a34:	00e696b3          	sll	a3,a3,a4
    1a38:	fff6c693          	not	a3,a3
    1a3c:	8ff5                	and	a5,a5,a3
    1a3e:	c989                	beqz	a1,1a50 <GPIO_PinRemapConfig+0x4a>
    1a40:	01555713          	srli	a4,a0,0x15
    1a44:	0712                	slli	a4,a4,0x4
    1a46:	00e61733          	sll	a4,a2,a4
    1a4a:	8fd9                	or	a5,a5,a4
    1a4c:	04055763          	bgez	a0,1a9a <GPIO_PinRemapConfig+0x94>
    1a50:	40010737          	lui	a4,0x40010
    1a54:	cf5c                	sw	a5,28(a4)
    1a56:	8082                	ret
    1a58:	43dc                	lw	a5,4(a5)
    1a5a:	bf5d                	j	1a10 <GPIO_PinRemapConfig+0xa>
    1a5c:	00b51713          	slli	a4,a0,0xb
    1a60:	00075663          	bgez	a4,1a6c <GPIO_PinRemapConfig+0x66>
    1a64:	470d                	li	a4,3
    1a66:	00d716b3          	sll	a3,a4,a3
    1a6a:	b7f9                	j	1a38 <GPIO_PinRemapConfig+0x32>
    1a6c:	01555713          	srli	a4,a0,0x15
    1a70:	0712                	slli	a4,a4,0x4
    1a72:	00e61733          	sll	a4,a2,a4
    1a76:	fff74713          	not	a4,a4
    1a7a:	8ff9                	and	a5,a5,a4
    1a7c:	b7c9                	j	1a3e <GPIO_PinRemapConfig+0x38>
    1a7e:	02e81263          	bne	a6,a4,1aa2 <GPIO_PinRemapConfig+0x9c>
    1a82:	40010837          	lui	a6,0x40010
    1a86:	00482683          	lw	a3,4(a6) # 40010004 <__freertos_irq_stack_top+0x20008004>
    1a8a:	f1000737          	lui	a4,0xf1000
    1a8e:	177d                	addi	a4,a4,-1
    1a90:	8ff9                	and	a5,a5,a4
    1a92:	8f75                	and	a4,a4,a3
    1a94:	00e82223          	sw	a4,4(a6)
    1a98:	f5c5                	bnez	a1,1a40 <GPIO_PinRemapConfig+0x3a>
    1a9a:	40010737          	lui	a4,0x40010
    1a9e:	c35c                	sw	a5,4(a4)
    1aa0:	8082                	ret
    1aa2:	00b51713          	slli	a4,a0,0xb
    1aa6:	00075c63          	bgez	a4,1abe <GPIO_PinRemapConfig+0xb8>
    1aaa:	470d                	li	a4,3
    1aac:	00d71733          	sll	a4,a4,a3
    1ab0:	fff74713          	not	a4,a4
    1ab4:	8f7d                	and	a4,a4,a5
    1ab6:	0f0007b7          	lui	a5,0xf000
    1aba:	8fd9                	or	a5,a5,a4
    1abc:	bff1                	j	1a98 <GPIO_PinRemapConfig+0x92>
    1abe:	01555713          	srli	a4,a0,0x15
    1ac2:	0712                	slli	a4,a4,0x4
    1ac4:	00e61733          	sll	a4,a2,a4
    1ac8:	b7e5                	j	1ab0 <GPIO_PinRemapConfig+0xaa>

00001aca <I2C_Init>:
    1aca:	a4dfe2ef          	jal	t0,516 <__riscv_save_0>
    1ace:	7179                	addi	sp,sp,-48
    1ad0:	842a                	mv	s0,a0
    1ad2:	2146                	lhu	s1,4(a0)
    1ad4:	0868                	addi	a0,sp,28
    1ad6:	c62e                	sw	a1,12(sp)
    1ad8:	2c9d                	jal	1d4e <RCC_GetClocksFreq>
    1ada:	5792                	lw	a5,36(sp)
    1adc:	000f4737          	lui	a4,0xf4
    1ae0:	24070713          	addi	a4,a4,576 # f4240 <_data_lma+0xe79a0>
    1ae4:	02e7d733          	divu	a4,a5,a4
    1ae8:	04c2                	slli	s1,s1,0x10
    1aea:	80c1                	srli	s1,s1,0x10
    1aec:	fc04f493          	andi	s1,s1,-64
    1af0:	04c2                	slli	s1,s1,0x10
    1af2:	80c1                	srli	s1,s1,0x10
    1af4:	45b2                	lw	a1,12(sp)
    1af6:	6561                	lui	a0,0x18
    1af8:	6a050513          	addi	a0,a0,1696 # 186a0 <_data_lma+0xbe00>
    1afc:	01071613          	slli	a2,a4,0x10
    1b00:	8241                	srli	a2,a2,0x10
    1b02:	8cd1                	or	s1,s1,a2
    1b04:	a046                	sh	s1,4(s0)
    1b06:	2016                	lhu	a3,0(s0)
    1b08:	06c2                	slli	a3,a3,0x10
    1b0a:	82c1                	srli	a3,a3,0x10
    1b0c:	9af9                	andi	a3,a3,-2
    1b0e:	06c2                	slli	a3,a3,0x10
    1b10:	82c1                	srli	a3,a3,0x10
    1b12:	a016                	sh	a3,0(s0)
    1b14:	4194                	lw	a3,0(a1)
    1b16:	04d56963          	bltu	a0,a3,1b68 <I2C_Init+0x9e>
    1b1a:	0686                	slli	a3,a3,0x1
    1b1c:	02d7d7b3          	divu	a5,a5,a3
    1b20:	4691                	li	a3,4
    1b22:	01079713          	slli	a4,a5,0x10
    1b26:	8341                	srli	a4,a4,0x10
    1b28:	87ba                	mv	a5,a4
    1b2a:	00d77363          	bgeu	a4,a3,1b30 <I2C_Init+0x66>
    1b2e:	4791                	li	a5,4
    1b30:	0605                	addi	a2,a2,1
    1b32:	0642                	slli	a2,a2,0x10
    1b34:	07c2                	slli	a5,a5,0x10
    1b36:	8241                	srli	a2,a2,0x10
    1b38:	83c1                	srli	a5,a5,0x10
    1b3a:	b012                	sh	a2,32(s0)
    1b3c:	ac5e                	sh	a5,28(s0)
    1b3e:	201e                	lhu	a5,0(s0)
    1b40:	21da                	lhu	a4,4(a1)
    1b42:	25b6                	lhu	a3,10(a1)
    1b44:	0017e793          	ori	a5,a5,1
    1b48:	a01e                	sh	a5,0(s0)
    1b4a:	201e                	lhu	a5,0(s0)
    1b4c:	8f55                	or	a4,a4,a3
    1b4e:	07c2                	slli	a5,a5,0x10
    1b50:	83c1                	srli	a5,a5,0x10
    1b52:	bf57f793          	andi	a5,a5,-1035
    1b56:	8fd9                	or	a5,a5,a4
    1b58:	a01e                	sh	a5,0(s0)
    1b5a:	259a                	lhu	a4,8(a1)
    1b5c:	25de                	lhu	a5,12(a1)
    1b5e:	8fd9                	or	a5,a5,a4
    1b60:	a41e                	sh	a5,8(s0)
    1b62:	6145                	addi	sp,sp,48
    1b64:	9d7fe06f          	j	53a <__riscv_restore_0>
    1b68:	21ea                	lhu	a0,6(a1)
    1b6a:	6631                	lui	a2,0xc
    1b6c:	167d                	addi	a2,a2,-1
    1b6e:	02c51d63          	bne	a0,a2,1ba8 <I2C_Init+0xde>
    1b72:	460d                	li	a2,3
    1b74:	02c686b3          	mul	a3,a3,a2
    1b78:	02d7d7b3          	divu	a5,a5,a3
    1b7c:	07c2                	slli	a5,a5,0x10
    1b7e:	83c1                	srli	a5,a5,0x10
    1b80:	01479693          	slli	a3,a5,0x14
    1b84:	e299                	bnez	a3,1b8a <I2C_Init+0xc0>
    1b86:	0017e793          	ori	a5,a5,1
    1b8a:	66a1                	lui	a3,0x8
    1b8c:	8fd5                	or	a5,a5,a3
    1b8e:	12c00693          	li	a3,300
    1b92:	02d70733          	mul	a4,a4,a3
    1b96:	3e800693          	li	a3,1000
    1b9a:	02d74733          	div	a4,a4,a3
    1b9e:	0705                	addi	a4,a4,1
    1ba0:	0742                	slli	a4,a4,0x10
    1ba2:	8341                	srli	a4,a4,0x10
    1ba4:	b01a                	sh	a4,32(s0)
    1ba6:	bf59                	j	1b3c <I2C_Init+0x72>
    1ba8:	4665                	li	a2,25
    1baa:	02c686b3          	mul	a3,a3,a2
    1bae:	02d7d7b3          	divu	a5,a5,a3
    1bb2:	6691                	lui	a3,0x4
    1bb4:	07c2                	slli	a5,a5,0x10
    1bb6:	83c1                	srli	a5,a5,0x10
    1bb8:	8fd5                	or	a5,a5,a3
    1bba:	b7d9                	j	1b80 <I2C_Init+0xb6>

00001bbc <I2C_Cmd>:
    1bbc:	211e                	lhu	a5,0(a0)
    1bbe:	c589                	beqz	a1,1bc8 <I2C_Cmd+0xc>
    1bc0:	0017e793          	ori	a5,a5,1
    1bc4:	a11e                	sh	a5,0(a0)
    1bc6:	8082                	ret
    1bc8:	07c2                	slli	a5,a5,0x10
    1bca:	83c1                	srli	a5,a5,0x10
    1bcc:	9bf9                	andi	a5,a5,-2
    1bce:	07c2                	slli	a5,a5,0x10
    1bd0:	83c1                	srli	a5,a5,0x10
    1bd2:	bfcd                	j	1bc4 <I2C_Cmd+0x8>

00001bd4 <I2C_GenerateSTART>:
    1bd4:	211e                	lhu	a5,0(a0)
    1bd6:	c589                	beqz	a1,1be0 <I2C_GenerateSTART+0xc>
    1bd8:	1007e793          	ori	a5,a5,256
    1bdc:	a11e                	sh	a5,0(a0)
    1bde:	8082                	ret
    1be0:	07c2                	slli	a5,a5,0x10
    1be2:	83c1                	srli	a5,a5,0x10
    1be4:	eff7f793          	andi	a5,a5,-257
    1be8:	07c2                	slli	a5,a5,0x10
    1bea:	83c1                	srli	a5,a5,0x10
    1bec:	bfc5                	j	1bdc <I2C_GenerateSTART+0x8>

00001bee <I2C_GenerateSTOP>:
    1bee:	211e                	lhu	a5,0(a0)
    1bf0:	c589                	beqz	a1,1bfa <I2C_GenerateSTOP+0xc>
    1bf2:	2007e793          	ori	a5,a5,512
    1bf6:	a11e                	sh	a5,0(a0)
    1bf8:	8082                	ret
    1bfa:	07c2                	slli	a5,a5,0x10
    1bfc:	83c1                	srli	a5,a5,0x10
    1bfe:	dff7f793          	andi	a5,a5,-513
    1c02:	07c2                	slli	a5,a5,0x10
    1c04:	83c1                	srli	a5,a5,0x10
    1c06:	bfc5                	j	1bf6 <I2C_GenerateSTOP+0x8>

00001c08 <I2C_AcknowledgeConfig>:
    1c08:	211e                	lhu	a5,0(a0)
    1c0a:	c589                	beqz	a1,1c14 <I2C_AcknowledgeConfig+0xc>
    1c0c:	4007e793          	ori	a5,a5,1024
    1c10:	a11e                	sh	a5,0(a0)
    1c12:	8082                	ret
    1c14:	07c2                	slli	a5,a5,0x10
    1c16:	83c1                	srli	a5,a5,0x10
    1c18:	bff7f793          	andi	a5,a5,-1025
    1c1c:	07c2                	slli	a5,a5,0x10
    1c1e:	83c1                	srli	a5,a5,0x10
    1c20:	bfc5                	j	1c10 <I2C_AcknowledgeConfig+0x8>

00001c22 <I2C_SendData>:
    1c22:	a90e                	sh	a1,16(a0)
    1c24:	8082                	ret

00001c26 <I2C_ReceiveData>:
    1c26:	290a                	lhu	a0,16(a0)
    1c28:	0ff57513          	andi	a0,a0,255
    1c2c:	8082                	ret

00001c2e <I2C_Send7bitAddress>:
    1c2e:	0fe5f793          	andi	a5,a1,254
    1c32:	c219                	beqz	a2,1c38 <I2C_Send7bitAddress+0xa>
    1c34:	0015e793          	ori	a5,a1,1
    1c38:	07c2                	slli	a5,a5,0x10
    1c3a:	83c1                	srli	a5,a5,0x10
    1c3c:	a91e                	sh	a5,16(a0)
    1c3e:	8082                	ret

00001c40 <I2C_CheckEvent>:
    1c40:	295e                	lhu	a5,20(a0)
    1c42:	2d0a                	lhu	a0,24(a0)
    1c44:	0542                	slli	a0,a0,0x10
    1c46:	8d5d                	or	a0,a0,a5
    1c48:	8d6d                	and	a0,a0,a1
    1c4a:	0522                	slli	a0,a0,0x8
    1c4c:	8121                	srli	a0,a0,0x8
    1c4e:	8d0d                	sub	a0,a0,a1
    1c50:	00153513          	seqz	a0,a0
    1c54:	8082                	ret

00001c56 <I2C_GetFlagStatus>:
    1c56:	1141                	addi	sp,sp,-16
    1c58:	c402                	sw	zero,8(sp)
    1c5a:	c602                	sw	zero,12(sp)
    1c5c:	01c5d793          	srli	a5,a1,0x1c
    1c60:	c62a                	sw	a0,12(sp)
    1c62:	c43e                	sw	a5,8(sp)
    1c64:	47a2                	lw	a5,8(sp)
    1c66:	05a2                	slli	a1,a1,0x8
    1c68:	81a1                	srli	a1,a1,0x8
    1c6a:	cb99                	beqz	a5,1c80 <I2C_GetFlagStatus+0x2a>
    1c6c:	47b2                	lw	a5,12(sp)
    1c6e:	07d1                	addi	a5,a5,20
    1c70:	c63e                	sw	a5,12(sp)
    1c72:	47b2                	lw	a5,12(sp)
    1c74:	4388                	lw	a0,0(a5)
    1c76:	0141                	addi	sp,sp,16
    1c78:	8d6d                	and	a0,a0,a1
    1c7a:	00a03533          	snez	a0,a0
    1c7e:	8082                	ret
    1c80:	47b2                	lw	a5,12(sp)
    1c82:	81c1                	srli	a1,a1,0x10
    1c84:	07e1                	addi	a5,a5,24
    1c86:	b7ed                	j	1c70 <I2C_GetFlagStatus+0x1a>

00001c88 <NVIC_PriorityGroupConfig>:
    1c88:	200007b7          	lui	a5,0x20000
    1c8c:	10a7ac23          	sw	a0,280(a5) # 20000118 <NVIC_Priority_Group>
    1c90:	8082                	ret

00001c92 <NVIC_Init>:
    1c92:	200007b7          	lui	a5,0x20000
    1c96:	11878793          	addi	a5,a5,280 # 20000118 <NVIC_Priority_Group>
    1c9a:	4394                	lw	a3,0(a5)
    1c9c:	2118                	lbu	a4,0(a0)
    1c9e:	e681                	bnez	a3,1ca6 <NVIC_Init+0x14>
    1ca0:	213c                	lbu	a5,2(a0)
    1ca2:	0792                	slli	a5,a5,0x4
    1ca4:	a821                	j	1cbc <NVIC_Init+0x2a>
    1ca6:	4394                	lw	a3,0(a5)
    1ca8:	4605                	li	a2,1
    1caa:	02c69f63          	bne	a3,a2,1ce8 <NVIC_Init+0x56>
    1cae:	213c                	lbu	a5,2(a0)
    1cb0:	3110                	lbu	a2,1(a0)
    1cb2:	0792                	slli	a5,a5,0x4
    1cb4:	00d61463          	bne	a2,a3,1cbc <NVIC_Init+0x2a>
    1cb8:	f807e793          	ori	a5,a5,-128
    1cbc:	e000e6b7          	lui	a3,0xe000e
    1cc0:	0ff7f793          	andi	a5,a5,255
    1cc4:	96ba                	add	a3,a3,a4
    1cc6:	40f68023          	sb	a5,1024(a3) # e000e400 <__freertos_irq_stack_top+0xc0006400>
    1cca:	4685                	li	a3,1
    1ccc:	00575793          	srli	a5,a4,0x5
    1cd0:	00e69733          	sll	a4,a3,a4
    1cd4:	4154                	lw	a3,4(a0)
    1cd6:	c2a5                	beqz	a3,1d36 <NVIC_Init+0xa4>
    1cd8:	04078793          	addi	a5,a5,64
    1cdc:	078a                	slli	a5,a5,0x2
    1cde:	e000e6b7          	lui	a3,0xe000e
    1ce2:	97b6                	add	a5,a5,a3
    1ce4:	c398                	sw	a4,0(a5)
    1ce6:	8082                	ret
    1ce8:	438c                	lw	a1,0(a5)
    1cea:	4689                	li	a3,2
    1cec:	02d59163          	bne	a1,a3,1d0e <NVIC_Init+0x7c>
    1cf0:	3114                	lbu	a3,1(a0)
    1cf2:	213c                	lbu	a5,2(a0)
    1cf4:	00d66563          	bltu	a2,a3,1cfe <NVIC_Init+0x6c>
    1cf8:	068a                	slli	a3,a3,0x2
    1cfa:	97b6                	add	a5,a5,a3
    1cfc:	b75d                	j	1ca2 <NVIC_Init+0x10>
    1cfe:	03e68693          	addi	a3,a3,62 # e000e03e <__freertos_irq_stack_top+0xc000603e>
    1d02:	068a                	slli	a3,a3,0x2
    1d04:	97b6                	add	a5,a5,a3
    1d06:	0ff7f793          	andi	a5,a5,255
    1d0a:	0792                	slli	a5,a5,0x4
    1d0c:	b775                	j	1cb8 <NVIC_Init+0x26>
    1d0e:	4390                	lw	a2,0(a5)
    1d10:	468d                	li	a3,3
    1d12:	00d61c63          	bne	a2,a3,1d2a <NVIC_Init+0x98>
    1d16:	3114                	lbu	a3,1(a0)
    1d18:	213c                	lbu	a5,2(a0)
    1d1a:	00d66463          	bltu	a2,a3,1d22 <NVIC_Init+0x90>
    1d1e:	0686                	slli	a3,a3,0x1
    1d20:	bfe9                	j	1cfa <NVIC_Init+0x68>
    1d22:	07c68693          	addi	a3,a3,124
    1d26:	0686                	slli	a3,a3,0x1
    1d28:	bff1                	j	1d04 <NVIC_Init+0x72>
    1d2a:	4394                	lw	a3,0(a5)
    1d2c:	4791                	li	a5,4
    1d2e:	f8f69ee3          	bne	a3,a5,1cca <NVIC_Init+0x38>
    1d32:	311c                	lbu	a5,1(a0)
    1d34:	b7bd                	j	1ca2 <NVIC_Init+0x10>
    1d36:	06078793          	addi	a5,a5,96
    1d3a:	b74d                	j	1cdc <NVIC_Init+0x4a>

00001d3c <RCC_ADCCLKConfig>:
    1d3c:	400216b7          	lui	a3,0x40021
    1d40:	42dc                	lw	a5,4(a3)
    1d42:	7751                	lui	a4,0xffff4
    1d44:	177d                	addi	a4,a4,-1
    1d46:	8ff9                	and	a5,a5,a4
    1d48:	8d5d                	or	a0,a0,a5
    1d4a:	c2c8                	sw	a0,4(a3)
    1d4c:	8082                	ret

00001d4e <RCC_GetClocksFreq>:
    1d4e:	40021737          	lui	a4,0x40021
    1d52:	435c                	lw	a5,4(a4)
    1d54:	4691                	li	a3,4
    1d56:	8bb1                	andi	a5,a5,12
    1d58:	00d78563          	beq	a5,a3,1d62 <RCC_GetClocksFreq+0x14>
    1d5c:	46a1                	li	a3,8
    1d5e:	06d78263          	beq	a5,a3,1dc2 <RCC_GetClocksFreq+0x74>
    1d62:	007a17b7          	lui	a5,0x7a1
    1d66:	20078793          	addi	a5,a5,512 # 7a1200 <_data_lma+0x794960>
    1d6a:	c11c                	sw	a5,0(a0)
    1d6c:	40021637          	lui	a2,0x40021
    1d70:	425c                	lw	a5,4(a2)
    1d72:	20000737          	lui	a4,0x20000
    1d76:	01070713          	addi	a4,a4,16 # 20000010 <APBAHBPrescTable>
    1d7a:	8391                	srli	a5,a5,0x4
    1d7c:	8bbd                	andi	a5,a5,15
    1d7e:	97ba                	add	a5,a5,a4
    1d80:	2394                	lbu	a3,0(a5)
    1d82:	411c                	lw	a5,0(a0)
    1d84:	00d7d7b3          	srl	a5,a5,a3
    1d88:	c15c                	sw	a5,4(a0)
    1d8a:	4254                	lw	a3,4(a2)
    1d8c:	82a1                	srli	a3,a3,0x8
    1d8e:	8a9d                	andi	a3,a3,7
    1d90:	96ba                	add	a3,a3,a4
    1d92:	2294                	lbu	a3,0(a3)
    1d94:	00d7d6b3          	srl	a3,a5,a3
    1d98:	c514                	sw	a3,8(a0)
    1d9a:	4254                	lw	a3,4(a2)
    1d9c:	82ad                	srli	a3,a3,0xb
    1d9e:	8a9d                	andi	a3,a3,7
    1da0:	9736                	add	a4,a4,a3
    1da2:	2318                	lbu	a4,0(a4)
    1da4:	00e7d7b3          	srl	a5,a5,a4
    1da8:	c55c                	sw	a5,12(a0)
    1daa:	4258                	lw	a4,4(a2)
    1dac:	8339                	srli	a4,a4,0xe
    1dae:	00377693          	andi	a3,a4,3
    1db2:	81018713          	addi	a4,gp,-2032 # 200000e8 <ADCPrescTable>
    1db6:	9736                	add	a4,a4,a3
    1db8:	2318                	lbu	a4,0(a4)
    1dba:	02e7d7b3          	divu	a5,a5,a4
    1dbe:	c91c                	sw	a5,16(a0)
    1dc0:	8082                	ret
    1dc2:	435c                	lw	a5,4(a4)
    1dc4:	4354                	lw	a3,4(a4)
    1dc6:	6741                	lui	a4,0x10
    1dc8:	83c9                	srli	a5,a5,0x12
    1dca:	8ef9                	and	a3,a3,a4
    1dcc:	1ffff737          	lui	a4,0x1ffff
    1dd0:	70c72703          	lw	a4,1804(a4) # 1ffff70c <_data_lma+0x1fff2e6c>
    1dd4:	8bbd                	andi	a5,a5,15
    1dd6:	0789                	addi	a5,a5,2
    1dd8:	01171613          	slli	a2,a4,0x11
    1ddc:	00064863          	bltz	a2,1dec <RCC_GetClocksFreq+0x9e>
    1de0:	4645                	li	a2,17
    1de2:	4701                	li	a4,0
    1de4:	02c79263          	bne	a5,a2,1e08 <RCC_GetClocksFreq+0xba>
    1de8:	47c9                	li	a5,18
    1dea:	a839                	j	1e08 <RCC_GetClocksFreq+0xba>
    1dec:	4709                	li	a4,2
    1dee:	02e78963          	beq	a5,a4,1e20 <RCC_GetClocksFreq+0xd2>
    1df2:	473d                	li	a4,15
    1df4:	02e78863          	beq	a5,a4,1e24 <RCC_GetClocksFreq+0xd6>
    1df8:	4741                	li	a4,16
    1dfa:	02e78863          	beq	a5,a4,1e2a <RCC_GetClocksFreq+0xdc>
    1dfe:	4645                	li	a2,17
    1e00:	4701                	li	a4,0
    1e02:	00c79363          	bne	a5,a2,1e08 <RCC_GetClocksFreq+0xba>
    1e06:	47c1                	li	a5,16
    1e08:	e685                	bnez	a3,1e30 <RCC_GetClocksFreq+0xe2>
    1e0a:	400246b7          	lui	a3,0x40024
    1e0e:	8006a683          	lw	a3,-2048(a3) # 40023800 <__freertos_irq_stack_top+0x2001b800>
    1e12:	8ac1                	andi	a3,a3,16
    1e14:	c68d                	beqz	a3,1e3e <RCC_GetClocksFreq+0xf0>
    1e16:	007a16b7          	lui	a3,0x7a1
    1e1a:	20068693          	addi	a3,a3,512 # 7a1200 <_data_lma+0x794960>
    1e1e:	a025                	j	1e46 <RCC_GetClocksFreq+0xf8>
    1e20:	4701                	li	a4,0
    1e22:	b7d9                	j	1de8 <RCC_GetClocksFreq+0x9a>
    1e24:	4705                	li	a4,1
    1e26:	47b5                	li	a5,13
    1e28:	b7c5                	j	1e08 <RCC_GetClocksFreq+0xba>
    1e2a:	4701                	li	a4,0
    1e2c:	47bd                	li	a5,15
    1e2e:	bfe9                	j	1e08 <RCC_GetClocksFreq+0xba>
    1e30:	400216b7          	lui	a3,0x40021
    1e34:	42d4                	lw	a3,4(a3)
    1e36:	00e69613          	slli	a2,a3,0xe
    1e3a:	fc065ee3          	bgez	a2,1e16 <RCC_GetClocksFreq+0xc8>
    1e3e:	003d16b7          	lui	a3,0x3d1
    1e42:	90068693          	addi	a3,a3,-1792 # 3d0900 <_data_lma+0x3c4060>
    1e46:	02d787b3          	mul	a5,a5,a3
    1e4a:	c11c                	sw	a5,0(a0)
    1e4c:	d305                	beqz	a4,1d6c <RCC_GetClocksFreq+0x1e>
    1e4e:	411c                	lw	a5,0(a0)
    1e50:	8385                	srli	a5,a5,0x1
    1e52:	bf21                	j	1d6a <RCC_GetClocksFreq+0x1c>

00001e54 <RCC_AHBPeriphClockCmd>:
    1e54:	c599                	beqz	a1,1e62 <RCC_AHBPeriphClockCmd+0xe>
    1e56:	40021737          	lui	a4,0x40021
    1e5a:	4b5c                	lw	a5,20(a4)
    1e5c:	8d5d                	or	a0,a0,a5
    1e5e:	cb48                	sw	a0,20(a4)
    1e60:	8082                	ret
    1e62:	400217b7          	lui	a5,0x40021
    1e66:	4bd8                	lw	a4,20(a5)
    1e68:	fff54513          	not	a0,a0
    1e6c:	8d79                	and	a0,a0,a4
    1e6e:	cbc8                	sw	a0,20(a5)
    1e70:	8082                	ret

00001e72 <RCC_APB2PeriphClockCmd>:
    1e72:	c599                	beqz	a1,1e80 <RCC_APB2PeriphClockCmd+0xe>
    1e74:	40021737          	lui	a4,0x40021
    1e78:	4f1c                	lw	a5,24(a4)
    1e7a:	8d5d                	or	a0,a0,a5
    1e7c:	cf08                	sw	a0,24(a4)
    1e7e:	8082                	ret
    1e80:	400217b7          	lui	a5,0x40021
    1e84:	4f98                	lw	a4,24(a5)
    1e86:	fff54513          	not	a0,a0
    1e8a:	8d79                	and	a0,a0,a4
    1e8c:	cf88                	sw	a0,24(a5)
    1e8e:	8082                	ret

00001e90 <RCC_APB1PeriphClockCmd>:
    1e90:	c599                	beqz	a1,1e9e <RCC_APB1PeriphClockCmd+0xe>
    1e92:	40021737          	lui	a4,0x40021
    1e96:	4f5c                	lw	a5,28(a4)
    1e98:	8d5d                	or	a0,a0,a5
    1e9a:	cf48                	sw	a0,28(a4)
    1e9c:	8082                	ret
    1e9e:	400217b7          	lui	a5,0x40021
    1ea2:	4fd8                	lw	a4,28(a5)
    1ea4:	fff54513          	not	a0,a0
    1ea8:	8d79                	and	a0,a0,a4
    1eaa:	cfc8                	sw	a0,28(a5)
    1eac:	8082                	ret

00001eae <RCC_APB2PeriphResetCmd>:
    1eae:	c599                	beqz	a1,1ebc <RCC_APB2PeriphResetCmd+0xe>
    1eb0:	40021737          	lui	a4,0x40021
    1eb4:	475c                	lw	a5,12(a4)
    1eb6:	8d5d                	or	a0,a0,a5
    1eb8:	c748                	sw	a0,12(a4)
    1eba:	8082                	ret
    1ebc:	400217b7          	lui	a5,0x40021
    1ec0:	47d8                	lw	a4,12(a5)
    1ec2:	fff54513          	not	a0,a0
    1ec6:	8d79                	and	a0,a0,a4
    1ec8:	c7c8                	sw	a0,12(a5)
    1eca:	8082                	ret

00001ecc <TIM_TimeBaseInit>:
    1ecc:	211e                	lhu	a5,0(a0)
    1ece:	40013737          	lui	a4,0x40013
    1ed2:	c0070693          	addi	a3,a4,-1024 # 40012c00 <__freertos_irq_stack_top+0x2000ac00>
    1ed6:	07c2                	slli	a5,a5,0x10
    1ed8:	83c1                	srli	a5,a5,0x10
    1eda:	04d50063          	beq	a0,a3,1f1a <TIM_TimeBaseInit+0x4e>
    1ede:	400006b7          	lui	a3,0x40000
    1ee2:	02d50c63          	beq	a0,a3,1f1a <TIM_TimeBaseInit+0x4e>
    1ee6:	40068693          	addi	a3,a3,1024 # 40000400 <__freertos_irq_stack_top+0x1fff8400>
    1eea:	02d50863          	beq	a0,a3,1f1a <TIM_TimeBaseInit+0x4e>
    1eee:	400016b7          	lui	a3,0x40001
    1ef2:	80068613          	addi	a2,a3,-2048 # 40000800 <__freertos_irq_stack_top+0x1fff8800>
    1ef6:	02c50263          	beq	a0,a2,1f1a <TIM_TimeBaseInit+0x4e>
    1efa:	c0068693          	addi	a3,a3,-1024
    1efe:	00d50e63          	beq	a0,a3,1f1a <TIM_TimeBaseInit+0x4e>
    1f02:	40070713          	addi	a4,a4,1024
    1f06:	00e50a63          	beq	a0,a4,1f1a <TIM_TimeBaseInit+0x4e>
    1f0a:	40015737          	lui	a4,0x40015
    1f0e:	c0070693          	addi	a3,a4,-1024 # 40014c00 <__freertos_irq_stack_top+0x2000cc00>
    1f12:	00d50463          	beq	a0,a3,1f1a <TIM_TimeBaseInit+0x4e>
    1f16:	00e51663          	bne	a0,a4,1f22 <TIM_TimeBaseInit+0x56>
    1f1a:	21ba                	lhu	a4,2(a1)
    1f1c:	f8f7f793          	andi	a5,a5,-113
    1f20:	8fd9                	or	a5,a5,a4
    1f22:	40001737          	lui	a4,0x40001
    1f26:	00e50c63          	beq	a0,a4,1f3e <TIM_TimeBaseInit+0x72>
    1f2a:	40070713          	addi	a4,a4,1024 # 40001400 <__freertos_irq_stack_top+0x1fff9400>
    1f2e:	00e50863          	beq	a0,a4,1f3e <TIM_TimeBaseInit+0x72>
    1f32:	cff7f793          	andi	a5,a5,-769
    1f36:	21fa                	lhu	a4,6(a1)
    1f38:	07c2                	slli	a5,a5,0x10
    1f3a:	83c1                	srli	a5,a5,0x10
    1f3c:	8fd9                	or	a5,a5,a4
    1f3e:	a11e                	sh	a5,0(a0)
    1f40:	21de                	lhu	a5,4(a1)
    1f42:	b55e                	sh	a5,44(a0)
    1f44:	219e                	lhu	a5,0(a1)
    1f46:	b51e                	sh	a5,40(a0)
    1f48:	400137b7          	lui	a5,0x40013
    1f4c:	c0078713          	addi	a4,a5,-1024 # 40012c00 <__freertos_irq_stack_top+0x2000ac00>
    1f50:	00e50e63          	beq	a0,a4,1f6c <TIM_TimeBaseInit+0xa0>
    1f54:	40078793          	addi	a5,a5,1024
    1f58:	00f50a63          	beq	a0,a5,1f6c <TIM_TimeBaseInit+0xa0>
    1f5c:	400157b7          	lui	a5,0x40015
    1f60:	c0078713          	addi	a4,a5,-1024 # 40014c00 <__freertos_irq_stack_top+0x2000cc00>
    1f64:	00e50463          	beq	a0,a4,1f6c <TIM_TimeBaseInit+0xa0>
    1f68:	00f51463          	bne	a0,a5,1f70 <TIM_TimeBaseInit+0xa4>
    1f6c:	259c                	lbu	a5,8(a1)
    1f6e:	b91e                	sh	a5,48(a0)
    1f70:	4785                	li	a5,1
    1f72:	a95e                	sh	a5,20(a0)
    1f74:	8082                	ret

00001f76 <TIM_OC1Init>:
    1f76:	311e                	lhu	a5,32(a0)
    1f78:	2192                	lhu	a2,0(a1)
    1f7a:	0025d803          	lhu	a6,2(a1)
    1f7e:	07c2                	slli	a5,a5,0x10
    1f80:	83c1                	srli	a5,a5,0x10
    1f82:	9bf9                	andi	a5,a5,-2
    1f84:	07c2                	slli	a5,a5,0x10
    1f86:	83c1                	srli	a5,a5,0x10
    1f88:	b11e                	sh	a5,32(a0)
    1f8a:	311e                	lhu	a5,32(a0)
    1f8c:	2156                	lhu	a3,4(a0)
    1f8e:	2d1a                	lhu	a4,24(a0)
    1f90:	07c2                	slli	a5,a5,0x10
    1f92:	83c1                	srli	a5,a5,0x10
    1f94:	0742                	slli	a4,a4,0x10
    1f96:	8341                	srli	a4,a4,0x10
    1f98:	f8c77713          	andi	a4,a4,-116
    1f9c:	8f51                	or	a4,a4,a2
    1f9e:	2592                	lhu	a2,8(a1)
    1fa0:	9bf5                	andi	a5,a5,-3
    1fa2:	06c2                	slli	a3,a3,0x10
    1fa4:	01066633          	or	a2,a2,a6
    1fa8:	8fd1                	or	a5,a5,a2
    1faa:	40013637          	lui	a2,0x40013
    1fae:	c0060813          	addi	a6,a2,-1024 # 40012c00 <__freertos_irq_stack_top+0x2000ac00>
    1fb2:	82c1                	srli	a3,a3,0x10
    1fb4:	01050e63          	beq	a0,a6,1fd0 <TIM_OC1Init+0x5a>
    1fb8:	40060613          	addi	a2,a2,1024
    1fbc:	00c50a63          	beq	a0,a2,1fd0 <TIM_OC1Init+0x5a>
    1fc0:	40015637          	lui	a2,0x40015
    1fc4:	c0060813          	addi	a6,a2,-1024 # 40014c00 <__freertos_irq_stack_top+0x2000cc00>
    1fc8:	01050463          	beq	a0,a6,1fd0 <TIM_OC1Init+0x5a>
    1fcc:	02c51063          	bne	a0,a2,1fec <TIM_OC1Init+0x76>
    1fd0:	25b2                	lhu	a2,10(a1)
    1fd2:	9bdd                	andi	a5,a5,-9
    1fd4:	00e5d803          	lhu	a6,14(a1)
    1fd8:	8fd1                	or	a5,a5,a2
    1fda:	21d2                	lhu	a2,4(a1)
    1fdc:	9bed                	andi	a5,a5,-5
    1fde:	cff6f693          	andi	a3,a3,-769
    1fe2:	8fd1                	or	a5,a5,a2
    1fe4:	25d2                	lhu	a2,12(a1)
    1fe6:	01066633          	or	a2,a2,a6
    1fea:	8ed1                	or	a3,a3,a2
    1fec:	a156                	sh	a3,4(a0)
    1fee:	ad1a                	sh	a4,24(a0)
    1ff0:	21fa                	lhu	a4,6(a1)
    1ff2:	b95a                	sh	a4,52(a0)
    1ff4:	b11e                	sh	a5,32(a0)
    1ff6:	8082                	ret

00001ff8 <TIM_OC2Init>:
    1ff8:	311e                	lhu	a5,32(a0)
    1ffa:	7765                	lui	a4,0xffff9
    1ffc:	cff70713          	addi	a4,a4,-769 # ffff8cff <__freertos_irq_stack_top+0xdfff0cff>
    2000:	07c2                	slli	a5,a5,0x10
    2002:	83c1                	srli	a5,a5,0x10
    2004:	9bbd                	andi	a5,a5,-17
    2006:	07c2                	slli	a5,a5,0x10
    2008:	83c1                	srli	a5,a5,0x10
    200a:	b11e                	sh	a5,32(a0)
    200c:	311e                	lhu	a5,32(a0)
    200e:	2156                	lhu	a3,4(a0)
    2010:	0085d803          	lhu	a6,8(a1)
    2014:	07c2                	slli	a5,a5,0x10
    2016:	01069613          	slli	a2,a3,0x10
    201a:	2d16                	lhu	a3,24(a0)
    201c:	83c1                	srli	a5,a5,0x10
    201e:	fdf7f793          	andi	a5,a5,-33
    2022:	8f75                	and	a4,a4,a3
    2024:	2196                	lhu	a3,0(a1)
    2026:	8241                	srli	a2,a2,0x10
    2028:	06a2                	slli	a3,a3,0x8
    202a:	8f55                	or	a4,a4,a3
    202c:	21b6                	lhu	a3,2(a1)
    202e:	0742                	slli	a4,a4,0x10
    2030:	8341                	srli	a4,a4,0x10
    2032:	0106e6b3          	or	a3,a3,a6
    2036:	0692                	slli	a3,a3,0x4
    2038:	8fd5                	or	a5,a5,a3
    203a:	400136b7          	lui	a3,0x40013
    203e:	07c2                	slli	a5,a5,0x10
    2040:	c0068813          	addi	a6,a3,-1024 # 40012c00 <__freertos_irq_stack_top+0x2000ac00>
    2044:	83c1                	srli	a5,a5,0x10
    2046:	01050e63          	beq	a0,a6,2062 <TIM_OC2Init+0x6a>
    204a:	40068693          	addi	a3,a3,1024
    204e:	00d50a63          	beq	a0,a3,2062 <TIM_OC2Init+0x6a>
    2052:	400156b7          	lui	a3,0x40015
    2056:	c0068813          	addi	a6,a3,-1024 # 40014c00 <__freertos_irq_stack_top+0x2000cc00>
    205a:	01050463          	beq	a0,a6,2062 <TIM_OC2Init+0x6a>
    205e:	02d51e63          	bne	a0,a3,209a <TIM_OC2Init+0xa2>
    2062:	25b6                	lhu	a3,10(a1)
    2064:	f7f7f793          	andi	a5,a5,-129
    2068:	00c5d803          	lhu	a6,12(a1)
    206c:	0692                	slli	a3,a3,0x4
    206e:	8fd5                	or	a5,a5,a3
    2070:	21d6                	lhu	a3,4(a1)
    2072:	07c2                	slli	a5,a5,0x10
    2074:	83c1                	srli	a5,a5,0x10
    2076:	0692                	slli	a3,a3,0x4
    2078:	fbf7f793          	andi	a5,a5,-65
    207c:	8fd5                	or	a5,a5,a3
    207e:	76fd                	lui	a3,0xfffff
    2080:	3ff68693          	addi	a3,a3,1023 # fffff3ff <__freertos_irq_stack_top+0xdfff73ff>
    2084:	8ef1                	and	a3,a3,a2
    2086:	25f2                	lhu	a2,14(a1)
    2088:	07c2                	slli	a5,a5,0x10
    208a:	83c1                	srli	a5,a5,0x10
    208c:	01066633          	or	a2,a2,a6
    2090:	060a                	slli	a2,a2,0x2
    2092:	8ed1                	or	a3,a3,a2
    2094:	01069613          	slli	a2,a3,0x10
    2098:	8241                	srli	a2,a2,0x10
    209a:	a152                	sh	a2,4(a0)
    209c:	ad1a                	sh	a4,24(a0)
    209e:	21fa                	lhu	a4,6(a1)
    20a0:	bd1a                	sh	a4,56(a0)
    20a2:	b11e                	sh	a5,32(a0)
    20a4:	8082                	ret

000020a6 <TIM_OC3Init>:
    20a6:	311e                	lhu	a5,32(a0)
    20a8:	0085d803          	lhu	a6,8(a1)
    20ac:	07c2                	slli	a5,a5,0x10
    20ae:	83c1                	srli	a5,a5,0x10
    20b0:	eff7f793          	andi	a5,a5,-257
    20b4:	07c2                	slli	a5,a5,0x10
    20b6:	83c1                	srli	a5,a5,0x10
    20b8:	b11e                	sh	a5,32(a0)
    20ba:	311e                	lhu	a5,32(a0)
    20bc:	2156                	lhu	a3,4(a0)
    20be:	2d5a                	lhu	a4,28(a0)
    20c0:	07c2                	slli	a5,a5,0x10
    20c2:	01069613          	slli	a2,a3,0x10
    20c6:	0742                	slli	a4,a4,0x10
    20c8:	2196                	lhu	a3,0(a1)
    20ca:	8341                	srli	a4,a4,0x10
    20cc:	f8c77713          	andi	a4,a4,-116
    20d0:	8f55                	or	a4,a4,a3
    20d2:	21b6                	lhu	a3,2(a1)
    20d4:	83c1                	srli	a5,a5,0x10
    20d6:	dff7f793          	andi	a5,a5,-513
    20da:	0106e6b3          	or	a3,a3,a6
    20de:	06a2                	slli	a3,a3,0x8
    20e0:	8fd5                	or	a5,a5,a3
    20e2:	400136b7          	lui	a3,0x40013
    20e6:	07c2                	slli	a5,a5,0x10
    20e8:	c0068813          	addi	a6,a3,-1024 # 40012c00 <__freertos_irq_stack_top+0x2000ac00>
    20ec:	8241                	srli	a2,a2,0x10
    20ee:	83c1                	srli	a5,a5,0x10
    20f0:	01050e63          	beq	a0,a6,210c <TIM_OC3Init+0x66>
    20f4:	40068693          	addi	a3,a3,1024
    20f8:	00d50a63          	beq	a0,a3,210c <TIM_OC3Init+0x66>
    20fc:	400156b7          	lui	a3,0x40015
    2100:	c0068813          	addi	a6,a3,-1024 # 40014c00 <__freertos_irq_stack_top+0x2000cc00>
    2104:	01050463          	beq	a0,a6,210c <TIM_OC3Init+0x66>
    2108:	02d51f63          	bne	a0,a3,2146 <TIM_OC3Init+0xa0>
    210c:	76fd                	lui	a3,0xfffff
    210e:	7ff68693          	addi	a3,a3,2047 # fffff7ff <__freertos_irq_stack_top+0xdfff77ff>
    2112:	8ff5                	and	a5,a5,a3
    2114:	25b6                	lhu	a3,10(a1)
    2116:	00c5d803          	lhu	a6,12(a1)
    211a:	06a2                	slli	a3,a3,0x8
    211c:	8fd5                	or	a5,a5,a3
    211e:	21d6                	lhu	a3,4(a1)
    2120:	07c2                	slli	a5,a5,0x10
    2122:	83c1                	srli	a5,a5,0x10
    2124:	06a2                	slli	a3,a3,0x8
    2126:	bff7f793          	andi	a5,a5,-1025
    212a:	8fd5                	or	a5,a5,a3
    212c:	76f5                	lui	a3,0xffffd
    212e:	16fd                	addi	a3,a3,-1
    2130:	8ef1                	and	a3,a3,a2
    2132:	25f2                	lhu	a2,14(a1)
    2134:	07c2                	slli	a5,a5,0x10
    2136:	83c1                	srli	a5,a5,0x10
    2138:	01066633          	or	a2,a2,a6
    213c:	0612                	slli	a2,a2,0x4
    213e:	8ed1                	or	a3,a3,a2
    2140:	01069613          	slli	a2,a3,0x10
    2144:	8241                	srli	a2,a2,0x10
    2146:	a152                	sh	a2,4(a0)
    2148:	ad5a                	sh	a4,28(a0)
    214a:	21fa                	lhu	a4,6(a1)
    214c:	bd5a                	sh	a4,60(a0)
    214e:	b11e                	sh	a5,32(a0)
    2150:	8082                	ret

00002152 <TIM_OC4Init>:
    2152:	311a                	lhu	a4,32(a0)
    2154:	77fd                	lui	a5,0xfffff
    2156:	17fd                	addi	a5,a5,-1
    2158:	8ff9                	and	a5,a5,a4
    215a:	b11e                	sh	a5,32(a0)
    215c:	02055803          	lhu	a6,32(a0)
    2160:	2156                	lhu	a3,4(a0)
    2162:	2d5e                	lhu	a5,28(a0)
    2164:	7765                	lui	a4,0xffff9
    2166:	01069613          	slli	a2,a3,0x10
    216a:	2196                	lhu	a3,0(a1)
    216c:	cff70713          	addi	a4,a4,-769 # ffff8cff <__freertos_irq_stack_top+0xdfff0cff>
    2170:	8f7d                	and	a4,a4,a5
    2172:	77f9                	lui	a5,0xffffe
    2174:	06a2                	slli	a3,a3,0x8
    2176:	17fd                	addi	a5,a5,-1
    2178:	8f55                	or	a4,a4,a3
    217a:	0107f7b3          	and	a5,a5,a6
    217e:	21b6                	lhu	a3,2(a1)
    2180:	0085d803          	lhu	a6,8(a1)
    2184:	0742                	slli	a4,a4,0x10
    2186:	8241                	srli	a2,a2,0x10
    2188:	0106e6b3          	or	a3,a3,a6
    218c:	06b2                	slli	a3,a3,0xc
    218e:	8fd5                	or	a5,a5,a3
    2190:	400136b7          	lui	a3,0x40013
    2194:	07c2                	slli	a5,a5,0x10
    2196:	c0068813          	addi	a6,a3,-1024 # 40012c00 <__freertos_irq_stack_top+0x2000ac00>
    219a:	8341                	srli	a4,a4,0x10
    219c:	83c1                	srli	a5,a5,0x10
    219e:	01050e63          	beq	a0,a6,21ba <TIM_OC4Init+0x68>
    21a2:	40068693          	addi	a3,a3,1024
    21a6:	00d50a63          	beq	a0,a3,21ba <TIM_OC4Init+0x68>
    21aa:	400156b7          	lui	a3,0x40015
    21ae:	c0068813          	addi	a6,a3,-1024 # 40014c00 <__freertos_irq_stack_top+0x2000cc00>
    21b2:	01050463          	beq	a0,a6,21ba <TIM_OC4Init+0x68>
    21b6:	00d51b63          	bne	a0,a3,21cc <TIM_OC4Init+0x7a>
    21ba:	76f1                	lui	a3,0xffffc
    21bc:	16fd                	addi	a3,a3,-1
    21be:	8ef1                	and	a3,a3,a2
    21c0:	25d2                	lhu	a2,12(a1)
    21c2:	061a                	slli	a2,a2,0x6
    21c4:	8ed1                	or	a3,a3,a2
    21c6:	01069613          	slli	a2,a3,0x10
    21ca:	8241                	srli	a2,a2,0x10
    21cc:	a152                	sh	a2,4(a0)
    21ce:	ad5a                	sh	a4,28(a0)
    21d0:	21fa                	lhu	a4,6(a1)
    21d2:	04e51023          	sh	a4,64(a0)
    21d6:	b11e                	sh	a5,32(a0)
    21d8:	8082                	ret

000021da <TIM_Cmd>:
    21da:	211e                	lhu	a5,0(a0)
    21dc:	c589                	beqz	a1,21e6 <TIM_Cmd+0xc>
    21de:	0017e793          	ori	a5,a5,1
    21e2:	a11e                	sh	a5,0(a0)
    21e4:	8082                	ret
    21e6:	07c2                	slli	a5,a5,0x10
    21e8:	83c1                	srli	a5,a5,0x10
    21ea:	9bf9                	andi	a5,a5,-2
    21ec:	07c2                	slli	a5,a5,0x10
    21ee:	83c1                	srli	a5,a5,0x10
    21f0:	bfcd                	j	21e2 <TIM_Cmd+0x8>

000021f2 <TIM_CtrlPWMOutputs>:
    21f2:	04455783          	lhu	a5,68(a0)
    21f6:	c591                	beqz	a1,2202 <TIM_CtrlPWMOutputs+0x10>
    21f8:	6721                	lui	a4,0x8
    21fa:	8fd9                	or	a5,a5,a4
    21fc:	04f51223          	sh	a5,68(a0)
    2200:	8082                	ret
    2202:	07c6                	slli	a5,a5,0x11
    2204:	83c5                	srli	a5,a5,0x11
    2206:	bfdd                	j	21fc <TIM_CtrlPWMOutputs+0xa>

00002208 <TIM_ARRPreloadConfig>:
    2208:	211e                	lhu	a5,0(a0)
    220a:	c589                	beqz	a1,2214 <TIM_ARRPreloadConfig+0xc>
    220c:	0807e793          	ori	a5,a5,128
    2210:	a11e                	sh	a5,0(a0)
    2212:	8082                	ret
    2214:	07c2                	slli	a5,a5,0x10
    2216:	83c1                	srli	a5,a5,0x10
    2218:	f7f7f793          	andi	a5,a5,-129
    221c:	07c2                	slli	a5,a5,0x10
    221e:	83c1                	srli	a5,a5,0x10
    2220:	bfc5                	j	2210 <TIM_ARRPreloadConfig+0x8>

00002222 <TIM_OC1PreloadConfig>:
    2222:	2d1e                	lhu	a5,24(a0)
    2224:	07c2                	slli	a5,a5,0x10
    2226:	83c1                	srli	a5,a5,0x10
    2228:	9bdd                	andi	a5,a5,-9
    222a:	8ddd                	or	a1,a1,a5
    222c:	ad0e                	sh	a1,24(a0)
    222e:	8082                	ret

00002230 <TIM_OC2PreloadConfig>:
    2230:	2d1a                	lhu	a4,24(a0)
    2232:	77fd                	lui	a5,0xfffff
    2234:	7ff78793          	addi	a5,a5,2047 # fffff7ff <__freertos_irq_stack_top+0xdfff77ff>
    2238:	8ff9                	and	a5,a5,a4
    223a:	05a2                	slli	a1,a1,0x8
    223c:	8fcd                	or	a5,a5,a1
    223e:	07c2                	slli	a5,a5,0x10
    2240:	83c1                	srli	a5,a5,0x10
    2242:	ad1e                	sh	a5,24(a0)
    2244:	8082                	ret

00002246 <TIM_OC3PreloadConfig>:
    2246:	2d5e                	lhu	a5,28(a0)
    2248:	07c2                	slli	a5,a5,0x10
    224a:	83c1                	srli	a5,a5,0x10
    224c:	9bdd                	andi	a5,a5,-9
    224e:	8ddd                	or	a1,a1,a5
    2250:	ad4e                	sh	a1,28(a0)
    2252:	8082                	ret

00002254 <TIM_OC4PreloadConfig>:
    2254:	2d5a                	lhu	a4,28(a0)
    2256:	77fd                	lui	a5,0xfffff
    2258:	7ff78793          	addi	a5,a5,2047 # fffff7ff <__freertos_irq_stack_top+0xdfff77ff>
    225c:	8ff9                	and	a5,a5,a4
    225e:	05a2                	slli	a1,a1,0x8
    2260:	8fcd                	or	a5,a5,a1
    2262:	07c2                	slli	a5,a5,0x10
    2264:	83c1                	srli	a5,a5,0x10
    2266:	ad5e                	sh	a5,28(a0)
    2268:	8082                	ret

0000226a <TIM_SetCompare1>:
    226a:	b94e                	sh	a1,52(a0)
    226c:	8082                	ret

0000226e <TIM_SetCompare2>:
    226e:	bd0e                	sh	a1,56(a0)
    2270:	8082                	ret

00002272 <TIM_SetCompare3>:
    2272:	bd4e                	sh	a1,60(a0)
    2274:	8082                	ret

00002276 <TIM_SetCompare4>:
    2276:	04b51023          	sh	a1,64(a0)
    227a:	8082                	ret

0000227c <TIM_GetCapture1>:
    227c:	394a                	lhu	a0,52(a0)
    227e:	8082                	ret

00002280 <TIM_GetCapture2>:
    2280:	3d0a                	lhu	a0,56(a0)
    2282:	8082                	ret

00002284 <TIM_GetCapture3>:
    2284:	3d4a                	lhu	a0,60(a0)
    2286:	8082                	ret

00002288 <TIM_GetCapture4>:
    2288:	04055503          	lhu	a0,64(a0)
    228c:	8082                	ret

0000228e <TIM_ClearFlag>:
    228e:	fff5c593          	not	a1,a1
    2292:	05c2                	slli	a1,a1,0x10
    2294:	81c1                	srli	a1,a1,0x10
    2296:	a90e                	sh	a1,16(a0)
    2298:	8082                	ret

0000229a <USART_Init>:
    229a:	a7cfe2ef          	jal	t0,516 <__riscv_save_0>
    229e:	2916                	lhu	a3,16(a0)
    22a0:	77f5                	lui	a5,0xffffd
    22a2:	17fd                	addi	a5,a5,-1
    22a4:	8ff5                	and	a5,a5,a3
    22a6:	21f6                	lhu	a3,6(a1)
    22a8:	25da                	lhu	a4,12(a1)
    22aa:	7179                	addi	sp,sp,-48
    22ac:	8fd5                	or	a5,a5,a3
    22ae:	a91e                	sh	a5,16(a0)
    22b0:	2556                	lhu	a3,12(a0)
    22b2:	77fd                	lui	a5,0xfffff
    22b4:	9f378793          	addi	a5,a5,-1549 # ffffe9f3 <__freertos_irq_stack_top+0xdfff69f3>
    22b8:	8ff5                	and	a5,a5,a3
    22ba:	21d6                	lhu	a3,4(a1)
    22bc:	842a                	mv	s0,a0
    22be:	c62e                	sw	a1,12(sp)
    22c0:	8fd5                	or	a5,a5,a3
    22c2:	2596                	lhu	a3,8(a1)
    22c4:	8fd5                	or	a5,a5,a3
    22c6:	25b6                	lhu	a3,10(a1)
    22c8:	8fd5                	or	a5,a5,a3
    22ca:	a55e                	sh	a5,12(a0)
    22cc:	295e                	lhu	a5,20(a0)
    22ce:	07c2                	slli	a5,a5,0x10
    22d0:	83c1                	srli	a5,a5,0x10
    22d2:	cff7f793          	andi	a5,a5,-769
    22d6:	8fd9                	or	a5,a5,a4
    22d8:	a95e                	sh	a5,20(a0)
    22da:	0868                	addi	a0,sp,28
    22dc:	a73ff0ef          	jal	ra,1d4e <RCC_GetClocksFreq>
    22e0:	400147b7          	lui	a5,0x40014
    22e4:	80078793          	addi	a5,a5,-2048 # 40013800 <__freertos_irq_stack_top+0x2000b800>
    22e8:	45b2                	lw	a1,12(sp)
    22ea:	04f41a63          	bne	s0,a5,233e <USART_Init+0xa4>
    22ee:	57a2                	lw	a5,40(sp)
    22f0:	2456                	lhu	a3,12(s0)
    22f2:	4765                	li	a4,25
    22f4:	02e787b3          	mul	a5,a5,a4
    22f8:	06c2                	slli	a3,a3,0x10
    22fa:	86c1                	srai	a3,a3,0x10
    22fc:	4198                	lw	a4,0(a1)
    22fe:	0406d263          	bgez	a3,2342 <USART_Init+0xa8>
    2302:	0706                	slli	a4,a4,0x1
    2304:	2452                	lhu	a2,12(s0)
    2306:	0642                	slli	a2,a2,0x10
    2308:	02e7d7b3          	divu	a5,a5,a4
    230c:	06400713          	li	a4,100
    2310:	8641                	srai	a2,a2,0x10
    2312:	02e7d6b3          	divu	a3,a5,a4
    2316:	02e7f7b3          	remu	a5,a5,a4
    231a:	0692                	slli	a3,a3,0x4
    231c:	02065563          	bgez	a2,2346 <USART_Init+0xac>
    2320:	078e                	slli	a5,a5,0x3
    2322:	03278793          	addi	a5,a5,50
    2326:	02e7d7b3          	divu	a5,a5,a4
    232a:	0077f713          	andi	a4,a5,7
    232e:	00d767b3          	or	a5,a4,a3
    2332:	07c2                	slli	a5,a5,0x10
    2334:	83c1                	srli	a5,a5,0x10
    2336:	a41e                	sh	a5,8(s0)
    2338:	6145                	addi	sp,sp,48
    233a:	a00fe06f          	j	53a <__riscv_restore_0>
    233e:	5792                	lw	a5,36(sp)
    2340:	bf45                	j	22f0 <USART_Init+0x56>
    2342:	070a                	slli	a4,a4,0x2
    2344:	b7c1                	j	2304 <USART_Init+0x6a>
    2346:	0792                	slli	a5,a5,0x4
    2348:	03278793          	addi	a5,a5,50
    234c:	02e7d7b3          	divu	a5,a5,a4
    2350:	8bbd                	andi	a5,a5,15
    2352:	8fd5                	or	a5,a5,a3
    2354:	bff9                	j	2332 <USART_Init+0x98>

00002356 <USART_Cmd>:
    2356:	c591                	beqz	a1,2362 <USART_Cmd+0xc>
    2358:	255e                	lhu	a5,12(a0)
    235a:	6709                	lui	a4,0x2
    235c:	8fd9                	or	a5,a5,a4
    235e:	a55e                	sh	a5,12(a0)
    2360:	8082                	ret
    2362:	255a                	lhu	a4,12(a0)
    2364:	77f9                	lui	a5,0xffffe
    2366:	17fd                	addi	a5,a5,-1
    2368:	8ff9                	and	a5,a5,a4
    236a:	bfd5                	j	235e <USART_Cmd+0x8>

0000236c <USART_ITConfig>:
    236c:	0ff5f713          	andi	a4,a1,255
    2370:	4785                	li	a5,1
    2372:	8315                	srli	a4,a4,0x5
    2374:	00b795b3          	sll	a1,a5,a1
    2378:	00f71963          	bne	a4,a5,238a <USART_ITConfig+0x1e>
    237c:	00c50793          	addi	a5,a0,12
    2380:	4398                	lw	a4,0(a5)
    2382:	ce01                	beqz	a2,239a <USART_ITConfig+0x2e>
    2384:	8dd9                	or	a1,a1,a4
    2386:	c38c                	sw	a1,0(a5)
    2388:	8082                	ret
    238a:	4689                	li	a3,2
    238c:	01450793          	addi	a5,a0,20
    2390:	fed718e3          	bne	a4,a3,2380 <USART_ITConfig+0x14>
    2394:	01050793          	addi	a5,a0,16
    2398:	b7e5                	j	2380 <USART_ITConfig+0x14>
    239a:	fff5c593          	not	a1,a1
    239e:	8df9                	and	a1,a1,a4
    23a0:	b7dd                	j	2386 <USART_ITConfig+0x1a>

000023a2 <USART_SendData>:
    23a2:	1ff5f593          	andi	a1,a1,511
    23a6:	a14e                	sh	a1,4(a0)
    23a8:	8082                	ret

000023aa <USART_ReceiveData>:
    23aa:	214a                	lhu	a0,4(a0)
    23ac:	1ff57513          	andi	a0,a0,511
    23b0:	8082                	ret

000023b2 <USART_GetFlagStatus>:
    23b2:	210a                	lhu	a0,0(a0)
    23b4:	8d6d                	and	a0,a0,a1
    23b6:	00a03533          	snez	a0,a0
    23ba:	8082                	ret

000023bc <USART_ClearFlag>:
    23bc:	fff5c593          	not	a1,a1
    23c0:	05c2                	slli	a1,a1,0x10
    23c2:	81c1                	srli	a1,a1,0x10
    23c4:	a10e                	sh	a1,0(a0)
    23c6:	8082                	ret

000023c8 <USART_GetITStatus>:
    23c8:	0ff5f713          	andi	a4,a1,255
    23cc:	4685                	li	a3,1
    23ce:	8315                	srli	a4,a4,0x5
    23d0:	00b697b3          	sll	a5,a3,a1
    23d4:	02d71163          	bne	a4,a3,23f6 <USART_GetITStatus+0x2e>
    23d8:	255a                	lhu	a4,12(a0)
    23da:	8ff9                	and	a5,a5,a4
    23dc:	211a                	lhu	a4,0(a0)
    23de:	4501                	li	a0,0
    23e0:	0742                	slli	a4,a4,0x10
    23e2:	8341                	srli	a4,a4,0x10
    23e4:	cb81                	beqz	a5,23f4 <USART_GetITStatus+0x2c>
    23e6:	4505                	li	a0,1
    23e8:	81a1                	srli	a1,a1,0x8
    23ea:	00b515b3          	sll	a1,a0,a1
    23ee:	8f6d                	and	a4,a4,a1
    23f0:	00e03533          	snez	a0,a4
    23f4:	8082                	ret
    23f6:	4689                	li	a3,2
    23f8:	00d71463          	bne	a4,a3,2400 <USART_GetITStatus+0x38>
    23fc:	291a                	lhu	a4,16(a0)
    23fe:	bff1                	j	23da <USART_GetITStatus+0x12>
    2400:	295a                	lhu	a4,20(a0)
    2402:	bfe1                	j	23da <USART_GetITStatus+0x12>

00002404 <get_st_biases>:
    2404:	8f8fe2ef          	jal	t0,4fc <__riscv_save_4>
    2408:	20000437          	lui	s0,0x20000
    240c:	1141                	addi	sp,sp,-16
    240e:	02c40493          	addi	s1,s0,44 # 2000002c <st>
    2412:	4785                	li	a5,1
    2414:	4098                	lw	a4,0(s1)
    2416:	827c                	sh	a5,4(sp)
    2418:	40dc                	lw	a5,4(s1)
    241a:	89aa                	mv	s3,a0
    241c:	892e                	mv	s2,a1
    241e:	2388                	lbu	a0,0(a5)
    2420:	2b2c                	lbu	a1,18(a4)
    2422:	0054                	addi	a3,sp,4
    2424:	8a32                	mv	s4,a2
    2426:	4609                	li	a2,2
    2428:	274020ef          	jal	ra,469c <MPU6050_I2C_Mem_Write>
    242c:	0c800513          	li	a0,200
    2430:	073040ef          	jal	ra,6ca2 <Delay_Ms>
    2434:	4098                	lw	a4,0(s1)
    2436:	40dc                	lw	a5,4(s1)
    2438:	00010223          	sb	zero,4(sp)
    243c:	376c                	lbu	a1,15(a4)
    243e:	2388                	lbu	a0,0(a5)
    2440:	0054                	addi	a3,sp,4
    2442:	4605                	li	a2,1
    2444:	258020ef          	jal	ra,469c <MPU6050_I2C_Mem_Write>
    2448:	4098                	lw	a4,0(s1)
    244a:	40dc                	lw	a5,4(s1)
    244c:	0054                	addi	a3,sp,4
    244e:	334c                	lbu	a1,5(a4)
    2450:	2388                	lbu	a0,0(a5)
    2452:	4605                	li	a2,1
    2454:	02c40413          	addi	s0,s0,44
    2458:	244020ef          	jal	ra,469c <MPU6050_I2C_Mem_Write>
    245c:	4098                	lw	a4,0(s1)
    245e:	40dc                	lw	a5,4(s1)
    2460:	0054                	addi	a3,sp,4
    2462:	2b2c                	lbu	a1,18(a4)
    2464:	2388                	lbu	a0,0(a5)
    2466:	4605                	li	a2,1
    2468:	234020ef          	jal	ra,469c <MPU6050_I2C_Mem_Write>
    246c:	4098                	lw	a4,0(s1)
    246e:	40dc                	lw	a5,4(s1)
    2470:	0054                	addi	a3,sp,4
    2472:	3b6c                	lbu	a1,23(a4)
    2474:	2388                	lbu	a0,0(a5)
    2476:	4605                	li	a2,1
    2478:	224020ef          	jal	ra,469c <MPU6050_I2C_Mem_Write>
    247c:	4098                	lw	a4,0(s1)
    247e:	40dc                	lw	a5,4(s1)
    2480:	0054                	addi	a3,sp,4
    2482:	234c                	lbu	a1,4(a4)
    2484:	2388                	lbu	a0,0(a5)
    2486:	4605                	li	a2,1
    2488:	214020ef          	jal	ra,469c <MPU6050_I2C_Mem_Write>
    248c:	47b1                	li	a5,12
    248e:	825c                	sb	a5,4(sp)
    2490:	4098                	lw	a4,0(s1)
    2492:	40dc                	lw	a5,4(s1)
    2494:	0054                	addi	a3,sp,4
    2496:	234c                	lbu	a1,4(a4)
    2498:	2388                	lbu	a0,0(a5)
    249a:	4605                	li	a2,1
    249c:	200020ef          	jal	ra,469c <MPU6050_I2C_Mem_Write>
    24a0:	453d                	li	a0,15
    24a2:	001040ef          	jal	ra,6ca2 <Delay_Ms>
    24a6:	549c                	lw	a5,40(s1)
    24a8:	4098                	lw	a4,0(s1)
    24aa:	0054                	addi	a3,sp,4
    24ac:	379c                	lbu	a5,9(a5)
    24ae:	4605                	li	a2,1
    24b0:	825c                	sb	a5,4(sp)
    24b2:	40dc                	lw	a5,4(s1)
    24b4:	232c                	lbu	a1,2(a4)
    24b6:	2388                	lbu	a0,0(a5)
    24b8:	1e4020ef          	jal	ra,469c <MPU6050_I2C_Mem_Write>
    24bc:	549c                	lw	a5,40(s1)
    24be:	4098                	lw	a4,0(s1)
    24c0:	0054                	addi	a3,sp,4
    24c2:	279c                	lbu	a5,8(a5)
    24c4:	4605                	li	a2,1
    24c6:	825c                	sb	a5,4(sp)
    24c8:	40dc                	lw	a5,4(s1)
    24ca:	330c                	lbu	a1,1(a4)
    24cc:	2388                	lbu	a0,0(a5)
    24ce:	1ce020ef          	jal	ra,469c <MPU6050_I2C_Mem_Write>
    24d2:	541c                	lw	a5,40(s0)
    24d4:	27bc                	lbu	a5,10(a5)
    24d6:	000a0463          	beqz	s4,24de <get_st_biases+0xda>
    24da:	0e07e793          	ori	a5,a5,224
    24de:	825c                	sb	a5,4(sp)
    24e0:	4018                	lw	a4,0(s0)
    24e2:	405c                	lw	a5,4(s0)
    24e4:	0054                	addi	a3,sp,4
    24e6:	236c                	lbu	a1,6(a4)
    24e8:	2388                	lbu	a0,0(a5)
    24ea:	4605                	li	a2,1
    24ec:	1b0020ef          	jal	ra,469c <MPU6050_I2C_Mem_Write>
    24f0:	47e1                	li	a5,24
    24f2:	000a0663          	beqz	s4,24fe <get_st_biases+0xfa>
    24f6:	541c                	lw	a5,40(s0)
    24f8:	37bc                	lbu	a5,11(a5)
    24fa:	0e07e793          	ori	a5,a5,224
    24fe:	825c                	sb	a5,4(sp)
    2500:	4018                	lw	a4,0(s0)
    2502:	405c                	lw	a5,4(s0)
    2504:	0054                	addi	a3,sp,4
    2506:	336c                	lbu	a1,7(a4)
    2508:	2388                	lbu	a0,0(a5)
    250a:	4605                	li	a2,1
    250c:	190020ef          	jal	ra,469c <MPU6050_I2C_Mem_Write>
    2510:	000a0663          	beqz	s4,251c <get_st_biases+0x118>
    2514:	0c800513          	li	a0,200
    2518:	78a040ef          	jal	ra,6ca2 <Delay_Ms>
    251c:	04000793          	li	a5,64
    2520:	825c                	sb	a5,4(sp)
    2522:	4018                	lw	a4,0(s0)
    2524:	405c                	lw	a5,4(s0)
    2526:	0054                	addi	a3,sp,4
    2528:	234c                	lbu	a1,4(a4)
    252a:	2388                	lbu	a0,0(a5)
    252c:	4605                	li	a2,1
    252e:	4481                	li	s1,0
    2530:	16c020ef          	jal	ra,469c <MPU6050_I2C_Mem_Write>
    2534:	07800793          	li	a5,120
    2538:	825c                	sb	a5,4(sp)
    253a:	4018                	lw	a4,0(s0)
    253c:	405c                	lw	a5,4(s0)
    253e:	0054                	addi	a3,sp,4
    2540:	334c                	lbu	a1,5(a4)
    2542:	2388                	lbu	a0,0(a5)
    2544:	4605                	li	a2,1
    2546:	156020ef          	jal	ra,469c <MPU6050_I2C_Mem_Write>
    254a:	03200513          	li	a0,50
    254e:	754040ef          	jal	ra,6ca2 <Delay_Ms>
    2552:	4018                	lw	a4,0(s0)
    2554:	405c                	lw	a5,4(s0)
    2556:	00010223          	sb	zero,4(sp)
    255a:	334c                	lbu	a1,5(a4)
    255c:	2388                	lbu	a0,0(a5)
    255e:	0054                	addi	a3,sp,4
    2560:	4605                	li	a2,1
    2562:	13a020ef          	jal	ra,469c <MPU6050_I2C_Mem_Write>
    2566:	405c                	lw	a5,4(s0)
    2568:	4018                	lw	a4,0(s0)
    256a:	0054                	addi	a3,sp,4
    256c:	2388                	lbu	a0,0(a5)
    256e:	272c                	lbu	a1,10(a4)
    2570:	4609                	li	a2,2
    2572:	32a020ef          	jal	ra,489c <MPU6050_I2C_Mem_Read>
    2576:	00414a03          	lbu	s4,4(sp)
    257a:	829c                	lbu	a5,5(sp)
    257c:	0009a423          	sw	zero,8(s3)
    2580:	0a22                	slli	s4,s4,0x8
    2582:	00fa6a33          	or	s4,s4,a5
    2586:	47b1                	li	a5,12
    2588:	02fa5a33          	divu	s4,s4,a5
    258c:	0009a223          	sw	zero,4(s3)
    2590:	0009a023          	sw	zero,0(s3)
    2594:	00092423          	sw	zero,8(s2)
    2598:	00092223          	sw	zero,4(s2)
    259c:	00092023          	sw	zero,0(s2)
    25a0:	0ffa7a13          	andi	s4,s4,255
    25a4:	15449163          	bne	s1,s4,26e6 <get_st_biases+0x2e2>
    25a8:	0009a503          	lw	a0,0(s3)
    25ac:	08300613          	li	a2,131
    25b0:	4681                	li	a3,0
    25b2:	41f55793          	srai	a5,a0,0x1f
    25b6:	07c2                	slli	a5,a5,0x10
    25b8:	01055593          	srli	a1,a0,0x10
    25bc:	8ddd                	or	a1,a1,a5
    25be:	0542                	slli	a0,a0,0x10
    25c0:	0f7050ef          	jal	ra,7eb6 <__divdi3>
    25c4:	8626                	mv	a2,s1
    25c6:	4681                	li	a3,0
    25c8:	0ef050ef          	jal	ra,7eb6 <__divdi3>
    25cc:	00a9a023          	sw	a0,0(s3)
    25d0:	0049a503          	lw	a0,4(s3)
    25d4:	08300613          	li	a2,131
    25d8:	4681                	li	a3,0
    25da:	41f55793          	srai	a5,a0,0x1f
    25de:	07c2                	slli	a5,a5,0x10
    25e0:	01055593          	srli	a1,a0,0x10
    25e4:	8ddd                	or	a1,a1,a5
    25e6:	0542                	slli	a0,a0,0x10
    25e8:	0cf050ef          	jal	ra,7eb6 <__divdi3>
    25ec:	8626                	mv	a2,s1
    25ee:	4681                	li	a3,0
    25f0:	0c7050ef          	jal	ra,7eb6 <__divdi3>
    25f4:	00a9a223          	sw	a0,4(s3)
    25f8:	0089a503          	lw	a0,8(s3)
    25fc:	08300613          	li	a2,131
    2600:	4681                	li	a3,0
    2602:	41f55793          	srai	a5,a0,0x1f
    2606:	07c2                	slli	a5,a5,0x10
    2608:	01055593          	srli	a1,a0,0x10
    260c:	8ddd                	or	a1,a1,a5
    260e:	0542                	slli	a0,a0,0x10
    2610:	0a7050ef          	jal	ra,7eb6 <__divdi3>
    2614:	8626                	mv	a2,s1
    2616:	4681                	li	a3,0
    2618:	09f050ef          	jal	ra,7eb6 <__divdi3>
    261c:	00a9a423          	sw	a0,8(s3)
    2620:	00092503          	lw	a0,0(s2)
    2624:	8626                	mv	a2,s1
    2626:	4681                	li	a3,0
    2628:	41f55593          	srai	a1,a0,0x1f
    262c:	01055793          	srli	a5,a0,0x10
    2630:	01059713          	slli	a4,a1,0x10
    2634:	8f5d                	or	a4,a4,a5
    2636:	41f75593          	srai	a1,a4,0x1f
    263a:	0542                	slli	a0,a0,0x10
    263c:	7ff5f593          	andi	a1,a1,2047
    2640:	00a587b3          	add	a5,a1,a0
    2644:	00b7b5b3          	sltu	a1,a5,a1
    2648:	95ba                	add	a1,a1,a4
    264a:	83ad                	srli	a5,a5,0xb
    264c:	01559513          	slli	a0,a1,0x15
    2650:	8d5d                	or	a0,a0,a5
    2652:	85ad                	srai	a1,a1,0xb
    2654:	063050ef          	jal	ra,7eb6 <__divdi3>
    2658:	00a92023          	sw	a0,0(s2)
    265c:	00492503          	lw	a0,4(s2)
    2660:	8626                	mv	a2,s1
    2662:	4681                	li	a3,0
    2664:	41f55593          	srai	a1,a0,0x1f
    2668:	01055793          	srli	a5,a0,0x10
    266c:	01059713          	slli	a4,a1,0x10
    2670:	8f5d                	or	a4,a4,a5
    2672:	41f75593          	srai	a1,a4,0x1f
    2676:	0542                	slli	a0,a0,0x10
    2678:	7ff5f593          	andi	a1,a1,2047
    267c:	00a587b3          	add	a5,a1,a0
    2680:	00b7b5b3          	sltu	a1,a5,a1
    2684:	95ba                	add	a1,a1,a4
    2686:	83ad                	srli	a5,a5,0xb
    2688:	01559513          	slli	a0,a1,0x15
    268c:	8d5d                	or	a0,a0,a5
    268e:	85ad                	srai	a1,a1,0xb
    2690:	027050ef          	jal	ra,7eb6 <__divdi3>
    2694:	00a92223          	sw	a0,4(s2)
    2698:	00892503          	lw	a0,8(s2)
    269c:	8626                	mv	a2,s1
    269e:	4681                	li	a3,0
    26a0:	41f55593          	srai	a1,a0,0x1f
    26a4:	01055793          	srli	a5,a0,0x10
    26a8:	01059713          	slli	a4,a1,0x10
    26ac:	8f5d                	or	a4,a4,a5
    26ae:	41f75593          	srai	a1,a4,0x1f
    26b2:	0542                	slli	a0,a0,0x10
    26b4:	7ff5f593          	andi	a1,a1,2047
    26b8:	00a587b3          	add	a5,a1,a0
    26bc:	00b7b5b3          	sltu	a1,a5,a1
    26c0:	95ba                	add	a1,a1,a4
    26c2:	83ad                	srli	a5,a5,0xb
    26c4:	01559513          	slli	a0,a1,0x15
    26c8:	8d5d                	or	a0,a0,a5
    26ca:	85ad                	srai	a1,a1,0xb
    26cc:	7ea050ef          	jal	ra,7eb6 <__divdi3>
    26d0:	77c1                	lui	a5,0xffff0
    26d2:	00a04363          	bgtz	a0,26d8 <get_st_biases+0x2d4>
    26d6:	67c1                	lui	a5,0x10
    26d8:	953e                	add	a0,a0,a5
    26da:	00a92423          	sw	a0,8(s2)
    26de:	4501                	li	a0,0
    26e0:	0141                	addi	sp,sp,16
    26e2:	e4ffd06f          	j	530 <__riscv_restore_4>
    26e6:	4018                	lw	a4,0(s0)
    26e8:	405c                	lw	a5,4(s0)
    26ea:	0054                	addi	a3,sp,4
    26ec:	372c                	lbu	a1,11(a4)
    26ee:	2388                	lbu	a0,0(a5)
    26f0:	4631                	li	a2,12
    26f2:	0485                	addi	s1,s1,1
    26f4:	1a8020ef          	jal	ra,489c <MPU6050_I2C_Mem_Read>
    26f8:	8318                	lbu	a4,6(sp)
    26fa:	839c                	lbu	a5,7(sp)
    26fc:	8494                	lbu	a3,9(sp)
    26fe:	0722                	slli	a4,a4,0x8
    2700:	8f5d                	or	a4,a4,a5
    2702:	841c                	lbu	a5,8(sp)
    2704:	8290                	lbu	a2,5(sp)
    2706:	0742                	slli	a4,a4,0x10
    2708:	07a2                	slli	a5,a5,0x8
    270a:	8fd5                	or	a5,a5,a3
    270c:	8214                	lbu	a3,4(sp)
    270e:	8741                	srai	a4,a4,0x10
    2710:	07c2                	slli	a5,a5,0x10
    2712:	06a2                	slli	a3,a3,0x8
    2714:	8ed1                	or	a3,a3,a2
    2716:	00092603          	lw	a2,0(s2)
    271a:	06c2                	slli	a3,a3,0x10
    271c:	86c1                	srai	a3,a3,0x10
    271e:	96b2                	add	a3,a3,a2
    2720:	00d92023          	sw	a3,0(s2)
    2724:	00492683          	lw	a3,4(s2)
    2728:	87c1                	srai	a5,a5,0x10
    272a:	8590                	lbu	a2,11(sp)
    272c:	9736                	add	a4,a4,a3
    272e:	00e92223          	sw	a4,4(s2)
    2732:	00892703          	lw	a4,8(s2)
    2736:	8794                	lbu	a3,15(sp)
    2738:	0ff4f493          	andi	s1,s1,255
    273c:	97ba                	add	a5,a5,a4
    273e:	8618                	lbu	a4,12(sp)
    2740:	00f92423          	sw	a5,8(s2)
    2744:	869c                	lbu	a5,13(sp)
    2746:	0722                	slli	a4,a4,0x8
    2748:	8f5d                	or	a4,a4,a5
    274a:	871c                	lbu	a5,14(sp)
    274c:	0742                	slli	a4,a4,0x10
    274e:	8741                	srai	a4,a4,0x10
    2750:	07a2                	slli	a5,a5,0x8
    2752:	8fd5                	or	a5,a5,a3
    2754:	8514                	lbu	a3,10(sp)
    2756:	07c2                	slli	a5,a5,0x10
    2758:	87c1                	srai	a5,a5,0x10
    275a:	06a2                	slli	a3,a3,0x8
    275c:	8ed1                	or	a3,a3,a2
    275e:	0009a603          	lw	a2,0(s3)
    2762:	06c2                	slli	a3,a3,0x10
    2764:	86c1                	srai	a3,a3,0x10
    2766:	96b2                	add	a3,a3,a2
    2768:	00d9a023          	sw	a3,0(s3)
    276c:	0049a683          	lw	a3,4(s3)
    2770:	9736                	add	a4,a4,a3
    2772:	00e9a223          	sw	a4,4(s3)
    2776:	0089a703          	lw	a4,8(s3)
    277a:	97ba                	add	a5,a5,a4
    277c:	00f9a423          	sw	a5,8(s3)
    2780:	b515                	j	25a4 <get_st_biases+0x1a0>

00002782 <set_int_enable>:
    2782:	d95fd2ef          	jal	t0,516 <__riscv_save_0>
    2786:	20000437          	lui	s0,0x20000
    278a:	02c40793          	addi	a5,s0,44 # 2000002c <st>
    278e:	0247c783          	lbu	a5,36(a5) # 10024 <_data_lma+0x3784>
    2792:	1141                	addi	sp,sp,-16
    2794:	02c40413          	addi	s0,s0,44
    2798:	c785                	beqz	a5,27c0 <set_int_enable+0x3e>
    279a:	c111                	beqz	a0,279e <set_int_enable+0x1c>
    279c:	4509                	li	a0,2
    279e:	87c8                	sb	a0,15(sp)
    27a0:	405c                	lw	a5,4(s0)
    27a2:	4018                	lw	a4,0(s0)
    27a4:	00f10693          	addi	a3,sp,15
    27a8:	2388                	lbu	a0,0(a5)
    27aa:	376c                	lbu	a1,15(a4)
    27ac:	4605                	li	a2,1
    27ae:	6ef010ef          	jal	ra,469c <MPU6050_I2C_Mem_Write>
    27b2:	879c                	lbu	a5,15(sp)
    27b4:	b81c                	sb	a5,17(s0)
    27b6:	4781                	li	a5,0
    27b8:	853e                	mv	a0,a5
    27ba:	0141                	addi	sp,sp,16
    27bc:	d7ffd06f          	j	53a <__riscv_restore_0>
    27c0:	2438                	lbu	a4,10(s0)
    27c2:	57fd                	li	a5,-1
    27c4:	db75                	beqz	a4,27b8 <set_int_enable+0x36>
    27c6:	c519                	beqz	a0,27d4 <set_int_enable+0x52>
    27c8:	3818                	lbu	a4,17(s0)
    27ca:	4781                	li	a5,0
    27cc:	f775                	bnez	a4,27b8 <set_int_enable+0x36>
    27ce:	4785                	li	a5,1
    27d0:	87dc                	sb	a5,15(sp)
    27d2:	b7f9                	j	27a0 <set_int_enable+0x1e>
    27d4:	000107a3          	sb	zero,15(sp)
    27d8:	b7e1                	j	27a0 <set_int_enable+0x1e>

000027da <mpu_reset_fifo>:
    27da:	d3dfd2ef          	jal	t0,516 <__riscv_save_0>
    27de:	20000437          	lui	s0,0x20000
    27e2:	02c40793          	addi	a5,s0,44 # 2000002c <st>
    27e6:	27bc                	lbu	a5,10(a5)
    27e8:	1141                	addi	sp,sp,-16
    27ea:	557d                	li	a0,-1
    27ec:	cfc5                	beqz	a5,28a4 <mpu_reset_fifo+0xca>
    27ee:	02c40413          	addi	s0,s0,44
    27f2:	4018                	lw	a4,0(s0)
    27f4:	405c                	lw	a5,4(s0)
    27f6:	000107a3          	sb	zero,15(sp)
    27fa:	376c                	lbu	a1,15(a4)
    27fc:	2388                	lbu	a0,0(a5)
    27fe:	00f10693          	addi	a3,sp,15
    2802:	4605                	li	a2,1
    2804:	699010ef          	jal	ra,469c <MPU6050_I2C_Mem_Write>
    2808:	4018                	lw	a4,0(s0)
    280a:	405c                	lw	a5,4(s0)
    280c:	00f10693          	addi	a3,sp,15
    2810:	334c                	lbu	a1,5(a4)
    2812:	2388                	lbu	a0,0(a5)
    2814:	4605                	li	a2,1
    2816:	687010ef          	jal	ra,469c <MPU6050_I2C_Mem_Write>
    281a:	405c                	lw	a5,4(s0)
    281c:	4018                	lw	a4,0(s0)
    281e:	00f10693          	addi	a3,sp,15
    2822:	2388                	lbu	a0,0(a5)
    2824:	234c                	lbu	a1,4(a4)
    2826:	4605                	li	a2,1
    2828:	675010ef          	jal	ra,469c <MPU6050_I2C_Mem_Write>
    282c:	02444783          	lbu	a5,36(s0)
    2830:	cfad                	beqz	a5,28aa <mpu_reset_fifo+0xd0>
    2832:	47b1                	li	a5,12
    2834:	87dc                	sb	a5,15(sp)
    2836:	4018                	lw	a4,0(s0)
    2838:	405c                	lw	a5,4(s0)
    283a:	00f10693          	addi	a3,sp,15
    283e:	234c                	lbu	a1,4(a4)
    2840:	2388                	lbu	a0,0(a5)
    2842:	4605                	li	a2,1
    2844:	659010ef          	jal	ra,469c <MPU6050_I2C_Mem_Write>
    2848:	03200513          	li	a0,50
    284c:	456040ef          	jal	ra,6ca2 <Delay_Ms>
    2850:	fc000793          	li	a5,-64
    2854:	87dc                	sb	a5,15(sp)
    2856:	243c                	lbu	a5,10(s0)
    2858:	8b85                	andi	a5,a5,1
    285a:	c399                	beqz	a5,2860 <mpu_reset_fifo+0x86>
    285c:	5781                	li	a5,-32
    285e:	87dc                	sb	a5,15(sp)
    2860:	405c                	lw	a5,4(s0)
    2862:	4018                	lw	a4,0(s0)
    2864:	00f10693          	addi	a3,sp,15
    2868:	2388                	lbu	a0,0(a5)
    286a:	234c                	lbu	a1,4(a4)
    286c:	4605                	li	a2,1
    286e:	62f010ef          	jal	ra,469c <MPU6050_I2C_Mem_Write>
    2872:	381c                	lbu	a5,17(s0)
    2874:	c391                	beqz	a5,2878 <mpu_reset_fifo+0x9e>
    2876:	4789                	li	a5,2
    2878:	87dc                	sb	a5,15(sp)
    287a:	4018                	lw	a4,0(s0)
    287c:	405c                	lw	a5,4(s0)
    287e:	00f10693          	addi	a3,sp,15
    2882:	376c                	lbu	a1,15(a4)
    2884:	2388                	lbu	a0,0(a5)
    2886:	4605                	li	a2,1
    2888:	615010ef          	jal	ra,469c <MPU6050_I2C_Mem_Write>
    288c:	4018                	lw	a4,0(s0)
    288e:	405c                	lw	a5,4(s0)
    2890:	000107a3          	sb	zero,15(sp)
    2894:	00f10693          	addi	a3,sp,15
    2898:	2388                	lbu	a0,0(a5)
    289a:	334c                	lbu	a1,5(a4)
    289c:	4605                	li	a2,1
    289e:	5ff010ef          	jal	ra,469c <MPU6050_I2C_Mem_Write>
    28a2:	4501                	li	a0,0
    28a4:	0141                	addi	sp,sp,16
    28a6:	c95fd06f          	j	53a <__riscv_restore_0>
    28aa:	4791                	li	a5,4
    28ac:	87dc                	sb	a5,15(sp)
    28ae:	4018                	lw	a4,0(s0)
    28b0:	405c                	lw	a5,4(s0)
    28b2:	00f10693          	addi	a3,sp,15
    28b6:	234c                	lbu	a1,4(a4)
    28b8:	2388                	lbu	a0,0(a5)
    28ba:	4605                	li	a2,1
    28bc:	5e1010ef          	jal	ra,469c <MPU6050_I2C_Mem_Write>
    28c0:	283c                	lbu	a5,18(s0)
    28c2:	04000713          	li	a4,64
    28c6:	e791                	bnez	a5,28d2 <mpu_reset_fifo+0xf8>
    28c8:	243c                	lbu	a5,10(s0)
    28ca:	8b85                	andi	a5,a5,1
    28cc:	c399                	beqz	a5,28d2 <mpu_reset_fifo+0xf8>
    28ce:	06000713          	li	a4,96
    28d2:	405c                	lw	a5,4(s0)
    28d4:	87d8                	sb	a4,15(sp)
    28d6:	4018                	lw	a4,0(s0)
    28d8:	2388                	lbu	a0,0(a5)
    28da:	00f10693          	addi	a3,sp,15
    28de:	234c                	lbu	a1,4(a4)
    28e0:	4605                	li	a2,1
    28e2:	5bb010ef          	jal	ra,469c <MPU6050_I2C_Mem_Write>
    28e6:	03200513          	li	a0,50
    28ea:	3b8040ef          	jal	ra,6ca2 <Delay_Ms>
    28ee:	381c                	lbu	a5,17(s0)
    28f0:	4018                	lw	a4,0(s0)
    28f2:	00f10693          	addi	a3,sp,15
    28f6:	00f037b3          	snez	a5,a5
    28fa:	87dc                	sb	a5,15(sp)
    28fc:	405c                	lw	a5,4(s0)
    28fe:	376c                	lbu	a1,15(a4)
    2900:	4605                	li	a2,1
    2902:	2388                	lbu	a0,0(a5)
    2904:	599010ef          	jal	ra,469c <MPU6050_I2C_Mem_Write>
    2908:	4018                	lw	a4,0(s0)
    290a:	405c                	lw	a5,4(s0)
    290c:	01040693          	addi	a3,s0,16
    2910:	b761                	j	2898 <mpu_reset_fifo+0xbe>

00002912 <mpu_get_gyro_fsr>:
    2912:	200007b7          	lui	a5,0x20000
    2916:	0347c783          	lbu	a5,52(a5) # 20000034 <st+0x8>
    291a:	4705                	li	a4,1
    291c:	02e78163          	beq	a5,a4,293e <mpu_get_gyro_fsr+0x2c>
    2920:	cb91                	beqz	a5,2934 <mpu_get_gyro_fsr+0x22>
    2922:	4709                	li	a4,2
    2924:	02e78063          	beq	a5,a4,2944 <mpu_get_gyro_fsr+0x32>
    2928:	470d                	li	a4,3
    292a:	02e78063          	beq	a5,a4,294a <mpu_get_gyro_fsr+0x38>
    292e:	00051023          	sh	zero,0(a0)
    2932:	a021                	j	293a <mpu_get_gyro_fsr+0x28>
    2934:	0fa00793          	li	a5,250
    2938:	a11e                	sh	a5,0(a0)
    293a:	4501                	li	a0,0
    293c:	8082                	ret
    293e:	1f400793          	li	a5,500
    2942:	bfdd                	j	2938 <mpu_get_gyro_fsr+0x26>
    2944:	3e800793          	li	a5,1000
    2948:	bfc5                	j	2938 <mpu_get_gyro_fsr+0x26>
    294a:	7d000793          	li	a5,2000
    294e:	b7ed                	j	2938 <mpu_get_gyro_fsr+0x26>

00002950 <mpu_set_gyro_fsr>:
    2950:	bc7fd2ef          	jal	t0,516 <__riscv_save_0>
    2954:	20000437          	lui	s0,0x20000
    2958:	02c40793          	addi	a5,s0,44 # 2000002c <st>
    295c:	27bc                	lbu	a5,10(a5)
    295e:	1141                	addi	sp,sp,-16
    2960:	cf89                	beqz	a5,297a <mpu_set_gyro_fsr+0x2a>
    2962:	1f400793          	li	a5,500
    2966:	02c40413          	addi	s0,s0,44
    296a:	04f50c63          	beq	a0,a5,29c2 <mpu_set_gyro_fsr+0x72>
    296e:	00a7e863          	bltu	a5,a0,297e <mpu_set_gyro_fsr+0x2e>
    2972:	0fa00793          	li	a5,250
    2976:	00f50e63          	beq	a0,a5,2992 <mpu_set_gyro_fsr+0x42>
    297a:	557d                	li	a0,-1
    297c:	a081                	j	29bc <mpu_set_gyro_fsr+0x6c>
    297e:	3e800793          	li	a5,1000
    2982:	04f50363          	beq	a0,a5,29c8 <mpu_set_gyro_fsr+0x78>
    2986:	7d000793          	li	a5,2000
    298a:	fef518e3          	bne	a0,a5,297a <mpu_set_gyro_fsr+0x2a>
    298e:	47e1                	li	a5,24
    2990:	a815                	j	29c4 <mpu_set_gyro_fsr+0x74>
    2992:	000107a3          	sb	zero,15(sp)
    2996:	879c                	lbu	a5,15(sp)
    2998:	2418                	lbu	a4,8(s0)
    299a:	4501                	li	a0,0
    299c:	838d                	srli	a5,a5,0x3
    299e:	00f70f63          	beq	a4,a5,29bc <mpu_set_gyro_fsr+0x6c>
    29a2:	405c                	lw	a5,4(s0)
    29a4:	4018                	lw	a4,0(s0)
    29a6:	00f10693          	addi	a3,sp,15
    29aa:	2388                	lbu	a0,0(a5)
    29ac:	236c                	lbu	a1,6(a4)
    29ae:	4605                	li	a2,1
    29b0:	4ed010ef          	jal	ra,469c <MPU6050_I2C_Mem_Write>
    29b4:	879c                	lbu	a5,15(sp)
    29b6:	4501                	li	a0,0
    29b8:	838d                	srli	a5,a5,0x3
    29ba:	a41c                	sb	a5,8(s0)
    29bc:	0141                	addi	sp,sp,16
    29be:	b7dfd06f          	j	53a <__riscv_restore_0>
    29c2:	47a1                	li	a5,8
    29c4:	87dc                	sb	a5,15(sp)
    29c6:	bfc1                	j	2996 <mpu_set_gyro_fsr+0x46>
    29c8:	47c1                	li	a5,16
    29ca:	bfed                	j	29c4 <mpu_set_gyro_fsr+0x74>

000029cc <mpu_get_accel_fsr>:
    29cc:	20000737          	lui	a4,0x20000
    29d0:	02c70693          	addi	a3,a4,44 # 2000002c <st>
    29d4:	3694                	lbu	a3,9(a3)
    29d6:	4605                	li	a2,1
    29d8:	87aa                	mv	a5,a0
    29da:	02c70713          	addi	a4,a4,44
    29de:	02c68463          	beq	a3,a2,2a06 <mpu_get_accel_fsr+0x3a>
    29e2:	ca89                	beqz	a3,29f4 <mpu_get_accel_fsr+0x28>
    29e4:	4609                	li	a2,2
    29e6:	02c68263          	beq	a3,a2,2a0a <mpu_get_accel_fsr+0x3e>
    29ea:	460d                	li	a2,3
    29ec:	02c68163          	beq	a3,a2,2a0e <mpu_get_accel_fsr+0x42>
    29f0:	557d                	li	a0,-1
    29f2:	8082                	ret
    29f4:	4689                	li	a3,2
    29f6:	a394                	sb	a3,0(a5)
    29f8:	3b38                	lbu	a4,19(a4)
    29fa:	4501                	li	a0,0
    29fc:	c701                	beqz	a4,2a04 <mpu_get_accel_fsr+0x38>
    29fe:	2398                	lbu	a4,0(a5)
    2a00:	0706                	slli	a4,a4,0x1
    2a02:	a398                	sb	a4,0(a5)
    2a04:	8082                	ret
    2a06:	4691                	li	a3,4
    2a08:	b7fd                	j	29f6 <mpu_get_accel_fsr+0x2a>
    2a0a:	46a1                	li	a3,8
    2a0c:	b7ed                	j	29f6 <mpu_get_accel_fsr+0x2a>
    2a0e:	46c1                	li	a3,16
    2a10:	b7dd                	j	29f6 <mpu_get_accel_fsr+0x2a>

00002a12 <mpu_set_accel_fsr>:
    2a12:	b05fd2ef          	jal	t0,516 <__riscv_save_0>
    2a16:	20000437          	lui	s0,0x20000
    2a1a:	02c40793          	addi	a5,s0,44 # 2000002c <st>
    2a1e:	27bc                	lbu	a5,10(a5)
    2a20:	1141                	addi	sp,sp,-16
    2a22:	cb99                	beqz	a5,2a38 <mpu_set_accel_fsr+0x26>
    2a24:	4791                	li	a5,4
    2a26:	02c40413          	addi	s0,s0,44
    2a2a:	04f50963          	beq	a0,a5,2a7c <mpu_set_accel_fsr+0x6a>
    2a2e:	00a7e763          	bltu	a5,a0,2a3c <mpu_set_accel_fsr+0x2a>
    2a32:	4789                	li	a5,2
    2a34:	00f50c63          	beq	a0,a5,2a4c <mpu_set_accel_fsr+0x3a>
    2a38:	557d                	li	a0,-1
    2a3a:	a835                	j	2a76 <mpu_set_accel_fsr+0x64>
    2a3c:	47a1                	li	a5,8
    2a3e:	04f50263          	beq	a0,a5,2a82 <mpu_set_accel_fsr+0x70>
    2a42:	47c1                	li	a5,16
    2a44:	fef51ae3          	bne	a0,a5,2a38 <mpu_set_accel_fsr+0x26>
    2a48:	47e1                	li	a5,24
    2a4a:	a815                	j	2a7e <mpu_set_accel_fsr+0x6c>
    2a4c:	000107a3          	sb	zero,15(sp)
    2a50:	879c                	lbu	a5,15(sp)
    2a52:	3418                	lbu	a4,9(s0)
    2a54:	4501                	li	a0,0
    2a56:	838d                	srli	a5,a5,0x3
    2a58:	00f70f63          	beq	a4,a5,2a76 <mpu_set_accel_fsr+0x64>
    2a5c:	405c                	lw	a5,4(s0)
    2a5e:	4018                	lw	a4,0(s0)
    2a60:	00f10693          	addi	a3,sp,15
    2a64:	2388                	lbu	a0,0(a5)
    2a66:	336c                	lbu	a1,7(a4)
    2a68:	4605                	li	a2,1
    2a6a:	433010ef          	jal	ra,469c <MPU6050_I2C_Mem_Write>
    2a6e:	879c                	lbu	a5,15(sp)
    2a70:	4501                	li	a0,0
    2a72:	838d                	srli	a5,a5,0x3
    2a74:	b41c                	sb	a5,9(s0)
    2a76:	0141                	addi	sp,sp,16
    2a78:	ac3fd06f          	j	53a <__riscv_restore_0>
    2a7c:	47a1                	li	a5,8
    2a7e:	87dc                	sb	a5,15(sp)
    2a80:	bfc1                	j	2a50 <mpu_set_accel_fsr+0x3e>
    2a82:	47c1                	li	a5,16
    2a84:	bfed                	j	2a7e <mpu_set_accel_fsr+0x6c>

00002a86 <mpu_get_lpf>:
    2a86:	200007b7          	lui	a5,0x20000
    2a8a:	0377c783          	lbu	a5,55(a5) # 20000037 <st+0xb>
    2a8e:	4715                	li	a4,5
    2a90:	17fd                	addi	a5,a5,-1
    2a92:	0ff7f793          	andi	a5,a5,255
    2a96:	02f76a63          	bltu	a4,a5,2aca <mpu_get_lpf+0x44>
    2a9a:	672d                	lui	a4,0xb
    2a9c:	078a                	slli	a5,a5,0x2
    2a9e:	71c70713          	addi	a4,a4,1820 # b71c <memcpy+0x37c>
    2aa2:	97ba                	add	a5,a5,a4
    2aa4:	439c                	lw	a5,0(a5)
    2aa6:	8782                	jr	a5
    2aa8:	0bc00793          	li	a5,188
    2aac:	a11e                	sh	a5,0(a0)
    2aae:	4501                	li	a0,0
    2ab0:	8082                	ret
    2ab2:	06200793          	li	a5,98
    2ab6:	bfdd                	j	2aac <mpu_get_lpf+0x26>
    2ab8:	02a00793          	li	a5,42
    2abc:	bfc5                	j	2aac <mpu_get_lpf+0x26>
    2abe:	47d1                	li	a5,20
    2ac0:	b7f5                	j	2aac <mpu_get_lpf+0x26>
    2ac2:	47a9                	li	a5,10
    2ac4:	b7e5                	j	2aac <mpu_get_lpf+0x26>
    2ac6:	4795                	li	a5,5
    2ac8:	b7d5                	j	2aac <mpu_get_lpf+0x26>
    2aca:	00051023          	sh	zero,0(a0)
    2ace:	b7c5                	j	2aae <mpu_get_lpf+0x28>

00002ad0 <mpu_set_lpf>:
    2ad0:	a47fd2ef          	jal	t0,516 <__riscv_save_0>
    2ad4:	20000437          	lui	s0,0x20000
    2ad8:	02c40793          	addi	a5,s0,44 # 2000002c <st>
    2adc:	27bc                	lbu	a5,10(a5)
    2ade:	1141                	addi	sp,sp,-16
    2ae0:	c7ad                	beqz	a5,2b4a <mpu_set_lpf+0x7a>
    2ae2:	0bb00793          	li	a5,187
    2ae6:	02c40413          	addi	s0,s0,44
    2aea:	02a7f863          	bgeu	a5,a0,2b1a <mpu_set_lpf+0x4a>
    2aee:	4785                	li	a5,1
    2af0:	87dc                	sb	a5,15(sp)
    2af2:	3438                	lbu	a4,11(s0)
    2af4:	879c                	lbu	a5,15(sp)
    2af6:	4501                	li	a0,0
    2af8:	00f70e63          	beq	a4,a5,2b14 <mpu_set_lpf+0x44>
    2afc:	405c                	lw	a5,4(s0)
    2afe:	4018                	lw	a4,0(s0)
    2b00:	00f10693          	addi	a3,sp,15
    2b04:	2388                	lbu	a0,0(a5)
    2b06:	232c                	lbu	a1,2(a4)
    2b08:	4605                	li	a2,1
    2b0a:	393010ef          	jal	ra,469c <MPU6050_I2C_Mem_Write>
    2b0e:	879c                	lbu	a5,15(sp)
    2b10:	4501                	li	a0,0
    2b12:	b43c                	sb	a5,11(s0)
    2b14:	0141                	addi	sp,sp,16
    2b16:	a25fd06f          	j	53a <__riscv_restore_0>
    2b1a:	06100793          	li	a5,97
    2b1e:	00a7f463          	bgeu	a5,a0,2b26 <mpu_set_lpf+0x56>
    2b22:	4789                	li	a5,2
    2b24:	b7f1                	j	2af0 <mpu_set_lpf+0x20>
    2b26:	02900793          	li	a5,41
    2b2a:	00a7f463          	bgeu	a5,a0,2b32 <mpu_set_lpf+0x62>
    2b2e:	478d                	li	a5,3
    2b30:	b7c1                	j	2af0 <mpu_set_lpf+0x20>
    2b32:	47cd                	li	a5,19
    2b34:	00a7f463          	bgeu	a5,a0,2b3c <mpu_set_lpf+0x6c>
    2b38:	4791                	li	a5,4
    2b3a:	bf5d                	j	2af0 <mpu_set_lpf+0x20>
    2b3c:	47a5                	li	a5,9
    2b3e:	00a7f463          	bgeu	a5,a0,2b46 <mpu_set_lpf+0x76>
    2b42:	4795                	li	a5,5
    2b44:	b775                	j	2af0 <mpu_set_lpf+0x20>
    2b46:	4799                	li	a5,6
    2b48:	b765                	j	2af0 <mpu_set_lpf+0x20>
    2b4a:	557d                	li	a0,-1
    2b4c:	b7e1                	j	2b14 <mpu_set_lpf+0x44>

00002b4e <mpu_get_sample_rate>:
    2b4e:	200007b7          	lui	a5,0x20000
    2b52:	02c78793          	addi	a5,a5,44 # 2000002c <st>
    2b56:	0247c703          	lbu	a4,36(a5)
    2b5a:	e709                	bnez	a4,2b64 <mpu_get_sample_rate+0x16>
    2b5c:	27fe                	lhu	a5,14(a5)
    2b5e:	a11e                	sh	a5,0(a0)
    2b60:	4501                	li	a0,0
    2b62:	8082                	ret
    2b64:	557d                	li	a0,-1
    2b66:	8082                	ret

00002b68 <mpu_get_gyro_sens>:
    2b68:	200007b7          	lui	a5,0x20000
    2b6c:	0347c783          	lbu	a5,52(a5) # 20000034 <st+0x8>
    2b70:	4705                	li	a4,1
    2b72:	02e78263          	beq	a5,a4,2b96 <mpu_get_gyro_sens+0x2e>
    2b76:	cb89                	beqz	a5,2b88 <mpu_get_gyro_sens+0x20>
    2b78:	4709                	li	a4,2
    2b7a:	02e78363          	beq	a5,a4,2ba0 <mpu_get_gyro_sens+0x38>
    2b7e:	470d                	li	a4,3
    2b80:	02e78563          	beq	a5,a4,2baa <mpu_get_gyro_sens+0x42>
    2b84:	557d                	li	a0,-1
    2b86:	8082                	ret
    2b88:	0000b7b7          	lui	a5,0xb
    2b8c:	7647a783          	lw	a5,1892(a5) # b764 <hw+0x30>
    2b90:	c11c                	sw	a5,0(a0)
    2b92:	4501                	li	a0,0
    2b94:	8082                	ret
    2b96:	0000b7b7          	lui	a5,0xb
    2b9a:	7687a783          	lw	a5,1896(a5) # b768 <hw+0x34>
    2b9e:	bfcd                	j	2b90 <mpu_get_gyro_sens+0x28>
    2ba0:	0000b7b7          	lui	a5,0xb
    2ba4:	76c7a783          	lw	a5,1900(a5) # b76c <hw+0x38>
    2ba8:	b7e5                	j	2b90 <mpu_get_gyro_sens+0x28>
    2baa:	0000b7b7          	lui	a5,0xb
    2bae:	7707a783          	lw	a5,1904(a5) # b770 <hw+0x3c>
    2bb2:	bff9                	j	2b90 <mpu_get_gyro_sens+0x28>

00002bb4 <mpu_get_accel_sens>:
    2bb4:	20000737          	lui	a4,0x20000
    2bb8:	02c70693          	addi	a3,a4,44 # 2000002c <st>
    2bbc:	3694                	lbu	a3,9(a3)
    2bbe:	4605                	li	a2,1
    2bc0:	87aa                	mv	a5,a0
    2bc2:	02c70713          	addi	a4,a4,44
    2bc6:	02c68463          	beq	a3,a2,2bee <mpu_get_accel_sens+0x3a>
    2bca:	ca89                	beqz	a3,2bdc <mpu_get_accel_sens+0x28>
    2bcc:	4609                	li	a2,2
    2bce:	02c68463          	beq	a3,a2,2bf6 <mpu_get_accel_sens+0x42>
    2bd2:	460d                	li	a2,3
    2bd4:	02c68363          	beq	a3,a2,2bfa <mpu_get_accel_sens+0x46>
    2bd8:	557d                	li	a0,-1
    2bda:	8082                	ret
    2bdc:	6691                	lui	a3,0x4
    2bde:	a396                	sh	a3,0(a5)
    2be0:	3b38                	lbu	a4,19(a4)
    2be2:	4501                	li	a0,0
    2be4:	c701                	beqz	a4,2bec <mpu_get_accel_sens+0x38>
    2be6:	239a                	lhu	a4,0(a5)
    2be8:	8305                	srli	a4,a4,0x1
    2bea:	a39a                	sh	a4,0(a5)
    2bec:	8082                	ret
    2bee:	6689                	lui	a3,0x2
    2bf0:	f9c68693          	addi	a3,a3,-100 # 1f9c <TIM_OC1Init+0x26>
    2bf4:	b7ed                	j	2bde <mpu_get_accel_sens+0x2a>
    2bf6:	6685                	lui	a3,0x1
    2bf8:	b7dd                	j	2bde <mpu_get_accel_sens+0x2a>
    2bfa:	6685                	lui	a3,0x1
    2bfc:	80068693          	addi	a3,a3,-2048 # 800 <__stack_size>
    2c00:	bff9                	j	2bde <mpu_get_accel_sens+0x2a>

00002c02 <mpu_configure_fifo>:
    2c02:	8fbfd2ef          	jal	t0,4fc <__riscv_save_4>
    2c06:	20000437          	lui	s0,0x20000
    2c0a:	02c40413          	addi	s0,s0,44 # 2000002c <st>
    2c0e:	02444783          	lbu	a5,36(s0)
    2c12:	4901                	li	s2,0
    2c14:	e3a1                	bnez	a5,2c54 <mpu_configure_fifo+0x52>
    2c16:	243c                	lbu	a5,10(s0)
    2c18:	597d                	li	s2,-1
    2c1a:	cf8d                	beqz	a5,2c54 <mpu_configure_fifo+0x52>
    2c1c:	0fe57493          	andi	s1,a0,254
    2c20:	8fe5                	and	a5,a5,s1
    2c22:	01044983          	lbu	s3,16(s0)
    2c26:	a81c                	sb	a5,16(s0)
    2c28:	8f85                	sub	a5,a5,s1
    2c2a:	00f037b3          	snez	a5,a5
    2c2e:	40f00933          	neg	s2,a5
    2c32:	285c                	lbu	a5,20(s0)
    2c34:	8fc5                	or	a5,a5,s1
    2c36:	cf81                	beqz	a5,2c4e <mpu_configure_fifo+0x4c>
    2c38:	4505                	li	a0,1
    2c3a:	b49ff0ef          	jal	ra,2782 <set_int_enable>
    2c3e:	c899                	beqz	s1,2c54 <mpu_configure_fifo+0x52>
    2c40:	b9bff0ef          	jal	ra,27da <mpu_reset_fifo>
    2c44:	c901                	beqz	a0,2c54 <mpu_configure_fifo+0x52>
    2c46:	01340823          	sb	s3,16(s0)
    2c4a:	597d                	li	s2,-1
    2c4c:	a021                	j	2c54 <mpu_configure_fifo+0x52>
    2c4e:	4501                	li	a0,0
    2c50:	b33ff0ef          	jal	ra,2782 <set_int_enable>
    2c54:	854a                	mv	a0,s2
    2c56:	8dbfd06f          	j	530 <__riscv_restore_4>

00002c5a <mpu_read_fifo_stream>:
    2c5a:	8a3fd2ef          	jal	t0,4fc <__riscv_save_4>
    2c5e:	200009b7          	lui	s3,0x20000
    2c62:	02c98493          	addi	s1,s3,44 # 2000002c <st>
    2c66:	0244c783          	lbu	a5,36(s1)
    2c6a:	1141                	addi	sp,sp,-16
    2c6c:	c79d                	beqz	a5,2c9a <mpu_read_fifo_stream+0x40>
    2c6e:	24b8                	lbu	a4,10(s1)
    2c70:	57fd                	li	a5,-1
    2c72:	cb31                	beqz	a4,2cc6 <mpu_read_fifo_stream+0x6c>
    2c74:	40dc                	lw	a5,4(s1)
    2c76:	4098                	lw	a4,0(s1)
    2c78:	8aae                	mv	s5,a1
    2c7a:	892a                	mv	s2,a0
    2c7c:	272c                	lbu	a1,10(a4)
    2c7e:	2388                	lbu	a0,0(a5)
    2c80:	8a32                	mv	s4,a2
    2c82:	0074                	addi	a3,sp,12
    2c84:	4609                	li	a2,2
    2c86:	417010ef          	jal	ra,489c <MPU6050_I2C_Mem_Read>
    2c8a:	861c                	lbu	a5,12(sp)
    2c8c:	8680                	lbu	s0,13(sp)
    2c8e:	07a2                	slli	a5,a5,0x8
    2c90:	8c5d                	or	s0,s0,a5
    2c92:	01247663          	bgeu	s0,s2,2c9e <mpu_read_fifo_stream+0x44>
    2c96:	000a0023          	sb	zero,0(s4)
    2c9a:	57fd                	li	a5,-1
    2c9c:	a02d                	j	2cc6 <mpu_read_fifo_stream+0x6c>
    2c9e:	40d8                	lw	a4,4(s1)
    2ca0:	02c98993          	addi	s3,s3,44
    2ca4:	233e                	lhu	a5,2(a4)
    2ca6:	8385                	srli	a5,a5,0x1
    2ca8:	0287f363          	bgeu	a5,s0,2cce <mpu_read_fifo_stream+0x74>
    2cac:	409c                	lw	a5,0(s1)
    2cae:	2308                	lbu	a0,0(a4)
    2cb0:	0074                	addi	a3,sp,12
    2cb2:	3b8c                	lbu	a1,17(a5)
    2cb4:	4605                	li	a2,1
    2cb6:	3e7010ef          	jal	ra,489c <MPU6050_I2C_Mem_Read>
    2cba:	861c                	lbu	a5,12(sp)
    2cbc:	8bc1                	andi	a5,a5,16
    2cbe:	cb81                	beqz	a5,2cce <mpu_read_fifo_stream+0x74>
    2cc0:	b1bff0ef          	jal	ra,27da <mpu_reset_fifo>
    2cc4:	57f9                	li	a5,-2
    2cc6:	853e                	mv	a0,a5
    2cc8:	0141                	addi	sp,sp,16
    2cca:	867fd06f          	j	530 <__riscv_restore_4>
    2cce:	0049a783          	lw	a5,4(s3)
    2cd2:	0009a703          	lw	a4,0(s3)
    2cd6:	86d6                	mv	a3,s5
    2cd8:	2388                	lbu	a0,0(a5)
    2cda:	372c                	lbu	a1,11(a4)
    2cdc:	0ff97613          	andi	a2,s2,255
    2ce0:	3bd010ef          	jal	ra,489c <MPU6050_I2C_Mem_Read>
    2ce4:	03245433          	divu	s0,s0,s2
    2ce8:	4781                	li	a5,0
    2cea:	147d                	addi	s0,s0,-1
    2cec:	008a0023          	sb	s0,0(s4)
    2cf0:	bfd9                	j	2cc6 <mpu_read_fifo_stream+0x6c>

00002cf2 <mpu_set_bypass>:
    2cf2:	825fd2ef          	jal	t0,516 <__riscv_save_0>
    2cf6:	20000437          	lui	s0,0x20000
    2cfa:	02c40793          	addi	a5,s0,44 # 2000002c <st>
    2cfe:	2bbc                	lbu	a5,18(a5)
    2d00:	1141                	addi	sp,sp,-16
    2d02:	0aa78963          	beq	a5,a0,2db4 <mpu_set_bypass+0xc2>
    2d06:	02c40413          	addi	s0,s0,44
    2d0a:	405c                	lw	a5,4(s0)
    2d0c:	84aa                	mv	s1,a0
    2d0e:	00f10693          	addi	a3,sp,15
    2d12:	2388                	lbu	a0,0(a5)
    2d14:	401c                	lw	a5,0(s0)
    2d16:	4605                	li	a2,1
    2d18:	23cc                	lbu	a1,4(a5)
    2d1a:	c0b9                	beqz	s1,2d60 <mpu_set_bypass+0x6e>
    2d1c:	381010ef          	jal	ra,489c <MPU6050_I2C_Mem_Read>
    2d20:	879c                	lbu	a5,15(sp)
    2d22:	4018                	lw	a4,0(s0)
    2d24:	00f10693          	addi	a3,sp,15
    2d28:	fdf7f793          	andi	a5,a5,-33
    2d2c:	87dc                	sb	a5,15(sp)
    2d2e:	405c                	lw	a5,4(s0)
    2d30:	234c                	lbu	a1,4(a4)
    2d32:	4605                	li	a2,1
    2d34:	2388                	lbu	a0,0(a5)
    2d36:	167010ef          	jal	ra,469c <MPU6050_I2C_Mem_Write>
    2d3a:	450d                	li	a0,3
    2d3c:	767030ef          	jal	ra,6ca2 <Delay_Ms>
    2d40:	4789                	li	a5,2
    2d42:	87dc                	sb	a5,15(sp)
    2d44:	02244783          	lbu	a5,34(s0)
    2d48:	c781                	beqz	a5,2d50 <mpu_set_bypass+0x5e>
    2d4a:	f8200793          	li	a5,-126
    2d4e:	87dc                	sb	a5,15(sp)
    2d50:	02344783          	lbu	a5,35(s0)
    2d54:	c7b1                	beqz	a5,2da0 <mpu_set_bypass+0xae>
    2d56:	879c                	lbu	a5,15(sp)
    2d58:	0307e793          	ori	a5,a5,48
    2d5c:	87dc                	sb	a5,15(sp)
    2d5e:	a089                	j	2da0 <mpu_set_bypass+0xae>
    2d60:	33d010ef          	jal	ra,489c <MPU6050_I2C_Mem_Read>
    2d64:	243c                	lbu	a5,10(s0)
    2d66:	8794                	lbu	a3,15(sp)
    2d68:	8b85                	andi	a5,a5,1
    2d6a:	0df6f713          	andi	a4,a3,223
    2d6e:	c399                	beqz	a5,2d74 <mpu_set_bypass+0x82>
    2d70:	0206e713          	ori	a4,a3,32
    2d74:	405c                	lw	a5,4(s0)
    2d76:	87d8                	sb	a4,15(sp)
    2d78:	4018                	lw	a4,0(s0)
    2d7a:	2388                	lbu	a0,0(a5)
    2d7c:	00f10693          	addi	a3,sp,15
    2d80:	234c                	lbu	a1,4(a4)
    2d82:	4605                	li	a2,1
    2d84:	119010ef          	jal	ra,469c <MPU6050_I2C_Mem_Write>
    2d88:	450d                	li	a0,3
    2d8a:	719030ef          	jal	ra,6ca2 <Delay_Ms>
    2d8e:	02244783          	lbu	a5,34(s0)
    2d92:	c399                	beqz	a5,2d98 <mpu_set_bypass+0xa6>
    2d94:	08000793          	li	a5,128
    2d98:	02344703          	lbu	a4,35(s0)
    2d9c:	87dc                	sb	a5,15(sp)
    2d9e:	ff4d                	bnez	a4,2d58 <mpu_set_bypass+0x66>
    2da0:	4018                	lw	a4,0(s0)
    2da2:	405c                	lw	a5,4(s0)
    2da4:	00f10693          	addi	a3,sp,15
    2da8:	2b4c                	lbu	a1,20(a4)
    2daa:	2388                	lbu	a0,0(a5)
    2dac:	4605                	li	a2,1
    2dae:	0ef010ef          	jal	ra,469c <MPU6050_I2C_Mem_Write>
    2db2:	a824                	sb	s1,18(s0)
    2db4:	4501                	li	a0,0
    2db6:	0141                	addi	sp,sp,16
    2db8:	f82fd06f          	j	53a <__riscv_restore_0>

00002dbc <mpu_set_int_latched>:
    2dbc:	f5afd2ef          	jal	t0,516 <__riscv_save_0>
    2dc0:	20000437          	lui	s0,0x20000
    2dc4:	02c40793          	addi	a5,s0,44 # 2000002c <st>
    2dc8:	0237c783          	lbu	a5,35(a5)
    2dcc:	1141                	addi	sp,sp,-16
    2dce:	04a78163          	beq	a5,a0,2e10 <mpu_set_int_latched+0x54>
    2dd2:	02c40413          	addi	s0,s0,44
    2dd6:	4781                	li	a5,0
    2dd8:	c119                	beqz	a0,2dde <mpu_set_int_latched+0x22>
    2dda:	03000793          	li	a5,48
    2dde:	2838                	lbu	a4,18(s0)
    2de0:	87dc                	sb	a5,15(sp)
    2de2:	c701                	beqz	a4,2dea <mpu_set_int_latched+0x2e>
    2de4:	0027e793          	ori	a5,a5,2
    2de8:	87dc                	sb	a5,15(sp)
    2dea:	02244783          	lbu	a5,34(s0)
    2dee:	c789                	beqz	a5,2df8 <mpu_set_int_latched+0x3c>
    2df0:	879c                	lbu	a5,15(sp)
    2df2:	f807e793          	ori	a5,a5,-128
    2df6:	87dc                	sb	a5,15(sp)
    2df8:	4018                	lw	a4,0(s0)
    2dfa:	405c                	lw	a5,4(s0)
    2dfc:	84aa                	mv	s1,a0
    2dfe:	2b4c                	lbu	a1,20(a4)
    2e00:	2388                	lbu	a0,0(a5)
    2e02:	00f10693          	addi	a3,sp,15
    2e06:	4605                	li	a2,1
    2e08:	095010ef          	jal	ra,469c <MPU6050_I2C_Mem_Write>
    2e0c:	029401a3          	sb	s1,35(s0)
    2e10:	4501                	li	a0,0
    2e12:	0141                	addi	sp,sp,16
    2e14:	f26fd06f          	j	53a <__riscv_restore_0>

00002e18 <mpu_lp_accel_mode>:
    2e18:	02800793          	li	a5,40
    2e1c:	0aa7e063          	bltu	a5,a0,2ebc <mpu_lp_accel_mode+0xa4>
    2e20:	ef6fd2ef          	jal	t0,516 <__riscv_save_0>
    2e24:	20000437          	lui	s0,0x20000
    2e28:	1141                	addi	sp,sp,-16
    2e2a:	84aa                	mv	s1,a0
    2e2c:	02c40413          	addi	s0,s0,44 # 2000002c <st>
    2e30:	e11d                	bnez	a0,2e56 <mpu_lp_accel_mode+0x3e>
    2e32:	3769                	jal	2dbc <mpu_set_int_latched>
    2e34:	70000793          	li	a5,1792
    2e38:	867c                	sh	a5,12(sp)
    2e3a:	4018                	lw	a4,0(s0)
    2e3c:	405c                	lw	a5,4(s0)
    2e3e:	0074                	addi	a3,sp,12
    2e40:	2b2c                	lbu	a1,18(a4)
    2e42:	2388                	lbu	a0,0(a5)
    2e44:	4609                	li	a2,2
    2e46:	057010ef          	jal	ra,469c <MPU6050_I2C_Mem_Write>
    2e4a:	00040a23          	sb	zero,20(s0)
    2e4e:	4501                	li	a0,0
    2e50:	0141                	addi	sp,sp,16
    2e52:	ee8fd06f          	j	53a <__riscv_restore_0>
    2e56:	4505                	li	a0,1
    2e58:	3795                	jal	2dbc <mpu_set_int_latched>
    2e5a:	02000793          	li	a5,32
    2e5e:	865c                	sb	a5,12(sp)
    2e60:	4785                	li	a5,1
    2e62:	02f49d63          	bne	s1,a5,2e9c <mpu_lp_accel_mode+0x84>
    2e66:	000106a3          	sb	zero,13(sp)
    2e6a:	4515                	li	a0,5
    2e6c:	c65ff0ef          	jal	ra,2ad0 <mpu_set_lpf>
    2e70:	869c                	lbu	a5,13(sp)
    2e72:	4018                	lw	a4,0(s0)
    2e74:	0074                	addi	a3,sp,12
    2e76:	079a                	slli	a5,a5,0x6
    2e78:	0077e793          	ori	a5,a5,7
    2e7c:	86dc                	sb	a5,13(sp)
    2e7e:	405c                	lw	a5,4(s0)
    2e80:	2b2c                	lbu	a1,18(a4)
    2e82:	4609                	li	a2,2
    2e84:	2388                	lbu	a0,0(a5)
    2e86:	017010ef          	jal	ra,469c <MPU6050_I2C_Mem_Write>
    2e8a:	47a1                	li	a5,8
    2e8c:	a43c                	sb	a5,10(s0)
    2e8e:	4501                	li	a0,0
    2e90:	4785                	li	a5,1
    2e92:	00040623          	sb	zero,12(s0)
    2e96:	a85c                	sb	a5,20(s0)
    2e98:	33ad                	jal	2c02 <mpu_configure_fifo>
    2e9a:	bf55                	j	2e4e <mpu_lp_accel_mode+0x36>
    2e9c:	4715                	li	a4,5
    2e9e:	00976463          	bltu	a4,s1,2ea6 <mpu_lp_accel_mode+0x8e>
    2ea2:	86dc                	sb	a5,13(sp)
    2ea4:	b7d9                	j	2e6a <mpu_lp_accel_mode+0x52>
    2ea6:	47d1                	li	a5,20
    2ea8:	0097e663          	bltu	a5,s1,2eb4 <mpu_lp_accel_mode+0x9c>
    2eac:	4789                	li	a5,2
    2eae:	86dc                	sb	a5,13(sp)
    2eb0:	4529                	li	a0,10
    2eb2:	bf6d                	j	2e6c <mpu_lp_accel_mode+0x54>
    2eb4:	478d                	li	a5,3
    2eb6:	86dc                	sb	a5,13(sp)
    2eb8:	4551                	li	a0,20
    2eba:	bf4d                	j	2e6c <mpu_lp_accel_mode+0x54>
    2ebc:	557d                	li	a0,-1
    2ebe:	8082                	ret

00002ec0 <mpu_set_sample_rate>:
    2ec0:	e56fd2ef          	jal	t0,516 <__riscv_save_0>
    2ec4:	20000437          	lui	s0,0x20000
    2ec8:	02c40793          	addi	a5,s0,44 # 2000002c <st>
    2ecc:	27b8                	lbu	a4,10(a5)
    2ece:	1141                	addi	sp,sp,-16
    2ed0:	c359                	beqz	a4,2f56 <mpu_set_sample_rate+0x96>
    2ed2:	0247c703          	lbu	a4,36(a5)
    2ed6:	84aa                	mv	s1,a0
    2ed8:	557d                	li	a0,-1
    2eda:	e30d                	bnez	a4,2efc <mpu_set_sample_rate+0x3c>
    2edc:	2bdc                	lbu	a5,20(a5)
    2ede:	02c40413          	addi	s0,s0,44
    2ee2:	c395                	beqz	a5,2f06 <mpu_set_sample_rate+0x46>
    2ee4:	fff48793          	addi	a5,s1,-1
    2ee8:	07c2                	slli	a5,a5,0x10
    2eea:	83c1                	srli	a5,a5,0x10
    2eec:	02700713          	li	a4,39
    2ef0:	00f76963          	bltu	a4,a5,2f02 <mpu_set_sample_rate+0x42>
    2ef4:	0ff4f513          	andi	a0,s1,255
    2ef8:	3705                	jal	2e18 <mpu_lp_accel_mode>
    2efa:	4501                	li	a0,0
    2efc:	0141                	addi	sp,sp,16
    2efe:	e3cfd06f          	j	53a <__riscv_restore_0>
    2f02:	4501                	li	a0,0
    2f04:	3f11                	jal	2e18 <mpu_lp_accel_mode>
    2f06:	3e800713          	li	a4,1000
    2f0a:	87a6                	mv	a5,s1
    2f0c:	00977463          	bgeu	a4,s1,2f14 <mpu_set_sample_rate+0x54>
    2f10:	3e800793          	li	a5,1000
    2f14:	01079713          	slli	a4,a5,0x10
    2f18:	8341                	srli	a4,a4,0x10
    2f1a:	4691                	li	a3,4
    2f1c:	00d77363          	bgeu	a4,a3,2f22 <mpu_set_sample_rate+0x62>
    2f20:	4791                	li	a5,4
    2f22:	07c2                	slli	a5,a5,0x10
    2f24:	3e800493          	li	s1,1000
    2f28:	83c1                	srli	a5,a5,0x10
    2f2a:	02f4c7b3          	div	a5,s1,a5
    2f2e:	4018                	lw	a4,0(s0)
    2f30:	00f10693          	addi	a3,sp,15
    2f34:	4605                	li	a2,1
    2f36:	330c                	lbu	a1,1(a4)
    2f38:	17fd                	addi	a5,a5,-1
    2f3a:	87dc                	sb	a5,15(sp)
    2f3c:	405c                	lw	a5,4(s0)
    2f3e:	2388                	lbu	a0,0(a5)
    2f40:	75c010ef          	jal	ra,469c <MPU6050_I2C_Mem_Write>
    2f44:	8788                	lbu	a0,15(sp)
    2f46:	0505                	addi	a0,a0,1
    2f48:	02a4c533          	div	a0,s1,a0
    2f4c:	a46a                	sh	a0,14(s0)
    2f4e:	8105                	srli	a0,a0,0x1
    2f50:	b81ff0ef          	jal	ra,2ad0 <mpu_set_lpf>
    2f54:	b75d                	j	2efa <mpu_set_sample_rate+0x3a>
    2f56:	557d                	li	a0,-1
    2f58:	b755                	j	2efc <mpu_set_sample_rate+0x3c>

00002f5a <mpu_set_sensors>:
    2f5a:	dbcfd2ef          	jal	t0,516 <__riscv_save_0>
    2f5e:	07057793          	andi	a5,a0,112
    2f62:	1141                	addi	sp,sp,-16
    2f64:	842a                	mv	s0,a0
    2f66:	c781                	beqz	a5,2f6e <mpu_set_sensors+0x14>
    2f68:	4785                	li	a5,1
    2f6a:	87dc                	sb	a5,15(sp)
    2f6c:	a021                	j	2f74 <mpu_set_sensors+0x1a>
    2f6e:	cd41                	beqz	a0,3006 <mpu_set_sensors+0xac>
    2f70:	000107a3          	sb	zero,15(sp)
    2f74:	200004b7          	lui	s1,0x20000
    2f78:	02c48913          	addi	s2,s1,44 # 2000002c <st>
    2f7c:	00492783          	lw	a5,4(s2)
    2f80:	00092703          	lw	a4,0(s2)
    2f84:	00f10693          	addi	a3,sp,15
    2f88:	2388                	lbu	a0,0(a5)
    2f8a:	2b2c                	lbu	a1,18(a4)
    2f8c:	4605                	li	a2,1
    2f8e:	02c48493          	addi	s1,s1,44
    2f92:	70a010ef          	jal	ra,469c <MPU6050_I2C_Mem_Write>
    2f96:	879c                	lbu	a5,15(sp)
    2f98:	fbf7f793          	andi	a5,a5,-65
    2f9c:	00f90623          	sb	a5,12(s2)
    2fa0:	04047793          	andi	a5,s0,64
    2fa4:	c7a5                	beqz	a5,300c <mpu_set_sensors+0xb2>
    2fa6:	000107a3          	sb	zero,15(sp)
    2faa:	02047793          	andi	a5,s0,32
    2fae:	e789                	bnez	a5,2fb8 <mpu_set_sensors+0x5e>
    2fb0:	879c                	lbu	a5,15(sp)
    2fb2:	0027e793          	ori	a5,a5,2
    2fb6:	87dc                	sb	a5,15(sp)
    2fb8:	01047793          	andi	a5,s0,16
    2fbc:	e789                	bnez	a5,2fc6 <mpu_set_sensors+0x6c>
    2fbe:	879c                	lbu	a5,15(sp)
    2fc0:	0017e793          	ori	a5,a5,1
    2fc4:	87dc                	sb	a5,15(sp)
    2fc6:	00847793          	andi	a5,s0,8
    2fca:	e789                	bnez	a5,2fd4 <mpu_set_sensors+0x7a>
    2fcc:	879c                	lbu	a5,15(sp)
    2fce:	0387e793          	ori	a5,a5,56
    2fd2:	87dc                	sb	a5,15(sp)
    2fd4:	40dc                	lw	a5,4(s1)
    2fd6:	4098                	lw	a4,0(s1)
    2fd8:	00f10693          	addi	a3,sp,15
    2fdc:	2388                	lbu	a0,0(a5)
    2fde:	3b2c                	lbu	a1,19(a4)
    2fe0:	4605                	li	a2,1
    2fe2:	6ba010ef          	jal	ra,469c <MPU6050_I2C_Mem_Write>
    2fe6:	0f747793          	andi	a5,s0,247
    2fea:	c399                	beqz	a5,2ff0 <mpu_set_sensors+0x96>
    2fec:	4501                	li	a0,0
    2fee:	33f9                	jal	2dbc <mpu_set_int_latched>
    2ff0:	03200513          	li	a0,50
    2ff4:	a4a0                	sb	s0,10(s1)
    2ff6:	00048a23          	sb	zero,20(s1)
    2ffa:	4a9030ef          	jal	ra,6ca2 <Delay_Ms>
    2ffe:	4501                	li	a0,0
    3000:	0141                	addi	sp,sp,16
    3002:	d38fd06f          	j	53a <__riscv_restore_0>
    3006:	04000793          	li	a5,64
    300a:	b785                	j	2f6a <mpu_set_sensors+0x10>
    300c:	4791                	li	a5,4
    300e:	87dc                	sb	a5,15(sp)
    3010:	bf69                	j	2faa <mpu_set_sensors+0x50>

00003012 <mpu_init>:
    3012:	d04fd2ef          	jal	t0,516 <__riscv_save_0>
    3016:	20000437          	lui	s0,0x20000
    301a:	1141                	addi	sp,sp,-16
    301c:	02c40493          	addi	s1,s0,44 # 2000002c <st>
    3020:	f8000793          	li	a5,-128
    3024:	4098                	lw	a4,0(s1)
    3026:	845c                	sb	a5,8(sp)
    3028:	40dc                	lw	a5,4(s1)
    302a:	2b2c                	lbu	a1,18(a4)
    302c:	0034                	addi	a3,sp,8
    302e:	2388                	lbu	a0,0(a5)
    3030:	4605                	li	a2,1
    3032:	02c40413          	addi	s0,s0,44
    3036:	666010ef          	jal	ra,469c <MPU6050_I2C_Mem_Write>
    303a:	06400513          	li	a0,100
    303e:	465030ef          	jal	ra,6ca2 <Delay_Ms>
    3042:	4098                	lw	a4,0(s1)
    3044:	40dc                	lw	a5,4(s1)
    3046:	00010423          	sb	zero,8(sp)
    304a:	2b2c                	lbu	a1,18(a4)
    304c:	2388                	lbu	a0,0(a5)
    304e:	0034                	addi	a3,sp,8
    3050:	4605                	li	a2,1
    3052:	64a010ef          	jal	ra,469c <MPU6050_I2C_Mem_Write>
    3056:	4098                	lw	a4,0(s1)
    3058:	40dc                	lw	a5,4(s1)
    305a:	0034                	addi	a3,sp,8
    305c:	2b6c                	lbu	a1,22(a4)
    305e:	2388                	lbu	a0,0(a5)
    3060:	4619                	li	a2,6
    3062:	03b010ef          	jal	ra,489c <MPU6050_I2C_Mem_Read>
    3066:	869c                	lbu	a5,13(sp)
    3068:	8598                	lbu	a4,11(sp)
    306a:	078a                	slli	a5,a5,0x2
    306c:	0706                	slli	a4,a4,0x1
    306e:	8b09                	andi	a4,a4,2
    3070:	8b91                	andi	a5,a5,4
    3072:	8fd9                	or	a5,a5,a4
    3074:	8498                	lbu	a4,9(sp)
    3076:	8b05                	andi	a4,a4,1
    3078:	8fd9                	or	a5,a5,a4
    307a:	c7d9                	beqz	a5,3108 <mpu_init+0xf6>
    307c:	4705                	li	a4,1
    307e:	0ff7f593          	andi	a1,a5,255
    3082:	00e79463          	bne	a5,a4,308a <mpu_init+0x78>
    3086:	b83c                	sb	a5,19(s0)
    3088:	a031                	j	3094 <mpu_init+0x82>
    308a:	4789                	li	a5,2
    308c:	06f59363          	bne	a1,a5,30f2 <mpu_init+0xe0>
    3090:	000409a3          	sb	zero,19(s0)
    3094:	57fd                	li	a5,-1
    3096:	a47e                	sh	a5,14(s0)
    3098:	a81c                	sb	a5,16(s0)
    309a:	a83c                	sb	a5,18(s0)
    309c:	57fd                	li	a5,-1
    309e:	c41c                	sw	a5,8(s0)
    30a0:	00041a23          	sh	zero,20(s0)
    30a4:	4785                	li	a5,1
    30a6:	4631                	li	a2,12
    30a8:	4581                	li	a1,0
    30aa:	01640513          	addi	a0,s0,22
    30ae:	a45c                	sb	a5,12(s0)
    30b0:	c96fd0ef          	jal	ra,546 <memset>
    30b4:	4785                	li	a5,1
    30b6:	b03e                	sh	a5,34(s0)
    30b8:	02042223          	sw	zero,36(s0)
    30bc:	7d000513          	li	a0,2000
    30c0:	891ff0ef          	jal	ra,2950 <mpu_set_gyro_fsr>
    30c4:	ed0d                	bnez	a0,30fe <mpu_init+0xec>
    30c6:	4509                	li	a0,2
    30c8:	94bff0ef          	jal	ra,2a12 <mpu_set_accel_fsr>
    30cc:	e90d                	bnez	a0,30fe <mpu_init+0xec>
    30ce:	02a00513          	li	a0,42
    30d2:	9ffff0ef          	jal	ra,2ad0 <mpu_set_lpf>
    30d6:	e505                	bnez	a0,30fe <mpu_init+0xec>
    30d8:	03200513          	li	a0,50
    30dc:	33d5                	jal	2ec0 <mpu_set_sample_rate>
    30de:	e105                	bnez	a0,30fe <mpu_init+0xec>
    30e0:	b23ff0ef          	jal	ra,2c02 <mpu_configure_fifo>
    30e4:	ed09                	bnez	a0,30fe <mpu_init+0xec>
    30e6:	c0dff0ef          	jal	ra,2cf2 <mpu_set_bypass>
    30ea:	842a                	mv	s0,a0
    30ec:	e909                	bnez	a0,30fe <mpu_init+0xec>
    30ee:	35b5                	jal	2f5a <mpu_set_sensors>
    30f0:	a801                	j	3100 <mpu_init+0xee>
    30f2:	0000b537          	lui	a0,0xb
    30f6:	77450513          	addi	a0,a0,1908 # b774 <hw+0x40>
    30fa:	54f040ef          	jal	ra,7e48 <printf>
    30fe:	547d                	li	s0,-1
    3100:	8522                	mv	a0,s0
    3102:	0141                	addi	sp,sp,16
    3104:	c36fd06f          	j	53a <__riscv_restore_0>
    3108:	40dc                	lw	a5,4(s1)
    310a:	4098                	lw	a4,0(s1)
    310c:	0034                	addi	a3,sp,8
    310e:	2388                	lbu	a0,0(a5)
    3110:	332c                	lbu	a1,3(a4)
    3112:	4605                	li	a2,1
    3114:	788010ef          	jal	ra,489c <MPU6050_I2C_Mem_Read>
    3118:	841c                	lbu	a5,8(sp)
    311a:	8bbd                	andi	a5,a5,15
    311c:	eb81                	bnez	a5,312c <mpu_init+0x11a>
    311e:	0000b537          	lui	a0,0xb
    3122:	79c50513          	addi	a0,a0,1948 # b79c <hw+0x68>
    3126:	547040ef          	jal	ra,7e6c <puts>
    312a:	bfd1                	j	30fe <mpu_init+0xec>
    312c:	4711                	li	a4,4
    312e:	f6e791e3          	bne	a5,a4,3090 <mpu_init+0x7e>
    3132:	0000b537          	lui	a0,0xb
    3136:	7e850513          	addi	a0,a0,2024 # b7e8 <hw+0xb4>
    313a:	533040ef          	jal	ra,7e6c <puts>
    313e:	4785                	li	a5,1
    3140:	b799                	j	3086 <mpu_init+0x74>

00003142 <mpu_write_mem>:
    3142:	e619                	bnez	a2,3150 <mpu_write_mem+0xe>
    3144:	557d                	li	a0,-1
    3146:	8082                	ret
    3148:	557d                	li	a0,-1
    314a:	0141                	addi	sp,sp,16
    314c:	beefd06f          	j	53a <__riscv_restore_0>
    3150:	bc6fd2ef          	jal	t0,516 <__riscv_save_0>
    3154:	20000437          	lui	s0,0x20000
    3158:	02c40413          	addi	s0,s0,44 # 2000002c <st>
    315c:	243c                	lbu	a5,10(s0)
    315e:	1141                	addi	sp,sp,-16
    3160:	d7e5                	beqz	a5,3148 <mpu_write_mem+0x6>
    3162:	00855713          	srli	a4,a0,0x8
    3166:	00851793          	slli	a5,a0,0x8
    316a:	8fd9                	or	a5,a5,a4
    316c:	867c                	sh	a5,12(sp)
    316e:	405c                	lw	a5,4(s0)
    3170:	0ff57513          	andi	a0,a0,255
    3174:	952e                	add	a0,a0,a1
    3176:	27ba                	lhu	a4,10(a5)
    3178:	fca748e3          	blt	a4,a0,3148 <mpu_write_mem+0x6>
    317c:	4018                	lw	a4,0(s0)
    317e:	2388                	lbu	a0,0(a5)
    3180:	84ae                	mv	s1,a1
    3182:	2f0c                	lbu	a1,24(a4)
    3184:	8932                	mv	s2,a2
    3186:	0074                	addi	a3,sp,12
    3188:	4609                	li	a2,2
    318a:	512010ef          	jal	ra,469c <MPU6050_I2C_Mem_Write>
    318e:	4018                	lw	a4,0(s0)
    3190:	405c                	lw	a5,4(s0)
    3192:	86ca                	mv	a3,s2
    3194:	3b4c                	lbu	a1,21(a4)
    3196:	2388                	lbu	a0,0(a5)
    3198:	0ff4f613          	andi	a2,s1,255
    319c:	500010ef          	jal	ra,469c <MPU6050_I2C_Mem_Write>
    31a0:	4501                	li	a0,0
    31a2:	b765                	j	314a <mpu_write_mem+0x8>

000031a4 <mpu_read_mem>:
    31a4:	e619                	bnez	a2,31b2 <mpu_read_mem+0xe>
    31a6:	557d                	li	a0,-1
    31a8:	8082                	ret
    31aa:	557d                	li	a0,-1
    31ac:	0141                	addi	sp,sp,16
    31ae:	b8cfd06f          	j	53a <__riscv_restore_0>
    31b2:	b64fd2ef          	jal	t0,516 <__riscv_save_0>
    31b6:	20000437          	lui	s0,0x20000
    31ba:	02c40413          	addi	s0,s0,44 # 2000002c <st>
    31be:	243c                	lbu	a5,10(s0)
    31c0:	1141                	addi	sp,sp,-16
    31c2:	d7e5                	beqz	a5,31aa <mpu_read_mem+0x6>
    31c4:	00855713          	srli	a4,a0,0x8
    31c8:	00851793          	slli	a5,a0,0x8
    31cc:	8fd9                	or	a5,a5,a4
    31ce:	867c                	sh	a5,12(sp)
    31d0:	405c                	lw	a5,4(s0)
    31d2:	0ff57513          	andi	a0,a0,255
    31d6:	952e                	add	a0,a0,a1
    31d8:	27ba                	lhu	a4,10(a5)
    31da:	fca748e3          	blt	a4,a0,31aa <mpu_read_mem+0x6>
    31de:	4018                	lw	a4,0(s0)
    31e0:	2388                	lbu	a0,0(a5)
    31e2:	84ae                	mv	s1,a1
    31e4:	2f0c                	lbu	a1,24(a4)
    31e6:	8932                	mv	s2,a2
    31e8:	0074                	addi	a3,sp,12
    31ea:	4609                	li	a2,2
    31ec:	4b0010ef          	jal	ra,469c <MPU6050_I2C_Mem_Write>
    31f0:	4018                	lw	a4,0(s0)
    31f2:	405c                	lw	a5,4(s0)
    31f4:	86ca                	mv	a3,s2
    31f6:	3b4c                	lbu	a1,21(a4)
    31f8:	2388                	lbu	a0,0(a5)
    31fa:	0ff4f613          	andi	a2,s1,255
    31fe:	69e010ef          	jal	ra,489c <MPU6050_I2C_Mem_Read>
    3202:	4501                	li	a0,0
    3204:	b765                	j	31ac <mpu_read_mem+0x8>

00003206 <mpu_load_firmware>:
    3206:	ae8fd2ef          	jal	t0,4ee <__riscv_save_10>
    320a:	200004b7          	lui	s1,0x20000
    320e:	02c48793          	addi	a5,s1,44 # 2000002c <st>
    3212:	0257c783          	lbu	a5,37(a5)
    3216:	1101                	addi	sp,sp,-32
    3218:	c789                	beqz	a5,3222 <mpu_load_firmware+0x1c>
    321a:	557d                	li	a0,-1
    321c:	6105                	addi	sp,sp,32
    321e:	b08fd06f          	j	526 <__riscv_restore_10>
    3222:	dde5                	beqz	a1,321a <mpu_load_firmware+0x14>
    3224:	6bc1                	lui	s7,0x10
    3226:	02c48493          	addi	s1,s1,44
    322a:	8b36                	mv	s6,a3
    322c:	8932                	mv	s2,a2
    322e:	8a2e                	mv	s4,a1
    3230:	89aa                	mv	s3,a0
    3232:	4401                	li	s0,0
    3234:	4cc1                	li	s9,16
    3236:	1bfd                	addi	s7,s7,-1
    3238:	03346963          	bltu	s0,s3,326a <mpu_load_firmware+0x64>
    323c:	00891613          	slli	a2,s2,0x8
    3240:	40dc                	lw	a5,4(s1)
    3242:	4098                	lw	a4,0(s1)
    3244:	00895913          	srli	s2,s2,0x8
    3248:	01266933          	or	s2,a2,s2
    324c:	01211623          	sh	s2,12(sp)
    3250:	2388                	lbu	a0,0(a5)
    3252:	2f2c                	lbu	a1,26(a4)
    3254:	0074                	addi	a3,sp,12
    3256:	4609                	li	a2,2
    3258:	444010ef          	jal	ra,469c <MPU6050_I2C_Mem_Write>
    325c:	4785                	li	a5,1
    325e:	02f482a3          	sb	a5,37(s1)
    3262:	03649323          	sh	s6,38(s1)
    3266:	4501                	li	a0,0
    3268:	bf55                	j	321c <mpu_load_firmware+0x16>
    326a:	40898ab3          	sub	s5,s3,s0
    326e:	015cd363          	bge	s9,s5,3274 <mpu_load_firmware+0x6e>
    3272:	4ac1                	li	s5,16
    3274:	010a9c13          	slli	s8,s5,0x10
    3278:	010c5c13          	srli	s8,s8,0x10
    327c:	008a0d33          	add	s10,s4,s0
    3280:	866a                	mv	a2,s10
    3282:	85e2                	mv	a1,s8
    3284:	8522                	mv	a0,s0
    3286:	3d75                	jal	3142 <mpu_write_mem>
    3288:	f949                	bnez	a0,321a <mpu_load_firmware+0x14>
    328a:	0810                	addi	a2,sp,16
    328c:	85e2                	mv	a1,s8
    328e:	8522                	mv	a0,s0
    3290:	3f11                	jal	31a4 <mpu_read_mem>
    3292:	f541                	bnez	a0,321a <mpu_load_firmware+0x14>
    3294:	017af633          	and	a2,s5,s7
    3298:	080c                	addi	a1,sp,16
    329a:	856a                	mv	a0,s10
    329c:	0e0080ef          	jal	ra,b37c <memcmp>
    32a0:	e509                	bnez	a0,32aa <mpu_load_firmware+0xa4>
    32a2:	9462                	add	s0,s0,s8
    32a4:	0442                	slli	s0,s0,0x10
    32a6:	8041                	srli	s0,s0,0x10
    32a8:	bf41                	j	3238 <mpu_load_firmware+0x32>
    32aa:	5579                	li	a0,-2
    32ac:	bf85                	j	321c <mpu_load_firmware+0x16>

000032ae <mpu_set_dmp_state>:
    32ae:	a68fd2ef          	jal	t0,516 <__riscv_save_0>
    32b2:	20000437          	lui	s0,0x20000
    32b6:	02c40413          	addi	s0,s0,44 # 2000002c <st>
    32ba:	02444703          	lbu	a4,36(s0)
    32be:	1141                	addi	sp,sp,-16
    32c0:	04a70363          	beq	a4,a0,3306 <mpu_set_dmp_state+0x58>
    32c4:	c529                	beqz	a0,330e <mpu_set_dmp_state+0x60>
    32c6:	02544783          	lbu	a5,37(s0)
    32ca:	557d                	li	a0,-1
    32cc:	cf95                	beqz	a5,3308 <mpu_set_dmp_state+0x5a>
    32ce:	4501                	li	a0,0
    32d0:	cb2ff0ef          	jal	ra,2782 <set_int_enable>
    32d4:	4501                	li	a0,0
    32d6:	a1dff0ef          	jal	ra,2cf2 <mpu_set_bypass>
    32da:	306a                	lhu	a0,38(s0)
    32dc:	be5ff0ef          	jal	ra,2ec0 <mpu_set_sample_rate>
    32e0:	405c                	lw	a5,4(s0)
    32e2:	000107a3          	sb	zero,15(sp)
    32e6:	00f10693          	addi	a3,sp,15
    32ea:	2388                	lbu	a0,0(a5)
    32ec:	4605                	li	a2,1
    32ee:	02300593          	li	a1,35
    32f2:	3aa010ef          	jal	ra,469c <MPU6050_I2C_Mem_Write>
    32f6:	4785                	li	a5,1
    32f8:	4505                	li	a0,1
    32fa:	02f40223          	sb	a5,36(s0)
    32fe:	c84ff0ef          	jal	ra,2782 <set_int_enable>
    3302:	cd8ff0ef          	jal	ra,27da <mpu_reset_fifo>
    3306:	4501                	li	a0,0
    3308:	0141                	addi	sp,sp,16
    330a:	a30fd06f          	j	53a <__riscv_restore_0>
    330e:	c74ff0ef          	jal	ra,2782 <set_int_enable>
    3312:	281c                	lbu	a5,16(s0)
    3314:	00f10693          	addi	a3,sp,15
    3318:	4605                	li	a2,1
    331a:	87dc                	sb	a5,15(sp)
    331c:	405c                	lw	a5,4(s0)
    331e:	02300593          	li	a1,35
    3322:	2388                	lbu	a0,0(a5)
    3324:	378010ef          	jal	ra,469c <MPU6050_I2C_Mem_Write>
    3328:	02040223          	sb	zero,36(s0)
    332c:	bfd9                	j	3302 <mpu_set_dmp_state+0x54>

0000332e <mpu_run_self_test>:
    332e:	9b8fd2ef          	jal	t0,4e6 <__riscv_save_12>
    3332:	20000437          	lui	s0,0x20000
    3336:	02c40793          	addi	a5,s0,44 # 2000002c <st>
    333a:	0247ca83          	lbu	s5,36(a5)
    333e:	7159                	addi	sp,sp,-112
    3340:	8b2a                	mv	s6,a0
    3342:	8bae                	mv	s7,a1
    3344:	02c40413          	addi	s0,s0,44
    3348:	000a8563          	beqz	s5,3352 <mpu_run_self_test+0x24>
    334c:	4501                	li	a0,0
    334e:	3785                	jal	32ae <mpu_set_dmp_state>
    3350:	4a85                	li	s5,1
    3352:	03e10513          	addi	a0,sp,62
    3356:	dbcff0ef          	jal	ra,2912 <mpu_get_gyro_fsr>
    335a:	03d10513          	addi	a0,sp,61
    335e:	e6eff0ef          	jal	ra,29cc <mpu_get_accel_fsr>
    3362:	04210513          	addi	a0,sp,66
    3366:	f20ff0ef          	jal	ra,2a86 <mpu_get_lpf>
    336a:	0088                	addi	a0,sp,64
    336c:	fe2ff0ef          	jal	ra,2b4e <mpu_get_sample_rate>
    3370:	281c                	lbu	a5,16(s0)
    3372:	4601                	li	a2,0
    3374:	85de                	mv	a1,s7
    3376:	855a                	mv	a0,s6
    3378:	00a44d83          	lbu	s11,10(s0)
    337c:	c43e                	sw	a5,8(sp)
    337e:	886ff0ef          	jal	ra,2404 <get_st_biases>
    3382:	1e051b63          	bnez	a0,3578 <mpu_run_self_test+0x24a>
    3386:	4605                	li	a2,1
    3388:	08ac                	addi	a1,sp,88
    338a:	00e8                	addi	a0,sp,76
    338c:	878ff0ef          	jal	ra,2404 <get_st_biases>
    3390:	24051263          	bnez	a0,35d4 <mpu_run_self_test+0x2a6>
    3394:	405c                	lw	a5,4(s0)
    3396:	00b4                	addi	a3,sp,72
    3398:	4611                	li	a2,4
    339a:	2388                	lbu	a0,0(a5)
    339c:	45b5                	li	a1,13
    339e:	06410a13          	addi	s4,sp,100
    33a2:	4fa010ef          	jal	ra,489c <MPU6050_I2C_Mem_Read>
    33a6:	04b14683          	lbu	a3,75(sp)
    33aa:	04814703          	lbu	a4,72(sp)
    33ae:	04410993          	addi	s3,sp,68
    33b2:	4046d793          	srai	a5,a3,0x4
    33b6:	870d                	srai	a4,a4,0x3
    33b8:	8b8d                	andi	a5,a5,3
    33ba:	8b71                	andi	a4,a4,28
    33bc:	8f5d                	or	a4,a4,a5
    33be:	04e10223          	sb	a4,68(sp)
    33c2:	04914703          	lbu	a4,73(sp)
    33c6:	4026d793          	srai	a5,a3,0x2
    33ca:	8b8d                	andi	a5,a5,3
    33cc:	870d                	srai	a4,a4,0x3
    33ce:	8b71                	andi	a4,a4,28
    33d0:	8f5d                	or	a4,a4,a5
    33d2:	04a14783          	lbu	a5,74(sp)
    33d6:	8a8d                	andi	a3,a3,3
    33d8:	04e102a3          	sb	a4,69(sp)
    33dc:	878d                	srai	a5,a5,0x3
    33de:	8bf1                	andi	a5,a5,28
    33e0:	8fd5                	or	a5,a5,a3
    33e2:	04f10323          	sb	a5,70(sp)
    33e6:	0000c737          	lui	a4,0xc
    33ea:	0000c7b7          	lui	a5,0xc
    33ee:	80c7ad03          	lw	s10,-2036(a5) # b80c <hw+0xd8>
    33f2:	81072703          	lw	a4,-2032(a4) # b810 <hw+0xdc>
    33f6:	07010c93          	addi	s9,sp,112
    33fa:	84d2                	mv	s1,s4
    33fc:	8c52                	mv	s8,s4
    33fe:	0009c903          	lbu	s2,0(s3)
    3402:	1e091063          	bnez	s2,35e2 <mpu_run_self_test+0x2b4>
    3406:	00000793          	li	a5,0
    340a:	c09c                	sw	a5,0(s1)
    340c:	0491                	addi	s1,s1,4
    340e:	0985                	addi	s3,s3,1
    3410:	fe9c97e3          	bne	s9,s1,33fe <mpu_run_self_test+0xd0>
    3414:	0000c7b7          	lui	a5,0xc
    3418:	c63e                	sw	a5,12(sp)
    341a:	0000c7b7          	lui	a5,0xc
    341e:	81c7a783          	lw	a5,-2020(a5) # b81c <hw+0xe8>
    3422:	08a4                	addi	s1,sp,88
    3424:	4981                	li	s3,0
    3426:	c83e                	sw	a5,16(sp)
    3428:	0000c7b7          	lui	a5,0xc
    342c:	8207a783          	lw	a5,-2016(a5) # b820 <hw+0xec>
    3430:	4901                	li	s2,0
    3432:	4c85                	li	s9,1
    3434:	ca3e                	sw	a5,20(sp)
    3436:	0000b7b7          	lui	a5,0xb
    343a:	66c7a783          	lw	a5,1644(a5) # b66c <memcpy+0x2cc>
    343e:	cc3e                	sw	a5,24(sp)
    3440:	800007b7          	lui	a5,0x80000
    3444:	fff7c793          	not	a5,a5
    3448:	ce3e                	sw	a5,28(sp)
    344a:	0000c7b7          	lui	a5,0xc
    344e:	8187a783          	lw	a5,-2024(a5) # b818 <hw+0xe4>
    3452:	d03e                	sw	a5,32(sp)
    3454:	00291793          	slli	a5,s2,0x2
    3458:	97de                	add	a5,a5,s7
    345a:	4088                	lw	a0,0(s1)
    345c:	439c                	lw	a5,0(a5)
    345e:	8f89                	sub	a5,a5,a0
    3460:	41f7d513          	srai	a0,a5,0x1f
    3464:	8fa9                	xor	a5,a5,a0
    3466:	40a78533          	sub	a0,a5,a0
    346a:	2f3070ef          	jal	ra,af5c <__floatsisf>
    346e:	0000c7b7          	lui	a5,0xc
    3472:	8147a583          	lw	a1,-2028(a5) # b814 <hw+0xe0>
    3476:	3d6070ef          	jal	ra,a84c <__mulsf3>
    347a:	000a2703          	lw	a4,0(s4)
    347e:	8d2a                	mv	s10,a0
    3480:	00000593          	li	a1,0
    3484:	853a                	mv	a0,a4
    3486:	d23a                	sw	a4,36(sp)
    3488:	256070ef          	jal	ra,a6de <__eqsf2>
    348c:	16050d63          	beqz	a0,3606 <mpu_run_self_test+0x2d8>
    3490:	5712                	lw	a4,36(sp)
    3492:	856a                	mv	a0,s10
    3494:	85ba                	mv	a1,a4
    3496:	797060ef          	jal	ra,a42c <__divsf3>
    349a:	45e2                	lw	a1,24(sp)
    349c:	644070ef          	jal	ra,aae0 <__subsf3>
    34a0:	47f2                	lw	a5,28(sp)
    34a2:	5582                	lw	a1,32(sp)
    34a4:	8d7d                	and	a0,a0,a5
    34a6:	294070ef          	jal	ra,a73a <__gesf2>
    34aa:	00a05663          	blez	a0,34b6 <mpu_run_self_test+0x188>
    34ae:	012c97b3          	sll	a5,s9,s2
    34b2:	00f9e9b3          	or	s3,s3,a5
    34b6:	0905                	addi	s2,s2,1
    34b8:	478d                	li	a5,3
    34ba:	0491                	addi	s1,s1,4
    34bc:	0a11                	addi	s4,s4,4
    34be:	f8f91be3          	bne	s2,a5,3454 <mpu_run_self_test+0x126>
    34c2:	0ff9f793          	andi	a5,s3,255
    34c6:	8d3e                	mv	s10,a5
    34c8:	405c                	lw	a5,4(s0)
    34ca:	86e2                	mv	a3,s8
    34cc:	460d                	li	a2,3
    34ce:	2388                	lbu	a0,0(a5)
    34d0:	45b5                	li	a1,13
    34d2:	04c10993          	addi	s3,sp,76
    34d6:	3c6010ef          	jal	ra,489c <MPU6050_I2C_Mem_Read>
    34da:	06614783          	lbu	a5,102(sp)
    34de:	06415703          	lhu	a4,100(sp)
    34e2:	6689                	lui	a3,0x2
    34e4:	8bfd                	andi	a5,a5,31
    34e6:	06f10323          	sb	a5,102(sp)
    34ea:	47b2                	lw	a5,12(sp)
    34ec:	f1f68693          	addi	a3,a3,-225 # 1f1f <TIM_TimeBaseInit+0x53>
    34f0:	8f75                	and	a4,a4,a3
    34f2:	8147a783          	lw	a5,-2028(a5)
    34f6:	06e11223          	sh	a4,100(sp)
    34fa:	4481                	li	s1,0
    34fc:	c63e                	sw	a5,12(sp)
    34fe:	0000c7b7          	lui	a5,0xc
    3502:	82c7a783          	lw	a5,-2004(a5) # b82c <hw+0xf8>
    3506:	4901                	li	s2,0
    3508:	4a05                	li	s4,1
    350a:	c83e                	sw	a5,16(sp)
    350c:	0000c7b7          	lui	a5,0xc
    3510:	8307a783          	lw	a5,-2000(a5) # b830 <hw+0xfc>
    3514:	ca3e                	sw	a5,20(sp)
    3516:	0000c7b7          	lui	a5,0xc
    351a:	8087a783          	lw	a5,-2040(a5) # b808 <hw+0xd4>
    351e:	cc3e                	sw	a5,24(sp)
    3520:	0000c7b7          	lui	a5,0xc
    3524:	8247a783          	lw	a5,-2012(a5) # b824 <hw+0xf0>
    3528:	ce3e                	sw	a5,28(sp)
    352a:	0000b7b7          	lui	a5,0xb
    352e:	66c7a783          	lw	a5,1644(a5) # b66c <memcpy+0x2cc>
    3532:	d03e                	sw	a5,32(sp)
    3534:	800007b7          	lui	a5,0x80000
    3538:	fff7c793          	not	a5,a5
    353c:	d23e                	sw	a5,36(sp)
    353e:	0000c7b7          	lui	a5,0xc
    3542:	8287ac83          	lw	s9,-2008(a5) # b828 <hw+0xf4>
    3546:	00291793          	slli	a5,s2,0x2
    354a:	97da                	add	a5,a5,s6
    354c:	0009a503          	lw	a0,0(s3)
    3550:	439c                	lw	a5,0(a5)
    3552:	8f89                	sub	a5,a5,a0
    3554:	41f7d513          	srai	a0,a5,0x1f
    3558:	8fa9                	xor	a5,a5,a0
    355a:	40a78533          	sub	a0,a5,a0
    355e:	1ff070ef          	jal	ra,af5c <__floatsisf>
    3562:	45b2                	lw	a1,12(sp)
    3564:	2e8070ef          	jal	ra,a84c <__mulsf3>
    3568:	012c0733          	add	a4,s8,s2
    356c:	231c                	lbu	a5,0(a4)
    356e:	8baa                	mv	s7,a0
    3570:	10078063          	beqz	a5,3670 <mpu_run_self_test+0x342>
    3574:	4562                	lw	a0,24(sp)
    3576:	a845                	j	3626 <mpu_run_self_test+0x2f8>
    3578:	4601                	li	a2,0
    357a:	85de                	mv	a1,s7
    357c:	855a                	mv	a0,s6
    357e:	e87fe0ef          	jal	ra,2404 <get_st_biases>
    3582:	e00502e3          	beqz	a0,3386 <mpu_run_self_test+0x58>
    3586:	4481                	li	s1,0
    3588:	57fd                	li	a5,-1
    358a:	03e15503          	lhu	a0,62(sp)
    358e:	a47e                	sh	a5,14(s0)
    3590:	a81c                	sb	a5,16(s0)
    3592:	57fd                	li	a5,-1
    3594:	c41c                	sw	a5,8(s0)
    3596:	4785                	li	a5,1
    3598:	a45c                	sb	a5,12(s0)
    359a:	bb6ff0ef          	jal	ra,2950 <mpu_set_gyro_fsr>
    359e:	03d14503          	lbu	a0,61(sp)
    35a2:	c70ff0ef          	jal	ra,2a12 <mpu_set_accel_fsr>
    35a6:	04215503          	lhu	a0,66(sp)
    35aa:	d26ff0ef          	jal	ra,2ad0 <mpu_set_lpf>
    35ae:	04015503          	lhu	a0,64(sp)
    35b2:	90fff0ef          	jal	ra,2ec0 <mpu_set_sample_rate>
    35b6:	856e                	mv	a0,s11
    35b8:	9a3ff0ef          	jal	ra,2f5a <mpu_set_sensors>
    35bc:	4522                	lw	a0,8(sp)
    35be:	e44ff0ef          	jal	ra,2c02 <mpu_configure_fifo>
    35c2:	000a8563          	beqz	s5,35cc <mpu_run_self_test+0x29e>
    35c6:	4505                	li	a0,1
    35c8:	ce7ff0ef          	jal	ra,32ae <mpu_set_dmp_state>
    35cc:	8526                	mv	a0,s1
    35ce:	6165                	addi	sp,sp,112
    35d0:	f53fc06f          	j	522 <__riscv_restore_12>
    35d4:	4605                	li	a2,1
    35d6:	08ac                	addi	a1,sp,88
    35d8:	00e8                	addi	a0,sp,76
    35da:	e2bfe0ef          	jal	ra,2404 <get_st_biases>
    35de:	f545                	bnez	a0,3586 <mpu_run_self_test+0x258>
    35e0:	bb55                	j	3394 <mpu_run_self_test+0x66>
    35e2:	01a4a023          	sw	s10,0(s1)
    35e6:	197d                	addi	s2,s2,-1
    35e8:	0ff97913          	andi	s2,s2,255
    35ec:	00091563          	bnez	s2,35f6 <mpu_run_self_test+0x2c8>
    35f0:	00098023          	sb	zero,0(s3)
    35f4:	bd21                	j	340c <mpu_run_self_test+0xde>
    35f6:	4088                	lw	a0,0(s1)
    35f8:	85ba                	mv	a1,a4
    35fa:	c63a                	sw	a4,12(sp)
    35fc:	250070ef          	jal	ra,a84c <__mulsf3>
    3600:	c088                	sw	a0,0(s1)
    3602:	4732                	lw	a4,12(sp)
    3604:	b7cd                	j	35e6 <mpu_run_self_test+0x2b8>
    3606:	45c2                	lw	a1,16(sp)
    3608:	856a                	mv	a0,s10
    360a:	1b6070ef          	jal	ra,a7c0 <__lesf2>
    360e:	ea0540e3          	bltz	a0,34ae <mpu_run_self_test+0x180>
    3612:	45d2                	lw	a1,20(sp)
    3614:	856a                	mv	a0,s10
    3616:	bd41                	j	34a6 <mpu_run_self_test+0x178>
    3618:	45f2                	lw	a1,28(sp)
    361a:	d63a                	sw	a4,44(sp)
    361c:	d43e                	sw	a5,40(sp)
    361e:	22e070ef          	jal	ra,a84c <__mulsf3>
    3622:	57a2                	lw	a5,40(sp)
    3624:	5732                	lw	a4,44(sp)
    3626:	17fd                	addi	a5,a5,-1
    3628:	0ff7f793          	andi	a5,a5,255
    362c:	f7f5                	bnez	a5,3618 <mpu_run_self_test+0x2ea>
    362e:	85aa                	mv	a1,a0
    3630:	00070023          	sb	zero,0(a4)
    3634:	855e                	mv	a0,s7
    3636:	5f7060ef          	jal	ra,a42c <__divsf3>
    363a:	5582                	lw	a1,32(sp)
    363c:	4a4070ef          	jal	ra,aae0 <__subsf3>
    3640:	5792                	lw	a5,36(sp)
    3642:	85e6                	mv	a1,s9
    3644:	8d7d                	and	a0,a0,a5
    3646:	0f4070ef          	jal	ra,a73a <__gesf2>
    364a:	00a05563          	blez	a0,3654 <mpu_run_self_test+0x326>
    364e:	012a17b3          	sll	a5,s4,s2
    3652:	8cdd                	or	s1,s1,a5
    3654:	0905                	addi	s2,s2,1
    3656:	478d                	li	a5,3
    3658:	0991                	addi	s3,s3,4
    365a:	eef916e3          	bne	s2,a5,3546 <mpu_run_self_test+0x218>
    365e:	0ff4f493          	andi	s1,s1,255
    3662:	0014b493          	seqz	s1,s1
    3666:	f20d11e3          	bnez	s10,3588 <mpu_run_self_test+0x25a>
    366a:	0024e493          	ori	s1,s1,2
    366e:	bf29                	j	3588 <mpu_run_self_test+0x25a>
    3670:	45c2                	lw	a1,16(sp)
    3672:	14e070ef          	jal	ra,a7c0 <__lesf2>
    3676:	fc054ce3          	bltz	a0,364e <mpu_run_self_test+0x320>
    367a:	45d2                	lw	a1,20(sp)
    367c:	855e                	mv	a0,s7
    367e:	b7e1                	j	3646 <mpu_run_self_test+0x318>

00003680 <mget_ms>:
    3680:	8082                	ret

00003682 <run_self_test>:
    3682:	e95fc2ef          	jal	t0,516 <__riscv_save_0>
    3686:	1101                	addi	sp,sp,-32
    3688:	084c                	addi	a1,sp,20
    368a:	0028                	addi	a0,sp,8
    368c:	ca3ff0ef          	jal	ra,332e <mpu_run_self_test>
    3690:	470d                	li	a4,3
    3692:	4785                	li	a5,1
    3694:	06e51763          	bne	a0,a4,3702 <run_self_test+0x80>
    3698:	0048                	addi	a0,sp,4
    369a:	cceff0ef          	jal	ra,2b68 <mpu_get_gyro_sens>
    369e:	4522                	lw	a0,8(sp)
    36a0:	4412                	lw	s0,4(sp)
    36a2:	0bb070ef          	jal	ra,af5c <__floatsisf>
    36a6:	85a2                	mv	a1,s0
    36a8:	1a4070ef          	jal	ra,a84c <__mulsf3>
    36ac:	7f8070ef          	jal	ra,aea4 <__fixsfsi>
    36b0:	c42a                	sw	a0,8(sp)
    36b2:	4532                	lw	a0,12(sp)
    36b4:	0a9070ef          	jal	ra,af5c <__floatsisf>
    36b8:	85a2                	mv	a1,s0
    36ba:	192070ef          	jal	ra,a84c <__mulsf3>
    36be:	7e6070ef          	jal	ra,aea4 <__fixsfsi>
    36c2:	c62a                	sw	a0,12(sp)
    36c4:	4542                	lw	a0,16(sp)
    36c6:	097070ef          	jal	ra,af5c <__floatsisf>
    36ca:	85a2                	mv	a1,s0
    36cc:	180070ef          	jal	ra,a84c <__mulsf3>
    36d0:	7d4070ef          	jal	ra,aea4 <__fixsfsi>
    36d4:	c82a                	sw	a0,16(sp)
    36d6:	0028                	addi	a0,sp,8
    36d8:	2925                	jal	3b10 <dmp_set_gyro_bias>
    36da:	00210513          	addi	a0,sp,2
    36de:	cd6ff0ef          	jal	ra,2bb4 <mpu_get_accel_sens>
    36e2:	8138                	lhu	a4,2(sp)
    36e4:	47d2                	lw	a5,20(sp)
    36e6:	0848                	addi	a0,sp,20
    36e8:	02e787b3          	mul	a5,a5,a4
    36ec:	ca3e                	sw	a5,20(sp)
    36ee:	47e2                	lw	a5,24(sp)
    36f0:	02e787b3          	mul	a5,a5,a4
    36f4:	cc3e                	sw	a5,24(sp)
    36f6:	47f2                	lw	a5,28(sp)
    36f8:	02e787b3          	mul	a5,a5,a4
    36fc:	ce3e                	sw	a5,28(sp)
    36fe:	2329                	jal	3c08 <dmp_set_accel_bias>
    3700:	4781                	li	a5,0
    3702:	853e                	mv	a0,a5
    3704:	6105                	addi	sp,sp,32
    3706:	e35fc06f          	j	53a <__riscv_restore_0>

0000370a <inv_row_2_scale>:
    370a:	00050703          	lb	a4,0(a0)
    370e:	4781                	li	a5,0
    3710:	02e04363          	bgtz	a4,3736 <inv_row_2_scale+0x2c>
    3714:	4791                	li	a5,4
    3716:	e305                	bnez	a4,3736 <inv_row_2_scale+0x2c>
    3718:	00150703          	lb	a4,1(a0)
    371c:	4785                	li	a5,1
    371e:	00e04c63          	bgtz	a4,3736 <inv_row_2_scale+0x2c>
    3722:	4795                	li	a5,5
    3724:	eb09                	bnez	a4,3736 <inv_row_2_scale+0x2c>
    3726:	00250703          	lb	a4,2(a0)
    372a:	4789                	li	a5,2
    372c:	00e04563          	bgtz	a4,3736 <inv_row_2_scale+0x2c>
    3730:	00173793          	seqz	a5,a4
    3734:	0799                	addi	a5,a5,6
    3736:	853e                	mv	a0,a5
    3738:	8082                	ret

0000373a <inv_orientation_matrix_to_scalar>:
    373a:	dddfc2ef          	jal	t0,516 <__riscv_save_0>
    373e:	84aa                	mv	s1,a0
    3740:	37e9                	jal	370a <inv_row_2_scale>
    3742:	892a                	mv	s2,a0
    3744:	00348513          	addi	a0,s1,3
    3748:	37c9                	jal	370a <inv_row_2_scale>
    374a:	842a                	mv	s0,a0
    374c:	00648513          	addi	a0,s1,6
    3750:	3f6d                	jal	370a <inv_row_2_scale>
    3752:	00341793          	slli	a5,s0,0x3
    3756:	051a                	slli	a0,a0,0x6
    3758:	8d5d                	or	a0,a0,a5
    375a:	01256533          	or	a0,a0,s2
    375e:	0542                	slli	a0,a0,0x10
    3760:	8141                	srli	a0,a0,0x10
    3762:	dd9fc06f          	j	53a <__riscv_restore_0>

00003766 <mpu_dmp_init>:
    3766:	db1fc2ef          	jal	t0,516 <__riscv_save_0>
    376a:	8a9ff0ef          	jal	ra,3012 <mpu_init>
    376e:	4429                	li	s0,10
    3770:	e559                	bnez	a0,37fe <mpu_dmp_init+0x98>
    3772:	07800513          	li	a0,120
    3776:	fe4ff0ef          	jal	ra,2f5a <mpu_set_sensors>
    377a:	0ff57513          	andi	a0,a0,255
    377e:	4405                	li	s0,1
    3780:	ed3d                	bnez	a0,37fe <mpu_dmp_init+0x98>
    3782:	07800513          	li	a0,120
    3786:	c7cff0ef          	jal	ra,2c02 <mpu_configure_fifo>
    378a:	0ff57513          	andi	a0,a0,255
    378e:	4409                	li	s0,2
    3790:	e53d                	bnez	a0,37fe <mpu_dmp_init+0x98>
    3792:	03200513          	li	a0,50
    3796:	f2aff0ef          	jal	ra,2ec0 <mpu_set_sample_rate>
    379a:	0ff57513          	andi	a0,a0,255
    379e:	440d                	li	s0,3
    37a0:	ed39                	bnez	a0,37fe <mpu_dmp_init+0x98>
    37a2:	2c91                	jal	39f6 <dmp_load_motion_driver_firmware>
    37a4:	0ff57513          	andi	a0,a0,255
    37a8:	4411                	li	s0,4
    37aa:	e931                	bnez	a0,37fe <mpu_dmp_init+0x98>
    37ac:	20000537          	lui	a0,0x20000
    37b0:	02050513          	addi	a0,a0,32 # 20000020 <gyro_orientation>
    37b4:	3759                	jal	373a <inv_orientation_matrix_to_scalar>
    37b6:	2485                	jal	3a16 <dmp_set_orientation>
    37b8:	0ff57513          	andi	a0,a0,255
    37bc:	4415                	li	s0,5
    37be:	e121                	bnez	a0,37fe <mpu_dmp_init+0x98>
    37c0:	17300513          	li	a0,371
    37c4:	109000ef          	jal	ra,40cc <dmp_enable_feature>
    37c8:	0ff57513          	andi	a0,a0,255
    37cc:	4419                	li	s0,6
    37ce:	e905                	bnez	a0,37fe <mpu_dmp_init+0x98>
    37d0:	03200513          	li	a0,50
    37d4:	2b05                	jal	3d04 <dmp_set_fifo_rate>
    37d6:	0ff57513          	andi	a0,a0,255
    37da:	441d                	li	s0,7
    37dc:	e10d                	bnez	a0,37fe <mpu_dmp_init+0x98>
    37de:	ea5ff0ef          	jal	ra,3682 <run_self_test>
    37e2:	4421                	li	s0,8
    37e4:	ed09                	bnez	a0,37fe <mpu_dmp_init+0x98>
    37e6:	4505                	li	a0,1
    37e8:	ac7ff0ef          	jal	ra,32ae <mpu_set_dmp_state>
    37ec:	0ff57413          	andi	s0,a0,255
    37f0:	e811                	bnez	s0,3804 <mpu_dmp_init+0x9e>
    37f2:	0000b537          	lui	a0,0xb
    37f6:	75050513          	addi	a0,a0,1872 # b750 <hw+0x1c>
    37fa:	672040ef          	jal	ra,7e6c <puts>
    37fe:	8522                	mv	a0,s0
    3800:	d3bfc06f          	j	53a <__riscv_restore_0>
    3804:	4425                	li	s0,9
    3806:	bfe5                	j	37fe <mpu_dmp_init+0x98>

00003808 <mpu_dmp_get_data>:
    3808:	ce7fc2ef          	jal	t0,4ee <__riscv_save_10>
    380c:	7179                	addi	sp,sp,-48
    380e:	8baa                	mv	s7,a0
    3810:	8b2e                	mv	s6,a1
    3812:	8ab2                	mv	s5,a2
    3814:	00910793          	addi	a5,sp,9
    3818:	00a10713          	addi	a4,sp,10
    381c:	0074                	addi	a3,sp,12
    381e:	1010                	addi	a2,sp,32
    3820:	082c                	addi	a1,sp,24
    3822:	0808                	addi	a0,sp,16
    3824:	27f000ef          	jal	ra,42a2 <dmp_read_fifo>
    3828:	18051c63          	bnez	a0,39c0 <mpu_dmp_get_data+0x1b8>
    382c:	853c                	lhu	a5,10(sp)
    382e:	4509                	li	a0,2
    3830:	1007f793          	andi	a5,a5,256
    3834:	18078363          	beqz	a5,39ba <mpu_dmp_get_data+0x1b2>
    3838:	5502                	lw	a0,32(sp)
    383a:	0000b9b7          	lui	s3,0xb
    383e:	71e070ef          	jal	ra,af5c <__floatsisf>
    3842:	7409a583          	lw	a1,1856(s3) # b740 <hw+0xc>
    3846:	006070ef          	jal	ra,a84c <__mulsf3>
    384a:	892a                	mv	s2,a0
    384c:	5512                	lw	a0,36(sp)
    384e:	70e070ef          	jal	ra,af5c <__floatsisf>
    3852:	7409a583          	lw	a1,1856(s3)
    3856:	7f7060ef          	jal	ra,a84c <__mulsf3>
    385a:	84aa                	mv	s1,a0
    385c:	5522                	lw	a0,40(sp)
    385e:	6fe070ef          	jal	ra,af5c <__floatsisf>
    3862:	7409a583          	lw	a1,1856(s3)
    3866:	7e7060ef          	jal	ra,a84c <__mulsf3>
    386a:	842a                	mv	s0,a0
    386c:	5532                	lw	a0,44(sp)
    386e:	6ee070ef          	jal	ra,af5c <__floatsisf>
    3872:	7409a583          	lw	a1,1856(s3)
    3876:	7d7060ef          	jal	ra,a84c <__mulsf3>
    387a:	0000b7b7          	lui	a5,0xb
    387e:	7447a583          	lw	a1,1860(a5) # b744 <hw+0x10>
    3882:	89aa                	mv	s3,a0
    3884:	8526                	mv	a0,s1
    3886:	7c7060ef          	jal	ra,a84c <__mulsf3>
    388a:	8caa                	mv	s9,a0
    388c:	85ca                	mv	a1,s2
    388e:	854a                	mv	a0,s2
    3890:	033060ef          	jal	ra,a0c2 <__addsf3>
    3894:	8c2a                	mv	s8,a0
    3896:	85ce                	mv	a1,s3
    3898:	8566                	mv	a0,s9
    389a:	7b3060ef          	jal	ra,a84c <__mulsf3>
    389e:	8a2a                	mv	s4,a0
    38a0:	85a2                	mv	a1,s0
    38a2:	8562                	mv	a0,s8
    38a4:	7a9060ef          	jal	ra,a84c <__mulsf3>
    38a8:	85aa                	mv	a1,a0
    38aa:	8552                	mv	a0,s4
    38ac:	017060ef          	jal	ra,a0c2 <__addsf3>
    38b0:	4c4030ef          	jal	ra,6d74 <asinf>
    38b4:	03d070ef          	jal	ra,b0f0 <__extendsfdf2>
    38b8:	0000ba37          	lui	s4,0xb
    38bc:	748a2603          	lw	a2,1864(s4) # b748 <hw+0x14>
    38c0:	74ca2683          	lw	a3,1868(s4)
    38c4:	0c9050ef          	jal	ra,918c <__muldf3>
    38c8:	0d5070ef          	jal	ra,b19c <__truncdfsf2>
    38cc:	00aba023          	sw	a0,0(s7) # 10000 <_data_lma+0x3760>
    38d0:	85a2                	mv	a1,s0
    38d2:	8522                	mv	a0,s0
    38d4:	7ee060ef          	jal	ra,a0c2 <__addsf3>
    38d8:	8baa                	mv	s7,a0
    38da:	85a6                	mv	a1,s1
    38dc:	8566                	mv	a0,s9
    38de:	76f060ef          	jal	ra,a84c <__mulsf3>
    38e2:	8caa                	mv	s9,a0
    38e4:	85a2                	mv	a1,s0
    38e6:	855e                	mv	a0,s7
    38e8:	765060ef          	jal	ra,a84c <__mulsf3>
    38ec:	85aa                	mv	a1,a0
    38ee:	8566                	mv	a0,s9
    38f0:	1f0070ef          	jal	ra,aae0 <__subsf3>
    38f4:	0000b7b7          	lui	a5,0xb
    38f8:	66c7a583          	lw	a1,1644(a5) # b66c <memcpy+0x2cc>
    38fc:	7c6060ef          	jal	ra,a0c2 <__addsf3>
    3900:	8caa                	mv	s9,a0
    3902:	85ce                	mv	a1,s3
    3904:	855e                	mv	a0,s7
    3906:	747060ef          	jal	ra,a84c <__mulsf3>
    390a:	8baa                	mv	s7,a0
    390c:	85a6                	mv	a1,s1
    390e:	8562                	mv	a0,s8
    3910:	73d060ef          	jal	ra,a84c <__mulsf3>
    3914:	85aa                	mv	a1,a0
    3916:	855e                	mv	a0,s7
    3918:	7aa060ef          	jal	ra,a0c2 <__addsf3>
    391c:	85e6                	mv	a1,s9
    391e:	514030ef          	jal	ra,6e32 <atan2f>
    3922:	7ce070ef          	jal	ra,b0f0 <__extendsfdf2>
    3926:	748a2603          	lw	a2,1864(s4)
    392a:	74ca2683          	lw	a3,1868(s4)
    392e:	05f050ef          	jal	ra,918c <__muldf3>
    3932:	06b070ef          	jal	ra,b19c <__truncdfsf2>
    3936:	00ab2023          	sw	a0,0(s6)
    393a:	85ca                	mv	a1,s2
    393c:	854a                	mv	a0,s2
    393e:	70f060ef          	jal	ra,a84c <__mulsf3>
    3942:	8b2a                	mv	s6,a0
    3944:	85a6                	mv	a1,s1
    3946:	8526                	mv	a0,s1
    3948:	705060ef          	jal	ra,a84c <__mulsf3>
    394c:	85aa                	mv	a1,a0
    394e:	855a                	mv	a0,s6
    3950:	772060ef          	jal	ra,a0c2 <__addsf3>
    3954:	8b2a                	mv	s6,a0
    3956:	85a2                	mv	a1,s0
    3958:	8522                	mv	a0,s0
    395a:	6f3060ef          	jal	ra,a84c <__mulsf3>
    395e:	85aa                	mv	a1,a0
    3960:	855a                	mv	a0,s6
    3962:	17e070ef          	jal	ra,aae0 <__subsf3>
    3966:	8b2a                	mv	s6,a0
    3968:	85ce                	mv	a1,s3
    396a:	854e                	mv	a0,s3
    396c:	6e1060ef          	jal	ra,a84c <__mulsf3>
    3970:	85aa                	mv	a1,a0
    3972:	855a                	mv	a0,s6
    3974:	16c070ef          	jal	ra,aae0 <__subsf3>
    3978:	85a2                	mv	a1,s0
    397a:	8b2a                	mv	s6,a0
    397c:	8526                	mv	a0,s1
    397e:	6cf060ef          	jal	ra,a84c <__mulsf3>
    3982:	842a                	mv	s0,a0
    3984:	85ce                	mv	a1,s3
    3986:	854a                	mv	a0,s2
    3988:	6c5060ef          	jal	ra,a84c <__mulsf3>
    398c:	85aa                	mv	a1,a0
    398e:	8522                	mv	a0,s0
    3990:	732060ef          	jal	ra,a0c2 <__addsf3>
    3994:	85aa                	mv	a1,a0
    3996:	72c060ef          	jal	ra,a0c2 <__addsf3>
    399a:	85da                	mv	a1,s6
    399c:	496030ef          	jal	ra,6e32 <atan2f>
    39a0:	750070ef          	jal	ra,b0f0 <__extendsfdf2>
    39a4:	748a2603          	lw	a2,1864(s4)
    39a8:	74ca2683          	lw	a3,1868(s4)
    39ac:	7e0050ef          	jal	ra,918c <__muldf3>
    39b0:	7ec070ef          	jal	ra,b19c <__truncdfsf2>
    39b4:	00aaa023          	sw	a0,0(s5)
    39b8:	4501                	li	a0,0
    39ba:	6145                	addi	sp,sp,48
    39bc:	b6bfc06f          	j	526 <__riscv_restore_10>
    39c0:	4505                	li	a0,1
    39c2:	bfe5                	j	39ba <mpu_dmp_get_data+0x1b2>

000039c4 <dmp_enable_gyro_cal.part.0>:
    39c4:	b53fc2ef          	jal	t0,516 <__riscv_save_0>
    39c8:	8db3b7b7          	lui	a5,0x8db3b
    39cc:	1141                	addi	sp,sp,-16
    39ce:	ab878793          	addi	a5,a5,-1352 # 8db3aab8 <__freertos_irq_stack_top+0x6db32ab8>
    39d2:	c23e                	sw	a5,4(sp)
    39d4:	350da7b7          	lui	a5,0x350da
    39d8:	8b478793          	addi	a5,a5,-1868 # 350d98b4 <__freertos_irq_stack_top+0x150d18b4>
    39dc:	c43e                	sw	a5,8(sp)
    39de:	0050                	addi	a2,sp,4
    39e0:	05d00793          	li	a5,93
    39e4:	45a5                	li	a1,9
    39e6:	4b800513          	li	a0,1208
    39ea:	865c                	sb	a5,12(sp)
    39ec:	f56ff0ef          	jal	ra,3142 <mpu_write_mem>
    39f0:	0141                	addi	sp,sp,16
    39f2:	b49fc06f          	j	53a <__riscv_restore_0>

000039f6 <dmp_load_motion_driver_firmware>:
    39f6:	b21fc2ef          	jal	t0,516 <__riscv_save_0>
    39fa:	65b1                	lui	a1,0xc
    39fc:	6505                	lui	a0,0x1
    39fe:	0c800693          	li	a3,200
    3a02:	40000613          	li	a2,1024
    3a06:	87858593          	addi	a1,a1,-1928 # b878 <dmp_memory>
    3a0a:	bf650513          	addi	a0,a0,-1034 # bf6 <Yaw_outerloop_ctr+0x2c>
    3a0e:	ff8ff0ef          	jal	ra,3206 <mpu_load_firmware>
    3a12:	b29fc06f          	j	53a <__riscv_restore_0>

00003a16 <dmp_set_orientation>:
    3a16:	b01fc2ef          	jal	t0,516 <__riscv_save_0>
    3a1a:	77f5                	lui	a5,0xffffd
    3a1c:	1141                	addi	sp,sp,-16
    3a1e:	d4c78713          	addi	a4,a5,-692 # ffffcd4c <__freertos_irq_stack_top+0xdfff4d4c>
    3a22:	90c78793          	addi	a5,a5,-1780
    3a26:	867c                	sh	a5,12(sp)
    3a28:	02c00793          	li	a5,44
    3a2c:	8478                	sh	a4,8(sp)
    3a2e:	875c                	sb	a5,14(sp)
    3a30:	06c00713          	li	a4,108
    3a34:	00357693          	andi	a3,a0,3
    3a38:	081c                	addi	a5,sp,16
    3a3a:	8558                	sb	a4,10(sp)
    3a3c:	96be                	add	a3,a3,a5
    3a3e:	ff86c783          	lbu	a5,-8(a3)
    3a42:	00355713          	srli	a4,a0,0x3
    3a46:	8b0d                	andi	a4,a4,3
    3a48:	805c                	sb	a5,0(sp)
    3a4a:	081c                	addi	a5,sp,16
    3a4c:	973e                	add	a4,a4,a5
    3a4e:	ff874783          	lbu	a5,-8(a4)
    3a52:	0810                	addi	a2,sp,16
    3a54:	ffc6c683          	lbu	a3,-4(a3)
    3a58:	80dc                	sb	a5,1(sp)
    3a5a:	00655793          	srli	a5,a0,0x6
    3a5e:	8b8d                	andi	a5,a5,3
    3a60:	97b2                	add	a5,a5,a2
    3a62:	ff87c603          	lbu	a2,-8(a5)
    3a66:	ffc74703          	lbu	a4,-4(a4)
    3a6a:	ffc7c783          	lbu	a5,-4(a5)
    3a6e:	842a                	mv	s0,a0
    3a70:	8150                	sb	a2,2(sp)
    3a72:	458d                	li	a1,3
    3a74:	860a                	mv	a2,sp
    3a76:	42600513          	li	a0,1062
    3a7a:	8254                	sb	a3,4(sp)
    3a7c:	82d8                	sb	a4,5(sp)
    3a7e:	835c                	sb	a5,6(sp)
    3a80:	ec2ff0ef          	jal	ra,3142 <mpu_write_mem>
    3a84:	c509                	beqz	a0,3a8e <dmp_set_orientation+0x78>
    3a86:	557d                	li	a0,-1
    3a88:	0141                	addi	sp,sp,16
    3a8a:	ab1fc06f          	j	53a <__riscv_restore_0>
    3a8e:	0050                	addi	a2,sp,4
    3a90:	458d                	li	a1,3
    3a92:	42a00513          	li	a0,1066
    3a96:	eacff0ef          	jal	ra,3142 <mpu_write_mem>
    3a9a:	f575                	bnez	a0,3a86 <dmp_set_orientation+0x70>
    3a9c:	6795                	lui	a5,0x5
    3a9e:	63678793          	addi	a5,a5,1590 # 5636 <pvPortMalloc+0xc>
    3aa2:	807c                	sh	a5,0(sp)
    3aa4:	07600793          	li	a5,118
    3aa8:	815c                	sb	a5,2(sp)
    3aaa:	6791                	lui	a5,0x4
    3aac:	62678793          	addi	a5,a5,1574 # 4626 <Bmp_Init+0xfe>
    3ab0:	827c                	sh	a5,4(sp)
    3ab2:	06600793          	li	a5,102
    3ab6:	835c                	sb	a5,6(sp)
    3ab8:	00447793          	andi	a5,s0,4
    3abc:	c799                	beqz	a5,3aca <dmp_set_orientation+0xb4>
    3abe:	03700793          	li	a5,55
    3ac2:	805c                	sb	a5,0(sp)
    3ac4:	02700793          	li	a5,39
    3ac8:	825c                	sb	a5,4(sp)
    3aca:	02047793          	andi	a5,s0,32
    3ace:	c799                	beqz	a5,3adc <dmp_set_orientation+0xc6>
    3ad0:	05700793          	li	a5,87
    3ad4:	80dc                	sb	a5,1(sp)
    3ad6:	04700793          	li	a5,71
    3ada:	82dc                	sb	a5,5(sp)
    3adc:	10047793          	andi	a5,s0,256
    3ae0:	c799                	beqz	a5,3aee <dmp_set_orientation+0xd8>
    3ae2:	07700793          	li	a5,119
    3ae6:	815c                	sb	a5,2(sp)
    3ae8:	06700793          	li	a5,103
    3aec:	835c                	sb	a5,6(sp)
    3aee:	860a                	mv	a2,sp
    3af0:	458d                	li	a1,3
    3af2:	44000513          	li	a0,1088
    3af6:	e4cff0ef          	jal	ra,3142 <mpu_write_mem>
    3afa:	f551                	bnez	a0,3a86 <dmp_set_orientation+0x70>
    3afc:	0050                	addi	a2,sp,4
    3afe:	458d                	li	a1,3
    3b00:	43100513          	li	a0,1073
    3b04:	e3eff0ef          	jal	ra,3142 <mpu_write_mem>
    3b08:	fd3d                	bnez	a0,3a86 <dmp_set_orientation+0x70>
    3b0a:	b4819c23          	sh	s0,-1192(gp) # 20000430 <dmp+0x8>
    3b0e:	bfad                	j	3a88 <dmp_set_orientation+0x72>

00003b10 <dmp_set_gyro_bias>:
    3b10:	a07fc2ef          	jal	t0,516 <__riscv_save_0>
    3b14:	b581d783          	lhu	a5,-1192(gp) # 20000430 <dmp+0x8>
    3b18:	1141                	addi	sp,sp,-16
    3b1a:	0037f713          	andi	a4,a5,3
    3b1e:	070a                	slli	a4,a4,0x2
    3b20:	972a                	add	a4,a4,a0
    3b22:	430c                	lw	a1,0(a4)
    3b24:	0047f713          	andi	a4,a5,4
    3b28:	c319                	beqz	a4,3b2e <dmp_set_gyro_bias+0x1e>
    3b2a:	40b005b3          	neg	a1,a1
    3b2e:	0017d713          	srli	a4,a5,0x1
    3b32:	8b31                	andi	a4,a4,12
    3b34:	972a                	add	a4,a4,a0
    3b36:	4310                	lw	a2,0(a4)
    3b38:	0207f713          	andi	a4,a5,32
    3b3c:	c319                	beqz	a4,3b42 <dmp_set_gyro_bias+0x32>
    3b3e:	40c00633          	neg	a2,a2
    3b42:	0047d713          	srli	a4,a5,0x4
    3b46:	8b31                	andi	a4,a4,12
    3b48:	953a                	add	a0,a0,a4
    3b4a:	1007f793          	andi	a5,a5,256
    3b4e:	4118                	lw	a4,0(a0)
    3b50:	c399                	beqz	a5,3b56 <dmp_set_gyro_bias+0x46>
    3b52:	40e00733          	neg	a4,a4
    3b56:	02cae6b7          	lui	a3,0x2cae
    3b5a:	30968693          	addi	a3,a3,777 # 2cae309 <_data_lma+0x2ca1a69>
    3b5e:	02d587b3          	mul	a5,a1,a3
    3b62:	3d000513          	li	a0,976
    3b66:	02d595b3          	mulh	a1,a1,a3
    3b6a:	83f9                	srli	a5,a5,0x1e
    3b6c:	02d70433          	mul	s0,a4,a3
    3b70:	058a                	slli	a1,a1,0x2
    3b72:	8fcd                	or	a5,a5,a1
    3b74:	4591                	li	a1,4
    3b76:	02d71733          	mulh	a4,a4,a3
    3b7a:	8079                	srli	s0,s0,0x1e
    3b7c:	02d604b3          	mul	s1,a2,a3
    3b80:	070a                	slli	a4,a4,0x2
    3b82:	8c59                	or	s0,s0,a4
    3b84:	4187d713          	srai	a4,a5,0x18
    3b88:	8658                	sb	a4,12(sp)
    3b8a:	4107d713          	srai	a4,a5,0x10
    3b8e:	86d8                	sb	a4,13(sp)
    3b90:	00879713          	slli	a4,a5,0x8
    3b94:	07c2                	slli	a5,a5,0x10
    3b96:	83c1                	srli	a5,a5,0x10
    3b98:	02d61633          	mulh	a2,a2,a3
    3b9c:	80f9                	srli	s1,s1,0x1e
    3b9e:	83a1                	srli	a5,a5,0x8
    3ba0:	8fd9                	or	a5,a5,a4
    3ba2:	877c                	sh	a5,14(sp)
    3ba4:	060a                	slli	a2,a2,0x2
    3ba6:	8cd1                	or	s1,s1,a2
    3ba8:	0070                	addi	a2,sp,12
    3baa:	d98ff0ef          	jal	ra,3142 <mpu_write_mem>
    3bae:	c509                	beqz	a0,3bb8 <dmp_set_gyro_bias+0xa8>
    3bb0:	557d                	li	a0,-1
    3bb2:	0141                	addi	sp,sp,16
    3bb4:	987fc06f          	j	53a <__riscv_restore_0>
    3bb8:	4184d793          	srai	a5,s1,0x18
    3bbc:	865c                	sb	a5,12(sp)
    3bbe:	4104d793          	srai	a5,s1,0x10
    3bc2:	86dc                	sb	a5,13(sp)
    3bc4:	00849793          	slli	a5,s1,0x8
    3bc8:	04c2                	slli	s1,s1,0x10
    3bca:	80c1                	srli	s1,s1,0x10
    3bcc:	80a1                	srli	s1,s1,0x8
    3bce:	8cdd                	or	s1,s1,a5
    3bd0:	0070                	addi	a2,sp,12
    3bd2:	4591                	li	a1,4
    3bd4:	3d400513          	li	a0,980
    3bd8:	8764                	sh	s1,14(sp)
    3bda:	d68ff0ef          	jal	ra,3142 <mpu_write_mem>
    3bde:	f969                	bnez	a0,3bb0 <dmp_set_gyro_bias+0xa0>
    3be0:	41845793          	srai	a5,s0,0x18
    3be4:	865c                	sb	a5,12(sp)
    3be6:	41045793          	srai	a5,s0,0x10
    3bea:	86dc                	sb	a5,13(sp)
    3bec:	00841793          	slli	a5,s0,0x8
    3bf0:	0442                	slli	s0,s0,0x10
    3bf2:	8041                	srli	s0,s0,0x10
    3bf4:	8021                	srli	s0,s0,0x8
    3bf6:	8c5d                	or	s0,s0,a5
    3bf8:	0070                	addi	a2,sp,12
    3bfa:	4591                	li	a1,4
    3bfc:	3d800513          	li	a0,984
    3c00:	8760                	sh	s0,14(sp)
    3c02:	d40ff0ef          	jal	ra,3142 <mpu_write_mem>
    3c06:	b775                	j	3bb2 <dmp_set_gyro_bias+0xa2>

00003c08 <dmp_set_accel_bias>:
    3c08:	90ffc2ef          	jal	t0,516 <__riscv_save_0>
    3c0c:	1141                	addi	sp,sp,-16
    3c0e:	842a                	mv	s0,a0
    3c10:	00210513          	addi	a0,sp,2
    3c14:	fa1fe0ef          	jal	ra,2bb4 <mpu_get_accel_sens>
    3c18:	b581d783          	lhu	a5,-1192(gp) # 20000430 <dmp+0x8>
    3c1c:	8130                	lhu	a2,2(sp)
    3c1e:	0037f713          	andi	a4,a5,3
    3c22:	070a                	slli	a4,a4,0x2
    3c24:	9722                	add	a4,a4,s0
    3c26:	0047f693          	andi	a3,a5,4
    3c2a:	063e                	slli	a2,a2,0xf
    3c2c:	4318                	lw	a4,0(a4)
    3c2e:	c299                	beqz	a3,3c34 <dmp_set_accel_bias+0x2c>
    3c30:	40e00733          	neg	a4,a4
    3c34:	0017d693          	srli	a3,a5,0x1
    3c38:	8ab1                	andi	a3,a3,12
    3c3a:	96a2                	add	a3,a3,s0
    3c3c:	428c                	lw	a1,0(a3)
    3c3e:	0207f693          	andi	a3,a5,32
    3c42:	c299                	beqz	a3,3c48 <dmp_set_accel_bias+0x40>
    3c44:	40b005b3          	neg	a1,a1
    3c48:	0047d693          	srli	a3,a5,0x4
    3c4c:	8ab1                	andi	a3,a3,12
    3c4e:	9436                	add	s0,s0,a3
    3c50:	1007f793          	andi	a5,a5,256
    3c54:	4008                	lw	a0,0(s0)
    3c56:	c399                	beqz	a5,3c5c <dmp_set_accel_bias+0x54>
    3c58:	40a00533          	neg	a0,a0
    3c5c:	41f75793          	srai	a5,a4,0x1f
    3c60:	02c706b3          	mul	a3,a4,a2
    3c64:	02c787b3          	mul	a5,a5,a2
    3c68:	82f9                	srli	a3,a3,0x1e
    3c6a:	02c73733          	mulhu	a4,a4,a2
    3c6e:	97ba                	add	a5,a5,a4
    3c70:	078a                	slli	a5,a5,0x2
    3c72:	8edd                	or	a3,a3,a5
    3c74:	41f5d793          	srai	a5,a1,0x1f
    3c78:	02c58733          	mul	a4,a1,a2
    3c7c:	02c787b3          	mul	a5,a5,a2
    3c80:	8379                	srli	a4,a4,0x1e
    3c82:	02c5b5b3          	mulhu	a1,a1,a2
    3c86:	97ae                	add	a5,a5,a1
    3c88:	078a                	slli	a5,a5,0x2
    3c8a:	41f55593          	srai	a1,a0,0x1f
    3c8e:	8f5d                	or	a4,a4,a5
    3c90:	02c585b3          	mul	a1,a1,a2
    3c94:	02c507b3          	mul	a5,a0,a2
    3c98:	02c53633          	mulhu	a2,a0,a2
    3c9c:	83f9                	srli	a5,a5,0x1e
    3c9e:	29400513          	li	a0,660
    3ca2:	962e                	add	a2,a2,a1
    3ca4:	060a                	slli	a2,a2,0x2
    3ca6:	8fd1                	or	a5,a5,a2
    3ca8:	4186d613          	srai	a2,a3,0x18
    3cac:	8250                	sb	a2,4(sp)
    3cae:	4106d613          	srai	a2,a3,0x10
    3cb2:	82d0                	sb	a2,5(sp)
    3cb4:	00869613          	slli	a2,a3,0x8
    3cb8:	06c2                	slli	a3,a3,0x10
    3cba:	82c1                	srli	a3,a3,0x10
    3cbc:	82a1                	srli	a3,a3,0x8
    3cbe:	8ed1                	or	a3,a3,a2
    3cc0:	8374                	sh	a3,6(sp)
    3cc2:	41875693          	srai	a3,a4,0x18
    3cc6:	8454                	sb	a3,8(sp)
    3cc8:	41075693          	srai	a3,a4,0x10
    3ccc:	84d4                	sb	a3,9(sp)
    3cce:	00871693          	slli	a3,a4,0x8
    3cd2:	0742                	slli	a4,a4,0x10
    3cd4:	8341                	srli	a4,a4,0x10
    3cd6:	8321                	srli	a4,a4,0x8
    3cd8:	8f55                	or	a4,a4,a3
    3cda:	8578                	sh	a4,10(sp)
    3cdc:	4187d713          	srai	a4,a5,0x18
    3ce0:	8658                	sb	a4,12(sp)
    3ce2:	4107d713          	srai	a4,a5,0x10
    3ce6:	86d8                	sb	a4,13(sp)
    3ce8:	00879713          	slli	a4,a5,0x8
    3cec:	07c2                	slli	a5,a5,0x10
    3cee:	83c1                	srli	a5,a5,0x10
    3cf0:	83a1                	srli	a5,a5,0x8
    3cf2:	8fd9                	or	a5,a5,a4
    3cf4:	0050                	addi	a2,sp,4
    3cf6:	45b1                	li	a1,12
    3cf8:	877c                	sh	a5,14(sp)
    3cfa:	c48ff0ef          	jal	ra,3142 <mpu_write_mem>
    3cfe:	0141                	addi	sp,sp,16
    3d00:	83bfc06f          	j	53a <__riscv_restore_0>

00003d04 <dmp_set_fifo_rate>:
    3d04:	813fc2ef          	jal	t0,516 <__riscv_save_0>
    3d08:	1101                	addi	sp,sp,-32
    3d0a:	65ad                	lui	a1,0xb
    3d0c:	842a                	mv	s0,a0
    3d0e:	4631                	li	a2,12
    3d10:	45458593          	addi	a1,a1,1108 # b454 <memcpy+0xb4>
    3d14:	0848                	addi	a0,sp,20
    3d16:	68a070ef          	jal	ra,b3a0 <memcpy>
    3d1a:	0c800793          	li	a5,200
    3d1e:	0087f663          	bgeu	a5,s0,3d2a <dmp_set_fifo_rate+0x26>
    3d22:	557d                	li	a0,-1
    3d24:	6105                	addi	sp,sp,32
    3d26:	815fc06f          	j	53a <__riscv_restore_0>
    3d2a:	0287c7b3          	div	a5,a5,s0
    3d2e:	0070                	addi	a2,sp,12
    3d30:	4589                	li	a1,2
    3d32:	21600513          	li	a0,534
    3d36:	00010623          	sb	zero,12(sp)
    3d3a:	17fd                	addi	a5,a5,-1
    3d3c:	86dc                	sb	a5,13(sp)
    3d3e:	c04ff0ef          	jal	ra,3142 <mpu_write_mem>
    3d42:	f165                	bnez	a0,3d22 <dmp_set_fifo_rate+0x1e>
    3d44:	6505                	lui	a0,0x1
    3d46:	0850                	addi	a2,sp,20
    3d48:	45b1                	li	a1,12
    3d4a:	ac150513          	addi	a0,a0,-1343 # ac1 <ELRS_Convert_angle+0x2b>
    3d4e:	bf4ff0ef          	jal	ra,3142 <mpu_write_mem>
    3d52:	f961                	bnez	a0,3d22 <dmp_set_fifo_rate+0x1e>
    3d54:	b4819e23          	sh	s0,-1188(gp) # 20000434 <dmp+0xc>
    3d58:	b7f1                	j	3d24 <dmp_set_fifo_rate+0x20>

00003d5a <dmp_set_tap_thresh>:
    3d5a:	00757793          	andi	a5,a0,7
    3d5e:	e399                	bnez	a5,3d64 <dmp_set_tap_thresh+0xa>
    3d60:	557d                	li	a0,-1
    3d62:	8082                	ret
    3d64:	64000793          	li	a5,1600
    3d68:	feb7ece3          	bltu	a5,a1,3d60 <dmp_set_tap_thresh+0x6>
    3d6c:	faafc2ef          	jal	t0,516 <__riscv_save_0>
    3d70:	1141                	addi	sp,sp,-16
    3d72:	842a                	mv	s0,a0
    3d74:	852e                	mv	a0,a1
    3d76:	2ac070ef          	jal	ra,b022 <__floatunsisf>
    3d7a:	0000c7b7          	lui	a5,0xc
    3d7e:	4707a583          	lw	a1,1136(a5) # c470 <dmp_memory+0xbf8>
    3d82:	6aa060ef          	jal	ra,a42c <__divsf3>
    3d86:	84aa                	mv	s1,a0
    3d88:	00b10513          	addi	a0,sp,11
    3d8c:	c41fe0ef          	jal	ra,29cc <mpu_get_accel_fsr>
    3d90:	859c                	lbu	a5,11(sp)
    3d92:	4711                	li	a4,4
    3d94:	0ee78363          	beq	a5,a4,3e7a <dmp_set_tap_thresh+0x120>
    3d98:	00f76963          	bltu	a4,a5,3daa <dmp_set_tap_thresh+0x50>
    3d9c:	4709                	li	a4,2
    3d9e:	02e78e63          	beq	a5,a4,3dda <dmp_set_tap_thresh+0x80>
    3da2:	557d                	li	a0,-1
    3da4:	0141                	addi	sp,sp,16
    3da6:	f94fc06f          	j	53a <__riscv_restore_0>
    3daa:	4721                	li	a4,8
    3dac:	0ee78963          	beq	a5,a4,3e9e <dmp_set_tap_thresh+0x144>
    3db0:	4741                	li	a4,16
    3db2:	fee798e3          	bne	a5,a4,3da2 <dmp_set_tap_thresh+0x48>
    3db6:	0000c7b7          	lui	a5,0xc
    3dba:	48c7a583          	lw	a1,1164(a5) # c48c <dmp_memory+0xc14>
    3dbe:	8526                	mv	a0,s1
    3dc0:	28d060ef          	jal	ra,a84c <__mulsf3>
    3dc4:	142070ef          	jal	ra,af06 <__fixunssfsi>
    3dc8:	01051913          	slli	s2,a0,0x10
    3dcc:	0000c7b7          	lui	a5,0xc
    3dd0:	01095913          	srli	s2,s2,0x10
    3dd4:	4907a583          	lw	a1,1168(a5) # c490 <dmp_memory+0xc18>
    3dd8:	a015                	j	3dfc <dmp_set_tap_thresh+0xa2>
    3dda:	0000c7b7          	lui	a5,0xc
    3dde:	4747a583          	lw	a1,1140(a5) # c474 <dmp_memory+0xbfc>
    3de2:	8526                	mv	a0,s1
    3de4:	269060ef          	jal	ra,a84c <__mulsf3>
    3de8:	11e070ef          	jal	ra,af06 <__fixunssfsi>
    3dec:	0000c7b7          	lui	a5,0xc
    3df0:	4787a583          	lw	a1,1144(a5) # c478 <dmp_memory+0xc00>
    3df4:	01051913          	slli	s2,a0,0x10
    3df8:	01095913          	srli	s2,s2,0x10
    3dfc:	8526                	mv	a0,s1
    3dfe:	24f060ef          	jal	ra,a84c <__mulsf3>
    3e02:	104070ef          	jal	ra,af06 <__fixunssfsi>
    3e06:	0542                	slli	a0,a0,0x10
    3e08:	00891793          	slli	a5,s2,0x8
    3e0c:	8141                	srli	a0,a0,0x10
    3e0e:	00895913          	srli	s2,s2,0x8
    3e12:	0127e933          	or	s2,a5,s2
    3e16:	00851793          	slli	a5,a0,0x8
    3e1a:	8121                	srli	a0,a0,0x8
    3e1c:	8d5d                	or	a0,a0,a5
    3e1e:	01211623          	sh	s2,12(sp)
    3e22:	8768                	sh	a0,14(sp)
    3e24:	00147793          	andi	a5,s0,1
    3e28:	efc9                	bnez	a5,3ec2 <dmp_set_tap_thresh+0x168>
    3e2a:	00247793          	andi	a5,s0,2
    3e2e:	c385                	beqz	a5,3e4e <dmp_set_tap_thresh+0xf4>
    3e30:	0070                	addi	a2,sp,12
    3e32:	4589                	li	a1,2
    3e34:	1d800513          	li	a0,472
    3e38:	b0aff0ef          	jal	ra,3142 <mpu_write_mem>
    3e3c:	f13d                	bnez	a0,3da2 <dmp_set_tap_thresh+0x48>
    3e3e:	00e10613          	addi	a2,sp,14
    3e42:	4589                	li	a1,2
    3e44:	12800513          	li	a0,296
    3e48:	afaff0ef          	jal	ra,3142 <mpu_write_mem>
    3e4c:	f939                	bnez	a0,3da2 <dmp_set_tap_thresh+0x48>
    3e4e:	8811                	andi	s0,s0,4
    3e50:	4501                	li	a0,0
    3e52:	d829                	beqz	s0,3da4 <dmp_set_tap_thresh+0x4a>
    3e54:	0070                	addi	a2,sp,12
    3e56:	4589                	li	a1,2
    3e58:	1dc00513          	li	a0,476
    3e5c:	ae6ff0ef          	jal	ra,3142 <mpu_write_mem>
    3e60:	f129                	bnez	a0,3da2 <dmp_set_tap_thresh+0x48>
    3e62:	00e10613          	addi	a2,sp,14
    3e66:	4589                	li	a1,2
    3e68:	12c00513          	li	a0,300
    3e6c:	ad6ff0ef          	jal	ra,3142 <mpu_write_mem>
    3e70:	00a03533          	snez	a0,a0
    3e74:	40a00533          	neg	a0,a0
    3e78:	b735                	j	3da4 <dmp_set_tap_thresh+0x4a>
    3e7a:	0000c7b7          	lui	a5,0xc
    3e7e:	47c7a583          	lw	a1,1148(a5) # c47c <dmp_memory+0xc04>
    3e82:	8526                	mv	a0,s1
    3e84:	1c9060ef          	jal	ra,a84c <__mulsf3>
    3e88:	07e070ef          	jal	ra,af06 <__fixunssfsi>
    3e8c:	01051913          	slli	s2,a0,0x10
    3e90:	0000c7b7          	lui	a5,0xc
    3e94:	01095913          	srli	s2,s2,0x10
    3e98:	4807a583          	lw	a1,1152(a5) # c480 <dmp_memory+0xc08>
    3e9c:	b785                	j	3dfc <dmp_set_tap_thresh+0xa2>
    3e9e:	0000c7b7          	lui	a5,0xc
    3ea2:	4847a583          	lw	a1,1156(a5) # c484 <dmp_memory+0xc0c>
    3ea6:	8526                	mv	a0,s1
    3ea8:	1a5060ef          	jal	ra,a84c <__mulsf3>
    3eac:	05a070ef          	jal	ra,af06 <__fixunssfsi>
    3eb0:	01051913          	slli	s2,a0,0x10
    3eb4:	0000c7b7          	lui	a5,0xc
    3eb8:	01095913          	srli	s2,s2,0x10
    3ebc:	4887a583          	lw	a1,1160(a5) # c488 <dmp_memory+0xc10>
    3ec0:	bf35                	j	3dfc <dmp_set_tap_thresh+0xa2>
    3ec2:	0070                	addi	a2,sp,12
    3ec4:	4589                	li	a1,2
    3ec6:	1d400513          	li	a0,468
    3eca:	a78ff0ef          	jal	ra,3142 <mpu_write_mem>
    3ece:	ec051ae3          	bnez	a0,3da2 <dmp_set_tap_thresh+0x48>
    3ed2:	00e10613          	addi	a2,sp,14
    3ed6:	4589                	li	a1,2
    3ed8:	12400513          	li	a0,292
    3edc:	a66ff0ef          	jal	ra,3142 <mpu_write_mem>
    3ee0:	d529                	beqz	a0,3e2a <dmp_set_tap_thresh+0xd0>
    3ee2:	b5c1                	j	3da2 <dmp_set_tap_thresh+0x48>

00003ee4 <dmp_set_tap_axes>:
    3ee4:	e32fc2ef          	jal	t0,516 <__riscv_save_0>
    3ee8:	00157793          	andi	a5,a0,1
    3eec:	1141                	addi	sp,sp,-16
    3eee:	eb95                	bnez	a5,3f22 <dmp_set_tap_axes+0x3e>
    3ef0:	000107a3          	sb	zero,15(sp)
    3ef4:	00257793          	andi	a5,a0,2
    3ef8:	c789                	beqz	a5,3f02 <dmp_set_tap_axes+0x1e>
    3efa:	879c                	lbu	a5,15(sp)
    3efc:	00c7e793          	ori	a5,a5,12
    3f00:	87dc                	sb	a5,15(sp)
    3f02:	8911                	andi	a0,a0,4
    3f04:	c509                	beqz	a0,3f0e <dmp_set_tap_axes+0x2a>
    3f06:	879c                	lbu	a5,15(sp)
    3f08:	0037e793          	ori	a5,a5,3
    3f0c:	87dc                	sb	a5,15(sp)
    3f0e:	00f10613          	addi	a2,sp,15
    3f12:	4585                	li	a1,1
    3f14:	14800513          	li	a0,328
    3f18:	a2aff0ef          	jal	ra,3142 <mpu_write_mem>
    3f1c:	0141                	addi	sp,sp,16
    3f1e:	e1cfc06f          	j	53a <__riscv_restore_0>
    3f22:	03000793          	li	a5,48
    3f26:	87dc                	sb	a5,15(sp)
    3f28:	b7f1                	j	3ef4 <dmp_set_tap_axes+0x10>

00003f2a <dmp_set_tap_count>:
    3f2a:	decfc2ef          	jal	t0,516 <__riscv_save_0>
    3f2e:	1141                	addi	sp,sp,-16
    3f30:	4785                	li	a5,1
    3f32:	c519                	beqz	a0,3f40 <dmp_set_tap_count+0x16>
    3f34:	4711                	li	a4,4
    3f36:	0ff57793          	andi	a5,a0,255
    3f3a:	00a77363          	bgeu	a4,a0,3f40 <dmp_set_tap_count+0x16>
    3f3e:	4791                	li	a5,4
    3f40:	17fd                	addi	a5,a5,-1
    3f42:	00f10613          	addi	a2,sp,15
    3f46:	4585                	li	a1,1
    3f48:	14f00513          	li	a0,335
    3f4c:	87dc                	sb	a5,15(sp)
    3f4e:	9f4ff0ef          	jal	ra,3142 <mpu_write_mem>
    3f52:	0141                	addi	sp,sp,16
    3f54:	de6fc06f          	j	53a <__riscv_restore_0>

00003f58 <dmp_set_tap_time>:
    3f58:	dbefc2ef          	jal	t0,516 <__riscv_save_0>
    3f5c:	4795                	li	a5,5
    3f5e:	02f55533          	divu	a0,a0,a5
    3f62:	1141                	addi	sp,sp,-16
    3f64:	0070                	addi	a2,sp,12
    3f66:	4589                	li	a1,2
    3f68:	00851793          	slli	a5,a0,0x8
    3f6c:	8121                	srli	a0,a0,0x8
    3f6e:	8d5d                	or	a0,a0,a5
    3f70:	8668                	sh	a0,12(sp)
    3f72:	1de00513          	li	a0,478
    3f76:	9ccff0ef          	jal	ra,3142 <mpu_write_mem>
    3f7a:	0141                	addi	sp,sp,16
    3f7c:	dbefc06f          	j	53a <__riscv_restore_0>

00003f80 <dmp_set_tap_time_multi>:
    3f80:	d96fc2ef          	jal	t0,516 <__riscv_save_0>
    3f84:	4795                	li	a5,5
    3f86:	02f55533          	divu	a0,a0,a5
    3f8a:	1141                	addi	sp,sp,-16
    3f8c:	0070                	addi	a2,sp,12
    3f8e:	4589                	li	a1,2
    3f90:	00851793          	slli	a5,a0,0x8
    3f94:	8121                	srli	a0,a0,0x8
    3f96:	8d5d                	or	a0,a0,a5
    3f98:	8668                	sh	a0,12(sp)
    3f9a:	1da00513          	li	a0,474
    3f9e:	9a4ff0ef          	jal	ra,3142 <mpu_write_mem>
    3fa2:	0141                	addi	sp,sp,16
    3fa4:	d96fc06f          	j	53a <__riscv_restore_0>

00003fa8 <dmp_set_shake_reject_thresh>:
    3fa8:	d6efc2ef          	jal	t0,516 <__riscv_save_0>
    3fac:	3e800793          	li	a5,1000
    3fb0:	02f54533          	div	a0,a0,a5
    3fb4:	1141                	addi	sp,sp,-16
    3fb6:	0070                	addi	a2,sp,12
    3fb8:	02b505b3          	mul	a1,a0,a1
    3fbc:	15c00513          	li	a0,348
    3fc0:	4185d793          	srai	a5,a1,0x18
    3fc4:	865c                	sb	a5,12(sp)
    3fc6:	4105d793          	srai	a5,a1,0x10
    3fca:	86dc                	sb	a5,13(sp)
    3fcc:	00859793          	slli	a5,a1,0x8
    3fd0:	05c2                	slli	a1,a1,0x10
    3fd2:	81c1                	srli	a1,a1,0x10
    3fd4:	81a1                	srli	a1,a1,0x8
    3fd6:	8ddd                	or	a1,a1,a5
    3fd8:	876c                	sh	a1,14(sp)
    3fda:	4591                	li	a1,4
    3fdc:	966ff0ef          	jal	ra,3142 <mpu_write_mem>
    3fe0:	0141                	addi	sp,sp,16
    3fe2:	d58fc06f          	j	53a <__riscv_restore_0>

00003fe6 <dmp_set_shake_reject_time>:
    3fe6:	d30fc2ef          	jal	t0,516 <__riscv_save_0>
    3fea:	4795                	li	a5,5
    3fec:	02f55533          	divu	a0,a0,a5
    3ff0:	1141                	addi	sp,sp,-16
    3ff2:	0070                	addi	a2,sp,12
    3ff4:	4589                	li	a1,2
    3ff6:	00851793          	slli	a5,a0,0x8
    3ffa:	8121                	srli	a0,a0,0x8
    3ffc:	8d5d                	or	a0,a0,a5
    3ffe:	8668                	sh	a0,12(sp)
    4000:	15a00513          	li	a0,346
    4004:	93eff0ef          	jal	ra,3142 <mpu_write_mem>
    4008:	0141                	addi	sp,sp,16
    400a:	d30fc06f          	j	53a <__riscv_restore_0>

0000400e <dmp_set_shake_reject_timeout>:
    400e:	d08fc2ef          	jal	t0,516 <__riscv_save_0>
    4012:	4795                	li	a5,5
    4014:	02f55533          	divu	a0,a0,a5
    4018:	1141                	addi	sp,sp,-16
    401a:	0070                	addi	a2,sp,12
    401c:	4589                	li	a1,2
    401e:	00851793          	slli	a5,a0,0x8
    4022:	8121                	srli	a0,a0,0x8
    4024:	8d5d                	or	a0,a0,a5
    4026:	8668                	sh	a0,12(sp)
    4028:	15800513          	li	a0,344
    402c:	916ff0ef          	jal	ra,3142 <mpu_write_mem>
    4030:	0141                	addi	sp,sp,16
    4032:	d08fc06f          	j	53a <__riscv_restore_0>

00004036 <dmp_enable_gyro_cal>:
    4036:	ce0fc2ef          	jal	t0,516 <__riscv_save_0>
    403a:	1141                	addi	sp,sp,-16
    403c:	c511                	beqz	a0,4048 <dmp_enable_gyro_cal+0x12>
    403e:	987ff0ef          	jal	ra,39c4 <dmp_enable_gyro_cal.part.0>
    4042:	0141                	addi	sp,sp,16
    4044:	cf6fc06f          	j	53a <__riscv_restore_0>
    4048:	65ad                	lui	a1,0xb
    404a:	4625                	li	a2,9
    404c:	46058593          	addi	a1,a1,1120 # b460 <memcpy+0xc0>
    4050:	0048                	addi	a0,sp,4
    4052:	34e070ef          	jal	ra,b3a0 <memcpy>
    4056:	0050                	addi	a2,sp,4
    4058:	45a5                	li	a1,9
    405a:	4b800513          	li	a0,1208
    405e:	8e4ff0ef          	jal	ra,3142 <mpu_write_mem>
    4062:	b7c5                	j	4042 <dmp_enable_gyro_cal+0xc>

00004064 <dmp_enable_lp_quat>:
    4064:	cb2fc2ef          	jal	t0,516 <__riscv_save_0>
    4068:	1141                	addi	sp,sp,-16
    406a:	c115                	beqz	a0,408e <dmp_enable_lp_quat+0x2a>
    406c:	c6c4c7b7          	lui	a5,0xc6c4c
    4070:	2c078793          	addi	a5,a5,704 # c6c4c2c0 <__freertos_irq_stack_top+0xa6c442c0>
    4074:	6505                	lui	a0,0x1
    4076:	0070                	addi	a2,sp,12
    4078:	4591                	li	a1,4
    407a:	a9850513          	addi	a0,a0,-1384 # a98 <ELRS_Convert_angle+0x2>
    407e:	c63e                	sw	a5,12(sp)
    4080:	8c2ff0ef          	jal	ra,3142 <mpu_write_mem>
    4084:	f56fe0ef          	jal	ra,27da <mpu_reset_fifo>
    4088:	0141                	addi	sp,sp,16
    408a:	cb0fc06f          	j	53a <__riscv_restore_0>
    408e:	8b8b97b7          	lui	a5,0x8b8b9
    4092:	b8b78793          	addi	a5,a5,-1141 # 8b8b8b8b <__freertos_irq_stack_top+0x6b8b0b8b>
    4096:	bff9                	j	4074 <dmp_enable_lp_quat+0x10>

00004098 <dmp_enable_6x_lp_quat>:
    4098:	c7efc2ef          	jal	t0,516 <__riscv_save_0>
    409c:	1141                	addi	sp,sp,-16
    409e:	c115                	beqz	a0,40c2 <dmp_enable_6x_lp_quat+0x2a>
    40a0:	383037b7          	lui	a5,0x38303
    40a4:	82078793          	addi	a5,a5,-2016 # 38302820 <__freertos_irq_stack_top+0x182fa820>
    40a8:	6505                	lui	a0,0x1
    40aa:	0070                	addi	a2,sp,12
    40ac:	4591                	li	a1,4
    40ae:	a9e50513          	addi	a0,a0,-1378 # a9e <ELRS_Convert_angle+0x8>
    40b2:	c63e                	sw	a5,12(sp)
    40b4:	88eff0ef          	jal	ra,3142 <mpu_write_mem>
    40b8:	f22fe0ef          	jal	ra,27da <mpu_reset_fifo>
    40bc:	0141                	addi	sp,sp,16
    40be:	c7cfc06f          	j	53a <__riscv_restore_0>
    40c2:	a3a3a7b7          	lui	a5,0xa3a3a
    40c6:	3a378793          	addi	a5,a5,931 # a3a3a3a3 <__freertos_irq_stack_top+0x83a323a3>
    40ca:	bff9                	j	40a8 <dmp_enable_6x_lp_quat+0x10>

000040cc <dmp_enable_feature>:
    40cc:	c30fc2ef          	jal	t0,4fc <__riscv_save_4>
    40d0:	1141                	addi	sp,sp,-16
    40d2:	09e3d7b7          	lui	a5,0x9e3d
    40d6:	a0278793          	addi	a5,a5,-1534 # 9e3ca02 <_data_lma+0x9e30162>
    40da:	842a                	mv	s0,a0
    40dc:	0050                	addi	a2,sp,4
    40de:	4591                	li	a1,4
    40e0:	06800513          	li	a0,104
    40e4:	c23e                	sw	a5,4(sp)
    40e6:	85cff0ef          	jal	ra,3142 <mpu_write_mem>
    40ea:	fa300793          	li	a5,-93
    40ee:	825c                	sb	a5,4(sp)
    40f0:	04047a13          	andi	s4,s0,64
    40f4:	160a0463          	beqz	s4,425c <dmp_enable_feature+0x190>
    40f8:	fc000793          	li	a5,-64
    40fc:	82dc                	sb	a5,5(sp)
    40fe:	77f1                	lui	a5,0xffffc
    4100:	2c878793          	addi	a5,a5,712 # ffffc2c8 <__freertos_irq_stack_top+0xdfff42c8>
    4104:	837c                	sh	a5,6(sp)
    4106:	18047913          	andi	s2,s0,384
    410a:	14090e63          	beqz	s2,4266 <dmp_enable_feature+0x19a>
    410e:	77f5                	lui	a5,0xffffd
    4110:	cc478793          	addi	a5,a5,-828 # ffffccc4 <__freertos_irq_stack_top+0xdfff4cc4>
    4114:	847c                	sh	a5,8(sp)
    4116:	fc600793          	li	a5,-58
    411a:	855c                	sb	a5,10(sp)
    411c:	fa300793          	li	a5,-93
    4120:	85dc                	sb	a5,11(sp)
    4122:	6505                	lui	a0,0x1
    4124:	77e9                	lui	a5,0xffffa
    4126:	3a378793          	addi	a5,a5,931 # ffffa3a3 <__freertos_irq_stack_top+0xdfff23a3>
    412a:	0050                	addi	a2,sp,4
    412c:	45a9                	li	a1,10
    412e:	aa750513          	addi	a0,a0,-1369 # aa7 <ELRS_Convert_angle+0x11>
    4132:	867c                	sh	a5,12(sp)
    4134:	00347993          	andi	s3,s0,3
    4138:	80aff0ef          	jal	ra,3142 <mpu_write_mem>
    413c:	0d800793          	li	a5,216
    4140:	00098463          	beqz	s3,4148 <dmp_enable_feature+0x7c>
    4144:	02000793          	li	a5,32
    4148:	6505                	lui	a0,0x1
    414a:	0050                	addi	a2,sp,4
    414c:	4585                	li	a1,1
    414e:	ab650513          	addi	a0,a0,-1354 # ab6 <ELRS_Convert_angle+0x20>
    4152:	825c                	sb	a5,4(sp)
    4154:	feffe0ef          	jal	ra,3142 <mpu_write_mem>
    4158:	02047793          	andi	a5,s0,32
    415c:	10078c63          	beqz	a5,4274 <dmp_enable_feature+0x1a8>
    4160:	865ff0ef          	jal	ra,39c4 <dmp_enable_gyro_cal.part.0>
    4164:	02090263          	beqz	s2,4188 <dmp_enable_feature+0xbc>
    4168:	10047793          	andi	a5,s0,256
    416c:	10078863          	beqz	a5,427c <dmp_enable_feature+0x1b0>
    4170:	9bb697b7          	lui	a5,0x9bb69
    4174:	bb278793          	addi	a5,a5,-1102 # 9bb68bb2 <__freertos_irq_stack_top+0x7bb60bb2>
    4178:	6505                	lui	a0,0x1
    417a:	0050                	addi	a2,sp,4
    417c:	4591                	li	a1,4
    417e:	aa250513          	addi	a0,a0,-1374 # aa2 <ELRS_Convert_angle+0xc>
    4182:	c23e                	sw	a5,4(sp)
    4184:	fbffe0ef          	jal	ra,3142 <mpu_write_mem>
    4188:	00147793          	andi	a5,s0,1
    418c:	0e078d63          	beqz	a5,4286 <dmp_enable_feature+0x1ba>
    4190:	6505                	lui	a0,0x1
    4192:	57e1                	li	a5,-8
    4194:	0050                	addi	a2,sp,4
    4196:	4585                	li	a1,1
    4198:	8b050513          	addi	a0,a0,-1872 # 8b0 <PIDSTRUCT_Init+0x14>
    419c:	825c                	sb	a5,4(sp)
    419e:	fa5fe0ef          	jal	ra,3142 <mpu_write_mem>
    41a2:	0fa00593          	li	a1,250
    41a6:	451d                	li	a0,7
    41a8:	bb3ff0ef          	jal	ra,3d5a <dmp_set_tap_thresh>
    41ac:	451d                	li	a0,7
    41ae:	d37ff0ef          	jal	ra,3ee4 <dmp_set_tap_axes>
    41b2:	4505                	li	a0,1
    41b4:	d77ff0ef          	jal	ra,3f2a <dmp_set_tap_count>
    41b8:	06400513          	li	a0,100
    41bc:	d9dff0ef          	jal	ra,3f58 <dmp_set_tap_time>
    41c0:	1f400513          	li	a0,500
    41c4:	dbdff0ef          	jal	ra,3f80 <dmp_set_tap_time_multi>
    41c8:	02cae537          	lui	a0,0x2cae
    41cc:	0c800593          	li	a1,200
    41d0:	30950513          	addi	a0,a0,777 # 2cae309 <_data_lma+0x2ca1a69>
    41d4:	dd5ff0ef          	jal	ra,3fa8 <dmp_set_shake_reject_thresh>
    41d8:	02800513          	li	a0,40
    41dc:	e0bff0ef          	jal	ra,3fe6 <dmp_set_shake_reject_time>
    41e0:	4529                	li	a0,10
    41e2:	e2dff0ef          	jal	ra,400e <dmp_set_shake_reject_timeout>
    41e6:	00247793          	andi	a5,s0,2
    41ea:	00f037b3          	snez	a5,a5
    41ee:	0d878793          	addi	a5,a5,216
    41f2:	0050                	addi	a2,sp,4
    41f4:	4585                	li	a1,1
    41f6:	73d00513          	li	a0,1853
    41fa:	825c                	sb	a5,4(sp)
    41fc:	f47fe0ef          	jal	ra,3142 <mpu_write_mem>
    4200:	00447793          	andi	a5,s0,4
    4204:	4505                	li	a0,1
    4206:	e391                	bnez	a5,420a <dmp_enable_feature+0x13e>
    4208:	4501                	li	a0,0
    420a:	e5bff0ef          	jal	ra,4064 <dmp_enable_lp_quat>
    420e:	01047793          	andi	a5,s0,16
    4212:	4505                	li	a0,1
    4214:	e391                	bnez	a5,4218 <dmp_enable_feature+0x14c>
    4216:	4501                	li	a0,0
    4218:	e81ff0ef          	jal	ra,4098 <dmp_enable_6x_lp_quat>
    421c:	b5018793          	addi	a5,gp,-1200 # 20000428 <dmp>
    4220:	00846713          	ori	a4,s0,8
    4224:	a7ba                	sh	a4,10(a5)
    4226:	db4fe0ef          	jal	ra,27da <mpu_reset_fifo>
    422a:	b5018793          	addi	a5,gp,-1200 # 20000428 <dmp>
    422e:	060a1763          	bnez	s4,429c <dmp_enable_feature+0x1d0>
    4232:	00078723          	sb	zero,14(a5)
    4236:	00090563          	beqz	s2,4240 <dmp_enable_feature+0x174>
    423a:	27f8                	lbu	a4,14(a5)
    423c:	0719                	addi	a4,a4,6
    423e:	a7f8                	sb	a4,14(a5)
    4240:	8851                	andi	s0,s0,20
    4242:	c401                	beqz	s0,424a <dmp_enable_feature+0x17e>
    4244:	27f8                	lbu	a4,14(a5)
    4246:	0741                	addi	a4,a4,16
    4248:	a7f8                	sb	a4,14(a5)
    424a:	00098563          	beqz	s3,4254 <dmp_enable_feature+0x188>
    424e:	27f8                	lbu	a4,14(a5)
    4250:	0711                	addi	a4,a4,4
    4252:	a7f8                	sb	a4,14(a5)
    4254:	4501                	li	a0,0
    4256:	0141                	addi	sp,sp,16
    4258:	ad8fc06f          	j	530 <__riscv_restore_4>
    425c:	82dc                	sb	a5,5(sp)
    425e:	77e9                	lui	a5,0xffffa
    4260:	3a378793          	addi	a5,a5,931 # ffffa3a3 <__freertos_irq_stack_top+0xdfff23a3>
    4264:	b545                	j	4104 <dmp_enable_feature+0x38>
    4266:	77e9                	lui	a5,0xffffa
    4268:	3a378793          	addi	a5,a5,931 # ffffa3a3 <__freertos_irq_stack_top+0xdfff23a3>
    426c:	847c                	sh	a5,8(sp)
    426e:	fa300793          	li	a5,-93
    4272:	b565                	j	411a <dmp_enable_feature+0x4e>
    4274:	4501                	li	a0,0
    4276:	dc1ff0ef          	jal	ra,4036 <dmp_enable_gyro_cal>
    427a:	b5ed                	j	4164 <dmp_enable_feature+0x98>
    427c:	90b487b7          	lui	a5,0x90b48
    4280:	0b078793          	addi	a5,a5,176 # 90b480b0 <__freertos_irq_stack_top+0x70b400b0>
    4284:	bdd5                	j	4178 <dmp_enable_feature+0xac>
    4286:	6505                	lui	a0,0x1
    4288:	fd800793          	li	a5,-40
    428c:	0050                	addi	a2,sp,4
    428e:	4585                	li	a1,1
    4290:	8b050513          	addi	a0,a0,-1872 # 8b0 <PIDSTRUCT_Init+0x14>
    4294:	825c                	sb	a5,4(sp)
    4296:	eadfe0ef          	jal	ra,3142 <mpu_write_mem>
    429a:	b7b1                	j	41e6 <dmp_enable_feature+0x11a>
    429c:	4719                	li	a4,6
    429e:	a7f8                	sb	a4,14(a5)
    42a0:	bf59                	j	4236 <dmp_enable_feature+0x16a>

000042a2 <dmp_read_fifo>:
    42a2:	a4cfc2ef          	jal	t0,4ee <__riscv_save_10>
    42a6:	b5018b93          	addi	s7,gp,-1200 # 20000428 <dmp>
    42aa:	892a                	mv	s2,a0
    42ac:	00ebc503          	lbu	a0,14(s7)
    42b0:	1101                	addi	sp,sp,-32
    42b2:	89ae                	mv	s3,a1
    42b4:	8b32                	mv	s6,a2
    42b6:	00071023          	sh	zero,0(a4)
    42ba:	863e                	mv	a2,a5
    42bc:	858a                	mv	a1,sp
    42be:	84b6                	mv	s1,a3
    42c0:	8a3a                	mv	s4,a4
    42c2:	999fe0ef          	jal	ra,2c5a <mpu_read_fifo_stream>
    42c6:	e545                	bnez	a0,436e <dmp_read_fifo+0xcc>
    42c8:	00abd703          	lhu	a4,10(s7)
    42cc:	842a                	mv	s0,a0
    42ce:	b5018a93          	addi	s5,gp,-1200 # 20000428 <dmp>
    42d2:	01477793          	andi	a5,a4,20
    42d6:	18078663          	beqz	a5,4462 <dmp_read_fifo+0x1c0>
    42da:	801c                	lbu	a5,0(sp)
    42dc:	8094                	lbu	a3,1(sp)
    42de:	8290                	lbu	a2,5(sp)
    42e0:	07e2                	slli	a5,a5,0x18
    42e2:	06c2                	slli	a3,a3,0x10
    42e4:	8fd5                	or	a5,a5,a3
    42e6:	8194                	lbu	a3,3(sp)
    42e8:	0642                	slli	a2,a2,0x10
    42ea:	840c                	lbu	a1,8(sp)
    42ec:	8fd5                	or	a5,a5,a3
    42ee:	8114                	lbu	a3,2(sp)
    42f0:	05e2                	slli	a1,a1,0x18
    42f2:	8688                	lbu	a0,13(sp)
    42f4:	06a2                	slli	a3,a3,0x8
    42f6:	8fd5                	or	a5,a5,a3
    42f8:	8214                	lbu	a3,4(sp)
    42fa:	00fb2023          	sw	a5,0(s6)
    42fe:	87c1                	srai	a5,a5,0x10
    4300:	06e2                	slli	a3,a3,0x18
    4302:	8ed1                	or	a3,a3,a2
    4304:	8390                	lbu	a2,7(sp)
    4306:	02f787b3          	mul	a5,a5,a5
    430a:	0542                	slli	a0,a0,0x10
    430c:	8ed1                	or	a3,a3,a2
    430e:	8310                	lbu	a2,6(sp)
    4310:	0622                	slli	a2,a2,0x8
    4312:	8ed1                	or	a3,a3,a2
    4314:	8490                	lbu	a2,9(sp)
    4316:	00db2223          	sw	a3,4(s6)
    431a:	86c1                	srai	a3,a3,0x10
    431c:	0642                	slli	a2,a2,0x10
    431e:	8dd1                	or	a1,a1,a2
    4320:	8590                	lbu	a2,11(sp)
    4322:	02d686b3          	mul	a3,a3,a3
    4326:	8dd1                	or	a1,a1,a2
    4328:	8510                	lbu	a2,10(sp)
    432a:	0622                	slli	a2,a2,0x8
    432c:	8dd1                	or	a1,a1,a2
    432e:	8610                	lbu	a2,12(sp)
    4330:	00bb2423          	sw	a1,8(s6)
    4334:	85c1                	srai	a1,a1,0x10
    4336:	0662                	slli	a2,a2,0x18
    4338:	8e49                	or	a2,a2,a0
    433a:	8788                	lbu	a0,15(sp)
    433c:	96be                	add	a3,a3,a5
    433e:	02b587b3          	mul	a5,a1,a1
    4342:	8e49                	or	a2,a2,a0
    4344:	8708                	lbu	a0,14(sp)
    4346:	0522                	slli	a0,a0,0x8
    4348:	8e49                	or	a2,a2,a0
    434a:	00cb2623          	sw	a2,12(s6)
    434e:	8641                	srai	a2,a2,0x10
    4350:	02c60633          	mul	a2,a2,a2
    4354:	97b6                	add	a5,a5,a3
    4356:	f10006b7          	lui	a3,0xf1000
    435a:	97b2                	add	a5,a5,a2
    435c:	97b6                	add	a5,a5,a3
    435e:	020006b7          	lui	a3,0x2000
    4362:	00f6f863          	bgeu	a3,a5,4372 <dmp_read_fifo+0xd0>
    4366:	c74fe0ef          	jal	ra,27da <mpu_reset_fifo>
    436a:	000a1023          	sh	zero,0(s4)
    436e:	547d                	li	s0,-1
    4370:	a0ed                	j	445a <dmp_read_fifo+0x1b8>
    4372:	000a5783          	lhu	a5,0(s4)
    4376:	1007e793          	ori	a5,a5,256
    437a:	00fa1023          	sh	a5,0(s4)
    437e:	47c1                	li	a5,16
    4380:	04077693          	andi	a3,a4,64
    4384:	c6a1                	beqz	a3,43cc <dmp_read_fifo+0x12a>
    4386:	1014                	addi	a3,sp,32
    4388:	96be                	add	a3,a3,a5
    438a:	fe06c603          	lbu	a2,-32(a3) # 1ffffe0 <_data_lma+0x1ff3740>
    438e:	fe16c583          	lbu	a1,-31(a3)
    4392:	0799                	addi	a5,a5,6
    4394:	0622                	slli	a2,a2,0x8
    4396:	8e4d                	or	a2,a2,a1
    4398:	00c99023          	sh	a2,0(s3)
    439c:	fe26c603          	lbu	a2,-30(a3)
    43a0:	fe36c583          	lbu	a1,-29(a3)
    43a4:	0ff7f793          	andi	a5,a5,255
    43a8:	0622                	slli	a2,a2,0x8
    43aa:	8e4d                	or	a2,a2,a1
    43ac:	00c99123          	sh	a2,2(s3)
    43b0:	fe46c603          	lbu	a2,-28(a3)
    43b4:	fe56c683          	lbu	a3,-27(a3)
    43b8:	0622                	slli	a2,a2,0x8
    43ba:	8ed1                	or	a3,a3,a2
    43bc:	00d99223          	sh	a3,4(s3)
    43c0:	000a5683          	lhu	a3,0(s4)
    43c4:	0086e693          	ori	a3,a3,8
    43c8:	00da1023          	sh	a3,0(s4)
    43cc:	18077693          	andi	a3,a4,384
    43d0:	c6a1                	beqz	a3,4418 <dmp_read_fifo+0x176>
    43d2:	1014                	addi	a3,sp,32
    43d4:	96be                	add	a3,a3,a5
    43d6:	fe06c603          	lbu	a2,-32(a3)
    43da:	fe16c583          	lbu	a1,-31(a3)
    43de:	0799                	addi	a5,a5,6
    43e0:	0622                	slli	a2,a2,0x8
    43e2:	8e4d                	or	a2,a2,a1
    43e4:	00c91023          	sh	a2,0(s2)
    43e8:	fe26c603          	lbu	a2,-30(a3)
    43ec:	fe36c583          	lbu	a1,-29(a3)
    43f0:	0ff7f793          	andi	a5,a5,255
    43f4:	0622                	slli	a2,a2,0x8
    43f6:	8e4d                	or	a2,a2,a1
    43f8:	00c91123          	sh	a2,2(s2)
    43fc:	fe46c603          	lbu	a2,-28(a3)
    4400:	fe56c683          	lbu	a3,-27(a3)
    4404:	0622                	slli	a2,a2,0x8
    4406:	8ed1                	or	a3,a3,a2
    4408:	00d91223          	sh	a3,4(s2)
    440c:	000a5683          	lhu	a3,0(s4)
    4410:	0706e693          	ori	a3,a3,112
    4414:	00da1023          	sh	a3,0(s4)
    4418:	8b0d                	andi	a4,a4,3
    441a:	cf0d                	beqz	a4,4454 <dmp_read_fifo+0x1b2>
    441c:	00f10933          	add	s2,sp,a5
    4420:	00194783          	lbu	a5,1(s2)
    4424:	00394983          	lbu	s3,3(s2)
    4428:	8b85                	andi	a5,a5,1
    442a:	cb99                	beqz	a5,4440 <dmp_read_fifo+0x19e>
    442c:	000aa783          	lw	a5,0(s5)
    4430:	cb81                	beqz	a5,4440 <dmp_read_fifo+0x19e>
    4432:	0079f593          	andi	a1,s3,7
    4436:	0039d513          	srli	a0,s3,0x3
    443a:	0585                	addi	a1,a1,1
    443c:	891d                	andi	a0,a0,7
    443e:	9782                	jalr	a5
    4440:	00194783          	lbu	a5,1(s2)
    4444:	8ba1                	andi	a5,a5,8
    4446:	c799                	beqz	a5,4454 <dmp_read_fifo+0x1b2>
    4448:	004aa783          	lw	a5,4(s5)
    444c:	c781                	beqz	a5,4454 <dmp_read_fifo+0x1b2>
    444e:	0069d513          	srli	a0,s3,0x6
    4452:	9782                	jalr	a5
    4454:	8526                	mv	a0,s1
    4456:	a2aff0ef          	jal	ra,3680 <mget_ms>
    445a:	8522                	mv	a0,s0
    445c:	6105                	addi	sp,sp,32
    445e:	8c8fc06f          	j	526 <__riscv_restore_10>
    4462:	4781                	li	a5,0
    4464:	bf31                	j	4380 <dmp_read_fifo+0xde>

00004466 <BMP280_Read_Byte>:
    4466:	8b0fc2ef          	jal	t0,516 <__riscv_save_0>
    446a:	1141                	addi	sp,sp,-16
    446c:	842a                	mv	s0,a0
    446e:	686000ef          	jal	ra,4af4 <MyI2C_Start>
    4472:	0ec00513          	li	a0,236
    4476:	6b8000ef          	jal	ra,4b2e <MyI2C_SendByte>
    447a:	724000ef          	jal	ra,4b9e <MyI2C_ReceiveAck>
    447e:	8522                	mv	a0,s0
    4480:	6ae000ef          	jal	ra,4b2e <MyI2C_SendByte>
    4484:	71a000ef          	jal	ra,4b9e <MyI2C_ReceiveAck>
    4488:	66c000ef          	jal	ra,4af4 <MyI2C_Start>
    448c:	0ed00513          	li	a0,237
    4490:	69e000ef          	jal	ra,4b2e <MyI2C_SendByte>
    4494:	70a000ef          	jal	ra,4b9e <MyI2C_ReceiveAck>
    4498:	6c6000ef          	jal	ra,4b5e <MyI2C_ReceiveByte>
    449c:	c62a                	sw	a0,12(sp)
    449e:	676000ef          	jal	ra,4b14 <MyI2C_Stop>
    44a2:	4532                	lw	a0,12(sp)
    44a4:	0141                	addi	sp,sp,16
    44a6:	894fc06f          	j	53a <__riscv_restore_0>

000044aa <BMP280_Write_Byte>:
    44aa:	86cfc2ef          	jal	t0,516 <__riscv_save_0>
    44ae:	1141                	addi	sp,sp,-16
    44b0:	c62e                	sw	a1,12(sp)
    44b2:	842a                	mv	s0,a0
    44b4:	640000ef          	jal	ra,4af4 <MyI2C_Start>
    44b8:	0ec00513          	li	a0,236
    44bc:	672000ef          	jal	ra,4b2e <MyI2C_SendByte>
    44c0:	6de000ef          	jal	ra,4b9e <MyI2C_ReceiveAck>
    44c4:	8522                	mv	a0,s0
    44c6:	668000ef          	jal	ra,4b2e <MyI2C_SendByte>
    44ca:	6d4000ef          	jal	ra,4b9e <MyI2C_ReceiveAck>
    44ce:	45b2                	lw	a1,12(sp)
    44d0:	852e                	mv	a0,a1
    44d2:	65c000ef          	jal	ra,4b2e <MyI2C_SendByte>
    44d6:	6c8000ef          	jal	ra,4b9e <MyI2C_ReceiveAck>
    44da:	63a000ef          	jal	ra,4b14 <MyI2C_Stop>
    44de:	0141                	addi	sp,sp,16
    44e0:	85afc06f          	j	53a <__riscv_restore_0>

000044e4 <BMP280_Set_TemOversamp>:
    44e4:	832fc2ef          	jal	t0,516 <__riscv_save_0>
    44e8:	414c                	lw	a1,4(a0)
    44ea:	411c                	lw	a5,0(a0)
    44ec:	0596                	slli	a1,a1,0x5
    44ee:	078a                	slli	a5,a5,0x2
    44f0:	8ddd                	or	a1,a1,a5
    44f2:	451c                	lw	a5,8(a0)
    44f4:	0f400513          	li	a0,244
    44f8:	8ddd                	or	a1,a1,a5
    44fa:	0ff5f593          	andi	a1,a1,255
    44fe:	fadff0ef          	jal	ra,44aa <BMP280_Write_Byte>
    4502:	838fc06f          	j	53a <__riscv_restore_0>

00004506 <BMP280_Set_Standby_FILTER>:
    4506:	810fc2ef          	jal	t0,516 <__riscv_save_0>
    450a:	410c                	lw	a1,0(a0)
    450c:	415c                	lw	a5,4(a0)
    450e:	0596                	slli	a1,a1,0x5
    4510:	078a                	slli	a5,a5,0x2
    4512:	8ddd                	or	a1,a1,a5
    4514:	451c                	lw	a5,8(a0)
    4516:	0f500513          	li	a0,245
    451a:	8ddd                	or	a1,a1,a5
    451c:	0ff5f593          	andi	a1,a1,255
    4520:	f8bff0ef          	jal	ra,44aa <BMP280_Write_Byte>
    4524:	816fc06f          	j	53a <__riscv_restore_0>

00004528 <Bmp_Init>:
    4528:	feffb2ef          	jal	t0,516 <__riscv_save_0>
    452c:	1101                	addi	sp,sp,-32
    452e:	2369                	jal	4ab8 <MyI2C_Init>
    4530:	08800513          	li	a0,136
    4534:	f33ff0ef          	jal	ra,4466 <BMP280_Read_Byte>
    4538:	84aa                	mv	s1,a0
    453a:	08900513          	li	a0,137
    453e:	81418413          	addi	s0,gp,-2028 # 200000ec <bmp280>
    4542:	f25ff0ef          	jal	ra,4466 <BMP280_Read_Byte>
    4546:	401c                	lw	a5,0(s0)
    4548:	0522                	slli	a0,a0,0x8
    454a:	9526                	add	a0,a0,s1
    454c:	a38a                	sh	a0,0(a5)
    454e:	08a00513          	li	a0,138
    4552:	f15ff0ef          	jal	ra,4466 <BMP280_Read_Byte>
    4556:	84aa                	mv	s1,a0
    4558:	08b00513          	li	a0,139
    455c:	f0bff0ef          	jal	ra,4466 <BMP280_Read_Byte>
    4560:	401c                	lw	a5,0(s0)
    4562:	0522                	slli	a0,a0,0x8
    4564:	9526                	add	a0,a0,s1
    4566:	a3aa                	sh	a0,2(a5)
    4568:	08c00513          	li	a0,140
    456c:	efbff0ef          	jal	ra,4466 <BMP280_Read_Byte>
    4570:	84aa                	mv	s1,a0
    4572:	08d00513          	li	a0,141
    4576:	ef1ff0ef          	jal	ra,4466 <BMP280_Read_Byte>
    457a:	401c                	lw	a5,0(s0)
    457c:	0522                	slli	a0,a0,0x8
    457e:	9526                	add	a0,a0,s1
    4580:	a3ca                	sh	a0,4(a5)
    4582:	08e00513          	li	a0,142
    4586:	ee1ff0ef          	jal	ra,4466 <BMP280_Read_Byte>
    458a:	84aa                	mv	s1,a0
    458c:	08f00513          	li	a0,143
    4590:	ed7ff0ef          	jal	ra,4466 <BMP280_Read_Byte>
    4594:	401c                	lw	a5,0(s0)
    4596:	0522                	slli	a0,a0,0x8
    4598:	9526                	add	a0,a0,s1
    459a:	a3ea                	sh	a0,6(a5)
    459c:	09000513          	li	a0,144
    45a0:	ec7ff0ef          	jal	ra,4466 <BMP280_Read_Byte>
    45a4:	84aa                	mv	s1,a0
    45a6:	09100513          	li	a0,145
    45aa:	ebdff0ef          	jal	ra,4466 <BMP280_Read_Byte>
    45ae:	401c                	lw	a5,0(s0)
    45b0:	0522                	slli	a0,a0,0x8
    45b2:	9526                	add	a0,a0,s1
    45b4:	a78a                	sh	a0,8(a5)
    45b6:	09200513          	li	a0,146
    45ba:	eadff0ef          	jal	ra,4466 <BMP280_Read_Byte>
    45be:	84aa                	mv	s1,a0
    45c0:	09300513          	li	a0,147
    45c4:	ea3ff0ef          	jal	ra,4466 <BMP280_Read_Byte>
    45c8:	401c                	lw	a5,0(s0)
    45ca:	0522                	slli	a0,a0,0x8
    45cc:	9526                	add	a0,a0,s1
    45ce:	a7aa                	sh	a0,10(a5)
    45d0:	09400513          	li	a0,148
    45d4:	e93ff0ef          	jal	ra,4466 <BMP280_Read_Byte>
    45d8:	84aa                	mv	s1,a0
    45da:	09500513          	li	a0,149
    45de:	e89ff0ef          	jal	ra,4466 <BMP280_Read_Byte>
    45e2:	401c                	lw	a5,0(s0)
    45e4:	0522                	slli	a0,a0,0x8
    45e6:	9526                	add	a0,a0,s1
    45e8:	a7ca                	sh	a0,12(a5)
    45ea:	09600513          	li	a0,150
    45ee:	e79ff0ef          	jal	ra,4466 <BMP280_Read_Byte>
    45f2:	84aa                	mv	s1,a0
    45f4:	09700513          	li	a0,151
    45f8:	e6fff0ef          	jal	ra,4466 <BMP280_Read_Byte>
    45fc:	401c                	lw	a5,0(s0)
    45fe:	0522                	slli	a0,a0,0x8
    4600:	9526                	add	a0,a0,s1
    4602:	a7ea                	sh	a0,14(a5)
    4604:	09800513          	li	a0,152
    4608:	e5fff0ef          	jal	ra,4466 <BMP280_Read_Byte>
    460c:	84aa                	mv	s1,a0
    460e:	09900513          	li	a0,153
    4612:	e55ff0ef          	jal	ra,4466 <BMP280_Read_Byte>
    4616:	401c                	lw	a5,0(s0)
    4618:	0522                	slli	a0,a0,0x8
    461a:	9526                	add	a0,a0,s1
    461c:	ab8a                	sh	a0,16(a5)
    461e:	09a00513          	li	a0,154
    4622:	e45ff0ef          	jal	ra,4466 <BMP280_Read_Byte>
    4626:	84aa                	mv	s1,a0
    4628:	09b00513          	li	a0,155
    462c:	e3bff0ef          	jal	ra,4466 <BMP280_Read_Byte>
    4630:	401c                	lw	a5,0(s0)
    4632:	0522                	slli	a0,a0,0x8
    4634:	9526                	add	a0,a0,s1
    4636:	abaa                	sh	a0,18(a5)
    4638:	09c00513          	li	a0,156
    463c:	e2bff0ef          	jal	ra,4466 <BMP280_Read_Byte>
    4640:	84aa                	mv	s1,a0
    4642:	09d00513          	li	a0,157
    4646:	e21ff0ef          	jal	ra,4466 <BMP280_Read_Byte>
    464a:	401c                	lw	a5,0(s0)
    464c:	0522                	slli	a0,a0,0x8
    464e:	9526                	add	a0,a0,s1
    4650:	abca                	sh	a0,20(a5)
    4652:	09e00513          	li	a0,158
    4656:	e11ff0ef          	jal	ra,4466 <BMP280_Read_Byte>
    465a:	84aa                	mv	s1,a0
    465c:	09f00513          	li	a0,159
    4660:	e07ff0ef          	jal	ra,4466 <BMP280_Read_Byte>
    4664:	401c                	lw	a5,0(s0)
    4666:	0522                	slli	a0,a0,0x8
    4668:	9526                	add	a0,a0,s1
    466a:	0b600593          	li	a1,182
    466e:	abea                	sh	a0,22(a5)
    4670:	0e000513          	li	a0,224
    4674:	e37ff0ef          	jal	ra,44aa <BMP280_Write_Byte>
    4678:	478d                	li	a5,3
    467a:	4705                	li	a4,1
    467c:	0028                	addi	a0,sp,8
    467e:	c63a                	sw	a4,12(sp)
    4680:	c43e                	sw	a5,8(sp)
    4682:	c83e                	sw	a5,16(sp)
    4684:	e61ff0ef          	jal	ra,44e4 <BMP280_Set_TemOversamp>
    4688:	4791                	li	a5,4
    468a:	0848                	addi	a0,sp,20
    468c:	cc3e                	sw	a5,24(sp)
    468e:	ca02                	sw	zero,20(sp)
    4690:	ce02                	sw	zero,28(sp)
    4692:	e75ff0ef          	jal	ra,4506 <BMP280_Set_Standby_FILTER>
    4696:	6105                	addi	sp,sp,32
    4698:	ea3fb06f          	j	53a <__riscv_restore_0>

0000469c <MPU6050_I2C_Mem_Write>:
    469c:	e61fb2ef          	jal	t0,4fc <__riscv_save_4>
    46a0:	400064b7          	lui	s1,0x40006
    46a4:	8aaa                	mv	s5,a0
    46a6:	8a2e                	mv	s4,a1
    46a8:	8932                	mv	s2,a2
    46aa:	8436                	mv	s0,a3
    46ac:	80048993          	addi	s3,s1,-2048 # 40005800 <__freertos_irq_stack_top+0x1fffd800>
    46b0:	000205b7          	lui	a1,0x20
    46b4:	854e                	mv	a0,s3
    46b6:	da0fd0ef          	jal	ra,1c56 <I2C_GetFlagStatus>
    46ba:	f97d                	bnez	a0,46b0 <MPU6050_I2C_Mem_Write+0x14>
    46bc:	80048513          	addi	a0,s1,-2048
    46c0:	4585                	li	a1,1
    46c2:	000304b7          	lui	s1,0x30
    46c6:	400069b7          	lui	s3,0x40006
    46ca:	d0afd0ef          	jal	ra,1bd4 <I2C_GenerateSTART>
    46ce:	0485                	addi	s1,s1,1
    46d0:	80098b13          	addi	s6,s3,-2048 # 40005800 <__freertos_irq_stack_top+0x1fffd800>
    46d4:	85a6                	mv	a1,s1
    46d6:	855a                	mv	a0,s6
    46d8:	d68fd0ef          	jal	ra,1c40 <I2C_CheckEvent>
    46dc:	dd65                	beqz	a0,46d4 <MPU6050_I2C_Mem_Write+0x38>
    46de:	85d6                	mv	a1,s5
    46e0:	80098513          	addi	a0,s3,-2048
    46e4:	4601                	li	a2,0
    46e6:	000704b7          	lui	s1,0x70
    46ea:	400069b7          	lui	s3,0x40006
    46ee:	d40fd0ef          	jal	ra,1c2e <I2C_Send7bitAddress>
    46f2:	08248493          	addi	s1,s1,130 # 70082 <_data_lma+0x637e2>
    46f6:	80098a93          	addi	s5,s3,-2048 # 40005800 <__freertos_irq_stack_top+0x1fffd800>
    46fa:	85a6                	mv	a1,s1
    46fc:	8556                	mv	a0,s5
    46fe:	d42fd0ef          	jal	ra,1c40 <I2C_CheckEvent>
    4702:	dd65                	beqz	a0,46fa <MPU6050_I2C_Mem_Write+0x5e>
    4704:	80098513          	addi	a0,s3,-2048
    4708:	85d2                	mv	a1,s4
    470a:	000709b7          	lui	s3,0x70
    470e:	400064b7          	lui	s1,0x40006
    4712:	d10fd0ef          	jal	ra,1c22 <I2C_SendData>
    4716:	08498993          	addi	s3,s3,132 # 70084 <_data_lma+0x637e4>
    471a:	80048493          	addi	s1,s1,-2048 # 40005800 <__freertos_irq_stack_top+0x1fffd800>
    471e:	85ce                	mv	a1,s3
    4720:	8526                	mv	a0,s1
    4722:	d1efd0ef          	jal	ra,1c40 <I2C_CheckEvent>
    4726:	dd65                	beqz	a0,471e <MPU6050_I2C_Mem_Write+0x82>
    4728:	400064b7          	lui	s1,0x40006
    472c:	000709b7          	lui	s3,0x70
    4730:	9922                	add	s2,s2,s0
    4732:	80048493          	addi	s1,s1,-2048 # 40005800 <__freertos_irq_stack_top+0x1fffd800>
    4736:	08498993          	addi	s3,s3,132 # 70084 <_data_lma+0x637e4>
    473a:	00891b63          	bne	s2,s0,4750 <MPU6050_I2C_Mem_Write+0xb4>
    473e:	40006537          	lui	a0,0x40006
    4742:	4585                	li	a1,1
    4744:	80050513          	addi	a0,a0,-2048 # 40005800 <__freertos_irq_stack_top+0x1fffd800>
    4748:	ca6fd0ef          	jal	ra,1bee <I2C_GenerateSTOP>
    474c:	de5fb06f          	j	530 <__riscv_restore_4>
    4750:	0405                	addi	s0,s0,1
    4752:	fff44583          	lbu	a1,-1(s0)
    4756:	8526                	mv	a0,s1
    4758:	ccafd0ef          	jal	ra,1c22 <I2C_SendData>
    475c:	85ce                	mv	a1,s3
    475e:	8526                	mv	a0,s1
    4760:	ce0fd0ef          	jal	ra,1c40 <I2C_CheckEvent>
    4764:	dd65                	beqz	a0,475c <MPU6050_I2C_Mem_Write+0xc0>
    4766:	bfd1                	j	473a <MPU6050_I2C_Mem_Write+0x9e>

00004768 <MPU6050_WriteByte>:
    4768:	daffb2ef          	jal	t0,516 <__riscv_save_0>
    476c:	1141                	addi	sp,sp,-16
    476e:	87cc                	sb	a1,15(sp)
    4770:	00f10693          	addi	a3,sp,15
    4774:	85aa                	mv	a1,a0
    4776:	4605                	li	a2,1
    4778:	0d000513          	li	a0,208
    477c:	f21ff0ef          	jal	ra,469c <MPU6050_I2C_Mem_Write>
    4780:	0141                	addi	sp,sp,16
    4782:	db9fb06f          	j	53a <__riscv_restore_0>

00004786 <MPU6050_Init>:
    4786:	d91fb2ef          	jal	t0,516 <__riscv_save_0>
    478a:	1101                	addi	sp,sp,-32
    478c:	4585                	li	a1,1
    478e:	00400537          	lui	a0,0x400
    4792:	c202                	sw	zero,4(sp)
    4794:	c402                	sw	zero,8(sp)
    4796:	c602                	sw	zero,12(sp)
    4798:	c802                	sw	zero,16(sp)
    479a:	ca02                	sw	zero,20(sp)
    479c:	cc02                	sw	zero,24(sp)
    479e:	ce02                	sw	zero,28(sp)
    47a0:	ef0fd0ef          	jal	ra,1e90 <RCC_APB1PeriphClockCmd>
    47a4:	4585                	li	a1,1
    47a6:	4521                	li	a0,8
    47a8:	ecafd0ef          	jal	ra,1e72 <RCC_APB2PeriphClockCmd>
    47ac:	6785                	lui	a5,0x1
    47ae:	c0078793          	addi	a5,a5,-1024 # c00 <Yaw_innerloop_ctr>
    47b2:	827c                	sh	a5,4(sp)
    47b4:	40011537          	lui	a0,0x40011
    47b8:	47f1                	li	a5,28
    47ba:	c63e                	sw	a5,12(sp)
    47bc:	004c                	addi	a1,sp,4
    47be:	478d                	li	a5,3
    47c0:	c0050513          	addi	a0,a0,-1024 # 40010c00 <__freertos_irq_stack_top+0x20008c00>
    47c4:	c43e                	sw	a5,8(sp)
    47c6:	968fd0ef          	jal	ra,192e <GPIO_Init>
    47ca:	000627b7          	lui	a5,0x62
    47ce:	a8078793          	addi	a5,a5,-1408 # 61a80 <_data_lma+0x551e0>
    47d2:	c83e                	sw	a5,16(sp)
    47d4:	bfff07b7          	lui	a5,0xbfff0
    47d8:	40006437          	lui	s0,0x40006
    47dc:	ca3e                	sw	a5,20(sp)
    47de:	040007b7          	lui	a5,0x4000
    47e2:	cc3e                	sw	a5,24(sp)
    47e4:	080c                	addi	a1,sp,16
    47e6:	6791                	lui	a5,0x4
    47e8:	80040513          	addi	a0,s0,-2048 # 40005800 <__freertos_irq_stack_top+0x1fffd800>
    47ec:	86fc                	sh	a5,28(sp)
    47ee:	adcfd0ef          	jal	ra,1aca <I2C_Init>
    47f2:	80040513          	addi	a0,s0,-2048
    47f6:	4585                	li	a1,1
    47f8:	bc4fd0ef          	jal	ra,1bbc <I2C_Cmd>
    47fc:	4585                	li	a1,1
    47fe:	80040513          	addi	a0,s0,-2048
    4802:	c06fd0ef          	jal	ra,1c08 <I2C_AcknowledgeConfig>
    4806:	03200513          	li	a0,50
    480a:	498020ef          	jal	ra,6ca2 <Delay_Ms>
    480e:	08000593          	li	a1,128
    4812:	06b00513          	li	a0,107
    4816:	f53ff0ef          	jal	ra,4768 <MPU6050_WriteByte>
    481a:	06400513          	li	a0,100
    481e:	484020ef          	jal	ra,6ca2 <Delay_Ms>
    4822:	4581                	li	a1,0
    4824:	06b00513          	li	a0,107
    4828:	f41ff0ef          	jal	ra,4768 <MPU6050_WriteByte>
    482c:	458d                	li	a1,3
    482e:	4565                	li	a0,25
    4830:	f39ff0ef          	jal	ra,4768 <MPU6050_WriteByte>
    4834:	4589                	li	a1,2
    4836:	4569                	li	a0,26
    4838:	f31ff0ef          	jal	ra,4768 <MPU6050_WriteByte>
    483c:	4581                	li	a1,0
    483e:	4571                	li	a0,28
    4840:	f29ff0ef          	jal	ra,4768 <MPU6050_WriteByte>
    4844:	45e1                	li	a1,24
    4846:	456d                	li	a0,27
    4848:	f21ff0ef          	jal	ra,4768 <MPU6050_WriteByte>
    484c:	4581                	li	a1,0
    484e:	03800513          	li	a0,56
    4852:	f17ff0ef          	jal	ra,4768 <MPU6050_WriteByte>
    4856:	4581                	li	a1,0
    4858:	06a00513          	li	a0,106
    485c:	f0dff0ef          	jal	ra,4768 <MPU6050_WriteByte>
    4860:	4581                	li	a1,0
    4862:	02300513          	li	a0,35
    4866:	f03ff0ef          	jal	ra,4768 <MPU6050_WriteByte>
    486a:	08000593          	li	a1,128
    486e:	03700513          	li	a0,55
    4872:	ef7ff0ef          	jal	ra,4768 <MPU6050_WriteByte>
    4876:	4585                	li	a1,1
    4878:	06b00513          	li	a0,107
    487c:	eedff0ef          	jal	ra,4768 <MPU6050_WriteByte>
    4880:	ee7fe0ef          	jal	ra,3766 <mpu_dmp_init>
    4884:	842a                	mv	s0,a0
    4886:	85aa                	mv	a1,a0
    4888:	0000c537          	lui	a0,0xc
    488c:	49450513          	addi	a0,a0,1172 # c494 <dmp_memory+0xc1c>
    4890:	5b8030ef          	jal	ra,7e48 <printf>
    4894:	8522                	mv	a0,s0
    4896:	6105                	addi	sp,sp,32
    4898:	ca3fb06f          	j	53a <__riscv_restore_0>

0000489c <MPU6050_I2C_Mem_Read>:
    489c:	c61fb2ef          	jal	t0,4fc <__riscv_save_4>
    48a0:	400064b7          	lui	s1,0x40006
    48a4:	8a2a                	mv	s4,a0
    48a6:	8aae                	mv	s5,a1
    48a8:	8432                	mv	s0,a2
    48aa:	8936                	mv	s2,a3
    48ac:	80048993          	addi	s3,s1,-2048 # 40005800 <__freertos_irq_stack_top+0x1fffd800>
    48b0:	000205b7          	lui	a1,0x20
    48b4:	854e                	mv	a0,s3
    48b6:	ba0fd0ef          	jal	ra,1c56 <I2C_GetFlagStatus>
    48ba:	f97d                	bnez	a0,48b0 <MPU6050_I2C_Mem_Read+0x14>
    48bc:	80048513          	addi	a0,s1,-2048
    48c0:	4585                	li	a1,1
    48c2:	000304b7          	lui	s1,0x30
    48c6:	400069b7          	lui	s3,0x40006
    48ca:	b0afd0ef          	jal	ra,1bd4 <I2C_GenerateSTART>
    48ce:	0485                	addi	s1,s1,1
    48d0:	80098b13          	addi	s6,s3,-2048 # 40005800 <__freertos_irq_stack_top+0x1fffd800>
    48d4:	85a6                	mv	a1,s1
    48d6:	855a                	mv	a0,s6
    48d8:	b68fd0ef          	jal	ra,1c40 <I2C_CheckEvent>
    48dc:	dd65                	beqz	a0,48d4 <MPU6050_I2C_Mem_Read+0x38>
    48de:	80098513          	addi	a0,s3,-2048
    48e2:	4601                	li	a2,0
    48e4:	85d2                	mv	a1,s4
    48e6:	000704b7          	lui	s1,0x70
    48ea:	400069b7          	lui	s3,0x40006
    48ee:	b40fd0ef          	jal	ra,1c2e <I2C_Send7bitAddress>
    48f2:	08248493          	addi	s1,s1,130 # 70082 <_data_lma+0x637e2>
    48f6:	80098b13          	addi	s6,s3,-2048 # 40005800 <__freertos_irq_stack_top+0x1fffd800>
    48fa:	85a6                	mv	a1,s1
    48fc:	855a                	mv	a0,s6
    48fe:	b42fd0ef          	jal	ra,1c40 <I2C_CheckEvent>
    4902:	dd65                	beqz	a0,48fa <MPU6050_I2C_Mem_Read+0x5e>
    4904:	85d6                	mv	a1,s5
    4906:	80098513          	addi	a0,s3,-2048
    490a:	000704b7          	lui	s1,0x70
    490e:	400069b7          	lui	s3,0x40006
    4912:	b10fd0ef          	jal	ra,1c22 <I2C_SendData>
    4916:	08448493          	addi	s1,s1,132 # 70084 <_data_lma+0x637e4>
    491a:	80098a93          	addi	s5,s3,-2048 # 40005800 <__freertos_irq_stack_top+0x1fffd800>
    491e:	85a6                	mv	a1,s1
    4920:	8556                	mv	a0,s5
    4922:	b1efd0ef          	jal	ra,1c40 <I2C_CheckEvent>
    4926:	dd65                	beqz	a0,491e <MPU6050_I2C_Mem_Read+0x82>
    4928:	80098513          	addi	a0,s3,-2048
    492c:	4585                	li	a1,1
    492e:	000304b7          	lui	s1,0x30
    4932:	400069b7          	lui	s3,0x40006
    4936:	a9efd0ef          	jal	ra,1bd4 <I2C_GenerateSTART>
    493a:	0485                	addi	s1,s1,1
    493c:	80098a93          	addi	s5,s3,-2048 # 40005800 <__freertos_irq_stack_top+0x1fffd800>
    4940:	85a6                	mv	a1,s1
    4942:	8556                	mv	a0,s5
    4944:	afcfd0ef          	jal	ra,1c40 <I2C_CheckEvent>
    4948:	dd65                	beqz	a0,4940 <MPU6050_I2C_Mem_Read+0xa4>
    494a:	80098513          	addi	a0,s3,-2048
    494e:	4605                	li	a2,1
    4950:	85d2                	mv	a1,s4
    4952:	000309b7          	lui	s3,0x30
    4956:	400064b7          	lui	s1,0x40006
    495a:	ad4fd0ef          	jal	ra,1c2e <I2C_Send7bitAddress>
    495e:	0989                	addi	s3,s3,2
    4960:	80048493          	addi	s1,s1,-2048 # 40005800 <__freertos_irq_stack_top+0x1fffd800>
    4964:	85ce                	mv	a1,s3
    4966:	8526                	mv	a0,s1
    4968:	ad8fd0ef          	jal	ra,1c40 <I2C_CheckEvent>
    496c:	dd65                	beqz	a0,4964 <MPU6050_I2C_Mem_Read+0xc8>
    496e:	400064b7          	lui	s1,0x40006
    4972:	000309b7          	lui	s3,0x30
    4976:	0ff00a13          	li	s4,255
    497a:	80048493          	addi	s1,s1,-2048 # 40005800 <__freertos_irq_stack_top+0x1fffd800>
    497e:	04098993          	addi	s3,s3,64 # 30040 <_data_lma+0x237a0>
    4982:	147d                	addi	s0,s0,-1
    4984:	0ff47413          	andi	s0,s0,255
    4988:	03441063          	bne	s0,s4,49a8 <MPU6050_I2C_Mem_Read+0x10c>
    498c:	40006437          	lui	s0,0x40006
    4990:	80040513          	addi	a0,s0,-2048 # 40005800 <__freertos_irq_stack_top+0x1fffd800>
    4994:	4585                	li	a1,1
    4996:	a58fd0ef          	jal	ra,1bee <I2C_GenerateSTOP>
    499a:	4585                	li	a1,1
    499c:	80040513          	addi	a0,s0,-2048
    49a0:	a68fd0ef          	jal	ra,1c08 <I2C_AcknowledgeConfig>
    49a4:	b8dfb06f          	j	530 <__riscv_restore_4>
    49a8:	e409                	bnez	s0,49b2 <MPU6050_I2C_Mem_Read+0x116>
    49aa:	4581                	li	a1,0
    49ac:	8526                	mv	a0,s1
    49ae:	a5afd0ef          	jal	ra,1c08 <I2C_AcknowledgeConfig>
    49b2:	85ce                	mv	a1,s3
    49b4:	8526                	mv	a0,s1
    49b6:	a8afd0ef          	jal	ra,1c40 <I2C_CheckEvent>
    49ba:	dd65                	beqz	a0,49b2 <MPU6050_I2C_Mem_Read+0x116>
    49bc:	8526                	mv	a0,s1
    49be:	a68fd0ef          	jal	ra,1c26 <I2C_ReceiveData>
    49c2:	00a90023          	sb	a0,0(s2)
    49c6:	0905                	addi	s2,s2,1
    49c8:	bf6d                	j	4982 <MPU6050_I2C_Mem_Read+0xe6>

000049ca <MPU6050_Get_Data>:
    49ca:	b4dfb2ef          	jal	t0,516 <__riscv_save_0>
    49ce:	1141                	addi	sp,sp,-16
    49d0:	842a                	mv	s0,a0
    49d2:	00e10693          	addi	a3,sp,14
    49d6:	85aa                	mv	a1,a0
    49d8:	4605                	li	a2,1
    49da:	0d000513          	li	a0,208
    49de:	ebfff0ef          	jal	ra,489c <MPU6050_I2C_Mem_Read>
    49e2:	00140593          	addi	a1,s0,1
    49e6:	00f10693          	addi	a3,sp,15
    49ea:	4605                	li	a2,1
    49ec:	0ff5f593          	andi	a1,a1,255
    49f0:	0d000513          	li	a0,208
    49f4:	ea9ff0ef          	jal	ra,489c <MPU6050_I2C_Mem_Read>
    49f8:	871c                	lbu	a5,14(sp)
    49fa:	8788                	lbu	a0,15(sp)
    49fc:	07a2                	slli	a5,a5,0x8
    49fe:	8d5d                	or	a0,a0,a5
    4a00:	0141                	addi	sp,sp,16
    4a02:	b39fb06f          	j	53a <__riscv_restore_0>

00004a06 <MPU6050_MPU_DMP_GetData>:
    4a06:	b11fb2ef          	jal	t0,516 <__riscv_save_0>
    4a0a:	1141                	addi	sp,sp,-16
    4a0c:	0070                	addi	a2,sp,12
    4a0e:	002c                	addi	a1,sp,8
    4a10:	0048                	addi	a0,sp,4
    4a12:	df7fe0ef          	jal	ra,3808 <mpu_dmp_get_data>
    4a16:	47b2                	lw	a5,12(sp)
    4a18:	20000437          	lui	s0,0x20000
    4a1c:	84aa                	mv	s1,a0
    4a1e:	18f42c23          	sw	a5,408(s0) # 20000198 <MPU6050_para>
    4a22:	4792                	lw	a5,4(sp)
    4a24:	19840413          	addi	s0,s0,408
    4a28:	04700513          	li	a0,71
    4a2c:	c05c                	sw	a5,4(s0)
    4a2e:	47a2                	lw	a5,8(sp)
    4a30:	c41c                	sw	a5,8(s0)
    4a32:	f99ff0ef          	jal	ra,49ca <MPU6050_Get_Data>
    4a36:	a44a                	sh	a0,12(s0)
    4a38:	04300513          	li	a0,67
    4a3c:	f8fff0ef          	jal	ra,49ca <MPU6050_Get_Data>
    4a40:	a46a                	sh	a0,14(s0)
    4a42:	04500513          	li	a0,69
    4a46:	f85ff0ef          	jal	ra,49ca <MPU6050_Get_Data>
    4a4a:	1531                	addi	a0,a0,-20
    4a4c:	a80a                	sh	a0,16(s0)
    4a4e:	8526                	mv	a0,s1
    4a50:	0141                	addi	sp,sp,16
    4a52:	ae9fb06f          	j	53a <__riscv_restore_0>

00004a56 <MyI2C_W_SCL>:
    4a56:	ac1fb2ef          	jal	t0,516 <__riscv_save_0>
    4a5a:	862a                	mv	a2,a0
    4a5c:	40011537          	lui	a0,0x40011
    4a60:	04000593          	li	a1,64
    4a64:	c0050513          	addi	a0,a0,-1024 # 40010c00 <__freertos_irq_stack_top+0x20008c00>
    4a68:	f95fc0ef          	jal	ra,19fc <GPIO_WriteBit>
    4a6c:	4529                	li	a0,10
    4a6e:	1fa020ef          	jal	ra,6c68 <Delay_Us>
    4a72:	ac9fb06f          	j	53a <__riscv_restore_0>

00004a76 <MyI2C_W_SDA>:
    4a76:	aa1fb2ef          	jal	t0,516 <__riscv_save_0>
    4a7a:	862a                	mv	a2,a0
    4a7c:	40011537          	lui	a0,0x40011
    4a80:	08000593          	li	a1,128
    4a84:	c0050513          	addi	a0,a0,-1024 # 40010c00 <__freertos_irq_stack_top+0x20008c00>
    4a88:	f75fc0ef          	jal	ra,19fc <GPIO_WriteBit>
    4a8c:	4529                	li	a0,10
    4a8e:	1da020ef          	jal	ra,6c68 <Delay_Us>
    4a92:	aa9fb06f          	j	53a <__riscv_restore_0>

00004a96 <MyI2C_R_SDA>:
    4a96:	a81fb2ef          	jal	t0,516 <__riscv_save_0>
    4a9a:	40011537          	lui	a0,0x40011
    4a9e:	08000593          	li	a1,128
    4aa2:	c0050513          	addi	a0,a0,-1024 # 40010c00 <__freertos_irq_stack_top+0x20008c00>
    4aa6:	f49fc0ef          	jal	ra,19ee <GPIO_ReadInputDataBit>
    4aaa:	842a                	mv	s0,a0
    4aac:	4529                	li	a0,10
    4aae:	1ba020ef          	jal	ra,6c68 <Delay_Us>
    4ab2:	8522                	mv	a0,s0
    4ab4:	a87fb06f          	j	53a <__riscv_restore_0>

00004ab8 <MyI2C_Init>:
    4ab8:	a5ffb2ef          	jal	t0,516 <__riscv_save_0>
    4abc:	1141                	addi	sp,sp,-16
    4abe:	4585                	li	a1,1
    4ac0:	4521                	li	a0,8
    4ac2:	bb0fd0ef          	jal	ra,1e72 <RCC_APB2PeriphClockCmd>
    4ac6:	47d1                	li	a5,20
    4ac8:	40011437          	lui	s0,0x40011
    4acc:	c63e                	sw	a5,12(sp)
    4ace:	0c000793          	li	a5,192
    4ad2:	827c                	sh	a5,4(sp)
    4ad4:	004c                	addi	a1,sp,4
    4ad6:	478d                	li	a5,3
    4ad8:	c0040513          	addi	a0,s0,-1024 # 40010c00 <__freertos_irq_stack_top+0x20008c00>
    4adc:	c43e                	sw	a5,8(sp)
    4ade:	e51fc0ef          	jal	ra,192e <GPIO_Init>
    4ae2:	0c000593          	li	a1,192
    4ae6:	c0040513          	addi	a0,s0,-1024
    4aea:	f0ffc0ef          	jal	ra,19f8 <GPIO_SetBits>
    4aee:	0141                	addi	sp,sp,16
    4af0:	a4bfb06f          	j	53a <__riscv_restore_0>

00004af4 <MyI2C_Start>:
    4af4:	a23fb2ef          	jal	t0,516 <__riscv_save_0>
    4af8:	4505                	li	a0,1
    4afa:	f7dff0ef          	jal	ra,4a76 <MyI2C_W_SDA>
    4afe:	4505                	li	a0,1
    4b00:	f57ff0ef          	jal	ra,4a56 <MyI2C_W_SCL>
    4b04:	4501                	li	a0,0
    4b06:	f71ff0ef          	jal	ra,4a76 <MyI2C_W_SDA>
    4b0a:	4501                	li	a0,0
    4b0c:	f4bff0ef          	jal	ra,4a56 <MyI2C_W_SCL>
    4b10:	a2bfb06f          	j	53a <__riscv_restore_0>

00004b14 <MyI2C_Stop>:
    4b14:	a03fb2ef          	jal	t0,516 <__riscv_save_0>
    4b18:	4501                	li	a0,0
    4b1a:	f5dff0ef          	jal	ra,4a76 <MyI2C_W_SDA>
    4b1e:	4505                	li	a0,1
    4b20:	f37ff0ef          	jal	ra,4a56 <MyI2C_W_SCL>
    4b24:	4505                	li	a0,1
    4b26:	f51ff0ef          	jal	ra,4a76 <MyI2C_W_SDA>
    4b2a:	a11fb06f          	j	53a <__riscv_restore_0>

00004b2e <MyI2C_SendByte>:
    4b2e:	9cffb2ef          	jal	t0,4fc <__riscv_save_4>
    4b32:	892a                	mv	s2,a0
    4b34:	4401                	li	s0,0
    4b36:	08000993          	li	s3,128
    4b3a:	44a1                	li	s1,8
    4b3c:	4089d533          	sra	a0,s3,s0
    4b40:	01257533          	and	a0,a0,s2
    4b44:	f33ff0ef          	jal	ra,4a76 <MyI2C_W_SDA>
    4b48:	4505                	li	a0,1
    4b4a:	f0dff0ef          	jal	ra,4a56 <MyI2C_W_SCL>
    4b4e:	4501                	li	a0,0
    4b50:	0405                	addi	s0,s0,1
    4b52:	f05ff0ef          	jal	ra,4a56 <MyI2C_W_SCL>
    4b56:	fe9413e3          	bne	s0,s1,4b3c <MyI2C_SendByte+0xe>
    4b5a:	9d7fb06f          	j	530 <__riscv_restore_4>

00004b5e <MyI2C_ReceiveByte>:
    4b5e:	99ffb2ef          	jal	t0,4fc <__riscv_save_4>
    4b62:	4505                	li	a0,1
    4b64:	f13ff0ef          	jal	ra,4a76 <MyI2C_W_SDA>
    4b68:	4481                	li	s1,0
    4b6a:	4401                	li	s0,0
    4b6c:	08000993          	li	s3,128
    4b70:	4921                	li	s2,8
    4b72:	4505                	li	a0,1
    4b74:	ee3ff0ef          	jal	ra,4a56 <MyI2C_W_SCL>
    4b78:	f1fff0ef          	jal	ra,4a96 <MyI2C_R_SDA>
    4b7c:	4785                	li	a5,1
    4b7e:	00f51763          	bne	a0,a5,4b8c <MyI2C_ReceiveByte+0x2e>
    4b82:	4099d7b3          	sra	a5,s3,s1
    4b86:	8c5d                	or	s0,s0,a5
    4b88:	0ff47413          	andi	s0,s0,255
    4b8c:	4501                	li	a0,0
    4b8e:	0485                	addi	s1,s1,1
    4b90:	ec7ff0ef          	jal	ra,4a56 <MyI2C_W_SCL>
    4b94:	fd249fe3          	bne	s1,s2,4b72 <MyI2C_ReceiveByte+0x14>
    4b98:	8522                	mv	a0,s0
    4b9a:	997fb06f          	j	530 <__riscv_restore_4>

00004b9e <MyI2C_ReceiveAck>:
    4b9e:	979fb2ef          	jal	t0,516 <__riscv_save_0>
    4ba2:	4505                	li	a0,1
    4ba4:	ed3ff0ef          	jal	ra,4a76 <MyI2C_W_SDA>
    4ba8:	4505                	li	a0,1
    4baa:	eadff0ef          	jal	ra,4a56 <MyI2C_W_SCL>
    4bae:	ee9ff0ef          	jal	ra,4a96 <MyI2C_R_SDA>
    4bb2:	842a                	mv	s0,a0
    4bb4:	4501                	li	a0,0
    4bb6:	ea1ff0ef          	jal	ra,4a56 <MyI2C_W_SCL>
    4bba:	8522                	mv	a0,s0
    4bbc:	97ffb06f          	j	53a <__riscv_restore_0>

00004bc0 <ADC_Function_Init>:
    4bc0:	957fb2ef          	jal	t0,516 <__riscv_save_0>
    4bc4:	7179                	addi	sp,sp,-48
    4bc6:	02000613          	li	a2,32
    4bca:	4581                	li	a1,0
    4bcc:	0808                	addi	a0,sp,16
    4bce:	979fb0ef          	jal	ra,546 <memset>
    4bd2:	4585                	li	a1,1
    4bd4:	4511                	li	a0,4
    4bd6:	c202                	sw	zero,4(sp)
    4bd8:	c402                	sw	zero,8(sp)
    4bda:	c602                	sw	zero,12(sp)
    4bdc:	a96fd0ef          	jal	ra,1e72 <RCC_APB2PeriphClockCmd>
    4be0:	4585                	li	a1,1
    4be2:	20000513          	li	a0,512
    4be6:	a8cfd0ef          	jal	ra,1e72 <RCC_APB2PeriphClockCmd>
    4bea:	6531                	lui	a0,0xc
    4bec:	950fd0ef          	jal	ra,1d3c <RCC_ADCCLKConfig>
    4bf0:	40011537          	lui	a0,0x40011
    4bf4:	47c1                	li	a5,16
    4bf6:	004c                	addi	a1,sp,4
    4bf8:	80050513          	addi	a0,a0,-2048 # 40010800 <__freertos_irq_stack_top+0x20008800>
    4bfc:	40012437          	lui	s0,0x40012
    4c00:	827c                	sh	a5,4(sp)
    4c02:	c602                	sw	zero,12(sp)
    4c04:	d2bfc0ef          	jal	ra,192e <GPIO_Init>
    4c08:	40040513          	addi	a0,s0,1024 # 40012400 <__freertos_irq_stack_top+0x2000a400>
    4c0c:	871fc0ef          	jal	ra,147c <ADC_DeInit>
    4c10:	4785                	li	a5,1
    4c12:	cc3e                	sw	a5,24(sp)
    4c14:	000e07b7          	lui	a5,0xe0
    4c18:	ce3e                	sw	a5,28(sp)
    4c1a:	080c                	addi	a1,sp,16
    4c1c:	4791                	li	a5,4
    4c1e:	40040513          	addi	a0,s0,1024
    4c22:	02f10223          	sb	a5,36(sp)
    4c26:	c802                	sw	zero,16(sp)
    4c28:	ca02                	sw	zero,20(sp)
    4c2a:	d002                	sw	zero,32(sp)
    4c2c:	897fc0ef          	jal	ra,14c2 <ADC_Init>
    4c30:	4585                	li	a1,1
    4c32:	40040513          	addi	a0,s0,1024
    4c36:	8f3fc0ef          	jal	ra,1528 <ADC_DMACmd>
    4c3a:	4585                	li	a1,1
    4c3c:	40040513          	addi	a0,s0,1024
    4c40:	8d9fc0ef          	jal	ra,1518 <ADC_Cmd>
    4c44:	4581                	li	a1,0
    4c46:	40040513          	addi	a0,s0,1024
    4c4a:	9e5fc0ef          	jal	ra,162e <ADC_BufferCmd>
    4c4e:	40040513          	addi	a0,s0,1024
    4c52:	8e9fc0ef          	jal	ra,153a <ADC_ResetCalibration>
    4c56:	40040493          	addi	s1,s0,1024
    4c5a:	8526                	mv	a0,s1
    4c5c:	8e9fc0ef          	jal	ra,1544 <ADC_GetResetCalibrationStatus>
    4c60:	fd6d                	bnez	a0,4c5a <ADC_Function_Init+0x9a>
    4c62:	40040513          	addi	a0,s0,1024
    4c66:	40012437          	lui	s0,0x40012
    4c6a:	8e3fc0ef          	jal	ra,154c <ADC_StartCalibration>
    4c6e:	40040493          	addi	s1,s0,1024 # 40012400 <__freertos_irq_stack_top+0x2000a400>
    4c72:	8526                	mv	a0,s1
    4c74:	8e3fc0ef          	jal	ra,1556 <ADC_GetCalibrationStatus>
    4c78:	fd6d                	bnez	a0,4c72 <ADC_Function_Init+0xb2>
    4c7a:	40040513          	addi	a0,s0,1024
    4c7e:	9c9fc0ef          	jal	ra,1646 <Get_CalibrationValue>
    4c82:	200007b7          	lui	a5,0x20000
    4c86:	10a79e23          	sh	a0,284(a5) # 2000011c <Calibrattion_Val>
    4c8a:	6145                	addi	sp,sp,48
    4c8c:	8affb06f          	j	53a <__riscv_restore_0>

00004c90 <DMA_Tx_Init>:
    4c90:	887fb2ef          	jal	t0,516 <__riscv_save_0>
    4c94:	7139                	addi	sp,sp,-64
    4c96:	842a                	mv	s0,a0
    4c98:	892e                	mv	s2,a1
    4c9a:	84b2                	mv	s1,a2
    4c9c:	4581                	li	a1,0
    4c9e:	02c00613          	li	a2,44
    4ca2:	0848                	addi	a0,sp,20
    4ca4:	c636                	sw	a3,12(sp)
    4ca6:	8a1fb0ef          	jal	ra,546 <memset>
    4caa:	4585                	li	a1,1
    4cac:	4505                	li	a0,1
    4cae:	9a6fd0ef          	jal	ra,1e54 <RCC_AHBPeriphClockCmd>
    4cb2:	8522                	mv	a0,s0
    4cb4:	ac3fc0ef          	jal	ra,1776 <DMA_DeInit>
    4cb8:	08000793          	li	a5,128
    4cbc:	d43e                	sw	a5,40(sp)
    4cbe:	10000793          	li	a5,256
    4cc2:	46b2                	lw	a3,12(sp)
    4cc4:	d63e                	sw	a5,44(sp)
    4cc6:	40000793          	li	a5,1024
    4cca:	d83e                	sw	a5,48(sp)
    4ccc:	02000793          	li	a5,32
    4cd0:	da3e                	sw	a5,52(sp)
    4cd2:	084c                	addi	a1,sp,20
    4cd4:	678d                	lui	a5,0x3
    4cd6:	8522                	mv	a0,s0
    4cd8:	ca4a                	sw	s2,20(sp)
    4cda:	cc26                	sw	s1,24(sp)
    4cdc:	d036                	sw	a3,32(sp)
    4cde:	dc3e                	sw	a5,56(sp)
    4ce0:	ce02                	sw	zero,28(sp)
    4ce2:	d202                	sw	zero,36(sp)
    4ce4:	de02                	sw	zero,60(sp)
    4ce6:	bfdfc0ef          	jal	ra,18e2 <DMA_Init>
    4cea:	6121                	addi	sp,sp,64
    4cec:	84ffb06f          	j	53a <__riscv_restore_0>

00004cf0 <BAT_ADC_Init>:
    4cf0:	827fb2ef          	jal	t0,516 <__riscv_save_0>
    4cf4:	ecdff0ef          	jal	ra,4bc0 <ADC_Function_Init>
    4cf8:	200007b7          	lui	a5,0x20000
    4cfc:	11c79583          	lh	a1,284(a5) # 2000011c <Calibrattion_Val>
    4d00:	0000c537          	lui	a0,0xc
    4d04:	4b050513          	addi	a0,a0,1200 # c4b0 <dmp_memory+0xc38>
    4d08:	140030ef          	jal	ra,7e48 <printf>
    4d0c:	40012437          	lui	s0,0x40012
    4d10:	400204b7          	lui	s1,0x40020
    4d14:	20000637          	lui	a2,0x20000
    4d18:	4685                	li	a3,1
    4d1a:	12060613          	addi	a2,a2,288 # 20000120 <TxBuf>
    4d1e:	44c40593          	addi	a1,s0,1100 # 4001244c <__freertos_irq_stack_top+0x2000a44c>
    4d22:	04448513          	addi	a0,s1,68 # 40020044 <__freertos_irq_stack_top+0x20018044>
    4d26:	f6bff0ef          	jal	ra,4c90 <DMA_Tx_Init>
    4d2a:	04448513          	addi	a0,s1,68
    4d2e:	4585                	li	a1,1
    4d30:	bebfc0ef          	jal	ra,191a <DMA_Cmd>
    4d34:	469d                	li	a3,7
    4d36:	4605                	li	a2,1
    4d38:	40040513          	addi	a0,s0,1024
    4d3c:	4591                	li	a1,4
    4d3e:	839fc0ef          	jal	ra,1576 <ADC_RegularChannelConfig>
    4d42:	4585                	li	a1,1
    4d44:	40040513          	addi	a0,s0,1024
    4d48:	817fc0ef          	jal	ra,155e <ADC_SoftwareStartConvCmd>
    4d4c:	feefb06f          	j	53a <__riscv_restore_0>

00004d50 <FilterSample>:
    4d50:	fc6fb2ef          	jal	t0,516 <__riscv_save_0>
    4d54:	455c                	lw	a5,12(a0)
    4d56:	84aa                	mv	s1,a0
    4d58:	892e                	mv	s2,a1
    4d5a:	00e51403          	lh	s0,14(a0)
    4d5e:	ef89                	bnez	a5,4d78 <FilterSample+0x28>
    4d60:	4108                	lw	a0,0(a0)
    4d62:	00000593          	li	a1,0
    4d66:	179050ef          	jal	ra,a6de <__eqsf2>
    4d6a:	e519                	bnez	a0,4d78 <FilterSample+0x28>
    4d6c:	040a                	slli	s0,s0,0x2
    4d6e:	9426                	add	s0,s0,s1
    4d70:	01242023          	sw	s2,0(s0)
    4d74:	fc6fb06f          	j	53a <__riscv_restore_0>
    4d78:	0405                	addi	s0,s0,1
    4d7a:	470d                	li	a4,3
    4d7c:	02e46433          	rem	s0,s0,a4
    4d80:	00c49683          	lh	a3,12(s1)
    4d84:	01041793          	slli	a5,s0,0x10
    4d88:	87c1                	srai	a5,a5,0x10
    4d8a:	040a                	slli	s0,s0,0x2
    4d8c:	a4fe                	sh	a5,14(s1)
    4d8e:	9426                	add	s0,s0,s1
    4d90:	01242023          	sw	s2,0(s0)
    4d94:	fed790e3          	bne	a5,a3,4d74 <FilterSample+0x24>
    4d98:	0785                	addi	a5,a5,1
    4d9a:	02e7e7b3          	rem	a5,a5,a4
    4d9e:	a4de                	sh	a5,12(s1)
    4da0:	bfd1                	j	4d74 <FilterSample+0x24>

00004da2 <FilterAverage>:
    4da2:	f74fb2ef          	jal	t0,516 <__riscv_save_0>
    4da6:	842a                	mv	s0,a0
    4da8:	4108                	lw	a0,0(a0)
    4daa:	00000593          	li	a1,0
    4dae:	314050ef          	jal	ra,a0c2 <__addsf3>
    4db2:	404c                	lw	a1,4(s0)
    4db4:	30e050ef          	jal	ra,a0c2 <__addsf3>
    4db8:	440c                	lw	a1,8(s0)
    4dba:	308050ef          	jal	ra,a0c2 <__addsf3>
    4dbe:	0000b7b7          	lui	a5,0xb
    4dc2:	65c7a583          	lw	a1,1628(a5) # b65c <memcpy+0x2bc>
    4dc6:	666050ef          	jal	ra,a42c <__divsf3>
    4dca:	f70fb06f          	j	53a <__riscv_restore_0>

00004dce <LED_Init>:
    4dce:	f48fb2ef          	jal	t0,516 <__riscv_save_0>
    4dd2:	1141                	addi	sp,sp,-16
    4dd4:	4585                	li	a1,1
    4dd6:	4511                	li	a0,4
    4dd8:	c202                	sw	zero,4(sp)
    4dda:	c402                	sw	zero,8(sp)
    4ddc:	c602                	sw	zero,12(sp)
    4dde:	894fd0ef          	jal	ra,1e72 <RCC_APB2PeriphClockCmd>
    4de2:	10000793          	li	a5,256
    4de6:	40011437          	lui	s0,0x40011
    4dea:	827c                	sh	a5,4(sp)
    4dec:	47c1                	li	a5,16
    4dee:	c63e                	sw	a5,12(sp)
    4df0:	004c                	addi	a1,sp,4
    4df2:	478d                	li	a5,3
    4df4:	80040513          	addi	a0,s0,-2048 # 40010800 <__freertos_irq_stack_top+0x20008800>
    4df8:	c43e                	sw	a5,8(sp)
    4dfa:	b35fc0ef          	jal	ra,192e <GPIO_Init>
    4dfe:	4605                	li	a2,1
    4e00:	10000593          	li	a1,256
    4e04:	80040513          	addi	a0,s0,-2048
    4e08:	bf5fc0ef          	jal	ra,19fc <GPIO_WriteBit>
    4e0c:	0141                	addi	sp,sp,16
    4e0e:	f2cfb06f          	j	53a <__riscv_restore_0>

00004e12 <TIM9_PWMOut_Init>:
    4e12:	f04fb2ef          	jal	t0,516 <__riscv_save_0>
    4e16:	84aa                	mv	s1,a0
    4e18:	00080537          	lui	a0,0x80
    4e1c:	7139                	addi	sp,sp,-64
    4e1e:	842e                	mv	s0,a1
    4e20:	02150513          	addi	a0,a0,33 # 80021 <_data_lma+0x73781>
    4e24:	4585                	li	a1,1
    4e26:	c632                	sw	a2,12(sp)
    4e28:	d202                	sw	zero,36(sp)
    4e2a:	d402                	sw	zero,40(sp)
    4e2c:	d602                	sw	zero,44(sp)
    4e2e:	d802                	sw	zero,48(sp)
    4e30:	da02                	sw	zero,52(sp)
    4e32:	dc02                	sw	zero,56(sp)
    4e34:	de02                	sw	zero,60(sp)
    4e36:	cc02                	sw	zero,24(sp)
    4e38:	ce02                	sw	zero,28(sp)
    4e3a:	02011023          	sh	zero,32(sp)
    4e3e:	834fd0ef          	jal	ra,1e72 <RCC_APB2PeriphClockCmd>
    4e42:	80130537          	lui	a0,0x80130
    4e46:	4585                	li	a1,1
    4e48:	0541                	addi	a0,a0,16
    4e4a:	bbdfc0ef          	jal	ra,1a06 <GPIO_PinRemapConfig>
    4e4e:	77ed                	lui	a5,0xffffb
    4e50:	a0078793          	addi	a5,a5,-1536 # ffffaa00 <__freertos_irq_stack_top+0xdfff2a00>
    4e54:	02f11223          	sh	a5,36(sp)
    4e58:	40011537          	lui	a0,0x40011
    4e5c:	47e1                	li	a5,24
    4e5e:	d63e                	sw	a5,44(sp)
    4e60:	104c                	addi	a1,sp,36
    4e62:	478d                	li	a5,3
    4e64:	40050513          	addi	a0,a0,1024 # 40011400 <__freertos_irq_stack_top+0x20009400>
    4e68:	d43e                	sw	a5,40(sp)
    4e6a:	ac5fc0ef          	jal	ra,192e <GPIO_Init>
    4e6e:	84e0                	sh	s0,24(sp)
    4e70:	40015437          	lui	s0,0x40015
    4e74:	082c                	addi	a1,sp,24
    4e76:	c0040513          	addi	a0,s0,-1024 # 40014c00 <__freertos_irq_stack_top+0x2000cc00>
    4e7a:	86e4                	sh	s1,28(sp)
    4e7c:	00011f23          	sh	zero,30(sp)
    4e80:	00011d23          	sh	zero,26(sp)
    4e84:	848fd0ef          	jal	ra,1ecc <TIM_TimeBaseInit>
    4e88:	4632                	lw	a2,12(sp)
    4e8a:	67c1                	lui	a5,0x10
    4e8c:	06078793          	addi	a5,a5,96 # 10060 <_data_lma+0x37c0>
    4e90:	180c                	addi	a1,sp,48
    4e92:	c0040513          	addi	a0,s0,-1024
    4e96:	d83e                	sw	a5,48(sp)
    4e98:	02c11b23          	sh	a2,54(sp)
    4e9c:	02011c23          	sh	zero,56(sp)
    4ea0:	8d6fd0ef          	jal	ra,1f76 <TIM_OC1Init>
    4ea4:	180c                	addi	a1,sp,48
    4ea6:	c0040513          	addi	a0,s0,-1024
    4eaa:	94efd0ef          	jal	ra,1ff8 <TIM_OC2Init>
    4eae:	180c                	addi	a1,sp,48
    4eb0:	c0040513          	addi	a0,s0,-1024
    4eb4:	9f2fd0ef          	jal	ra,20a6 <TIM_OC3Init>
    4eb8:	180c                	addi	a1,sp,48
    4eba:	c0040513          	addi	a0,s0,-1024
    4ebe:	a94fd0ef          	jal	ra,2152 <TIM_OC4Init>
    4ec2:	c0040513          	addi	a0,s0,-1024
    4ec6:	4585                	li	a1,1
    4ec8:	b2afd0ef          	jal	ra,21f2 <TIM_CtrlPWMOutputs>
    4ecc:	c0040513          	addi	a0,s0,-1024
    4ed0:	4581                	li	a1,0
    4ed2:	b50fd0ef          	jal	ra,2222 <TIM_OC1PreloadConfig>
    4ed6:	c0040513          	addi	a0,s0,-1024
    4eda:	4581                	li	a1,0
    4edc:	b54fd0ef          	jal	ra,2230 <TIM_OC2PreloadConfig>
    4ee0:	c0040513          	addi	a0,s0,-1024
    4ee4:	4581                	li	a1,0
    4ee6:	b60fd0ef          	jal	ra,2246 <TIM_OC3PreloadConfig>
    4eea:	c0040513          	addi	a0,s0,-1024
    4eee:	4581                	li	a1,0
    4ef0:	b64fd0ef          	jal	ra,2254 <TIM_OC4PreloadConfig>
    4ef4:	c0040513          	addi	a0,s0,-1024
    4ef8:	4585                	li	a1,1
    4efa:	b0efd0ef          	jal	ra,2208 <TIM_ARRPreloadConfig>
    4efe:	4585                	li	a1,1
    4f00:	c0040513          	addi	a0,s0,-1024
    4f04:	ad6fd0ef          	jal	ra,21da <TIM_Cmd>
    4f08:	6121                	addi	sp,sp,64
    4f0a:	e30fb06f          	j	53a <__riscv_restore_0>

00004f0e <PWM_Init>:
    4f0e:	e08fb2ef          	jal	t0,516 <__riscv_save_0>
    4f12:	6509                	lui	a0,0x2
    4f14:	3e800613          	li	a2,1000
    4f18:	03100593          	li	a1,49
    4f1c:	c2050513          	addi	a0,a0,-992 # 1c20 <I2C_AcknowledgeConfig+0x18>
    4f20:	ef3ff0ef          	jal	ra,4e12 <TIM9_PWMOut_Init>
    4f24:	40015437          	lui	s0,0x40015
    4f28:	c0040513          	addi	a0,s0,-1024 # 40014c00 <__freertos_irq_stack_top+0x2000cc00>
    4f2c:	5a000593          	li	a1,1440
    4f30:	b3afd0ef          	jal	ra,226a <TIM_SetCompare1>
    4f34:	c0040513          	addi	a0,s0,-1024
    4f38:	5a000593          	li	a1,1440
    4f3c:	b32fd0ef          	jal	ra,226e <TIM_SetCompare2>
    4f40:	c0040513          	addi	a0,s0,-1024
    4f44:	5a000593          	li	a1,1440
    4f48:	b2afd0ef          	jal	ra,2272 <TIM_SetCompare3>
    4f4c:	5a000593          	li	a1,1440
    4f50:	c0040513          	addi	a0,s0,-1024
    4f54:	b22fd0ef          	jal	ra,2276 <TIM_SetCompare4>
    4f58:	de2fb06f          	j	53a <__riscv_restore_0>

00004f5c <Motor_ctr>:
    4f5c:	5a000793          	li	a5,1440
    4f60:	00a7fb63          	bgeu	a5,a0,4f76 <Motor_ctr+0x1a>
    4f64:	6785                	lui	a5,0x1
    4f66:	b3f78713          	addi	a4,a5,-1217 # b3f <ELRS_Convert_flight_mode+0xd>
    4f6a:	06a76363          	bltu	a4,a0,4fd0 <Motor_ctr+0x74>
    4f6e:	67200793          	li	a5,1650
    4f72:	00a7e463          	bltu	a5,a0,4f7a <Motor_ctr+0x1e>
    4f76:	5a000513          	li	a0,1440
    4f7a:	200007b7          	lui	a5,0x20000
    4f7e:	22078713          	addi	a4,a5,544 # 20000220 <control>
    4f82:	2358                	lbu	a4,4(a4)
    4f84:	22078793          	addi	a5,a5,544
    4f88:	eb19                	bnez	a4,4f9e <Motor_ctr+0x42>
    4f8a:	67200693          	li	a3,1650
    4f8e:	872a                	mv	a4,a0
    4f90:	00d57463          	bgeu	a0,a3,4f98 <Motor_ctr+0x3c>
    4f94:	67200713          	li	a4,1650
    4f98:	01071513          	slli	a0,a4,0x10
    4f9c:	8141                	srli	a0,a0,0x10
    4f9e:	2047a783          	lw	a5,516(a5)
    4fa2:	4709                	li	a4,2
    4fa4:	15fd                	addi	a1,a1,-1
    4fa6:	06e78e63          	beq	a5,a4,5022 <Motor_ctr+0xc6>
    4faa:	d6cfb2ef          	jal	t0,516 <__riscv_save_0>
    4fae:	00259793          	slli	a5,a1,0x2
    4fb2:	200005b7          	lui	a1,0x20000
    4fb6:	05858593          	addi	a1,a1,88 # 20000058 <Motor_pos>
    4fba:	95be                	add	a1,a1,a5
    4fbc:	419c                	lw	a5,0(a1)
    4fbe:	04e78263          	beq	a5,a4,5002 <Motor_ctr+0xa6>
    4fc2:	00f74a63          	blt	a4,a5,4fd6 <Motor_ctr+0x7a>
    4fc6:	4705                	li	a4,1
    4fc8:	02e78563          	beq	a5,a4,4ff2 <Motor_ctr+0x96>
    4fcc:	d6efb06f          	j	53a <__riscv_restore_0>
    4fd0:	b4078513          	addi	a0,a5,-1216
    4fd4:	b75d                	j	4f7a <Motor_ctr+0x1e>
    4fd6:	470d                	li	a4,3
    4fd8:	02e78d63          	beq	a5,a4,5012 <Motor_ctr+0xb6>
    4fdc:	4711                	li	a4,4
    4fde:	fee797e3          	bne	a5,a4,4fcc <Motor_ctr+0x70>
    4fe2:	85aa                	mv	a1,a0
    4fe4:	40015537          	lui	a0,0x40015
    4fe8:	c0050513          	addi	a0,a0,-1024 # 40014c00 <__freertos_irq_stack_top+0x2000cc00>
    4fec:	a8afd0ef          	jal	ra,2276 <TIM_SetCompare4>
    4ff0:	bff1                	j	4fcc <Motor_ctr+0x70>
    4ff2:	85aa                	mv	a1,a0
    4ff4:	40015537          	lui	a0,0x40015
    4ff8:	c0050513          	addi	a0,a0,-1024 # 40014c00 <__freertos_irq_stack_top+0x2000cc00>
    4ffc:	a6efd0ef          	jal	ra,226a <TIM_SetCompare1>
    5000:	b7f1                	j	4fcc <Motor_ctr+0x70>
    5002:	85aa                	mv	a1,a0
    5004:	40015537          	lui	a0,0x40015
    5008:	c0050513          	addi	a0,a0,-1024 # 40014c00 <__freertos_irq_stack_top+0x2000cc00>
    500c:	a62fd0ef          	jal	ra,226e <TIM_SetCompare2>
    5010:	bf75                	j	4fcc <Motor_ctr+0x70>
    5012:	85aa                	mv	a1,a0
    5014:	40015537          	lui	a0,0x40015
    5018:	c0050513          	addi	a0,a0,-1024 # 40014c00 <__freertos_irq_stack_top+0x2000cc00>
    501c:	a56fd0ef          	jal	ra,2272 <TIM_SetCompare3>
    5020:	b775                	j	4fcc <Motor_ctr+0x70>
    5022:	8082                	ret

00005024 <Motor_ctr_SOFT_START>:
    5024:	cf2fb2ef          	jal	t0,516 <__riscv_save_0>
    5028:	6685                	lui	a3,0x1
    502a:	b4068693          	addi	a3,a3,-1216 # b40 <ELRS_Convert_flight_mode+0xe>
    502e:	872e                	mv	a4,a1
    5030:	87b6                	mv	a5,a3
    5032:	00a6e363          	bltu	a3,a0,5038 <Motor_ctr_SOFT_START+0x14>
    5036:	87aa                	mv	a5,a0
    5038:	01079613          	slli	a2,a5,0x10
    503c:	8241                	srli	a2,a2,0x10
    503e:	5a000693          	li	a3,1440
    5042:	00d67463          	bgeu	a2,a3,504a <Motor_ctr_SOFT_START+0x26>
    5046:	5a000793          	li	a5,1440
    504a:	01079593          	slli	a1,a5,0x10
    504e:	177d                	addi	a4,a4,-1
    5050:	200007b7          	lui	a5,0x20000
    5054:	070a                	slli	a4,a4,0x2
    5056:	05878793          	addi	a5,a5,88 # 20000058 <Motor_pos>
    505a:	97ba                	add	a5,a5,a4
    505c:	439c                	lw	a5,0(a5)
    505e:	4709                	li	a4,2
    5060:	81c1                	srli	a1,a1,0x10
    5062:	02e78d63          	beq	a5,a4,509c <Motor_ctr_SOFT_START+0x78>
    5066:	00f74763          	blt	a4,a5,5074 <Motor_ctr_SOFT_START+0x50>
    506a:	4705                	li	a4,1
    506c:	02e78163          	beq	a5,a4,508e <Motor_ctr_SOFT_START+0x6a>
    5070:	ccafb06f          	j	53a <__riscv_restore_0>
    5074:	470d                	li	a4,3
    5076:	02e78a63          	beq	a5,a4,50aa <Motor_ctr_SOFT_START+0x86>
    507a:	4711                	li	a4,4
    507c:	fee79ae3          	bne	a5,a4,5070 <Motor_ctr_SOFT_START+0x4c>
    5080:	40015537          	lui	a0,0x40015
    5084:	c0050513          	addi	a0,a0,-1024 # 40014c00 <__freertos_irq_stack_top+0x2000cc00>
    5088:	9eefd0ef          	jal	ra,2276 <TIM_SetCompare4>
    508c:	b7d5                	j	5070 <Motor_ctr_SOFT_START+0x4c>
    508e:	40015537          	lui	a0,0x40015
    5092:	c0050513          	addi	a0,a0,-1024 # 40014c00 <__freertos_irq_stack_top+0x2000cc00>
    5096:	9d4fd0ef          	jal	ra,226a <TIM_SetCompare1>
    509a:	bfd9                	j	5070 <Motor_ctr_SOFT_START+0x4c>
    509c:	40015537          	lui	a0,0x40015
    50a0:	c0050513          	addi	a0,a0,-1024 # 40014c00 <__freertos_irq_stack_top+0x2000cc00>
    50a4:	9cafd0ef          	jal	ra,226e <TIM_SetCompare2>
    50a8:	b7e1                	j	5070 <Motor_ctr_SOFT_START+0x4c>
    50aa:	40015537          	lui	a0,0x40015
    50ae:	c0050513          	addi	a0,a0,-1024 # 40014c00 <__freertos_irq_stack_top+0x2000cc00>
    50b2:	9c0fd0ef          	jal	ra,2272 <TIM_SetCompare3>
    50b6:	bf6d                	j	5070 <Motor_ctr_SOFT_START+0x4c>

000050b8 <TIM3_IRQHandler>:
    50b8:	40000537          	lui	a0,0x40000
    50bc:	4585                	li	a1,1
    50be:	40050513          	addi	a0,a0,1024 # 40000400 <__freertos_irq_stack_top+0x1fff8400>
    50c2:	9ccfd0ef          	jal	ra,228e <TIM_ClearFlag>
    50c6:	30200073          	mret

000050ca <TIM4_IRQHandler>:
    50ca:	40001537          	lui	a0,0x40001
    50ce:	4585                	li	a1,1
    50d0:	80050513          	addi	a0,a0,-2048 # 40000800 <__freertos_irq_stack_top+0x1fff8800>
    50d4:	9bafd0ef          	jal	ra,228e <TIM_ClearFlag>
    50d8:	30200073          	mret

000050dc <USARTx_CFG>:
    50dc:	c3afb2ef          	jal	t0,516 <__riscv_save_0>
    50e0:	7179                	addi	sp,sp,-48
    50e2:	4585                	li	a1,1
    50e4:	00020537          	lui	a0,0x20
    50e8:	ca02                	sw	zero,20(sp)
    50ea:	cc02                	sw	zero,24(sp)
    50ec:	ce02                	sw	zero,28(sp)
    50ee:	d002                	sw	zero,32(sp)
    50f0:	d202                	sw	zero,36(sp)
    50f2:	d402                	sw	zero,40(sp)
    50f4:	d602                	sw	zero,44(sp)
    50f6:	c602                	sw	zero,12(sp)
    50f8:	c802                	sw	zero,16(sp)
    50fa:	d97fc0ef          	jal	ra,1e90 <RCC_APB1PeriphClockCmd>
    50fe:	4585                	li	a1,1
    5100:	4511                	li	a0,4
    5102:	d71fc0ef          	jal	ra,1e72 <RCC_APB2PeriphClockCmd>
    5106:	4791                	li	a5,4
    5108:	82fc                	sh	a5,20(sp)
    510a:	40011437          	lui	s0,0x40011
    510e:	478d                	li	a5,3
    5110:	cc3e                	sw	a5,24(sp)
    5112:	084c                	addi	a1,sp,20
    5114:	47e1                	li	a5,24
    5116:	80040513          	addi	a0,s0,-2048 # 40010800 <__freertos_irq_stack_top+0x20008800>
    511a:	ce3e                	sw	a5,28(sp)
    511c:	813fc0ef          	jal	ra,192e <GPIO_Init>
    5120:	47a1                	li	a5,8
    5122:	084c                	addi	a1,sp,20
    5124:	82fc                	sh	a5,20(sp)
    5126:	80040513          	addi	a0,s0,-2048
    512a:	4791                	li	a5,4
    512c:	ce3e                	sw	a5,28(sp)
    512e:	801fc0ef          	jal	ra,192e <GPIO_Init>
    5132:	000677b7          	lui	a5,0x67
    5136:	8a078793          	addi	a5,a5,-1888 # 668a0 <_data_lma+0x5a000>
    513a:	d03e                	sw	a5,32(sp)
    513c:	000c07b7          	lui	a5,0xc0
    5140:	d43e                	sw	a5,40(sp)
    5142:	03600793          	li	a5,54
    5146:	867c                	sh	a5,12(sp)
    5148:	0068                	addi	a0,sp,12
    514a:	4785                	li	a5,1
    514c:	c83e                	sw	a5,16(sp)
    514e:	40004437          	lui	s0,0x40004
    5152:	d202                	sw	zero,36(sp)
    5154:	02011623          	sh	zero,44(sp)
    5158:	00010723          	sb	zero,14(sp)
    515c:	b37fc0ef          	jal	ra,1c92 <NVIC_Init>
    5160:	40040513          	addi	a0,s0,1024 # 40004400 <__freertos_irq_stack_top+0x1fffc400>
    5164:	4585                	li	a1,1
    5166:	9f0fd0ef          	jal	ra,2356 <USART_Cmd>
    516a:	100c                	addi	a1,sp,32
    516c:	40040513          	addi	a0,s0,1024
    5170:	92afd0ef          	jal	ra,229a <USART_Init>
    5174:	4605                	li	a2,1
    5176:	52500593          	li	a1,1317
    517a:	40040513          	addi	a0,s0,1024
    517e:	9eefd0ef          	jal	ra,236c <USART_ITConfig>
    5182:	6145                	addi	sp,sp,48
    5184:	bb6fb06f          	j	53a <__riscv_restore_0>

00005188 <UART_RxCpltCallback>:
    5188:	b8efb2ef          	jal	t0,516 <__riscv_save_0>
    518c:	842a                	mv	s0,a0
    518e:	a1cfd0ef          	jal	ra,23aa <USART_ReceiveData>
    5192:	200006b7          	lui	a3,0x20000
    5196:	1226c703          	lbu	a4,290(a3) # 20000122 <RxBuf_Index>
    519a:	cc418613          	addi	a2,gp,-828 # 2000059c <RxBuf>
    519e:	00170793          	addi	a5,a4,1
    51a2:	0ff7f793          	andi	a5,a5,255
    51a6:	9732                	add	a4,a4,a2
    51a8:	a308                	sb	a0,0(a4)
    51aa:	12f68123          	sb	a5,290(a3)
    51ae:	04000713          	li	a4,64
    51b2:	00e79463          	bne	a5,a4,51ba <UART_RxCpltCallback+0x32>
    51b6:	12068123          	sb	zero,290(a3)
    51ba:	200007b7          	lui	a5,0x20000
    51be:	0d87a703          	lw	a4,216(a5) # 200000d8 <IMU_IO_STATUS>
    51c2:	4785                	li	a5,1
    51c4:	00f71363          	bne	a4,a5,51ca <UART_RxCpltCallback+0x42>
    51c8:	2499                	jal	540e <HandleByteReceived>
    51ca:	52500593          	li	a1,1317
    51ce:	8522                	mv	a0,s0
    51d0:	9ecfd0ef          	jal	ra,23bc <USART_ClearFlag>
    51d4:	b66fb06f          	j	53a <__riscv_restore_0>

000051d8 <USART2_IRQHandler>:
    51d8:	1141                	addi	sp,sp,-16
    51da:	c622                	sw	s0,12(sp)
    51dc:	40004437          	lui	s0,0x40004
    51e0:	52500593          	li	a1,1317
    51e4:	40040513          	addi	a0,s0,1024 # 40004400 <__freertos_irq_stack_top+0x1fffc400>
    51e8:	9e0fd0ef          	jal	ra,23c8 <USART_GetITStatus>
    51ec:	cd01                	beqz	a0,5204 <USART2_IRQHandler+0x2c>
    51ee:	02000593          	li	a1,32
    51f2:	40040513          	addi	a0,s0,1024
    51f6:	9bcfd0ef          	jal	ra,23b2 <USART_GetFlagStatus>
    51fa:	c509                	beqz	a0,5204 <USART2_IRQHandler+0x2c>
    51fc:	40040513          	addi	a0,s0,1024
    5200:	f89ff0ef          	jal	ra,5188 <UART_RxCpltCallback>
    5204:	4432                	lw	s0,12(sp)
    5206:	0141                	addi	sp,sp,16
    5208:	30200073          	mret

0000520c <Crc_init>:
    520c:	4701                	li	a4,0
    520e:	b7818693          	addi	a3,gp,-1160 # 20000450 <_lut>
    5212:	10000813          	li	a6,256
    5216:	0ff77793          	andi	a5,a4,255
    521a:	4621                	li	a2,8
    521c:	00179593          	slli	a1,a5,0x1
    5220:	07e2                	slli	a5,a5,0x18
    5222:	87e1                	srai	a5,a5,0x18
    5224:	87fd                	srai	a5,a5,0x1f
    5226:	8fe9                	and	a5,a5,a0
    5228:	0fe5f593          	andi	a1,a1,254
    522c:	167d                	addi	a2,a2,-1
    522e:	8fad                	xor	a5,a5,a1
    5230:	f675                	bnez	a2,521c <Crc_init+0x10>
    5232:	00e68633          	add	a2,a3,a4
    5236:	a21c                	sb	a5,0(a2)
    5238:	0705                	addi	a4,a4,1
    523a:	fd071ee3          	bne	a4,a6,5216 <Crc_init+0xa>
    523e:	8082                	ret

00005240 <Calc>:
    5240:	95aa                	add	a1,a1,a0
    5242:	4781                	li	a5,0
    5244:	b7818713          	addi	a4,gp,-1160 # 20000450 <_lut>
    5248:	00b51463          	bne	a0,a1,5250 <Calc+0x10>
    524c:	853e                	mv	a0,a5
    524e:	8082                	ret
    5250:	0505                	addi	a0,a0,1
    5252:	fff54683          	lbu	a3,-1(a0) # 1ffff <_data_lma+0x1375f>
    5256:	8fb5                	xor	a5,a5,a3
    5258:	97ba                	add	a5,a5,a4
    525a:	239c                	lbu	a5,0(a5)
    525c:	b7f5                	j	5248 <Calc+0x8>

0000525e <ShiftRxBuffer>:
    525e:	20000737          	lui	a4,0x20000
    5262:	12270713          	addi	a4,a4,290 # 20000122 <RxBuf_Index>
    5266:	231c                	lbu	a5,0(a4)
    5268:	00f56563          	bltu	a0,a5,5272 <ShiftRxBuffer+0x14>
    526c:	00070023          	sb	zero,0(a4)
    5270:	8082                	ret
    5272:	8f89                	sub	a5,a5,a0
    5274:	0ff7f793          	andi	a5,a5,255
    5278:	a31c                	sb	a5,0(a4)
    527a:	cc418693          	addi	a3,gp,-828 # 2000059c <RxBuf>
    527e:	4701                	li	a4,0
    5280:	00a70633          	add	a2,a4,a0
    5284:	9636                	add	a2,a2,a3
    5286:	220c                	lbu	a1,0(a2)
    5288:	00e68633          	add	a2,a3,a4
    528c:	0705                	addi	a4,a4,1
    528e:	a20c                	sb	a1,0(a2)
    5290:	fef718e3          	bne	a4,a5,5280 <ShiftRxBuffer+0x22>
    5294:	8082                	ret

00005296 <PacketChannelsPacked>:
    5296:	2158                	lbu	a4,4(a0)
    5298:	3134                	lbu	a3,3(a0)
    529a:	8b1d                	andi	a4,a4,7
    529c:	0722                	slli	a4,a4,0x8
    529e:	c7818793          	addi	a5,gp,-904 # 20000550 <CrsfChannels>
    52a2:	8f55                	or	a4,a4,a3
    52a4:	c398                	sw	a4,0(a5)
    52a6:	2158                	lbu	a4,4(a0)
    52a8:	00375693          	srli	a3,a4,0x3
    52ac:	3158                	lbu	a4,5(a0)
    52ae:	03f77713          	andi	a4,a4,63
    52b2:	0716                	slli	a4,a4,0x5
    52b4:	8f55                	or	a4,a4,a3
    52b6:	c3d8                	sw	a4,4(a5)
    52b8:	3154                	lbu	a3,5(a0)
    52ba:	2178                	lbu	a4,6(a0)
    52bc:	8299                	srli	a3,a3,0x6
    52be:	070a                	slli	a4,a4,0x2
    52c0:	8ed9                	or	a3,a3,a4
    52c2:	3178                	lbu	a4,7(a0)
    52c4:	8b05                	andi	a4,a4,1
    52c6:	072a                	slli	a4,a4,0xa
    52c8:	8f55                	or	a4,a4,a3
    52ca:	c798                	sw	a4,8(a5)
    52cc:	3178                	lbu	a4,7(a0)
    52ce:	00175693          	srli	a3,a4,0x1
    52d2:	2518                	lbu	a4,8(a0)
    52d4:	8b3d                	andi	a4,a4,15
    52d6:	071e                	slli	a4,a4,0x7
    52d8:	8f55                	or	a4,a4,a3
    52da:	c7d8                	sw	a4,12(a5)
    52dc:	2518                	lbu	a4,8(a0)
    52de:	00475693          	srli	a3,a4,0x4
    52e2:	3518                	lbu	a4,9(a0)
    52e4:	07f77713          	andi	a4,a4,127
    52e8:	0712                	slli	a4,a4,0x4
    52ea:	8f55                	or	a4,a4,a3
    52ec:	cb98                	sw	a4,16(a5)
    52ee:	3514                	lbu	a3,9(a0)
    52f0:	2538                	lbu	a4,10(a0)
    52f2:	829d                	srli	a3,a3,0x7
    52f4:	0706                	slli	a4,a4,0x1
    52f6:	8ed9                	or	a3,a3,a4
    52f8:	3538                	lbu	a4,11(a0)
    52fa:	8b0d                	andi	a4,a4,3
    52fc:	0726                	slli	a4,a4,0x9
    52fe:	8f55                	or	a4,a4,a3
    5300:	cbd8                	sw	a4,20(a5)
    5302:	3538                	lbu	a4,11(a0)
    5304:	00275693          	srli	a3,a4,0x2
    5308:	2558                	lbu	a4,12(a0)
    530a:	8b7d                	andi	a4,a4,31
    530c:	071a                	slli	a4,a4,0x6
    530e:	8f55                	or	a4,a4,a3
    5310:	cf98                	sw	a4,24(a5)
    5312:	2558                	lbu	a4,12(a0)
    5314:	00575693          	srli	a3,a4,0x5
    5318:	3558                	lbu	a4,13(a0)
    531a:	070e                	slli	a4,a4,0x3
    531c:	8f55                	or	a4,a4,a3
    531e:	cfd8                	sw	a4,28(a5)
    5320:	3578                	lbu	a4,15(a0)
    5322:	2574                	lbu	a3,14(a0)
    5324:	8b1d                	andi	a4,a4,7
    5326:	0722                	slli	a4,a4,0x8
    5328:	8f55                	or	a4,a4,a3
    532a:	d398                	sw	a4,32(a5)
    532c:	3578                	lbu	a4,15(a0)
    532e:	00375693          	srli	a3,a4,0x3
    5332:	2918                	lbu	a4,16(a0)
    5334:	03f77713          	andi	a4,a4,63
    5338:	0716                	slli	a4,a4,0x5
    533a:	8f55                	or	a4,a4,a3
    533c:	d3d8                	sw	a4,36(a5)
    533e:	2914                	lbu	a3,16(a0)
    5340:	3918                	lbu	a4,17(a0)
    5342:	8299                	srli	a3,a3,0x6
    5344:	070a                	slli	a4,a4,0x2
    5346:	8ed9                	or	a3,a3,a4
    5348:	2938                	lbu	a4,18(a0)
    534a:	8b05                	andi	a4,a4,1
    534c:	072a                	slli	a4,a4,0xa
    534e:	8f55                	or	a4,a4,a3
    5350:	d798                	sw	a4,40(a5)
    5352:	2938                	lbu	a4,18(a0)
    5354:	00175693          	srli	a3,a4,0x1
    5358:	3938                	lbu	a4,19(a0)
    535a:	8b3d                	andi	a4,a4,15
    535c:	071e                	slli	a4,a4,0x7
    535e:	8f55                	or	a4,a4,a3
    5360:	d7d8                	sw	a4,44(a5)
    5362:	3938                	lbu	a4,19(a0)
    5364:	00475693          	srli	a3,a4,0x4
    5368:	2958                	lbu	a4,20(a0)
    536a:	07f77713          	andi	a4,a4,127
    536e:	0712                	slli	a4,a4,0x4
    5370:	8f55                	or	a4,a4,a3
    5372:	db98                	sw	a4,48(a5)
    5374:	2954                	lbu	a3,20(a0)
    5376:	3958                	lbu	a4,21(a0)
    5378:	829d                	srli	a3,a3,0x7
    537a:	0706                	slli	a4,a4,0x1
    537c:	8ed9                	or	a3,a3,a4
    537e:	2978                	lbu	a4,22(a0)
    5380:	8b0d                	andi	a4,a4,3
    5382:	0726                	slli	a4,a4,0x9
    5384:	8f55                	or	a4,a4,a3
    5386:	dbd8                	sw	a4,52(a5)
    5388:	2978                	lbu	a4,22(a0)
    538a:	00275693          	srli	a3,a4,0x2
    538e:	3978                	lbu	a4,23(a0)
    5390:	8b7d                	andi	a4,a4,31
    5392:	071a                	slli	a4,a4,0x6
    5394:	8f55                	or	a4,a4,a3
    5396:	df98                	sw	a4,56(a5)
    5398:	3978                	lbu	a4,23(a0)
    539a:	00575693          	srli	a3,a4,0x5
    539e:	2d18                	lbu	a4,24(a0)
    53a0:	070e                	slli	a4,a4,0x3
    53a2:	8f55                	or	a4,a4,a3
    53a4:	dfd8                	sw	a4,60(a5)
    53a6:	8082                	ret

000053a8 <PacketLinkStatistics>:
    53a8:	96efb2ef          	jal	t0,516 <__riscv_save_0>
    53ac:	2158                	lbu	a4,4(a0)
    53ae:	313c                	lbu	a5,3(a0)
    53b0:	1141                	addi	sp,sp,-16
    53b2:	0722                	slli	a4,a4,0x8
    53b4:	8f5d                	or	a4,a4,a5
    53b6:	315c                	lbu	a5,5(a0)
    53b8:	006c                	addi	a1,sp,12
    53ba:	4629                	li	a2,10
    53bc:	07c2                	slli	a5,a5,0x10
    53be:	8f5d                	or	a4,a4,a5
    53c0:	217c                	lbu	a5,6(a0)
    53c2:	cb818513          	addi	a0,gp,-840 # 20000590 <LinkStatistics>
    53c6:	07e2                	slli	a5,a5,0x18
    53c8:	8fd9                	or	a5,a5,a4
    53ca:	c63e                	sw	a5,12(sp)
    53cc:	7d5050ef          	jal	ra,b3a0 <memcpy>
    53d0:	0141                	addi	sp,sp,16
    53d2:	968fb06f          	j	53a <__riscv_restore_0>

000053d6 <ProcessPacketIn>:
    53d6:	cc418793          	addi	a5,gp,-828 # 2000059c <RxBuf>
    53da:	2394                	lbu	a3,0(a5)
    53dc:	0c800713          	li	a4,200
    53e0:	02e69663          	bne	a3,a4,540c <ProcessPacketIn+0x36>
    53e4:	932fb2ef          	jal	t0,516 <__riscv_save_0>
    53e8:	23bc                	lbu	a5,2(a5)
    53ea:	4751                	li	a4,20
    53ec:	00e78b63          	beq	a5,a4,5402 <ProcessPacketIn+0x2c>
    53f0:	4759                	li	a4,22
    53f2:	00e79663          	bne	a5,a4,53fe <ProcessPacketIn+0x28>
    53f6:	cc418513          	addi	a0,gp,-828 # 2000059c <RxBuf>
    53fa:	e9dff0ef          	jal	ra,5296 <PacketChannelsPacked>
    53fe:	93cfb06f          	j	53a <__riscv_restore_0>
    5402:	cc418513          	addi	a0,gp,-828 # 2000059c <RxBuf>
    5406:	fa3ff0ef          	jal	ra,53a8 <PacketLinkStatistics>
    540a:	bfd5                	j	53fe <ProcessPacketIn+0x28>
    540c:	8082                	ret

0000540e <HandleByteReceived>:
    540e:	8eefb2ef          	jal	t0,4fc <__riscv_save_4>
    5412:	cc418493          	addi	s1,gp,-828 # 2000059c <RxBuf>
    5416:	20000937          	lui	s2,0x20000
    541a:	4985                	li	s3,1
    541c:	03b00a13          	li	s4,59
    5420:	00248a93          	addi	s5,s1,2
    5424:	12294703          	lbu	a4,290(s2) # 20000122 <RxBuf_Index>
    5428:	04e9f463          	bgeu	s3,a4,5470 <HandleByteReceived+0x62>
    542c:	3080                	lbu	s0,1(s1)
    542e:	ffd40793          	addi	a5,s0,-3
    5432:	0ff7f793          	andi	a5,a5,255
    5436:	00fa7663          	bgeu	s4,a5,5442 <HandleByteReceived+0x34>
    543a:	4505                	li	a0,1
    543c:	e23ff0ef          	jal	ra,525e <ShiftRxBuffer>
    5440:	b7d5                	j	5424 <HandleByteReceived+0x16>
    5442:	00140793          	addi	a5,s0,1
    5446:	02e7d563          	bge	a5,a4,5470 <HandleByteReceived+0x62>
    544a:	97a6                	add	a5,a5,s1
    544c:	0007cb03          	lbu	s6,0(a5)
    5450:	fff40593          	addi	a1,s0,-1
    5454:	0ff5f593          	andi	a1,a1,255
    5458:	8556                	mv	a0,s5
    545a:	de7ff0ef          	jal	ra,5240 <Calc>
    545e:	fcab1ee3          	bne	s6,a0,543a <HandleByteReceived+0x2c>
    5462:	f75ff0ef          	jal	ra,53d6 <ProcessPacketIn>
    5466:	00240513          	addi	a0,s0,2
    546a:	0ff57513          	andi	a0,a0,255
    546e:	b7f9                	j	543c <HandleByteReceived+0x2e>
    5470:	8c0fb06f          	j	530 <__riscv_restore_4>

00005474 <pid_reset>:
    5474:	00000793          	li	a5,0
    5478:	c11c                	sw	a5,0(a0)
    547a:	c15c                	sw	a5,4(a0)
    547c:	c51c                	sw	a5,8(a0)
    547e:	c55c                	sw	a5,12(a0)
    5480:	c91c                	sw	a5,16(a0)
    5482:	cd1c                	sw	a5,24(a0)
    5484:	c95c                	sw	a5,20(a0)
    5486:	d15c                	sw	a5,36(a0)
    5488:	d51c                	sw	a5,40(a0)
    548a:	d55c                	sw	a5,44(a0)
    548c:	d91c                	sw	a5,48(a0)
    548e:	8082                	ret

00005490 <pid_init>:
    5490:	00000793          	li	a5,0
    5494:	c13c                	sw	a5,64(a0)
    5496:	dd5c                	sw	a5,60(a0)
    5498:	dd1c                	sw	a5,56(a0)
    549a:	d15c                	sw	a5,36(a0)
    549c:	d91c                	sw	a5,48(a0)
    549e:	d55c                	sw	a5,44(a0)
    54a0:	d51c                	sw	a5,40(a0)
    54a2:	c57c                	sw	a5,76(a0)
    54a4:	c53c                	sw	a5,72(a0)
    54a6:	c17c                	sw	a5,68(a0)
    54a8:	8082                	ret

000054aa <pid_clc>:
    54aa:	00000793          	li	a5,0
    54ae:	c57c                	sw	a5,76(a0)
    54b0:	c53c                	sw	a5,72(a0)
    54b2:	c17c                	sw	a5,68(a0)
    54b4:	c13c                	sw	a5,64(a0)
    54b6:	dd5c                	sw	a5,60(a0)
    54b8:	dd1c                	sw	a5,56(a0)
    54ba:	d91c                	sw	a5,48(a0)
    54bc:	d55c                	sw	a5,44(a0)
    54be:	d51c                	sw	a5,40(a0)
    54c0:	d15c                	sw	a5,36(a0)
    54c2:	cd5c                	sw	a5,28(a0)
    54c4:	d11c                	sw	a5,32(a0)
    54c6:	8082                	ret

000054c8 <pid_calc>:
    54c8:	834fb2ef          	jal	t0,4fc <__riscv_save_4>
    54cc:	842a                	mv	s0,a0
    54ce:	443c                	lw	a5,72(s0)
    54d0:	04442983          	lw	s3,68(s0)
    54d4:	d010                	sw	a2,32(s0)
    54d6:	c47c                	sw	a5,76(s0)
    54d8:	852e                	mv	a0,a1
    54da:	05342423          	sw	s3,72(s0)
    54de:	cc4c                	sw	a1,28(s0)
    54e0:	85b2                	mv	a1,a2
    54e2:	5fe050ef          	jal	ra,aae0 <__subsf3>
    54e6:	400c                	lw	a1,0(s0)
    54e8:	c068                	sw	a0,68(s0)
    54ea:	84aa                	mv	s1,a0
    54ec:	360050ef          	jal	ra,a84c <__mulsf3>
    54f0:	404c                	lw	a1,4(s0)
    54f2:	d408                	sw	a0,40(s0)
    54f4:	8a2a                	mv	s4,a0
    54f6:	8526                	mv	a0,s1
    54f8:	354050ef          	jal	ra,a84c <__mulsf3>
    54fc:	544c                	lw	a1,44(s0)
    54fe:	3c5040ef          	jal	ra,a0c2 <__addsf3>
    5502:	5c5c                	lw	a5,60(s0)
    5504:	85ce                	mv	a1,s3
    5506:	892a                	mv	s2,a0
    5508:	c03c                	sw	a5,64(s0)
    550a:	5c1c                	lw	a5,56(s0)
    550c:	d448                	sw	a0,44(s0)
    550e:	8526                	mv	a0,s1
    5510:	dc5c                	sw	a5,60(s0)
    5512:	5ce050ef          	jal	ra,aae0 <__subsf3>
    5516:	440c                	lw	a1,8(s0)
    5518:	dc08                	sw	a0,56(s0)
    551a:	332050ef          	jal	ra,a84c <__mulsf3>
    551e:	01442a83          	lw	s5,20(s0)
    5522:	89aa                	mv	s3,a0
    5524:	d808                	sw	a0,48(s0)
    5526:	85d6                	mv	a1,s5
    5528:	854a                	mv	a0,s2
    552a:	210050ef          	jal	ra,a73a <__gesf2>
    552e:	00a05563          	blez	a0,5538 <pid_calc+0x70>
    5532:	03542623          	sw	s5,44(s0)
    5536:	a809                	j	5548 <pid_calc+0x80>
    5538:	01842a83          	lw	s5,24(s0)
    553c:	854a                	mv	a0,s2
    553e:	85d6                	mv	a1,s5
    5540:	280050ef          	jal	ra,a7c0 <__lesf2>
    5544:	fe0547e3          	bltz	a0,5532 <pid_calc+0x6a>
    5548:	544c                	lw	a1,44(s0)
    554a:	8552                	mv	a0,s4
    554c:	377040ef          	jal	ra,a0c2 <__addsf3>
    5550:	85ce                	mv	a1,s3
    5552:	371040ef          	jal	ra,a0c2 <__addsf3>
    5556:	00c42903          	lw	s2,12(s0)
    555a:	d048                	sw	a0,36(s0)
    555c:	89aa                	mv	s3,a0
    555e:	85ca                	mv	a1,s2
    5560:	1da050ef          	jal	ra,a73a <__gesf2>
    5564:	00a05563          	blez	a0,556e <pid_calc+0xa6>
    5568:	03242223          	sw	s2,36(s0)
    556c:	a809                	j	557e <pid_calc+0xb6>
    556e:	01042903          	lw	s2,16(s0)
    5572:	854e                	mv	a0,s3
    5574:	85ca                	mv	a1,s2
    5576:	24a050ef          	jal	ra,a7c0 <__lesf2>
    557a:	fe0547e3          	bltz	a0,5568 <pid_calc+0xa0>
    557e:	03442903          	lw	s2,52(s0)
    5582:	8526                	mv	a0,s1
    5584:	85ca                	mv	a1,s2
    5586:	23a050ef          	jal	ra,a7c0 <__lesf2>
    558a:	00a04f63          	bgtz	a0,55a8 <pid_calc+0xe0>
    558e:	800005b7          	lui	a1,0x80000
    5592:	0125c5b3          	xor	a1,a1,s2
    5596:	8526                	mv	a0,s1
    5598:	1a2050ef          	jal	ra,a73a <__gesf2>
    559c:	00054663          	bltz	a0,55a8 <pid_calc+0xe0>
    55a0:	00000793          	li	a5,0
    55a4:	d05c                	sw	a5,36(s0)
    55a6:	d45c                	sw	a5,44(s0)
    55a8:	f89fa06f          	j	530 <__riscv_restore_4>

000055ac <System_Init>:
    55ac:	f6bfa2ef          	jal	t0,516 <__riscv_save_0>
    55b0:	b2dff0ef          	jal	ra,50dc <USARTx_CFG>
    55b4:	9d2ff0ef          	jal	ra,4786 <MPU6050_Init>
    55b8:	fd75                	bnez	a0,55b4 <System_Init+0x8>
    55ba:	955ff0ef          	jal	ra,4f0e <PWM_Init>
    55be:	f6bfe0ef          	jal	ra,4528 <Bmp_Init>
    55c2:	f2eff0ef          	jal	ra,4cf0 <BAT_ADC_Init>
    55c6:	ad6fb0ef          	jal	ra,89c <PIDSTRUCT_Init>
    55ca:	805ff0ef          	jal	ra,4dce <LED_Init>
    55ce:	0000c537          	lui	a0,0xc
    55d2:	4c850513          	addi	a0,a0,1224 # c4c8 <dmp_memory+0xc50>
    55d6:	097020ef          	jal	ra,7e6c <puts>
    55da:	f61fa06f          	j	53a <__riscv_restore_0>

000055de <prvInsertBlockIntoFreeList>:
    55de:	200007b7          	lui	a5,0x20000
    55e2:	13c78793          	addi	a5,a5,316 # 2000013c <xStart>
    55e6:	4398                	lw	a4,0(a5)
    55e8:	02a76f63          	bltu	a4,a0,5626 <prvInsertBlockIntoFreeList+0x48>
    55ec:	43d0                	lw	a2,4(a5)
    55ee:	00c786b3          	add	a3,a5,a2
    55f2:	00d51663          	bne	a0,a3,55fe <prvInsertBlockIntoFreeList+0x20>
    55f6:	4154                	lw	a3,4(a0)
    55f8:	853e                	mv	a0,a5
    55fa:	96b2                	add	a3,a3,a2
    55fc:	c3d4                	sw	a3,4(a5)
    55fe:	4150                	lw	a2,4(a0)
    5600:	00c506b3          	add	a3,a0,a2
    5604:	00d71c63          	bne	a4,a3,561c <prvInsertBlockIntoFreeList+0x3e>
    5608:	200006b7          	lui	a3,0x20000
    560c:	1246a683          	lw	a3,292(a3) # 20000124 <pxEnd>
    5610:	00d70663          	beq	a4,a3,561c <prvInsertBlockIntoFreeList+0x3e>
    5614:	4354                	lw	a3,4(a4)
    5616:	4318                	lw	a4,0(a4)
    5618:	96b2                	add	a3,a3,a2
    561a:	c154                	sw	a3,4(a0)
    561c:	c118                	sw	a4,0(a0)
    561e:	00f50363          	beq	a0,a5,5624 <prvInsertBlockIntoFreeList+0x46>
    5622:	c388                	sw	a0,0(a5)
    5624:	8082                	ret
    5626:	87ba                	mv	a5,a4
    5628:	bf7d                	j	55e6 <prvInsertBlockIntoFreeList+0x8>

0000562a <pvPortMalloc>:
    562a:	ed3fa2ef          	jal	t0,4fc <__riscv_save_4>
    562e:	1141                	addi	sp,sp,-16
    5630:	c62a                	sw	a0,12(sp)
    5632:	3e5000ef          	jal	ra,6216 <vTaskSuspendAll>
    5636:	200006b7          	lui	a3,0x20000
    563a:	1246a783          	lw	a5,292(a3) # 20000124 <pxEnd>
    563e:	20000637          	lui	a2,0x20000
    5642:	12468693          	addi	a3,a3,292
    5646:	12860613          	addi	a2,a2,296 # 20000128 <xBlockAllocatedBit>
    564a:	4532                	lw	a0,12(sp)
    564c:	efa1                	bnez	a5,56a4 <pvPortMalloc+0x7a>
    564e:	20000737          	lui	a4,0x20000
    5652:	5dc70793          	addi	a5,a4,1500 # 200005dc <ucHeap>
    5656:	00f7f593          	andi	a1,a5,15
    565a:	5dc70713          	addi	a4,a4,1500
    565e:	c581                	beqz	a1,5666 <pvPortMalloc+0x3c>
    5660:	00f78713          	addi	a4,a5,15
    5664:	9b41                	andi	a4,a4,-16
    5666:	200005b7          	lui	a1,0x20000
    566a:	13c58593          	addi	a1,a1,316 # 2000013c <xStart>
    566e:	0005a223          	sw	zero,4(a1)
    5672:	c198                	sw	a4,0(a1)
    5674:	6591                	lui	a1,0x4
    5676:	15c1                	addi	a1,a1,-16
    5678:	97ae                	add	a5,a5,a1
    567a:	9bc1                	andi	a5,a5,-16
    567c:	0007a223          	sw	zero,4(a5)
    5680:	0007a023          	sw	zero,0(a5)
    5684:	40e785b3          	sub	a1,a5,a4
    5688:	c29c                	sw	a5,0(a3)
    568a:	c31c                	sw	a5,0(a4)
    568c:	200007b7          	lui	a5,0x20000
    5690:	12b7a823          	sw	a1,304(a5) # 20000130 <xMinimumEverFreeBytesRemaining>
    5694:	200007b7          	lui	a5,0x20000
    5698:	12b7a623          	sw	a1,300(a5) # 2000012c <xFreeBytesRemaining>
    569c:	800007b7          	lui	a5,0x80000
    56a0:	c34c                	sw	a1,4(a4)
    56a2:	c21c                	sw	a5,0(a2)
    56a4:	00062a03          	lw	s4,0(a2)
    56a8:	00aa77b3          	and	a5,s4,a0
    56ac:	e385                	bnez	a5,56cc <pvPortMalloc+0xa2>
    56ae:	fff50793          	addi	a5,a0,-1
    56b2:	5739                	li	a4,-18
    56b4:	00f76c63          	bltu	a4,a5,56cc <pvPortMalloc+0xa2>
    56b8:	01050793          	addi	a5,a0,16
    56bc:	00f7f713          	andi	a4,a5,15
    56c0:	c349                	beqz	a4,5742 <pvPortMalloc+0x118>
    56c2:	ff07f713          	andi	a4,a5,-16
    56c6:	0741                	addi	a4,a4,16
    56c8:	06e7ec63          	bltu	a5,a4,5740 <pvPortMalloc+0x116>
    56cc:	4481                	li	s1,0
    56ce:	a091                	j	5712 <pvPortMalloc+0xe8>
    56d0:	8722                	mv	a4,s0
    56d2:	842e                	mv	s0,a1
    56d4:	a069                	j	575e <pvPortMalloc+0x134>
    56d6:	c158                	sw	a4,4(a0)
    56d8:	c05c                	sw	a5,4(s0)
    56da:	f05ff0ef          	jal	ra,55de <prvInsertBlockIntoFreeList>
    56de:	4058                	lw	a4,4(s0)
    56e0:	200006b7          	lui	a3,0x20000
    56e4:	13068693          	addi	a3,a3,304 # 20000130 <xMinimumEverFreeBytesRemaining>
    56e8:	4290                	lw	a2,0(a3)
    56ea:	40e907b3          	sub	a5,s2,a4
    56ee:	00f9a023          	sw	a5,0(s3)
    56f2:	00c7f363          	bgeu	a5,a2,56f8 <pvPortMalloc+0xce>
    56f6:	c29c                	sw	a5,0(a3)
    56f8:	200007b7          	lui	a5,0x20000
    56fc:	00ea6733          	or	a4,s4,a4
    5700:	13478793          	addi	a5,a5,308 # 20000134 <xNumberOfSuccessfulAllocations>
    5704:	c058                	sw	a4,4(s0)
    5706:	4398                	lw	a4,0(a5)
    5708:	04c1                	addi	s1,s1,16
    570a:	00042023          	sw	zero,0(s0)
    570e:	0705                	addi	a4,a4,1
    5710:	c398                	sw	a4,0(a5)
    5712:	4cb000ef          	jal	ra,63dc <xTaskResumeAll>
    5716:	00f4f793          	andi	a5,s1,15
    571a:	cbd1                	beqz	a5,57ae <pvPortMalloc+0x184>
    571c:	67a1                	lui	a5,0x8
    571e:	80078793          	addi	a5,a5,-2048 # 7800 <printInt+0x24>
    5722:	30079073          	csrw	mstatus,a5
    5726:	0000c637          	lui	a2,0xc
    572a:	0000c537          	lui	a0,0xc
    572e:	4dc60613          	addi	a2,a2,1244 # c4dc <dmp_memory+0xc64>
    5732:	11000593          	li	a1,272
    5736:	50450513          	addi	a0,a0,1284 # c504 <dmp_memory+0xc8c>
    573a:	70e020ef          	jal	ra,7e48 <printf>
    573e:	a001                	j	573e <pvPortMalloc+0x114>
    5740:	87ba                	mv	a5,a4
    5742:	20000737          	lui	a4,0x20000
    5746:	12c72903          	lw	s2,300(a4) # 2000012c <xFreeBytesRemaining>
    574a:	12c70993          	addi	s3,a4,300
    574e:	f6f96fe3          	bltu	s2,a5,56cc <pvPortMalloc+0xa2>
    5752:	20000737          	lui	a4,0x20000
    5756:	13c72403          	lw	s0,316(a4) # 2000013c <xStart>
    575a:	13c70713          	addi	a4,a4,316
    575e:	4050                	lw	a2,4(s0)
    5760:	00f67463          	bgeu	a2,a5,5768 <pvPortMalloc+0x13e>
    5764:	400c                	lw	a1,0(s0)
    5766:	f5ad                	bnez	a1,56d0 <pvPortMalloc+0xa6>
    5768:	4294                	lw	a3,0(a3)
    576a:	f68681e3          	beq	a3,s0,56cc <pvPortMalloc+0xa2>
    576e:	4014                	lw	a3,0(s0)
    5770:	4304                	lw	s1,0(a4)
    5772:	c314                	sw	a3,0(a4)
    5774:	40f60733          	sub	a4,a2,a5
    5778:	02000693          	li	a3,32
    577c:	f6e6f1e3          	bgeu	a3,a4,56de <pvPortMalloc+0xb4>
    5780:	00f40533          	add	a0,s0,a5
    5784:	00f57693          	andi	a3,a0,15
    5788:	d6b9                	beqz	a3,56d6 <pvPortMalloc+0xac>
    578a:	67a1                	lui	a5,0x8
    578c:	80078793          	addi	a5,a5,-2048 # 7800 <printInt+0x24>
    5790:	30079073          	csrw	mstatus,a5
    5794:	0000c637          	lui	a2,0xc
    5798:	0000c537          	lui	a0,0xc
    579c:	4dc60613          	addi	a2,a2,1244 # c4dc <dmp_memory+0xc64>
    57a0:	0cf00593          	li	a1,207
    57a4:	50450513          	addi	a0,a0,1284 # c504 <dmp_memory+0xc8c>
    57a8:	6a0020ef          	jal	ra,7e48 <printf>
    57ac:	a001                	j	57ac <pvPortMalloc+0x182>
    57ae:	8526                	mv	a0,s1
    57b0:	0141                	addi	sp,sp,16
    57b2:	d7ffa06f          	j	530 <__riscv_restore_4>

000057b6 <vPortFree>:
    57b6:	c15d                	beqz	a0,585c <vPortFree+0xa6>
    57b8:	d5ffa2ef          	jal	t0,516 <__riscv_save_0>
    57bc:	200007b7          	lui	a5,0x20000
    57c0:	ff452703          	lw	a4,-12(a0)
    57c4:	1287a783          	lw	a5,296(a5) # 20000128 <xBlockAllocatedBit>
    57c8:	842a                	mv	s0,a0
    57ca:	00f776b3          	and	a3,a4,a5
    57ce:	e29d                	bnez	a3,57f4 <vPortFree+0x3e>
    57d0:	67a1                	lui	a5,0x8
    57d2:	80078793          	addi	a5,a5,-2048 # 7800 <printInt+0x24>
    57d6:	30079073          	csrw	mstatus,a5
    57da:	0000c637          	lui	a2,0xc
    57de:	0000c537          	lui	a0,0xc
    57e2:	4dc60613          	addi	a2,a2,1244 # c4dc <dmp_memory+0xc64>
    57e6:	12400593          	li	a1,292
    57ea:	50450513          	addi	a0,a0,1284 # c504 <dmp_memory+0xc8c>
    57ee:	65a020ef          	jal	ra,7e48 <printf>
    57f2:	a001                	j	57f2 <vPortFree+0x3c>
    57f4:	ff052683          	lw	a3,-16(a0)
    57f8:	c29d                	beqz	a3,581e <vPortFree+0x68>
    57fa:	67a1                	lui	a5,0x8
    57fc:	80078793          	addi	a5,a5,-2048 # 7800 <printInt+0x24>
    5800:	30079073          	csrw	mstatus,a5
    5804:	0000c637          	lui	a2,0xc
    5808:	0000c537          	lui	a0,0xc
    580c:	4dc60613          	addi	a2,a2,1244 # c4dc <dmp_memory+0xc64>
    5810:	12500593          	li	a1,293
    5814:	50450513          	addi	a0,a0,1284 # c504 <dmp_memory+0xc8c>
    5818:	630020ef          	jal	ra,7e48 <printf>
    581c:	a001                	j	581c <vPortFree+0x66>
    581e:	fff7c793          	not	a5,a5
    5822:	8ff9                	and	a5,a5,a4
    5824:	fef52a23          	sw	a5,-12(a0)
    5828:	1ef000ef          	jal	ra,6216 <vTaskSuspendAll>
    582c:	200007b7          	lui	a5,0x20000
    5830:	12c78793          	addi	a5,a5,300 # 2000012c <xFreeBytesRemaining>
    5834:	4394                	lw	a3,0(a5)
    5836:	ff442703          	lw	a4,-12(s0)
    583a:	ff040513          	addi	a0,s0,-16
    583e:	9736                	add	a4,a4,a3
    5840:	c398                	sw	a4,0(a5)
    5842:	d9dff0ef          	jal	ra,55de <prvInsertBlockIntoFreeList>
    5846:	200007b7          	lui	a5,0x20000
    584a:	13878793          	addi	a5,a5,312 # 20000138 <xNumberOfSuccessfulFrees>
    584e:	4398                	lw	a4,0(a5)
    5850:	0705                	addi	a4,a4,1
    5852:	c398                	sw	a4,0(a5)
    5854:	389000ef          	jal	ra,63dc <xTaskResumeAll>
    5858:	ce3fa06f          	j	53a <__riscv_restore_0>
    585c:	8082                	ret

0000585e <xPortGetMinimumEverFreeHeapSize>:
    585e:	200007b7          	lui	a5,0x20000
    5862:	1307a503          	lw	a0,304(a5) # 20000130 <xMinimumEverFreeBytesRemaining>
    5866:	8082                	ret

00005868 <vPortSetupTimerInterrupt>:
    5868:	e000e7b7          	lui	a5,0xe000e
    586c:	5741                	li	a4,-16
    586e:	40e78723          	sb	a4,1038(a5) # e000e40e <__freertos_irq_stack_top+0xc000640e>
    5872:	40e78623          	sb	a4,1036(a5)
    5876:	e000f7b7          	lui	a5,0xe000f
    587a:	0007a023          	sw	zero,0(a5) # e000f000 <__freertos_irq_stack_top+0xc0007000>
    587e:	0007a223          	sw	zero,4(a5)
    5882:	4681                	li	a3,0
    5884:	c794                	sw	a3,8(a5)
    5886:	4701                	li	a4,0
    5888:	c7d8                	sw	a4,12(a5)
    588a:	80c1a583          	lw	a1,-2036(gp) # 200000e4 <SystemCoreClock>
    588e:	3e800713          	li	a4,1000
    5892:	4681                	li	a3,0
    5894:	02e5d633          	divu	a2,a1,a4
    5898:	473d                	li	a4,15
    589a:	cb90                	sw	a2,16(a5)
    589c:	cbd4                	sw	a3,20(a5)
    589e:	c398                	sw	a4,0(a5)
    58a0:	8082                	ret

000058a2 <xPortStartScheduler>:
    58a2:	c75fa2ef          	jal	t0,516 <__riscv_save_0>
    58a6:	1141                	addi	sp,sp,-16
    58a8:	c602                	sw	zero,12(sp)
    58aa:	305027f3          	csrr	a5,mtvec
    58ae:	c63e                	sw	a5,12(sp)
    58b0:	47b2                	lw	a5,12(sp)
    58b2:	470d                	li	a4,3
    58b4:	8b8d                	andi	a5,a5,3
    58b6:	02e78463          	beq	a5,a4,58de <xPortStartScheduler+0x3c>
    58ba:	67a1                	lui	a5,0x8
    58bc:	80078793          	addi	a5,a5,-2048 # 7800 <printInt+0x24>
    58c0:	30079073          	csrw	mstatus,a5
    58c4:	0000c637          	lui	a2,0xc
    58c8:	0000c537          	lui	a0,0xc
    58cc:	52860613          	addi	a2,a2,1320 # c528 <dmp_memory+0xcb0>
    58d0:	0b600593          	li	a1,182
    58d4:	50450513          	addi	a0,a0,1284 # c504 <dmp_memory+0xc8c>
    58d8:	570020ef          	jal	ra,7e48 <printf>
    58dc:	a001                	j	58dc <xPortStartScheduler+0x3a>
    58de:	200087b7          	lui	a5,0x20008
    58e2:	00078793          	mv	a5,a5
    58e6:	8bbd                	andi	a5,a5,15
    58e8:	c39d                	beqz	a5,590e <xPortStartScheduler+0x6c>
    58ea:	67a1                	lui	a5,0x8
    58ec:	80078793          	addi	a5,a5,-2048 # 7800 <printInt+0x24>
    58f0:	30079073          	csrw	mstatus,a5
    58f4:	0000c637          	lui	a2,0xc
    58f8:	0000c537          	lui	a0,0xc
    58fc:	52860613          	addi	a2,a2,1320 # c528 <dmp_memory+0xcb0>
    5900:	0bb00593          	li	a1,187
    5904:	50450513          	addi	a0,a0,1284 # c504 <dmp_memory+0xc8c>
    5908:	540020ef          	jal	ra,7e48 <printf>
    590c:	a001                	j	590c <xPortStartScheduler+0x6a>
    590e:	f5bff0ef          	jal	ra,5868 <vPortSetupTimerInterrupt>
    5912:	e000e7b7          	lui	a5,0xe000e
    5916:	6705                	lui	a4,0x1
    5918:	10e7a023          	sw	a4,256(a5) # e000e100 <__freertos_irq_stack_top+0xc0006100>
    591c:	6711                	lui	a4,0x4
    591e:	10e7a023          	sw	a4,256(a5)
    5922:	8001ac23          	sw	zero,-2024(gp) # 200000f0 <uxCriticalNesting>
    5926:	9dbfa0ef          	jal	ra,300 <xPortStartFirstTask>
    592a:	4501                	li	a0,0
    592c:	0141                	addi	sp,sp,16
    592e:	c0dfa06f          	j	53a <__riscv_restore_0>

00005932 <SysTick_Handler>:
    5932:	34011173          	csrrw	sp,mscratch,sp
    5936:	67a1                	lui	a5,0x8
    5938:	80078793          	addi	a5,a5,-2048 # 7800 <printInt+0x24>
    593c:	30079073          	csrw	mstatus,a5
    5940:	e000f7b7          	lui	a5,0xe000f
    5944:	0007a223          	sw	zero,4(a5) # e000f004 <__freertos_irq_stack_top+0xc0007004>
    5948:	0e9000ef          	jal	ra,6230 <xTaskIncrementTick>
    594c:	c511                	beqz	a0,5958 <SysTick_Handler+0x26>
    594e:	e000e7b7          	lui	a5,0xe000e
    5952:	6711                	lui	a4,0x4
    5954:	20e7a023          	sw	a4,512(a5) # e000e200 <__freertos_irq_stack_top+0xc0006200>
    5958:	67a1                	lui	a5,0x8
    595a:	88878793          	addi	a5,a5,-1912 # 7888 <printInt+0xac>
    595e:	30079073          	csrw	mstatus,a5
    5962:	34011173          	csrrw	sp,mscratch,sp
    5966:	30200073          	mret

0000596a <vPortEnterCritical>:
    596a:	67a1                	lui	a5,0x8
    596c:	80078793          	addi	a5,a5,-2048 # 7800 <printInt+0x24>
    5970:	30079073          	csrw	mstatus,a5
    5974:	81818793          	addi	a5,gp,-2024 # 200000f0 <uxCriticalNesting>
    5978:	4398                	lw	a4,0(a5)
    597a:	0705                	addi	a4,a4,1
    597c:	c398                	sw	a4,0(a5)
    597e:	8082                	ret

00005980 <vPortExitCritical>:
    5980:	81818713          	addi	a4,gp,-2024 # 200000f0 <uxCriticalNesting>
    5984:	431c                	lw	a5,0(a4)
    5986:	e78d                	bnez	a5,59b0 <vPortExitCritical+0x30>
    5988:	b8ffa2ef          	jal	t0,516 <__riscv_save_0>
    598c:	67a1                	lui	a5,0x8
    598e:	80078793          	addi	a5,a5,-2048 # 7800 <printInt+0x24>
    5992:	30079073          	csrw	mstatus,a5
    5996:	0000c637          	lui	a2,0xc
    599a:	0000c537          	lui	a0,0xc
    599e:	52860613          	addi	a2,a2,1320 # c528 <dmp_memory+0xcb0>
    59a2:	10200593          	li	a1,258
    59a6:	50450513          	addi	a0,a0,1284 # c504 <dmp_memory+0xc8c>
    59aa:	49e020ef          	jal	ra,7e48 <printf>
    59ae:	a001                	j	59ae <vPortExitCritical+0x2e>
    59b0:	17fd                	addi	a5,a5,-1
    59b2:	c31c                	sw	a5,0(a4)
    59b4:	e791                	bnez	a5,59c0 <vPortExitCritical+0x40>
    59b6:	67a1                	lui	a5,0x8
    59b8:	88878793          	addi	a5,a5,-1912 # 7888 <printInt+0xac>
    59bc:	30079073          	csrw	mstatus,a5
    59c0:	8082                	ret

000059c2 <vListInitialise>:
    59c2:	00850793          	addi	a5,a0,8
    59c6:	577d                	li	a4,-1
    59c8:	c15c                	sw	a5,4(a0)
    59ca:	c518                	sw	a4,8(a0)
    59cc:	c55c                	sw	a5,12(a0)
    59ce:	c91c                	sw	a5,16(a0)
    59d0:	00052023          	sw	zero,0(a0)
    59d4:	8082                	ret

000059d6 <vListInitialiseItem>:
    59d6:	00052823          	sw	zero,16(a0)
    59da:	8082                	ret

000059dc <vListInsert>:
    59dc:	4198                	lw	a4,0(a1)
    59de:	56fd                	li	a3,-1
    59e0:	00850793          	addi	a5,a0,8
    59e4:	00d71e63          	bne	a4,a3,5a00 <vListInsert+0x24>
    59e8:	491c                	lw	a5,16(a0)
    59ea:	43d8                	lw	a4,4(a5)
    59ec:	c1d8                	sw	a4,4(a1)
    59ee:	c70c                	sw	a1,8(a4)
    59f0:	c59c                	sw	a5,8(a1)
    59f2:	c3cc                	sw	a1,4(a5)
    59f4:	411c                	lw	a5,0(a0)
    59f6:	c988                	sw	a0,16(a1)
    59f8:	0785                	addi	a5,a5,1
    59fa:	c11c                	sw	a5,0(a0)
    59fc:	8082                	ret
    59fe:	87b6                	mv	a5,a3
    5a00:	43d4                	lw	a3,4(a5)
    5a02:	4290                	lw	a2,0(a3)
    5a04:	fec77de3          	bgeu	a4,a2,59fe <vListInsert+0x22>
    5a08:	b7cd                	j	59ea <vListInsert+0xe>

00005a0a <uxListRemove>:
    5a0a:	4154                	lw	a3,4(a0)
    5a0c:	4518                	lw	a4,8(a0)
    5a0e:	491c                	lw	a5,16(a0)
    5a10:	c698                	sw	a4,8(a3)
    5a12:	c354                	sw	a3,4(a4)
    5a14:	43d4                	lw	a3,4(a5)
    5a16:	00a69363          	bne	a3,a0,5a1c <uxListRemove+0x12>
    5a1a:	c3d8                	sw	a4,4(a5)
    5a1c:	4398                	lw	a4,0(a5)
    5a1e:	00052823          	sw	zero,16(a0)
    5a22:	177d                	addi	a4,a4,-1
    5a24:	c398                	sw	a4,0(a5)
    5a26:	4388                	lw	a0,0(a5)
    5a28:	8082                	ret

00005a2a <prvIsQueueEmpty>:
    5a2a:	aedfa2ef          	jal	t0,516 <__riscv_save_0>
    5a2e:	1141                	addi	sp,sp,-16
    5a30:	c62a                	sw	a0,12(sp)
    5a32:	f39ff0ef          	jal	ra,596a <vPortEnterCritical>
    5a36:	4532                	lw	a0,12(sp)
    5a38:	5d00                	lw	s0,56(a0)
    5a3a:	f47ff0ef          	jal	ra,5980 <vPortExitCritical>
    5a3e:	00143513          	seqz	a0,s0
    5a42:	0141                	addi	sp,sp,16
    5a44:	af7fa06f          	j	53a <__riscv_restore_0>

00005a48 <prvCopyDataFromQueue>:
    5a48:	4130                	lw	a2,64(a0)
    5a4a:	c215                	beqz	a2,5a6e <prvCopyDataFromQueue+0x26>
    5a4c:	acbfa2ef          	jal	t0,516 <__riscv_save_0>
    5a50:	4558                	lw	a4,12(a0)
    5a52:	4514                	lw	a3,8(a0)
    5a54:	87aa                	mv	a5,a0
    5a56:	9732                	add	a4,a4,a2
    5a58:	c558                	sw	a4,12(a0)
    5a5a:	00d76463          	bltu	a4,a3,5a62 <prvCopyDataFromQueue+0x1a>
    5a5e:	4118                	lw	a4,0(a0)
    5a60:	c558                	sw	a4,12(a0)
    5a62:	852e                	mv	a0,a1
    5a64:	47cc                	lw	a1,12(a5)
    5a66:	13b050ef          	jal	ra,b3a0 <memcpy>
    5a6a:	ad1fa06f          	j	53a <__riscv_restore_0>
    5a6e:	8082                	ret

00005a70 <prvUnlockQueue>:
    5a70:	aa7fa2ef          	jal	t0,516 <__riscv_save_0>
    5a74:	842a                	mv	s0,a0
    5a76:	ef5ff0ef          	jal	ra,596a <vPortEnterCritical>
    5a7a:	04544483          	lbu	s1,69(s0)
    5a7e:	02440913          	addi	s2,s0,36
    5a82:	04e2                	slli	s1,s1,0x18
    5a84:	84e1                	srai	s1,s1,0x18
    5a86:	02904863          	bgtz	s1,5ab6 <prvUnlockQueue+0x46>
    5a8a:	57fd                	li	a5,-1
    5a8c:	04f402a3          	sb	a5,69(s0)
    5a90:	ef1ff0ef          	jal	ra,5980 <vPortExitCritical>
    5a94:	ed7ff0ef          	jal	ra,596a <vPortEnterCritical>
    5a98:	04444483          	lbu	s1,68(s0)
    5a9c:	01040913          	addi	s2,s0,16
    5aa0:	04e2                	slli	s1,s1,0x18
    5aa2:	84e1                	srai	s1,s1,0x18
    5aa4:	02904563          	bgtz	s1,5ace <prvUnlockQueue+0x5e>
    5aa8:	57fd                	li	a5,-1
    5aaa:	04f40223          	sb	a5,68(s0)
    5aae:	ed3ff0ef          	jal	ra,5980 <vPortExitCritical>
    5ab2:	a89fa06f          	j	53a <__riscv_restore_0>
    5ab6:	505c                	lw	a5,36(s0)
    5ab8:	dbe9                	beqz	a5,5a8a <prvUnlockQueue+0x1a>
    5aba:	854a                	mv	a0,s2
    5abc:	447000ef          	jal	ra,6702 <xTaskRemoveFromEventList>
    5ac0:	c119                	beqz	a0,5ac6 <prvUnlockQueue+0x56>
    5ac2:	60d000ef          	jal	ra,68ce <vTaskMissedYield>
    5ac6:	14fd                	addi	s1,s1,-1
    5ac8:	04e2                	slli	s1,s1,0x18
    5aca:	84e1                	srai	s1,s1,0x18
    5acc:	bf6d                	j	5a86 <prvUnlockQueue+0x16>
    5ace:	481c                	lw	a5,16(s0)
    5ad0:	dfe1                	beqz	a5,5aa8 <prvUnlockQueue+0x38>
    5ad2:	854a                	mv	a0,s2
    5ad4:	42f000ef          	jal	ra,6702 <xTaskRemoveFromEventList>
    5ad8:	c119                	beqz	a0,5ade <prvUnlockQueue+0x6e>
    5ada:	5f5000ef          	jal	ra,68ce <vTaskMissedYield>
    5ade:	14fd                	addi	s1,s1,-1
    5ae0:	04e2                	slli	s1,s1,0x18
    5ae2:	84e1                	srai	s1,s1,0x18
    5ae4:	b7c1                	j	5aa4 <prvUnlockQueue+0x34>

00005ae6 <xQueueGenericReset>:
    5ae6:	a31fa2ef          	jal	t0,516 <__riscv_save_0>
    5aea:	1141                	addi	sp,sp,-16
    5aec:	e11d                	bnez	a0,5b12 <xQueueGenericReset+0x2c>
    5aee:	67a1                	lui	a5,0x8
    5af0:	80078793          	addi	a5,a5,-2048 # 7800 <printInt+0x24>
    5af4:	30079073          	csrw	mstatus,a5
    5af8:	0000c637          	lui	a2,0xc
    5afc:	0000c537          	lui	a0,0xc
    5b00:	55060613          	addi	a2,a2,1360 # c550 <dmp_memory+0xcd8>
    5b04:	11000593          	li	a1,272
    5b08:	50450513          	addi	a0,a0,1284 # c504 <dmp_memory+0xc8c>
    5b0c:	33c020ef          	jal	ra,7e48 <printf>
    5b10:	a001                	j	5b10 <xQueueGenericReset+0x2a>
    5b12:	5d5c                	lw	a5,60(a0)
    5b14:	c62e                	sw	a1,12(sp)
    5b16:	842a                	mv	s0,a0
    5b18:	c7bd                	beqz	a5,5b86 <xQueueGenericReset+0xa0>
    5b1a:	4138                	lw	a4,64(a0)
    5b1c:	02e7b7b3          	mulhu	a5,a5,a4
    5b20:	e3bd                	bnez	a5,5b86 <xQueueGenericReset+0xa0>
    5b22:	e49ff0ef          	jal	ra,596a <vPortEnterCritical>
    5b26:	4030                	lw	a2,64(s0)
    5b28:	5c58                	lw	a4,60(s0)
    5b2a:	4014                	lw	a3,0(s0)
    5b2c:	02042c23          	sw	zero,56(s0)
    5b30:	02e607b3          	mul	a5,a2,a4
    5b34:	45b2                	lw	a1,12(sp)
    5b36:	c054                	sw	a3,4(s0)
    5b38:	00f68733          	add	a4,a3,a5
    5b3c:	8f91                	sub	a5,a5,a2
    5b3e:	97b6                	add	a5,a5,a3
    5b40:	c45c                	sw	a5,12(s0)
    5b42:	57fd                	li	a5,-1
    5b44:	04f40223          	sb	a5,68(s0)
    5b48:	c418                	sw	a4,8(s0)
    5b4a:	04f402a3          	sb	a5,69(s0)
    5b4e:	e19d                	bnez	a1,5b74 <xQueueGenericReset+0x8e>
    5b50:	481c                	lw	a5,16(s0)
    5b52:	cb99                	beqz	a5,5b68 <xQueueGenericReset+0x82>
    5b54:	01040513          	addi	a0,s0,16
    5b58:	3ab000ef          	jal	ra,6702 <xTaskRemoveFromEventList>
    5b5c:	c511                	beqz	a0,5b68 <xQueueGenericReset+0x82>
    5b5e:	e000e7b7          	lui	a5,0xe000e
    5b62:	6711                	lui	a4,0x4
    5b64:	20e7a023          	sw	a4,512(a5) # e000e200 <__freertos_irq_stack_top+0xc0006200>
    5b68:	e19ff0ef          	jal	ra,5980 <vPortExitCritical>
    5b6c:	4505                	li	a0,1
    5b6e:	0141                	addi	sp,sp,16
    5b70:	9cbfa06f          	j	53a <__riscv_restore_0>
    5b74:	01040513          	addi	a0,s0,16
    5b78:	e4bff0ef          	jal	ra,59c2 <vListInitialise>
    5b7c:	02440513          	addi	a0,s0,36
    5b80:	e43ff0ef          	jal	ra,59c2 <vListInitialise>
    5b84:	b7d5                	j	5b68 <xQueueGenericReset+0x82>
    5b86:	67a1                	lui	a5,0x8
    5b88:	80078793          	addi	a5,a5,-2048 # 7800 <printInt+0x24>
    5b8c:	30079073          	csrw	mstatus,a5
    5b90:	0000c637          	lui	a2,0xc
    5b94:	0000c537          	lui	a0,0xc
    5b98:	55060613          	addi	a2,a2,1360 # c550 <dmp_memory+0xcd8>
    5b9c:	14500593          	li	a1,325
    5ba0:	50450513          	addi	a0,a0,1284 # c504 <dmp_memory+0xc8c>
    5ba4:	2a4020ef          	jal	ra,7e48 <printf>
    5ba8:	a001                	j	5ba8 <xQueueGenericReset+0xc2>

00005baa <xQueueGenericCreate>:
    5baa:	96dfa2ef          	jal	t0,516 <__riscv_save_0>
    5bae:	1141                	addi	sp,sp,-16
    5bb0:	c131                	beqz	a0,5bf4 <xQueueGenericCreate+0x4a>
    5bb2:	02a5b7b3          	mulhu	a5,a1,a0
    5bb6:	84aa                	mv	s1,a0
    5bb8:	ef95                	bnez	a5,5bf4 <xQueueGenericCreate+0x4a>
    5bba:	02b50533          	mul	a0,a0,a1
    5bbe:	fb700793          	li	a5,-73
    5bc2:	02a7e963          	bltu	a5,a0,5bf4 <xQueueGenericCreate+0x4a>
    5bc6:	04850513          	addi	a0,a0,72
    5bca:	c62e                	sw	a1,12(sp)
    5bcc:	a5fff0ef          	jal	ra,562a <pvPortMalloc>
    5bd0:	842a                	mv	s0,a0
    5bd2:	cd09                	beqz	a0,5bec <xQueueGenericCreate+0x42>
    5bd4:	45b2                	lw	a1,12(sp)
    5bd6:	87aa                	mv	a5,a0
    5bd8:	c199                	beqz	a1,5bde <xQueueGenericCreate+0x34>
    5bda:	04850793          	addi	a5,a0,72
    5bde:	c02c                	sw	a1,64(s0)
    5be0:	c01c                	sw	a5,0(s0)
    5be2:	dc44                	sw	s1,60(s0)
    5be4:	4585                	li	a1,1
    5be6:	8522                	mv	a0,s0
    5be8:	effff0ef          	jal	ra,5ae6 <xQueueGenericReset>
    5bec:	8522                	mv	a0,s0
    5bee:	0141                	addi	sp,sp,16
    5bf0:	94bfa06f          	j	53a <__riscv_restore_0>
    5bf4:	67a1                	lui	a5,0x8
    5bf6:	80078793          	addi	a5,a5,-2048 # 7800 <printInt+0x24>
    5bfa:	30079073          	csrw	mstatus,a5
    5bfe:	0000c637          	lui	a2,0xc
    5c02:	0000c537          	lui	a0,0xc
    5c06:	55060613          	addi	a2,a2,1360 # c550 <dmp_memory+0xcd8>
    5c0a:	1c600593          	li	a1,454
    5c0e:	50450513          	addi	a0,a0,1284 # c504 <dmp_memory+0xc8c>
    5c12:	236020ef          	jal	ra,7e48 <printf>
    5c16:	a001                	j	5c16 <xQueueGenericCreate+0x6c>

00005c18 <xQueueReceive>:
    5c18:	8d7fa2ef          	jal	t0,4ee <__riscv_save_10>
    5c1c:	1101                	addi	sp,sp,-32
    5c1e:	c632                	sw	a2,12(sp)
    5c20:	e11d                	bnez	a0,5c46 <xQueueReceive+0x2e>
    5c22:	67a1                	lui	a5,0x8
    5c24:	80078793          	addi	a5,a5,-2048 # 7800 <printInt+0x24>
    5c28:	30079073          	csrw	mstatus,a5
    5c2c:	0000c637          	lui	a2,0xc
    5c30:	0000c537          	lui	a0,0xc
    5c34:	55060613          	addi	a2,a2,1360 # c550 <dmp_memory+0xcd8>
    5c38:	55100593          	li	a1,1361
    5c3c:	50450513          	addi	a0,a0,1284 # c504 <dmp_memory+0xc8c>
    5c40:	208020ef          	jal	ra,7e48 <printf>
    5c44:	a001                	j	5c44 <xQueueReceive+0x2c>
    5c46:	842a                	mv	s0,a0
    5c48:	89ae                	mv	s3,a1
    5c4a:	e58d                	bnez	a1,5c74 <xQueueReceive+0x5c>
    5c4c:	413c                	lw	a5,64(a0)
    5c4e:	c39d                	beqz	a5,5c74 <xQueueReceive+0x5c>
    5c50:	67a1                	lui	a5,0x8
    5c52:	80078793          	addi	a5,a5,-2048 # 7800 <printInt+0x24>
    5c56:	30079073          	csrw	mstatus,a5
    5c5a:	0000c637          	lui	a2,0xc
    5c5e:	0000c537          	lui	a0,0xc
    5c62:	55060613          	addi	a2,a2,1360 # c550 <dmp_memory+0xcd8>
    5c66:	55500593          	li	a1,1365
    5c6a:	50450513          	addi	a0,a0,1284 # c504 <dmp_memory+0xc8c>
    5c6e:	1da020ef          	jal	ra,7e48 <printf>
    5c72:	a001                	j	5c72 <xQueueReceive+0x5a>
    5c74:	467000ef          	jal	ra,68da <xTaskGetSchedulerState>
    5c78:	e515                	bnez	a0,5ca4 <xQueueReceive+0x8c>
    5c7a:	47b2                	lw	a5,12(sp)
    5c7c:	4901                	li	s2,0
    5c7e:	c785                	beqz	a5,5ca6 <xQueueReceive+0x8e>
    5c80:	67a1                	lui	a5,0x8
    5c82:	80078793          	addi	a5,a5,-2048 # 7800 <printInt+0x24>
    5c86:	30079073          	csrw	mstatus,a5
    5c8a:	0000c637          	lui	a2,0xc
    5c8e:	0000c537          	lui	a0,0xc
    5c92:	55060613          	addi	a2,a2,1360 # c550 <dmp_memory+0xcd8>
    5c96:	55a00593          	li	a1,1370
    5c9a:	50450513          	addi	a0,a0,1284 # c504 <dmp_memory+0xc8c>
    5c9e:	1aa020ef          	jal	ra,7e48 <printf>
    5ca2:	a001                	j	5ca2 <xQueueReceive+0x8a>
    5ca4:	4901                	li	s2,0
    5ca6:	5a7d                	li	s4,-1
    5ca8:	02440a93          	addi	s5,s0,36
    5cac:	e000eb37          	lui	s6,0xe000e
    5cb0:	6b91                	lui	s7,0x4
    5cb2:	a88d                	j	5d24 <xQueueReceive+0x10c>
    5cb4:	47b2                	lw	a5,12(sp)
    5cb6:	e789                	bnez	a5,5cc0 <xQueueReceive+0xa8>
    5cb8:	cc9ff0ef          	jal	ra,5980 <vPortExitCritical>
    5cbc:	4501                	li	a0,0
    5cbe:	a861                	j	5d56 <xQueueReceive+0x13e>
    5cc0:	00091563          	bnez	s2,5cca <xQueueReceive+0xb2>
    5cc4:	0828                	addi	a0,sp,24
    5cc6:	329000ef          	jal	ra,67ee <vTaskInternalSetTimeOutState>
    5cca:	cb7ff0ef          	jal	ra,5980 <vPortExitCritical>
    5cce:	23a1                	jal	6216 <vTaskSuspendAll>
    5cd0:	c9bff0ef          	jal	ra,596a <vPortEnterCritical>
    5cd4:	04444783          	lbu	a5,68(s0)
    5cd8:	07e2                	slli	a5,a5,0x18
    5cda:	87e1                	srai	a5,a5,0x18
    5cdc:	01479463          	bne	a5,s4,5ce4 <xQueueReceive+0xcc>
    5ce0:	04040223          	sb	zero,68(s0)
    5ce4:	04544783          	lbu	a5,69(s0)
    5ce8:	07e2                	slli	a5,a5,0x18
    5cea:	87e1                	srai	a5,a5,0x18
    5cec:	01479463          	bne	a5,s4,5cf4 <xQueueReceive+0xdc>
    5cf0:	040402a3          	sb	zero,69(s0)
    5cf4:	c8dff0ef          	jal	ra,5980 <vPortExitCritical>
    5cf8:	006c                	addi	a1,sp,12
    5cfa:	0828                	addi	a0,sp,24
    5cfc:	309000ef          	jal	ra,6804 <xTaskCheckForTimeOut>
    5d00:	e13d                	bnez	a0,5d66 <xQueueReceive+0x14e>
    5d02:	8522                	mv	a0,s0
    5d04:	d27ff0ef          	jal	ra,5a2a <prvIsQueueEmpty>
    5d08:	c931                	beqz	a0,5d5c <xQueueReceive+0x144>
    5d0a:	45b2                	lw	a1,12(sp)
    5d0c:	8556                	mv	a0,s5
    5d0e:	137000ef          	jal	ra,6644 <vTaskPlaceOnEventList>
    5d12:	8522                	mv	a0,s0
    5d14:	d5dff0ef          	jal	ra,5a70 <prvUnlockQueue>
    5d18:	6c4000ef          	jal	ra,63dc <xTaskResumeAll>
    5d1c:	e119                	bnez	a0,5d22 <xQueueReceive+0x10a>
    5d1e:	217b2023          	sw	s7,512(s6) # e000e200 <__freertos_irq_stack_top+0xc0006200>
    5d22:	4905                	li	s2,1
    5d24:	c47ff0ef          	jal	ra,596a <vPortEnterCritical>
    5d28:	5c04                	lw	s1,56(s0)
    5d2a:	d4c9                	beqz	s1,5cb4 <xQueueReceive+0x9c>
    5d2c:	85ce                	mv	a1,s3
    5d2e:	8522                	mv	a0,s0
    5d30:	14fd                	addi	s1,s1,-1
    5d32:	d17ff0ef          	jal	ra,5a48 <prvCopyDataFromQueue>
    5d36:	dc04                	sw	s1,56(s0)
    5d38:	481c                	lw	a5,16(s0)
    5d3a:	cb99                	beqz	a5,5d50 <xQueueReceive+0x138>
    5d3c:	01040513          	addi	a0,s0,16
    5d40:	1c3000ef          	jal	ra,6702 <xTaskRemoveFromEventList>
    5d44:	c511                	beqz	a0,5d50 <xQueueReceive+0x138>
    5d46:	e000e7b7          	lui	a5,0xe000e
    5d4a:	6711                	lui	a4,0x4
    5d4c:	20e7a023          	sw	a4,512(a5) # e000e200 <__freertos_irq_stack_top+0xc0006200>
    5d50:	c31ff0ef          	jal	ra,5980 <vPortExitCritical>
    5d54:	4505                	li	a0,1
    5d56:	6105                	addi	sp,sp,32
    5d58:	fcefa06f          	j	526 <__riscv_restore_10>
    5d5c:	8522                	mv	a0,s0
    5d5e:	d13ff0ef          	jal	ra,5a70 <prvUnlockQueue>
    5d62:	2dad                	jal	63dc <xTaskResumeAll>
    5d64:	bf7d                	j	5d22 <xQueueReceive+0x10a>
    5d66:	8522                	mv	a0,s0
    5d68:	d09ff0ef          	jal	ra,5a70 <prvUnlockQueue>
    5d6c:	2d85                	jal	63dc <xTaskResumeAll>
    5d6e:	8522                	mv	a0,s0
    5d70:	cbbff0ef          	jal	ra,5a2a <prvIsQueueEmpty>
    5d74:	d55d                	beqz	a0,5d22 <xQueueReceive+0x10a>
    5d76:	b799                	j	5cbc <xQueueReceive+0xa4>

00005d78 <vQueueAddToRegistry>:
    5d78:	e515                	bnez	a0,5da4 <vQueueAddToRegistry+0x2c>
    5d7a:	f9cfa2ef          	jal	t0,516 <__riscv_save_0>
    5d7e:	67a1                	lui	a5,0x8
    5d80:	80078793          	addi	a5,a5,-2048 # 7800 <printInt+0x24>
    5d84:	30079073          	csrw	mstatus,a5
    5d88:	0000c637          	lui	a2,0xc
    5d8c:	6585                	lui	a1,0x1
    5d8e:	0000c537          	lui	a0,0xc
    5d92:	55060613          	addi	a2,a2,1360 # c550 <dmp_memory+0xcd8>
    5d96:	ac858593          	addi	a1,a1,-1336 # ac8 <ELRS_Convert_angle+0x32>
    5d9a:	50450513          	addi	a0,a0,1284 # c504 <dmp_memory+0xc8c>
    5d9e:	0aa020ef          	jal	ra,7e48 <printf>
    5da2:	a001                	j	5da2 <vQueueAddToRegistry+0x2a>
    5da4:	cd9d                	beqz	a1,5de2 <vQueueAddToRegistry+0x6a>
    5da6:	20004637          	lui	a2,0x20004
    5daa:	5dc60693          	addi	a3,a2,1500 # 200045dc <xQueueRegistry>
    5dae:	4781                	li	a5,0
    5db0:	4701                	li	a4,0
    5db2:	5dc60613          	addi	a2,a2,1500
    5db6:	4821                	li	a6,8
    5db8:	0046a883          	lw	a7,4(a3)
    5dbc:	00a89863          	bne	a7,a0,5dcc <vQueueAddToRegistry+0x54>
    5dc0:	00371793          	slli	a5,a4,0x3
    5dc4:	97b2                	add	a5,a5,a2
    5dc6:	c38c                	sw	a1,0(a5)
    5dc8:	c3c8                	sw	a0,4(a5)
    5dca:	a821                	j	5de2 <vQueueAddToRegistry+0x6a>
    5dcc:	e791                	bnez	a5,5dd8 <vQueueAddToRegistry+0x60>
    5dce:	0006a883          	lw	a7,0(a3)
    5dd2:	00089363          	bnez	a7,5dd8 <vQueueAddToRegistry+0x60>
    5dd6:	87b6                	mv	a5,a3
    5dd8:	0705                	addi	a4,a4,1
    5dda:	06a1                	addi	a3,a3,8
    5ddc:	fd071ee3          	bne	a4,a6,5db8 <vQueueAddToRegistry+0x40>
    5de0:	f3fd                	bnez	a5,5dc6 <vQueueAddToRegistry+0x4e>
    5de2:	8082                	ret

00005de4 <vQueueWaitForMessageRestricted>:
    5de4:	f32fa2ef          	jal	t0,516 <__riscv_save_0>
    5de8:	1141                	addi	sp,sp,-16
    5dea:	842a                	mv	s0,a0
    5dec:	c62e                	sw	a1,12(sp)
    5dee:	c432                	sw	a2,8(sp)
    5df0:	b7bff0ef          	jal	ra,596a <vPortEnterCritical>
    5df4:	04444783          	lbu	a5,68(s0)
    5df8:	577d                	li	a4,-1
    5dfa:	4622                	lw	a2,8(sp)
    5dfc:	07e2                	slli	a5,a5,0x18
    5dfe:	87e1                	srai	a5,a5,0x18
    5e00:	45b2                	lw	a1,12(sp)
    5e02:	00e79463          	bne	a5,a4,5e0a <vQueueWaitForMessageRestricted+0x26>
    5e06:	04040223          	sb	zero,68(s0)
    5e0a:	04544783          	lbu	a5,69(s0)
    5e0e:	577d                	li	a4,-1
    5e10:	07e2                	slli	a5,a5,0x18
    5e12:	87e1                	srai	a5,a5,0x18
    5e14:	00e79463          	bne	a5,a4,5e1c <vQueueWaitForMessageRestricted+0x38>
    5e18:	040402a3          	sb	zero,69(s0)
    5e1c:	c632                	sw	a2,12(sp)
    5e1e:	c42e                	sw	a1,8(sp)
    5e20:	b61ff0ef          	jal	ra,5980 <vPortExitCritical>
    5e24:	5c1c                	lw	a5,56(s0)
    5e26:	45a2                	lw	a1,8(sp)
    5e28:	4632                	lw	a2,12(sp)
    5e2a:	e789                	bnez	a5,5e34 <vQueueWaitForMessageRestricted+0x50>
    5e2c:	02440513          	addi	a0,s0,36
    5e30:	05d000ef          	jal	ra,668c <vTaskPlaceOnEventListRestricted>
    5e34:	8522                	mv	a0,s0
    5e36:	c3bff0ef          	jal	ra,5a70 <prvUnlockQueue>
    5e3a:	0141                	addi	sp,sp,16
    5e3c:	efefa06f          	j	53a <__riscv_restore_0>

00005e40 <prvResetNextTaskUnblockTime>:
    5e40:	20000737          	lui	a4,0x20000
    5e44:	14870713          	addi	a4,a4,328 # 20000148 <pxDelayedTaskList>
    5e48:	431c                	lw	a5,0(a4)
    5e4a:	4394                	lw	a3,0(a5)
    5e4c:	200007b7          	lui	a5,0x20000
    5e50:	16878793          	addi	a5,a5,360 # 20000168 <xNextTaskUnblockTime>
    5e54:	e681                	bnez	a3,5e5c <prvResetNextTaskUnblockTime+0x1c>
    5e56:	577d                	li	a4,-1
    5e58:	c398                	sw	a4,0(a5)
    5e5a:	8082                	ret
    5e5c:	4318                	lw	a4,0(a4)
    5e5e:	4758                	lw	a4,12(a4)
    5e60:	4318                	lw	a4,0(a4)
    5e62:	bfdd                	j	5e58 <prvResetNextTaskUnblockTime+0x18>

00005e64 <prvAddCurrentTaskToDelayedList>:
    5e64:	e98fa2ef          	jal	t0,4fc <__riscv_save_4>
    5e68:	20000937          	lui	s2,0x20000
    5e6c:	200007b7          	lui	a5,0x20000
    5e70:	14490493          	addi	s1,s2,324 # 20000144 <pxCurrentTCB>
    5e74:	1787a983          	lw	s3,376(a5) # 20000178 <xTickCount>
    5e78:	842a                	mv	s0,a0
    5e7a:	409c                	lw	a5,0(s1)
    5e7c:	4088                	lw	a0,0(s1)
    5e7e:	1141                	addi	sp,sp,-16
    5e80:	040788a3          	sb	zero,81(a5)
    5e84:	0511                	addi	a0,a0,4
    5e86:	c62e                	sw	a1,12(sp)
    5e88:	b83ff0ef          	jal	ra,5a0a <uxListRemove>
    5e8c:	577d                	li	a4,-1
    5e8e:	14490793          	addi	a5,s2,324
    5e92:	45b2                	lw	a1,12(sp)
    5e94:	02e41c63          	bne	s0,a4,5ecc <prvAddCurrentTaskToDelayedList+0x68>
    5e98:	c995                	beqz	a1,5ecc <prvAddCurrentTaskToDelayedList+0x68>
    5e9a:	200047b7          	lui	a5,0x20004
    5e9e:	6d078793          	addi	a5,a5,1744 # 200046d0 <xSuspendedTaskList>
    5ea2:	4094                	lw	a3,0(s1)
    5ea4:	43d8                	lw	a4,4(a5)
    5ea6:	c698                	sw	a4,8(a3)
    5ea8:	4710                	lw	a2,8(a4)
    5eaa:	4094                	lw	a3,0(s1)
    5eac:	c6d0                	sw	a2,12(a3)
    5eae:	4094                	lw	a3,0(s1)
    5eb0:	4710                	lw	a2,8(a4)
    5eb2:	0691                	addi	a3,a3,4
    5eb4:	c254                	sw	a3,4(a2)
    5eb6:	4094                	lw	a3,0(s1)
    5eb8:	0691                	addi	a3,a3,4
    5eba:	c714                	sw	a3,8(a4)
    5ebc:	4098                	lw	a4,0(s1)
    5ebe:	cb5c                	sw	a5,20(a4)
    5ec0:	4398                	lw	a4,0(a5)
    5ec2:	0705                	addi	a4,a4,1
    5ec4:	c398                	sw	a4,0(a5)
    5ec6:	0141                	addi	sp,sp,16
    5ec8:	e68fa06f          	j	530 <__riscv_restore_4>
    5ecc:	4398                	lw	a4,0(a5)
    5ece:	944e                	add	s0,s0,s3
    5ed0:	c340                	sw	s0,4(a4)
    5ed2:	01347b63          	bgeu	s0,s3,5ee8 <prvAddCurrentTaskToDelayedList+0x84>
    5ed6:	20000737          	lui	a4,0x20000
    5eda:	14c72503          	lw	a0,332(a4) # 2000014c <pxOverflowDelayedTaskList>
    5ede:	438c                	lw	a1,0(a5)
    5ee0:	0591                	addi	a1,a1,4
    5ee2:	afbff0ef          	jal	ra,59dc <vListInsert>
    5ee6:	b7c5                	j	5ec6 <prvAddCurrentTaskToDelayedList+0x62>
    5ee8:	20000737          	lui	a4,0x20000
    5eec:	14872503          	lw	a0,328(a4) # 20000148 <pxDelayedTaskList>
    5ef0:	438c                	lw	a1,0(a5)
    5ef2:	0591                	addi	a1,a1,4
    5ef4:	ae9ff0ef          	jal	ra,59dc <vListInsert>
    5ef8:	200007b7          	lui	a5,0x20000
    5efc:	16878793          	addi	a5,a5,360 # 20000168 <xNextTaskUnblockTime>
    5f00:	4398                	lw	a4,0(a5)
    5f02:	fce472e3          	bgeu	s0,a4,5ec6 <prvAddCurrentTaskToDelayedList+0x62>
    5f06:	c380                	sw	s0,0(a5)
    5f08:	bf7d                	j	5ec6 <prvAddCurrentTaskToDelayedList+0x62>

00005f0a <prvIdleTask>:
    5f0a:	df2fa2ef          	jal	t0,4fc <__riscv_save_4>
    5f0e:	20004437          	lui	s0,0x20004
    5f12:	200009b7          	lui	s3,0x20000
    5f16:	6e440413          	addi	s0,s0,1764 # 200046e4 <xTasksWaitingTermination>
    5f1a:	20000a37          	lui	s4,0x20000
    5f1e:	15498493          	addi	s1,s3,340 # 20000154 <uxDeletedTasksWaitingCleanUp>
    5f22:	409c                	lw	a5,0(s1)
    5f24:	dfed                	beqz	a5,5f1e <prvIdleTask+0x14>
    5f26:	a45ff0ef          	jal	ra,596a <vPortEnterCritical>
    5f2a:	445c                	lw	a5,12(s0)
    5f2c:	00c7a903          	lw	s2,12(a5)
    5f30:	00490513          	addi	a0,s2,4
    5f34:	ad7ff0ef          	jal	ra,5a0a <uxListRemove>
    5f38:	150a0713          	addi	a4,s4,336 # 20000150 <uxCurrentNumberOfTasks>
    5f3c:	431c                	lw	a5,0(a4)
    5f3e:	17fd                	addi	a5,a5,-1
    5f40:	c31c                	sw	a5,0(a4)
    5f42:	409c                	lw	a5,0(s1)
    5f44:	17fd                	addi	a5,a5,-1
    5f46:	c09c                	sw	a5,0(s1)
    5f48:	a39ff0ef          	jal	ra,5980 <vPortExitCritical>
    5f4c:	03092503          	lw	a0,48(s2)
    5f50:	867ff0ef          	jal	ra,57b6 <vPortFree>
    5f54:	854a                	mv	a0,s2
    5f56:	861ff0ef          	jal	ra,57b6 <vPortFree>
    5f5a:	b7d1                	j	5f1e <prvIdleTask+0x14>

00005f5c <xTaskCreate>:
    5f5c:	d92fa2ef          	jal	t0,4ee <__riscv_save_10>
    5f60:	00261913          	slli	s2,a2,0x2
    5f64:	8aaa                	mv	s5,a0
    5f66:	854a                	mv	a0,s2
    5f68:	89ae                	mv	s3,a1
    5f6a:	8b36                	mv	s6,a3
    5f6c:	8bba                	mv	s7,a4
    5f6e:	8a3e                	mv	s4,a5
    5f70:	ebaff0ef          	jal	ra,562a <pvPortMalloc>
    5f74:	c11d                	beqz	a0,5f9a <xTaskCreate+0x3e>
    5f76:	84aa                	mv	s1,a0
    5f78:	05400513          	li	a0,84
    5f7c:	eaeff0ef          	jal	ra,562a <pvPortMalloc>
    5f80:	842a                	mv	s0,a0
    5f82:	c909                	beqz	a0,5f94 <xTaskCreate+0x38>
    5f84:	d904                	sw	s1,48(a0)
    5f86:	4781                	li	a5,0
    5f88:	46c1                	li	a3,16
    5f8a:	00099a63          	bnez	s3,5f9e <xTaskCreate+0x42>
    5f8e:	02050a23          	sb	zero,52(a0)
    5f92:	a025                	j	5fba <xTaskCreate+0x5e>
    5f94:	8526                	mv	a0,s1
    5f96:	821ff0ef          	jal	ra,57b6 <vPortFree>
    5f9a:	557d                	li	a0,-1
    5f9c:	a2f1                	j	6168 <xTaskCreate+0x20c>
    5f9e:	00f98733          	add	a4,s3,a5
    5fa2:	00070703          	lb	a4,0(a4)
    5fa6:	00f40633          	add	a2,s0,a5
    5faa:	02e60a23          	sb	a4,52(a2)
    5fae:	c701                	beqz	a4,5fb6 <xTaskCreate+0x5a>
    5fb0:	0785                	addi	a5,a5,1
    5fb2:	fed796e3          	bne	a5,a3,5f9e <xTaskCreate+0x42>
    5fb6:	040401a3          	sb	zero,67(s0)
    5fba:	4795                	li	a5,5
    5fbc:	0377f463          	bgeu	a5,s7,5fe4 <xTaskCreate+0x88>
    5fc0:	67a1                	lui	a5,0x8
    5fc2:	80078793          	addi	a5,a5,-2048 # 7800 <printInt+0x24>
    5fc6:	30079073          	csrw	mstatus,a5
    5fca:	0000c637          	lui	a2,0xc
    5fce:	0000c537          	lui	a0,0xc
    5fd2:	56460613          	addi	a2,a2,1380 # c564 <dmp_memory+0xcec>
    5fd6:	39700593          	li	a1,919
    5fda:	50450513          	addi	a0,a0,1284 # c504 <dmp_memory+0xc8c>
    5fde:	66b010ef          	jal	ra,7e48 <printf>
    5fe2:	a001                	j	5fe2 <xTaskCreate+0x86>
    5fe4:	00440993          	addi	s3,s0,4
    5fe8:	854e                	mv	a0,s3
    5fea:	03742623          	sw	s7,44(s0)
    5fee:	05742223          	sw	s7,68(s0)
    5ff2:	04042423          	sw	zero,72(s0)
    5ff6:	9e1ff0ef          	jal	ra,59d6 <vListInitialiseItem>
    5ffa:	01840513          	addi	a0,s0,24
    5ffe:	9d9ff0ef          	jal	ra,59d6 <vListInitialiseItem>
    6002:	4719                	li	a4,6
    6004:	ffc90513          	addi	a0,s2,-4
    6008:	41770733          	sub	a4,a4,s7
    600c:	9526                	add	a0,a0,s1
    600e:	c800                	sw	s0,16(s0)
    6010:	cc18                	sw	a4,24(s0)
    6012:	d040                	sw	s0,36(s0)
    6014:	04040623          	sb	zero,76(s0)
    6018:	040406a3          	sb	zero,77(s0)
    601c:	04040723          	sb	zero,78(s0)
    6020:	040407a3          	sb	zero,79(s0)
    6024:	04040823          	sb	zero,80(s0)
    6028:	040408a3          	sb	zero,81(s0)
    602c:	865a                	mv	a2,s6
    602e:	85d6                	mv	a1,s5
    6030:	9941                	andi	a0,a0,-16
    6032:	bcefa0ef          	jal	ra,400 <pxPortInitialiseStack>
    6036:	c008                	sw	a0,0(s0)
    6038:	000a0463          	beqz	s4,6040 <xTaskCreate+0xe4>
    603c:	008a2023          	sw	s0,0(s4)
    6040:	92bff0ef          	jal	ra,596a <vPortEnterCritical>
    6044:	200007b7          	lui	a5,0x20000
    6048:	15078793          	addi	a5,a5,336 # 20000150 <uxCurrentNumberOfTasks>
    604c:	4398                	lw	a4,0(a5)
    604e:	20000937          	lui	s2,0x20000
    6052:	20004537          	lui	a0,0x20004
    6056:	0705                	addi	a4,a4,1
    6058:	c398                	sw	a4,0(a5)
    605a:	14490713          	addi	a4,s2,324 # 20000144 <pxCurrentTCB>
    605e:	4318                	lw	a4,0(a4)
    6060:	20000a37          	lui	s4,0x20000
    6064:	14490913          	addi	s2,s2,324
    6068:	61c50493          	addi	s1,a0,1564 # 2000461c <pxReadyTasksLists>
    606c:	174a0a13          	addi	s4,s4,372 # 20000174 <xSchedulerRunning>
    6070:	0e071e63          	bnez	a4,616c <xTaskCreate+0x210>
    6074:	00892023          	sw	s0,0(s2)
    6078:	4398                	lw	a4,0(a5)
    607a:	4785                	li	a5,1
    607c:	08f71463          	bne	a4,a5,6104 <xTaskCreate+0x1a8>
    6080:	61c50513          	addi	a0,a0,1564
    6084:	93fff0ef          	jal	ra,59c2 <vListInitialise>
    6088:	01448513          	addi	a0,s1,20
    608c:	937ff0ef          	jal	ra,59c2 <vListInitialise>
    6090:	02848513          	addi	a0,s1,40
    6094:	92fff0ef          	jal	ra,59c2 <vListInitialise>
    6098:	03c48513          	addi	a0,s1,60
    609c:	927ff0ef          	jal	ra,59c2 <vListInitialise>
    60a0:	05048513          	addi	a0,s1,80
    60a4:	91fff0ef          	jal	ra,59c2 <vListInitialise>
    60a8:	06448513          	addi	a0,s1,100
    60ac:	917ff0ef          	jal	ra,59c2 <vListInitialise>
    60b0:	20004537          	lui	a0,0x20004
    60b4:	69450b13          	addi	s6,a0,1684 # 20004694 <xDelayedTaskList1>
    60b8:	69450513          	addi	a0,a0,1684
    60bc:	907ff0ef          	jal	ra,59c2 <vListInitialise>
    60c0:	20004537          	lui	a0,0x20004
    60c4:	6a850a93          	addi	s5,a0,1704 # 200046a8 <xDelayedTaskList2>
    60c8:	6a850513          	addi	a0,a0,1704
    60cc:	8f7ff0ef          	jal	ra,59c2 <vListInitialise>
    60d0:	20004537          	lui	a0,0x20004
    60d4:	6bc50513          	addi	a0,a0,1724 # 200046bc <xPendingReadyList>
    60d8:	8ebff0ef          	jal	ra,59c2 <vListInitialise>
    60dc:	20004537          	lui	a0,0x20004
    60e0:	6e450513          	addi	a0,a0,1764 # 200046e4 <xTasksWaitingTermination>
    60e4:	8dfff0ef          	jal	ra,59c2 <vListInitialise>
    60e8:	20004537          	lui	a0,0x20004
    60ec:	6d050513          	addi	a0,a0,1744 # 200046d0 <xSuspendedTaskList>
    60f0:	8d3ff0ef          	jal	ra,59c2 <vListInitialise>
    60f4:	200007b7          	lui	a5,0x20000
    60f8:	1567a423          	sw	s6,328(a5) # 20000148 <pxDelayedTaskList>
    60fc:	200007b7          	lui	a5,0x20000
    6100:	1557a623          	sw	s5,332(a5) # 2000014c <pxOverflowDelayedTaskList>
    6104:	200007b7          	lui	a5,0x20000
    6108:	15c78793          	addi	a5,a5,348 # 2000015c <uxTaskNumber>
    610c:	4398                	lw	a4,0(a5)
    610e:	0705                	addi	a4,a4,1
    6110:	c398                	sw	a4,0(a5)
    6112:	20000737          	lui	a4,0x20000
    6116:	16070713          	addi	a4,a4,352 # 20000160 <uxTopReadyPriority>
    611a:	545c                	lw	a5,44(s0)
    611c:	4314                	lw	a3,0(a4)
    611e:	00f6f363          	bgeu	a3,a5,6124 <xTaskCreate+0x1c8>
    6122:	c31c                	sw	a5,0(a4)
    6124:	4751                	li	a4,20
    6126:	02e787b3          	mul	a5,a5,a4
    612a:	94be                	add	s1,s1,a5
    612c:	40dc                	lw	a5,4(s1)
    612e:	4798                	lw	a4,8(a5)
    6130:	c41c                	sw	a5,8(s0)
    6132:	c458                	sw	a4,12(s0)
    6134:	4798                	lw	a4,8(a5)
    6136:	01372223          	sw	s3,4(a4)
    613a:	0137a423          	sw	s3,8(a5)
    613e:	409c                	lw	a5,0(s1)
    6140:	c844                	sw	s1,20(s0)
    6142:	0785                	addi	a5,a5,1
    6144:	c09c                	sw	a5,0(s1)
    6146:	83bff0ef          	jal	ra,5980 <vPortExitCritical>
    614a:	000a2783          	lw	a5,0(s4)
    614e:	4505                	li	a0,1
    6150:	cf81                	beqz	a5,6168 <xTaskCreate+0x20c>
    6152:	00092783          	lw	a5,0(s2)
    6156:	57d8                	lw	a4,44(a5)
    6158:	545c                	lw	a5,44(s0)
    615a:	00f77763          	bgeu	a4,a5,6168 <xTaskCreate+0x20c>
    615e:	e000e7b7          	lui	a5,0xe000e
    6162:	6711                	lui	a4,0x4
    6164:	20e7a023          	sw	a4,512(a5) # e000e200 <__freertos_irq_stack_top+0xc0006200>
    6168:	bbefa06f          	j	526 <__riscv_restore_10>
    616c:	000a2783          	lw	a5,0(s4)
    6170:	fbd1                	bnez	a5,6104 <xTaskCreate+0x1a8>
    6172:	00092783          	lw	a5,0(s2)
    6176:	57d8                	lw	a4,44(a5)
    6178:	545c                	lw	a5,44(s0)
    617a:	f8e7e5e3          	bltu	a5,a4,6104 <xTaskCreate+0x1a8>
    617e:	00892023          	sw	s0,0(s2)
    6182:	b749                	j	6104 <xTaskCreate+0x1a8>

00006184 <vTaskStartScheduler>:
    6184:	b92fa2ef          	jal	t0,516 <__riscv_save_0>
    6188:	200007b7          	lui	a5,0x20000
    618c:	0000c5b7          	lui	a1,0xc
    6190:	00006537          	lui	a0,0x6
    6194:	16478793          	addi	a5,a5,356 # 20000164 <xIdleTaskHandle>
    6198:	4701                	li	a4,0
    619a:	4681                	li	a3,0
    619c:	10000613          	li	a2,256
    61a0:	57858593          	addi	a1,a1,1400 # c578 <dmp_memory+0xd00>
    61a4:	f0a50513          	addi	a0,a0,-246 # 5f0a <prvIdleTask>
    61a8:	db5ff0ef          	jal	ra,5f5c <xTaskCreate>
    61ac:	4405                	li	s0,1
    61ae:	02851e63          	bne	a0,s0,61ea <vTaskStartScheduler+0x66>
    61b2:	229000ef          	jal	ra,6bda <xTimerCreateTimerTask>
    61b6:	02851a63          	bne	a0,s0,61ea <vTaskStartScheduler+0x66>
    61ba:	67a1                	lui	a5,0x8
    61bc:	80078793          	addi	a5,a5,-2048 # 7800 <printInt+0x24>
    61c0:	30079073          	csrw	mstatus,a5
    61c4:	200007b7          	lui	a5,0x20000
    61c8:	577d                	li	a4,-1
    61ca:	16e7a423          	sw	a4,360(a5) # 20000168 <xNextTaskUnblockTime>
    61ce:	200007b7          	lui	a5,0x20000
    61d2:	16a7aa23          	sw	a0,372(a5) # 20000174 <xSchedulerRunning>
    61d6:	200007b7          	lui	a5,0x20000
    61da:	1607ac23          	sw	zero,376(a5) # 20000178 <xTickCount>
    61de:	ec4ff0ef          	jal	ra,58a2 <xPortStartScheduler>
    61e2:	81c1a783          	lw	a5,-2020(gp) # 200000f4 <uxTopUsedPriority>
    61e6:	b54fa06f          	j	53a <__riscv_restore_0>
    61ea:	57fd                	li	a5,-1
    61ec:	fef51be3          	bne	a0,a5,61e2 <vTaskStartScheduler+0x5e>
    61f0:	67a1                	lui	a5,0x8
    61f2:	80078793          	addi	a5,a5,-2048 # 7800 <printInt+0x24>
    61f6:	30079073          	csrw	mstatus,a5
    61fa:	0000c637          	lui	a2,0xc
    61fe:	6585                	lui	a1,0x1
    6200:	0000c537          	lui	a0,0xc
    6204:	56460613          	addi	a2,a2,1380 # c564 <dmp_memory+0xcec>
    6208:	84058593          	addi	a1,a1,-1984 # 840 <__stack_size+0x40>
    620c:	50450513          	addi	a0,a0,1284 # c504 <dmp_memory+0xc8c>
    6210:	439010ef          	jal	ra,7e48 <printf>
    6214:	a001                	j	6214 <vTaskStartScheduler+0x90>

00006216 <vTaskSuspendAll>:
    6216:	200007b7          	lui	a5,0x20000
    621a:	15878793          	addi	a5,a5,344 # 20000158 <uxSchedulerSuspended>
    621e:	4398                	lw	a4,0(a5)
    6220:	0705                	addi	a4,a4,1
    6222:	c398                	sw	a4,0(a5)
    6224:	8082                	ret

00006226 <xTaskGetTickCount>:
    6226:	200007b7          	lui	a5,0x20000
    622a:	1787a503          	lw	a0,376(a5) # 20000178 <xTickCount>
    622e:	8082                	ret

00006230 <xTaskIncrementTick>:
    6230:	200007b7          	lui	a5,0x20000
    6234:	1587a783          	lw	a5,344(a5) # 20000158 <uxSchedulerSuspended>
    6238:	18079963          	bnez	a5,63ca <xTaskIncrementTick+0x19a>
    623c:	adafa2ef          	jal	t0,516 <__riscv_save_0>
    6240:	200007b7          	lui	a5,0x20000
    6244:	17878793          	addi	a5,a5,376 # 20000178 <xTickCount>
    6248:	4380                	lw	s0,0(a5)
    624a:	0405                	addi	s0,s0,1
    624c:	c380                	sw	s0,0(a5)
    624e:	ec21                	bnez	s0,62a6 <xTaskIncrementTick+0x76>
    6250:	200007b7          	lui	a5,0x20000
    6254:	14878793          	addi	a5,a5,328 # 20000148 <pxDelayedTaskList>
    6258:	4398                	lw	a4,0(a5)
    625a:	4318                	lw	a4,0(a4)
    625c:	c705                	beqz	a4,6284 <xTaskIncrementTick+0x54>
    625e:	67a1                	lui	a5,0x8
    6260:	80078793          	addi	a5,a5,-2048 # 7800 <printInt+0x24>
    6264:	30079073          	csrw	mstatus,a5
    6268:	0000c637          	lui	a2,0xc
    626c:	6585                	lui	a1,0x1
    626e:	0000c537          	lui	a0,0xc
    6272:	56460613          	addi	a2,a2,1380 # c564 <dmp_memory+0xcec>
    6276:	ac758593          	addi	a1,a1,-1337 # ac7 <ELRS_Convert_angle+0x31>
    627a:	50450513          	addi	a0,a0,1284 # c504 <dmp_memory+0xc8c>
    627e:	3cb010ef          	jal	ra,7e48 <printf>
    6282:	a001                	j	6282 <xTaskIncrementTick+0x52>
    6284:	20000737          	lui	a4,0x20000
    6288:	14c70713          	addi	a4,a4,332 # 2000014c <pxOverflowDelayedTaskList>
    628c:	4394                	lw	a3,0(a5)
    628e:	4310                	lw	a2,0(a4)
    6290:	c390                	sw	a2,0(a5)
    6292:	200007b7          	lui	a5,0x20000
    6296:	c314                	sw	a3,0(a4)
    6298:	16c78793          	addi	a5,a5,364 # 2000016c <xNumOfOverflows>
    629c:	4398                	lw	a4,0(a5)
    629e:	0705                	addi	a4,a4,1
    62a0:	c398                	sw	a4,0(a5)
    62a2:	b9fff0ef          	jal	ra,5e40 <prvResetNextTaskUnblockTime>
    62a6:	20000637          	lui	a2,0x20000
    62aa:	16860793          	addi	a5,a2,360 # 20000168 <xNextTaskUnblockTime>
    62ae:	439c                	lw	a5,0(a5)
    62b0:	20004737          	lui	a4,0x20004
    62b4:	200005b7          	lui	a1,0x20000
    62b8:	16860613          	addi	a2,a2,360
    62bc:	61c70713          	addi	a4,a4,1564 # 2000461c <pxReadyTasksLists>
    62c0:	14458593          	addi	a1,a1,324 # 20000144 <pxCurrentTCB>
    62c4:	4501                	li	a0,0
    62c6:	02f47563          	bgeu	s0,a5,62f0 <xTaskIncrementTick+0xc0>
    62ca:	419c                	lw	a5,0(a1)
    62cc:	46d1                	li	a3,20
    62ce:	57dc                	lw	a5,44(a5)
    62d0:	02d787b3          	mul	a5,a5,a3
    62d4:	973e                	add	a4,a4,a5
    62d6:	4318                	lw	a4,0(a4)
    62d8:	4785                	li	a5,1
    62da:	00e7f363          	bgeu	a5,a4,62e0 <xTaskIncrementTick+0xb0>
    62de:	4505                	li	a0,1
    62e0:	200007b7          	lui	a5,0x20000
    62e4:	17c7a783          	lw	a5,380(a5) # 2000017c <xYieldPending>
    62e8:	c391                	beqz	a5,62ec <xTaskIncrementTick+0xbc>
    62ea:	4505                	li	a0,1
    62ec:	a4efa06f          	j	53a <__riscv_restore_0>
    62f0:	20000e37          	lui	t3,0x20000
    62f4:	20000eb7          	lui	t4,0x20000
    62f8:	4f51                	li	t5,20
    62fa:	148e0793          	addi	a5,t3,328 # 20000148 <pxDelayedTaskList>
    62fe:	4394                	lw	a3,0(a5)
    6300:	4294                	lw	a3,0(a3)
    6302:	e681                	bnez	a3,630a <xTaskIncrementTick+0xda>
    6304:	57fd                	li	a5,-1
    6306:	c21c                	sw	a5,0(a2)
    6308:	b7c9                	j	62ca <xTaskIncrementTick+0x9a>
    630a:	439c                	lw	a5,0(a5)
    630c:	47dc                	lw	a5,12(a5)
    630e:	47dc                	lw	a5,12(a5)
    6310:	43d4                	lw	a3,4(a5)
    6312:	00d47463          	bgeu	s0,a3,631a <xTaskIncrementTick+0xea>
    6316:	c214                	sw	a3,0(a2)
    6318:	bf4d                	j	62ca <xTaskIncrementTick+0x9a>
    631a:	0087a883          	lw	a7,8(a5)
    631e:	00c7a803          	lw	a6,12(a5)
    6322:	4bd4                	lw	a3,20(a5)
    6324:	00478313          	addi	t1,a5,4
    6328:	0108a423          	sw	a6,8(a7)
    632c:	01182223          	sw	a7,4(a6)
    6330:	0046a883          	lw	a7,4(a3)
    6334:	00689463          	bne	a7,t1,633c <xTaskIncrementTick+0x10c>
    6338:	0106a223          	sw	a6,4(a3)
    633c:	0006a803          	lw	a6,0(a3)
    6340:	0007aa23          	sw	zero,20(a5)
    6344:	187d                	addi	a6,a6,-1
    6346:	0106a023          	sw	a6,0(a3)
    634a:	5794                	lw	a3,40(a5)
    634c:	ca95                	beqz	a3,6380 <xTaskIncrementTick+0x150>
    634e:	01c7a803          	lw	a6,28(a5)
    6352:	0207a883          	lw	a7,32(a5)
    6356:	0046af83          	lw	t6,4(a3)
    635a:	01182423          	sw	a7,8(a6)
    635e:	0207a883          	lw	a7,32(a5)
    6362:	0108a223          	sw	a6,4(a7)
    6366:	01878813          	addi	a6,a5,24
    636a:	010f9463          	bne	t6,a6,6372 <xTaskIncrementTick+0x142>
    636e:	0116a223          	sw	a7,4(a3)
    6372:	0006a803          	lw	a6,0(a3)
    6376:	0207a423          	sw	zero,40(a5)
    637a:	187d                	addi	a6,a6,-1
    637c:	0106a023          	sw	a6,0(a3)
    6380:	160e8693          	addi	a3,t4,352 # 20000160 <uxTopReadyPriority>
    6384:	02c7a803          	lw	a6,44(a5)
    6388:	0006a883          	lw	a7,0(a3)
    638c:	0108f463          	bgeu	a7,a6,6394 <xTaskIncrementTick+0x164>
    6390:	0106a023          	sw	a6,0(a3)
    6394:	03e806b3          	mul	a3,a6,t5
    6398:	96ba                	add	a3,a3,a4
    639a:	0046a883          	lw	a7,4(a3)
    639e:	0088af83          	lw	t6,8(a7)
    63a2:	0117a423          	sw	a7,8(a5)
    63a6:	01f7a623          	sw	t6,12(a5)
    63aa:	0088af83          	lw	t6,8(a7)
    63ae:	006fa223          	sw	t1,4(t6)
    63b2:	0068a423          	sw	t1,8(a7)
    63b6:	cbd4                	sw	a3,20(a5)
    63b8:	429c                	lw	a5,0(a3)
    63ba:	0785                	addi	a5,a5,1
    63bc:	c29c                	sw	a5,0(a3)
    63be:	419c                	lw	a5,0(a1)
    63c0:	57dc                	lw	a5,44(a5)
    63c2:	f2f86ce3          	bltu	a6,a5,62fa <xTaskIncrementTick+0xca>
    63c6:	4505                	li	a0,1
    63c8:	bf0d                	j	62fa <xTaskIncrementTick+0xca>
    63ca:	200007b7          	lui	a5,0x20000
    63ce:	17078793          	addi	a5,a5,368 # 20000170 <xPendedTicks>
    63d2:	4398                	lw	a4,0(a5)
    63d4:	4501                	li	a0,0
    63d6:	0705                	addi	a4,a4,1
    63d8:	c398                	sw	a4,0(a5)
    63da:	8082                	ret

000063dc <xTaskResumeAll>:
    63dc:	920fa2ef          	jal	t0,4fc <__riscv_save_4>
    63e0:	20000437          	lui	s0,0x20000
    63e4:	15840413          	addi	s0,s0,344 # 20000158 <uxSchedulerSuspended>
    63e8:	401c                	lw	a5,0(s0)
    63ea:	1141                	addi	sp,sp,-16
    63ec:	e785                	bnez	a5,6414 <xTaskResumeAll+0x38>
    63ee:	67a1                	lui	a5,0x8
    63f0:	80078793          	addi	a5,a5,-2048 # 7800 <printInt+0x24>
    63f4:	30079073          	csrw	mstatus,a5
    63f8:	0000c637          	lui	a2,0xc
    63fc:	6585                	lui	a1,0x1
    63fe:	0000c537          	lui	a0,0xc
    6402:	56460613          	addi	a2,a2,1380 # c564 <dmp_memory+0xcec>
    6406:	8b358593          	addi	a1,a1,-1869 # 8b3 <PIDSTRUCT_Init+0x17>
    640a:	50450513          	addi	a0,a0,1284 # c504 <dmp_memory+0xc8c>
    640e:	23b010ef          	jal	ra,7e48 <printf>
    6412:	a001                	j	6412 <xTaskResumeAll+0x36>
    6414:	d56ff0ef          	jal	ra,596a <vPortEnterCritical>
    6418:	401c                	lw	a5,0(s0)
    641a:	17fd                	addi	a5,a5,-1
    641c:	c01c                	sw	a5,0(s0)
    641e:	401c                	lw	a5,0(s0)
    6420:	cb89                	beqz	a5,6432 <xTaskResumeAll+0x56>
    6422:	4501                	li	a0,0
    6424:	c62a                	sw	a0,12(sp)
    6426:	d5aff0ef          	jal	ra,5980 <vPortExitCritical>
    642a:	4532                	lw	a0,12(sp)
    642c:	0141                	addi	sp,sp,16
    642e:	902fa06f          	j	530 <__riscv_restore_4>
    6432:	200007b7          	lui	a5,0x20000
    6436:	1507a783          	lw	a5,336(a5) # 20000150 <uxCurrentNumberOfTasks>
    643a:	d7e5                	beqz	a5,6422 <xTaskResumeAll+0x46>
    643c:	200046b7          	lui	a3,0x20004
    6440:	20004537          	lui	a0,0x20004
    6444:	4781                	li	a5,0
    6446:	6bc68693          	addi	a3,a3,1724 # 200046bc <xPendingReadyList>
    644a:	20000f37          	lui	t5,0x20000
    644e:	61c50513          	addi	a0,a0,1564 # 2000461c <pxReadyTasksLists>
    6452:	48d1                	li	a7,20
    6454:	20000337          	lui	t1,0x20000
    6458:	20000e37          	lui	t3,0x20000
    645c:	4e85                	li	t4,1
    645e:	a859                	j	64f4 <xTaskResumeAll+0x118>
    6460:	46dc                	lw	a5,12(a3)
    6462:	47dc                	lw	a5,12(a5)
    6464:	4fcc                	lw	a1,28(a5)
    6466:	5390                	lw	a2,32(a5)
    6468:	5798                	lw	a4,40(a5)
    646a:	c590                	sw	a2,8(a1)
    646c:	0207a803          	lw	a6,32(a5)
    6470:	00b82223          	sw	a1,4(a6)
    6474:	00472803          	lw	a6,4(a4)
    6478:	01878593          	addi	a1,a5,24
    647c:	00b81363          	bne	a6,a1,6482 <xTaskResumeAll+0xa6>
    6480:	c350                	sw	a2,4(a4)
    6482:	4310                	lw	a2,0(a4)
    6484:	0207a423          	sw	zero,40(a5)
    6488:	167d                	addi	a2,a2,-1
    648a:	c310                	sw	a2,0(a4)
    648c:	478c                	lw	a1,8(a5)
    648e:	47d0                	lw	a2,12(a5)
    6490:	4bd8                	lw	a4,20(a5)
    6492:	00478813          	addi	a6,a5,4
    6496:	c590                	sw	a2,8(a1)
    6498:	c24c                	sw	a1,4(a2)
    649a:	434c                	lw	a1,4(a4)
    649c:	01059363          	bne	a1,a6,64a2 <xTaskResumeAll+0xc6>
    64a0:	c350                	sw	a2,4(a4)
    64a2:	4310                	lw	a2,0(a4)
    64a4:	0007aa23          	sw	zero,20(a5)
    64a8:	167d                	addi	a2,a2,-1
    64aa:	c310                	sw	a2,0(a4)
    64ac:	160f0713          	addi	a4,t5,352 # 20000160 <uxTopReadyPriority>
    64b0:	57d0                	lw	a2,44(a5)
    64b2:	430c                	lw	a1,0(a4)
    64b4:	00c5f363          	bgeu	a1,a2,64ba <xTaskResumeAll+0xde>
    64b8:	c310                	sw	a2,0(a4)
    64ba:	03160733          	mul	a4,a2,a7
    64be:	972a                	add	a4,a4,a0
    64c0:	434c                	lw	a1,4(a4)
    64c2:	0085af83          	lw	t6,8(a1)
    64c6:	c78c                	sw	a1,8(a5)
    64c8:	01f7a623          	sw	t6,12(a5)
    64cc:	0085af83          	lw	t6,8(a1)
    64d0:	010fa223          	sw	a6,4(t6)
    64d4:	0105a423          	sw	a6,8(a1)
    64d8:	430c                	lw	a1,0(a4)
    64da:	cbd8                	sw	a4,20(a5)
    64dc:	0585                	addi	a1,a1,1
    64de:	c30c                	sw	a1,0(a4)
    64e0:	14430713          	addi	a4,t1,324 # 20000144 <pxCurrentTCB>
    64e4:	4318                	lw	a4,0(a4)
    64e6:	5758                	lw	a4,44(a4)
    64e8:	00e66663          	bltu	a2,a4,64f4 <xTaskResumeAll+0x118>
    64ec:	17ce0713          	addi	a4,t3,380 # 2000017c <xYieldPending>
    64f0:	01d72023          	sw	t4,0(a4)
    64f4:	4298                	lw	a4,0(a3)
    64f6:	f72d                	bnez	a4,6460 <xTaskResumeAll+0x84>
    64f8:	c399                	beqz	a5,64fe <xTaskResumeAll+0x122>
    64fa:	947ff0ef          	jal	ra,5e40 <prvResetNextTaskUnblockTime>
    64fe:	200007b7          	lui	a5,0x20000
    6502:	17078713          	addi	a4,a5,368 # 20000170 <xPendedTicks>
    6506:	4304                	lw	s1,0(a4)
    6508:	17078413          	addi	s0,a5,368
    650c:	cc99                	beqz	s1,652a <xTaskResumeAll+0x14e>
    650e:	20000937          	lui	s2,0x20000
    6512:	4985                	li	s3,1
    6514:	d1dff0ef          	jal	ra,6230 <xTaskIncrementTick>
    6518:	c509                	beqz	a0,6522 <xTaskResumeAll+0x146>
    651a:	17c90793          	addi	a5,s2,380 # 2000017c <xYieldPending>
    651e:	0137a023          	sw	s3,0(a5)
    6522:	14fd                	addi	s1,s1,-1
    6524:	f8e5                	bnez	s1,6514 <xTaskResumeAll+0x138>
    6526:	00042023          	sw	zero,0(s0)
    652a:	200007b7          	lui	a5,0x20000
    652e:	17c7a783          	lw	a5,380(a5) # 2000017c <xYieldPending>
    6532:	ee0788e3          	beqz	a5,6422 <xTaskResumeAll+0x46>
    6536:	e000e7b7          	lui	a5,0xe000e
    653a:	6711                	lui	a4,0x4
    653c:	20e7a023          	sw	a4,512(a5) # e000e200 <__freertos_irq_stack_top+0xc0006200>
    6540:	4505                	li	a0,1
    6542:	b5cd                	j	6424 <xTaskResumeAll+0x48>

00006544 <vTaskDelay>:
    6544:	e519                	bnez	a0,6552 <vTaskDelay+0xe>
    6546:	e000e7b7          	lui	a5,0xe000e
    654a:	6711                	lui	a4,0x4
    654c:	20e7a023          	sw	a4,512(a5) # e000e200 <__freertos_irq_stack_top+0xc0006200>
    6550:	8082                	ret
    6552:	fc5f92ef          	jal	t0,516 <__riscv_save_0>
    6556:	200007b7          	lui	a5,0x20000
    655a:	1587a783          	lw	a5,344(a5) # 20000158 <uxSchedulerSuspended>
    655e:	1141                	addi	sp,sp,-16
    6560:	c39d                	beqz	a5,6586 <vTaskDelay+0x42>
    6562:	67a1                	lui	a5,0x8
    6564:	80078793          	addi	a5,a5,-2048 # 7800 <printInt+0x24>
    6568:	30079073          	csrw	mstatus,a5
    656c:	0000c637          	lui	a2,0xc
    6570:	0000c537          	lui	a0,0xc
    6574:	56460613          	addi	a2,a2,1380 # c564 <dmp_memory+0xcec>
    6578:	54900593          	li	a1,1353
    657c:	50450513          	addi	a0,a0,1284 # c504 <dmp_memory+0xc8c>
    6580:	0c9010ef          	jal	ra,7e48 <printf>
    6584:	a001                	j	6584 <vTaskDelay+0x40>
    6586:	c62a                	sw	a0,12(sp)
    6588:	c8fff0ef          	jal	ra,6216 <vTaskSuspendAll>
    658c:	4532                	lw	a0,12(sp)
    658e:	4581                	li	a1,0
    6590:	8d5ff0ef          	jal	ra,5e64 <prvAddCurrentTaskToDelayedList>
    6594:	e49ff0ef          	jal	ra,63dc <xTaskResumeAll>
    6598:	e511                	bnez	a0,65a4 <vTaskDelay+0x60>
    659a:	e000e7b7          	lui	a5,0xe000e
    659e:	6711                	lui	a4,0x4
    65a0:	20e7a023          	sw	a4,512(a5) # e000e200 <__freertos_irq_stack_top+0xc0006200>
    65a4:	0141                	addi	sp,sp,16
    65a6:	f95f906f          	j	53a <__riscv_restore_0>

000065aa <vTaskSwitchContext>:
    65aa:	200007b7          	lui	a5,0x20000
    65ae:	1587a703          	lw	a4,344(a5) # 20000158 <uxSchedulerSuspended>
    65b2:	200007b7          	lui	a5,0x20000
    65b6:	17c78793          	addi	a5,a5,380 # 2000017c <xYieldPending>
    65ba:	c701                	beqz	a4,65c2 <vTaskSwitchContext+0x18>
    65bc:	4705                	li	a4,1
    65be:	c398                	sw	a4,0(a5)
    65c0:	8082                	ret
    65c2:	0007a023          	sw	zero,0(a5)
    65c6:	200007b7          	lui	a5,0x20000
    65ca:	16078713          	addi	a4,a5,352 # 20000160 <uxTopReadyPriority>
    65ce:	4318                	lw	a4,0(a4)
    65d0:	16078613          	addi	a2,a5,352
    65d4:	200047b7          	lui	a5,0x20004
    65d8:	61c78793          	addi	a5,a5,1564 # 2000461c <pxReadyTasksLists>
    65dc:	4851                	li	a6,20
    65de:	030706b3          	mul	a3,a4,a6
    65e2:	00d785b3          	add	a1,a5,a3
    65e6:	4188                	lw	a0,0(a1)
    65e8:	c515                	beqz	a0,6614 <vTaskSwitchContext+0x6a>
    65ea:	41c8                	lw	a0,4(a1)
    65ec:	06a1                	addi	a3,a3,8
    65ee:	96be                	add	a3,a3,a5
    65f0:	4148                	lw	a0,4(a0)
    65f2:	c1c8                	sw	a0,4(a1)
    65f4:	00d51463          	bne	a0,a3,65fc <vTaskSwitchContext+0x52>
    65f8:	4154                	lw	a3,4(a0)
    65fa:	c1d4                	sw	a3,4(a1)
    65fc:	46d1                	li	a3,20
    65fe:	02d706b3          	mul	a3,a4,a3
    6602:	97b6                	add	a5,a5,a3
    6604:	43dc                	lw	a5,4(a5)
    6606:	47d4                	lw	a3,12(a5)
    6608:	200007b7          	lui	a5,0x20000
    660c:	14d7a223          	sw	a3,324(a5) # 20000144 <pxCurrentTCB>
    6610:	c218                	sw	a4,0(a2)
    6612:	8082                	ret
    6614:	e715                	bnez	a4,6640 <vTaskSwitchContext+0x96>
    6616:	f01f92ef          	jal	t0,516 <__riscv_save_0>
    661a:	67a1                	lui	a5,0x8
    661c:	80078793          	addi	a5,a5,-2048 # 7800 <printInt+0x24>
    6620:	30079073          	csrw	mstatus,a5
    6624:	0000c637          	lui	a2,0xc
    6628:	6585                	lui	a1,0x1
    662a:	0000c537          	lui	a0,0xc
    662e:	56460613          	addi	a2,a2,1380 # c564 <dmp_memory+0xcec>
    6632:	c0258593          	addi	a1,a1,-1022 # c02 <Yaw_innerloop_ctr+0x2>
    6636:	50450513          	addi	a0,a0,1284 # c504 <dmp_memory+0xc8c>
    663a:	00f010ef          	jal	ra,7e48 <printf>
    663e:	a001                	j	663e <vTaskSwitchContext+0x94>
    6640:	177d                	addi	a4,a4,-1
    6642:	bf71                	j	65de <vTaskSwitchContext+0x34>

00006644 <vTaskPlaceOnEventList>:
    6644:	ed3f92ef          	jal	t0,516 <__riscv_save_0>
    6648:	e505                	bnez	a0,6670 <vTaskPlaceOnEventList+0x2c>
    664a:	67a1                	lui	a5,0x8
    664c:	80078793          	addi	a5,a5,-2048 # 7800 <printInt+0x24>
    6650:	30079073          	csrw	mstatus,a5
    6654:	0000c637          	lui	a2,0xc
    6658:	6585                	lui	a1,0x1
    665a:	0000c537          	lui	a0,0xc
    665e:	56460613          	addi	a2,a2,1380 # c564 <dmp_memory+0xcec>
    6662:	c1c58593          	addi	a1,a1,-996 # c1c <Yaw_innerloop_ctr+0x1c>
    6666:	50450513          	addi	a0,a0,1284 # c504 <dmp_memory+0xc8c>
    666a:	7de010ef          	jal	ra,7e48 <printf>
    666e:	a001                	j	666e <vTaskPlaceOnEventList+0x2a>
    6670:	200007b7          	lui	a5,0x20000
    6674:	842e                	mv	s0,a1
    6676:	1447a583          	lw	a1,324(a5) # 20000144 <pxCurrentTCB>
    667a:	05e1                	addi	a1,a1,24
    667c:	b60ff0ef          	jal	ra,59dc <vListInsert>
    6680:	4585                	li	a1,1
    6682:	8522                	mv	a0,s0
    6684:	fe0ff0ef          	jal	ra,5e64 <prvAddCurrentTaskToDelayedList>
    6688:	eb3f906f          	j	53a <__riscv_restore_0>

0000668c <vTaskPlaceOnEventListRestricted>:
    668c:	e8bf92ef          	jal	t0,516 <__riscv_save_0>
    6690:	872a                	mv	a4,a0
    6692:	e505                	bnez	a0,66ba <vTaskPlaceOnEventListRestricted+0x2e>
    6694:	67a1                	lui	a5,0x8
    6696:	80078793          	addi	a5,a5,-2048 # 7800 <printInt+0x24>
    669a:	30079073          	csrw	mstatus,a5
    669e:	0000c637          	lui	a2,0xc
    66a2:	6585                	lui	a1,0x1
    66a4:	0000c537          	lui	a0,0xc
    66a8:	56460613          	addi	a2,a2,1380 # c564 <dmp_memory+0xcec>
    66ac:	c5258593          	addi	a1,a1,-942 # c52 <Pitch_outerloop_ctr+0x18>
    66b0:	50450513          	addi	a0,a0,1284 # c504 <dmp_memory+0xc8c>
    66b4:	794010ef          	jal	ra,7e48 <printf>
    66b8:	a001                	j	66b8 <vTaskPlaceOnEventListRestricted+0x2c>
    66ba:	200007b7          	lui	a5,0x20000
    66be:	14478793          	addi	a5,a5,324 # 20000144 <pxCurrentTCB>
    66c2:	4354                	lw	a3,4(a4)
    66c4:	852e                	mv	a0,a1
    66c6:	438c                	lw	a1,0(a5)
    66c8:	0086a803          	lw	a6,8(a3)
    66cc:	cdd4                	sw	a3,28(a1)
    66ce:	438c                	lw	a1,0(a5)
    66d0:	0305a023          	sw	a6,32(a1)
    66d4:	0007a803          	lw	a6,0(a5)
    66d8:	468c                	lw	a1,8(a3)
    66da:	0861                	addi	a6,a6,24
    66dc:	0105a223          	sw	a6,4(a1)
    66e0:	0007a803          	lw	a6,0(a5)
    66e4:	439c                	lw	a5,0(a5)
    66e6:	0861                	addi	a6,a6,24
    66e8:	0106a423          	sw	a6,8(a3)
    66ec:	d798                	sw	a4,40(a5)
    66ee:	431c                	lw	a5,0(a4)
    66f0:	0785                	addi	a5,a5,1
    66f2:	c31c                	sw	a5,0(a4)
    66f4:	c211                	beqz	a2,66f8 <vTaskPlaceOnEventListRestricted+0x6c>
    66f6:	557d                	li	a0,-1
    66f8:	85b2                	mv	a1,a2
    66fa:	f6aff0ef          	jal	ra,5e64 <prvAddCurrentTaskToDelayedList>
    66fe:	e3df906f          	j	53a <__riscv_restore_0>

00006702 <xTaskRemoveFromEventList>:
    6702:	455c                	lw	a5,12(a0)
    6704:	47dc                	lw	a5,12(a5)
    6706:	e795                	bnez	a5,6732 <xTaskRemoveFromEventList+0x30>
    6708:	e0ff92ef          	jal	t0,516 <__riscv_save_0>
    670c:	67a1                	lui	a5,0x8
    670e:	80078793          	addi	a5,a5,-2048 # 7800 <printInt+0x24>
    6712:	30079073          	csrw	mstatus,a5
    6716:	0000c637          	lui	a2,0xc
    671a:	6585                	lui	a1,0x1
    671c:	0000c537          	lui	a0,0xc
    6720:	56460613          	addi	a2,a2,1380 # c564 <dmp_memory+0xcec>
    6724:	c8258593          	addi	a1,a1,-894 # c82 <Pitch_innerloop_ctr+0x10>
    6728:	50450513          	addi	a0,a0,1284 # c504 <dmp_memory+0xc8c>
    672c:	71c010ef          	jal	ra,7e48 <printf>
    6730:	a001                	j	6730 <xTaskRemoveFromEventList+0x2e>
    6732:	4fd0                	lw	a2,28(a5)
    6734:	5394                	lw	a3,32(a5)
    6736:	5798                	lw	a4,40(a5)
    6738:	01878593          	addi	a1,a5,24
    673c:	c614                	sw	a3,8(a2)
    673e:	c2d0                	sw	a2,4(a3)
    6740:	4350                	lw	a2,4(a4)
    6742:	00b61363          	bne	a2,a1,6748 <xTaskRemoveFromEventList+0x46>
    6746:	c354                	sw	a3,4(a4)
    6748:	4314                	lw	a3,0(a4)
    674a:	0207a423          	sw	zero,40(a5)
    674e:	16fd                	addi	a3,a3,-1
    6750:	c314                	sw	a3,0(a4)
    6752:	20000737          	lui	a4,0x20000
    6756:	15872703          	lw	a4,344(a4) # 20000158 <uxSchedulerSuspended>
    675a:	57d4                	lw	a3,44(a5)
    675c:	ef25                	bnez	a4,67d4 <xTaskRemoveFromEventList+0xd2>
    675e:	478c                	lw	a1,8(a5)
    6760:	47d0                	lw	a2,12(a5)
    6762:	4bd8                	lw	a4,20(a5)
    6764:	c590                	sw	a2,8(a1)
    6766:	47d0                	lw	a2,12(a5)
    6768:	4348                	lw	a0,4(a4)
    676a:	c24c                	sw	a1,4(a2)
    676c:	00478593          	addi	a1,a5,4
    6770:	00b51363          	bne	a0,a1,6776 <xTaskRemoveFromEventList+0x74>
    6774:	c350                	sw	a2,4(a4)
    6776:	4310                	lw	a2,0(a4)
    6778:	0007aa23          	sw	zero,20(a5)
    677c:	167d                	addi	a2,a2,-1
    677e:	c310                	sw	a2,0(a4)
    6780:	20000737          	lui	a4,0x20000
    6784:	16070713          	addi	a4,a4,352 # 20000160 <uxTopReadyPriority>
    6788:	4310                	lw	a2,0(a4)
    678a:	00d67363          	bgeu	a2,a3,6790 <xTaskRemoveFromEventList+0x8e>
    678e:	c314                	sw	a3,0(a4)
    6790:	4751                	li	a4,20
    6792:	02e68633          	mul	a2,a3,a4
    6796:	20004737          	lui	a4,0x20004
    679a:	61c70713          	addi	a4,a4,1564 # 2000461c <pxReadyTasksLists>
    679e:	9732                	add	a4,a4,a2
    67a0:	4350                	lw	a2,4(a4)
    67a2:	4608                	lw	a0,8(a2)
    67a4:	c790                	sw	a2,8(a5)
    67a6:	c7c8                	sw	a0,12(a5)
    67a8:	4608                	lw	a0,8(a2)
    67aa:	c14c                	sw	a1,4(a0)
    67ac:	c60c                	sw	a1,8(a2)
    67ae:	cbd8                	sw	a4,20(a5)
    67b0:	431c                	lw	a5,0(a4)
    67b2:	4501                	li	a0,0
    67b4:	0785                	addi	a5,a5,1
    67b6:	c31c                	sw	a5,0(a4)
    67b8:	200007b7          	lui	a5,0x20000
    67bc:	1447a783          	lw	a5,324(a5) # 20000144 <pxCurrentTCB>
    67c0:	57dc                	lw	a5,44(a5)
    67c2:	00d7f863          	bgeu	a5,a3,67d2 <xTaskRemoveFromEventList+0xd0>
    67c6:	200007b7          	lui	a5,0x20000
    67ca:	4705                	li	a4,1
    67cc:	16e7ae23          	sw	a4,380(a5) # 2000017c <xYieldPending>
    67d0:	4505                	li	a0,1
    67d2:	8082                	ret
    67d4:	20004737          	lui	a4,0x20004
    67d8:	6bc70713          	addi	a4,a4,1724 # 200046bc <xPendingReadyList>
    67dc:	4350                	lw	a2,4(a4)
    67de:	4608                	lw	a0,8(a2)
    67e0:	cfd0                	sw	a2,28(a5)
    67e2:	d388                	sw	a0,32(a5)
    67e4:	4608                	lw	a0,8(a2)
    67e6:	c14c                	sw	a1,4(a0)
    67e8:	c60c                	sw	a1,8(a2)
    67ea:	d798                	sw	a4,40(a5)
    67ec:	b7d1                	j	67b0 <xTaskRemoveFromEventList+0xae>

000067ee <vTaskInternalSetTimeOutState>:
    67ee:	200007b7          	lui	a5,0x20000
    67f2:	16c7a783          	lw	a5,364(a5) # 2000016c <xNumOfOverflows>
    67f6:	c11c                	sw	a5,0(a0)
    67f8:	200007b7          	lui	a5,0x20000
    67fc:	1787a783          	lw	a5,376(a5) # 20000178 <xTickCount>
    6800:	c15c                	sw	a5,4(a0)
    6802:	8082                	ret

00006804 <xTaskCheckForTimeOut>:
    6804:	d13f92ef          	jal	t0,516 <__riscv_save_0>
    6808:	1141                	addi	sp,sp,-16
    680a:	e505                	bnez	a0,6832 <xTaskCheckForTimeOut+0x2e>
    680c:	67a1                	lui	a5,0x8
    680e:	80078793          	addi	a5,a5,-2048 # 7800 <printInt+0x24>
    6812:	30079073          	csrw	mstatus,a5
    6816:	0000c637          	lui	a2,0xc
    681a:	6585                	lui	a1,0x1
    681c:	0000c537          	lui	a0,0xc
    6820:	56460613          	addi	a2,a2,1380 # c564 <dmp_memory+0xcec>
    6824:	cfd58593          	addi	a1,a1,-771 # cfd <Update_ELRS+0x33>
    6828:	50450513          	addi	a0,a0,1284 # c504 <dmp_memory+0xc8c>
    682c:	61c010ef          	jal	ra,7e48 <printf>
    6830:	a001                	j	6830 <xTaskCheckForTimeOut+0x2c>
    6832:	e585                	bnez	a1,685a <xTaskCheckForTimeOut+0x56>
    6834:	67a1                	lui	a5,0x8
    6836:	80078793          	addi	a5,a5,-2048 # 7800 <printInt+0x24>
    683a:	30079073          	csrw	mstatus,a5
    683e:	0000c637          	lui	a2,0xc
    6842:	6585                	lui	a1,0x1
    6844:	0000c537          	lui	a0,0xc
    6848:	56460613          	addi	a2,a2,1380 # c564 <dmp_memory+0xcec>
    684c:	cfe58593          	addi	a1,a1,-770 # cfe <Update_ELRS+0x34>
    6850:	50450513          	addi	a0,a0,1284 # c504 <dmp_memory+0xc8c>
    6854:	5f4010ef          	jal	ra,7e48 <printf>
    6858:	a001                	j	6858 <xTaskCheckForTimeOut+0x54>
    685a:	c62e                	sw	a1,12(sp)
    685c:	c42a                	sw	a0,8(sp)
    685e:	90cff0ef          	jal	ra,596a <vPortEnterCritical>
    6862:	20000737          	lui	a4,0x20000
    6866:	200007b7          	lui	a5,0x20000
    686a:	14470713          	addi	a4,a4,324 # 20000144 <pxCurrentTCB>
    686e:	1787a683          	lw	a3,376(a5) # 20000178 <xTickCount>
    6872:	431c                	lw	a5,0(a4)
    6874:	4522                	lw	a0,8(sp)
    6876:	45b2                	lw	a1,12(sp)
    6878:	0517c783          	lbu	a5,81(a5)
    687c:	cb99                	beqz	a5,6892 <xTaskCheckForTimeOut+0x8e>
    687e:	431c                	lw	a5,0(a4)
    6880:	040788a3          	sb	zero,81(a5)
    6884:	4405                	li	s0,1
    6886:	8faff0ef          	jal	ra,5980 <vPortExitCritical>
    688a:	8522                	mv	a0,s0
    688c:	0141                	addi	sp,sp,16
    688e:	cadf906f          	j	53a <__riscv_restore_0>
    6892:	419c                	lw	a5,0(a1)
    6894:	577d                	li	a4,-1
    6896:	4401                	li	s0,0
    6898:	fee787e3          	beq	a5,a4,6886 <xTaskCheckForTimeOut+0x82>
    689c:	20000637          	lui	a2,0x20000
    68a0:	16c62603          	lw	a2,364(a2) # 2000016c <xNumOfOverflows>
    68a4:	00052803          	lw	a6,0(a0)
    68a8:	4158                	lw	a4,4(a0)
    68aa:	00c80763          	beq	a6,a2,68b8 <xTaskCheckForTimeOut+0xb4>
    68ae:	00e6e563          	bltu	a3,a4,68b8 <xTaskCheckForTimeOut+0xb4>
    68b2:	0005a023          	sw	zero,0(a1)
    68b6:	b7f9                	j	6884 <xTaskCheckForTimeOut+0x80>
    68b8:	40e68633          	sub	a2,a3,a4
    68bc:	fef67be3          	bgeu	a2,a5,68b2 <xTaskCheckForTimeOut+0xae>
    68c0:	8f95                	sub	a5,a5,a3
    68c2:	97ba                	add	a5,a5,a4
    68c4:	c19c                	sw	a5,0(a1)
    68c6:	f29ff0ef          	jal	ra,67ee <vTaskInternalSetTimeOutState>
    68ca:	4401                	li	s0,0
    68cc:	bf6d                	j	6886 <xTaskCheckForTimeOut+0x82>

000068ce <vTaskMissedYield>:
    68ce:	200007b7          	lui	a5,0x20000
    68d2:	4705                	li	a4,1
    68d4:	16e7ae23          	sw	a4,380(a5) # 2000017c <xYieldPending>
    68d8:	8082                	ret

000068da <xTaskGetSchedulerState>:
    68da:	200007b7          	lui	a5,0x20000
    68de:	1747a783          	lw	a5,372(a5) # 20000174 <xSchedulerRunning>
    68e2:	4505                	li	a0,1
    68e4:	cb81                	beqz	a5,68f4 <xTaskGetSchedulerState+0x1a>
    68e6:	200007b7          	lui	a5,0x20000
    68ea:	1587a503          	lw	a0,344(a5) # 20000158 <uxSchedulerSuspended>
    68ee:	00153513          	seqz	a0,a0
    68f2:	0506                	slli	a0,a0,0x1
    68f4:	8082                	ret

000068f6 <prvCheckForValidListAndQueue>:
    68f6:	c21f92ef          	jal	t0,516 <__riscv_save_0>
    68fa:	20000437          	lui	s0,0x20000
    68fe:	86cff0ef          	jal	ra,596a <vPortEnterCritical>
    6902:	18c40413          	addi	s0,s0,396 # 2000018c <xTimerQueue>
    6906:	401c                	lw	a5,0(s0)
    6908:	e7b1                	bnez	a5,6954 <prvCheckForValidListAndQueue+0x5e>
    690a:	20004537          	lui	a0,0x20004
    690e:	6f850913          	addi	s2,a0,1784 # 200046f8 <xActiveTimerList1>
    6912:	6f850513          	addi	a0,a0,1784
    6916:	8acff0ef          	jal	ra,59c2 <vListInitialise>
    691a:	20004537          	lui	a0,0x20004
    691e:	70c50493          	addi	s1,a0,1804 # 2000470c <xActiveTimerList2>
    6922:	70c50513          	addi	a0,a0,1804
    6926:	89cff0ef          	jal	ra,59c2 <vListInitialise>
    692a:	200007b7          	lui	a5,0x20000
    692e:	1927a023          	sw	s2,384(a5) # 20000180 <pxCurrentTimerList>
    6932:	4601                	li	a2,0
    6934:	200007b7          	lui	a5,0x20000
    6938:	45c1                	li	a1,16
    693a:	4511                	li	a0,4
    693c:	1897a223          	sw	s1,388(a5) # 20000184 <pxOverflowTimerList>
    6940:	a6aff0ef          	jal	ra,5baa <xQueueGenericCreate>
    6944:	c008                	sw	a0,0(s0)
    6946:	c519                	beqz	a0,6954 <prvCheckForValidListAndQueue+0x5e>
    6948:	0000c5b7          	lui	a1,0xc
    694c:	5a458593          	addi	a1,a1,1444 # c5a4 <dmp_memory+0xd2c>
    6950:	c28ff0ef          	jal	ra,5d78 <vQueueAddToRegistry>
    6954:	82cff0ef          	jal	ra,5980 <vPortExitCritical>
    6958:	be3f906f          	j	53a <__riscv_restore_0>

0000695c <prvInsertTimerInActiveList>:
    695c:	bbbf92ef          	jal	t0,516 <__riscv_save_0>
    6960:	c14c                	sw	a1,4(a0)
    6962:	c908                	sw	a0,16(a0)
    6964:	87aa                	mv	a5,a0
    6966:	02b66263          	bltu	a2,a1,698a <prvInsertTimerInActiveList+0x2e>
    696a:	4d18                	lw	a4,24(a0)
    696c:	8e15                	sub	a2,a2,a3
    696e:	4505                	li	a0,1
    6970:	00e67b63          	bgeu	a2,a4,6986 <prvInsertTimerInActiveList+0x2a>
    6974:	00478593          	addi	a1,a5,4
    6978:	200007b7          	lui	a5,0x20000
    697c:	1847a503          	lw	a0,388(a5) # 20000184 <pxOverflowTimerList>
    6980:	85cff0ef          	jal	ra,59dc <vListInsert>
    6984:	4501                	li	a0,0
    6986:	bb5f906f          	j	53a <__riscv_restore_0>
    698a:	00d67563          	bgeu	a2,a3,6994 <prvInsertTimerInActiveList+0x38>
    698e:	4505                	li	a0,1
    6990:	fed5fbe3          	bgeu	a1,a3,6986 <prvInsertTimerInActiveList+0x2a>
    6994:	00478593          	addi	a1,a5,4
    6998:	200007b7          	lui	a5,0x20000
    699c:	1807a503          	lw	a0,384(a5) # 20000180 <pxCurrentTimerList>
    69a0:	b7c5                	j	6980 <prvInsertTimerInActiveList+0x24>

000069a2 <prvReloadTimer>:
    69a2:	b75f92ef          	jal	t0,516 <__riscv_save_0>
    69a6:	842a                	mv	s0,a0
    69a8:	84ae                	mv	s1,a1
    69aa:	8932                	mv	s2,a2
    69ac:	4c0c                	lw	a1,24(s0)
    69ae:	86a6                	mv	a3,s1
    69b0:	864a                	mv	a2,s2
    69b2:	95a6                	add	a1,a1,s1
    69b4:	8522                	mv	a0,s0
    69b6:	fa7ff0ef          	jal	ra,695c <prvInsertTimerInActiveList>
    69ba:	e119                	bnez	a0,69c0 <prvReloadTimer+0x1e>
    69bc:	b7ff906f          	j	53a <__riscv_restore_0>
    69c0:	4c1c                	lw	a5,24(s0)
    69c2:	8522                	mv	a0,s0
    69c4:	94be                	add	s1,s1,a5
    69c6:	501c                	lw	a5,32(s0)
    69c8:	9782                	jalr	a5
    69ca:	b7cd                	j	69ac <prvReloadTimer+0xa>

000069cc <prvProcessExpiredTimer>:
    69cc:	b4bf92ef          	jal	t0,516 <__riscv_save_0>
    69d0:	200007b7          	lui	a5,0x20000
    69d4:	1807a783          	lw	a5,384(a5) # 20000180 <pxCurrentTimerList>
    69d8:	1141                	addi	sp,sp,-16
    69da:	84aa                	mv	s1,a0
    69dc:	47dc                	lw	a5,12(a5)
    69de:	c62e                	sw	a1,12(sp)
    69e0:	47c0                	lw	s0,12(a5)
    69e2:	00440513          	addi	a0,s0,4
    69e6:	824ff0ef          	jal	ra,5a0a <uxListRemove>
    69ea:	02444783          	lbu	a5,36(s0)
    69ee:	4632                	lw	a2,12(sp)
    69f0:	0047f713          	andi	a4,a5,4
    69f4:	cb19                	beqz	a4,6a0a <prvProcessExpiredTimer+0x3e>
    69f6:	85a6                	mv	a1,s1
    69f8:	8522                	mv	a0,s0
    69fa:	fa9ff0ef          	jal	ra,69a2 <prvReloadTimer>
    69fe:	501c                	lw	a5,32(s0)
    6a00:	8522                	mv	a0,s0
    6a02:	9782                	jalr	a5
    6a04:	0141                	addi	sp,sp,16
    6a06:	b35f906f          	j	53a <__riscv_restore_0>
    6a0a:	9bf9                	andi	a5,a5,-2
    6a0c:	02f40223          	sb	a5,36(s0)
    6a10:	b7fd                	j	69fe <prvProcessExpiredTimer+0x32>

00006a12 <prvSwitchTimerLists>:
    6a12:	b05f92ef          	jal	t0,516 <__riscv_save_0>
    6a16:	20000437          	lui	s0,0x20000
    6a1a:	18040693          	addi	a3,s0,384 # 20000180 <pxCurrentTimerList>
    6a1e:	4298                	lw	a4,0(a3)
    6a20:	431c                	lw	a5,0(a4)
    6a22:	eb91                	bnez	a5,6a36 <prvSwitchTimerLists+0x24>
    6a24:	200007b7          	lui	a5,0x20000
    6a28:	18478793          	addi	a5,a5,388 # 20000184 <pxOverflowTimerList>
    6a2c:	4390                	lw	a2,0(a5)
    6a2e:	c398                	sw	a4,0(a5)
    6a30:	c290                	sw	a2,0(a3)
    6a32:	b09f906f          	j	53a <__riscv_restore_0>
    6a36:	475c                	lw	a5,12(a4)
    6a38:	55fd                	li	a1,-1
    6a3a:	4388                	lw	a0,0(a5)
    6a3c:	f91ff0ef          	jal	ra,69cc <prvProcessExpiredTimer>
    6a40:	bfe9                	j	6a1a <prvSwitchTimerLists+0x8>

00006a42 <prvTimerTask>:
    6a42:	aadf92ef          	jal	t0,4ee <__riscv_save_10>
    6a46:	6931                	lui	s2,0xc
    6a48:	1141                	addi	sp,sp,-16
    6a4a:	20000ab7          	lui	s5,0x20000
    6a4e:	200009b7          	lui	s3,0x20000
    6a52:	20000b37          	lui	s6,0x20000
    6a56:	20000bb7          	lui	s7,0x20000
    6a5a:	58090913          	addi	s2,s2,1408 # c580 <dmp_memory+0xd08>
    6a5e:	180aa783          	lw	a5,384(s5) # 20000180 <pxCurrentTimerList>
    6a62:	4398                	lw	a4,0(a5)
    6a64:	cb29                	beqz	a4,6ab6 <prvTimerTask+0x74>
    6a66:	47dc                	lw	a5,12(a5)
    6a68:	4c81                	li	s9,0
    6a6a:	0007ac03          	lw	s8,0(a5)
    6a6e:	fa8ff0ef          	jal	ra,6216 <vTaskSuspendAll>
    6a72:	fb4ff0ef          	jal	ra,6226 <xTaskGetTickCount>
    6a76:	1889a783          	lw	a5,392(s3) # 20000188 <xLastTime.6265>
    6a7a:	842a                	mv	s0,a0
    6a7c:	18898493          	addi	s1,s3,392
    6a80:	18cb0a13          	addi	s4,s6,396 # 2000018c <xTimerQueue>
    6a84:	02f56c63          	bltu	a0,a5,6abc <prvTimerTask+0x7a>
    6a88:	c088                	sw	a0,0(s1)
    6a8a:	040c8063          	beqz	s9,6aca <prvTimerTask+0x88>
    6a8e:	184ba783          	lw	a5,388(s7) # 20000184 <pxOverflowTimerList>
    6a92:	4390                	lw	a2,0(a5)
    6a94:	00163613          	seqz	a2,a2
    6a98:	000a2503          	lw	a0,0(s4)
    6a9c:	408c05b3          	sub	a1,s8,s0
    6aa0:	b44ff0ef          	jal	ra,5de4 <vQueueWaitForMessageRestricted>
    6aa4:	939ff0ef          	jal	ra,63dc <xTaskResumeAll>
    6aa8:	ed19                	bnez	a0,6ac6 <prvTimerTask+0x84>
    6aaa:	e000e7b7          	lui	a5,0xe000e
    6aae:	6711                	lui	a4,0x4
    6ab0:	20e7a023          	sw	a4,512(a5) # e000e200 <__freertos_irq_stack_top+0xc0006200>
    6ab4:	a809                	j	6ac6 <prvTimerTask+0x84>
    6ab6:	4c85                	li	s9,1
    6ab8:	4c01                	li	s8,0
    6aba:	bf55                	j	6a6e <prvTimerTask+0x2c>
    6abc:	f57ff0ef          	jal	ra,6a12 <prvSwitchTimerLists>
    6ac0:	c080                	sw	s0,0(s1)
    6ac2:	91bff0ef          	jal	ra,63dc <xTaskResumeAll>
    6ac6:	4c21                	li	s8,8
    6ac8:	a00d                	j	6aea <prvTimerTask+0xa8>
    6aca:	4601                	li	a2,0
    6acc:	fd8566e3          	bltu	a0,s8,6a98 <prvTimerTask+0x56>
    6ad0:	90dff0ef          	jal	ra,63dc <xTaskResumeAll>
    6ad4:	85a2                	mv	a1,s0
    6ad6:	8562                	mv	a0,s8
    6ad8:	ef5ff0ef          	jal	ra,69cc <prvProcessExpiredTimer>
    6adc:	b7ed                	j	6ac6 <prvTimerTask+0x84>
    6ade:	4792                	lw	a5,4(sp)
    6ae0:	45b2                	lw	a1,12(sp)
    6ae2:	9782                	jalr	a5
    6ae4:	4782                	lw	a5,0(sp)
    6ae6:	0007dd63          	bgez	a5,6b00 <prvTimerTask+0xbe>
    6aea:	000a2503          	lw	a0,0(s4)
    6aee:	4601                	li	a2,0
    6af0:	858a                	mv	a1,sp
    6af2:	926ff0ef          	jal	ra,5c18 <xQueueReceive>
    6af6:	d525                	beqz	a0,6a5e <prvTimerTask+0x1c>
    6af8:	4782                	lw	a5,0(sp)
    6afa:	4522                	lw	a0,8(sp)
    6afc:	fe07c1e3          	bltz	a5,6ade <prvTimerTask+0x9c>
    6b00:	4422                	lw	s0,8(sp)
    6b02:	485c                	lw	a5,20(s0)
    6b04:	e39d                	bnez	a5,6b2a <prvTimerTask+0xe8>
    6b06:	f20ff0ef          	jal	ra,6226 <xTaskGetTickCount>
    6b0a:	409c                	lw	a5,0(s1)
    6b0c:	8caa                	mv	s9,a0
    6b0e:	00f57463          	bgeu	a0,a5,6b16 <prvTimerTask+0xd4>
    6b12:	f01ff0ef          	jal	ra,6a12 <prvSwitchTimerLists>
    6b16:	4782                	lw	a5,0(sp)
    6b18:	0194a023          	sw	s9,0(s1)
    6b1c:	17fd                	addi	a5,a5,-1
    6b1e:	fcfc66e3          	bltu	s8,a5,6aea <prvTimerTask+0xa8>
    6b22:	078a                	slli	a5,a5,0x2
    6b24:	97ca                	add	a5,a5,s2
    6b26:	439c                	lw	a5,0(a5)
    6b28:	8782                	jr	a5
    6b2a:	00440513          	addi	a0,s0,4
    6b2e:	eddfe0ef          	jal	ra,5a0a <uxListRemove>
    6b32:	bfd1                	j	6b06 <prvTimerTask+0xc4>
    6b34:	02444783          	lbu	a5,36(s0)
    6b38:	4c0c                	lw	a1,24(s0)
    6b3a:	4692                	lw	a3,4(sp)
    6b3c:	0017e793          	ori	a5,a5,1
    6b40:	02f40223          	sb	a5,36(s0)
    6b44:	8666                	mv	a2,s9
    6b46:	95b6                	add	a1,a1,a3
    6b48:	8522                	mv	a0,s0
    6b4a:	e13ff0ef          	jal	ra,695c <prvInsertTimerInActiveList>
    6b4e:	dd51                	beqz	a0,6aea <prvTimerTask+0xa8>
    6b50:	02444783          	lbu	a5,36(s0)
    6b54:	0047f713          	andi	a4,a5,4
    6b58:	cf01                	beqz	a4,6b70 <prvTimerTask+0x12e>
    6b5a:	4c1c                	lw	a5,24(s0)
    6b5c:	4592                	lw	a1,4(sp)
    6b5e:	8666                	mv	a2,s9
    6b60:	8522                	mv	a0,s0
    6b62:	95be                	add	a1,a1,a5
    6b64:	e3fff0ef          	jal	ra,69a2 <prvReloadTimer>
    6b68:	501c                	lw	a5,32(s0)
    6b6a:	8522                	mv	a0,s0
    6b6c:	9782                	jalr	a5
    6b6e:	bfb5                	j	6aea <prvTimerTask+0xa8>
    6b70:	9bf9                	andi	a5,a5,-2
    6b72:	02f40223          	sb	a5,36(s0)
    6b76:	bfcd                	j	6b68 <prvTimerTask+0x126>
    6b78:	02444783          	lbu	a5,36(s0)
    6b7c:	9bf9                	andi	a5,a5,-2
    6b7e:	02f40223          	sb	a5,36(s0)
    6b82:	b7a5                	j	6aea <prvTimerTask+0xa8>
    6b84:	02444783          	lbu	a5,36(s0)
    6b88:	4592                	lw	a1,4(sp)
    6b8a:	0017e793          	ori	a5,a5,1
    6b8e:	02f40223          	sb	a5,36(s0)
    6b92:	cc0c                	sw	a1,24(s0)
    6b94:	e19d                	bnez	a1,6bba <prvTimerTask+0x178>
    6b96:	67a1                	lui	a5,0x8
    6b98:	80078793          	addi	a5,a5,-2048 # 7800 <printInt+0x24>
    6b9c:	30079073          	csrw	mstatus,a5
    6ba0:	0000c637          	lui	a2,0xc
    6ba4:	0000c537          	lui	a0,0xc
    6ba8:	5ac60613          	addi	a2,a2,1452 # c5ac <dmp_memory+0xd34>
    6bac:	35900593          	li	a1,857
    6bb0:	50450513          	addi	a0,a0,1284 # c504 <dmp_memory+0xc8c>
    6bb4:	294010ef          	jal	ra,7e48 <printf>
    6bb8:	a001                	j	6bb8 <prvTimerTask+0x176>
    6bba:	86e6                	mv	a3,s9
    6bbc:	8666                	mv	a2,s9
    6bbe:	95e6                	add	a1,a1,s9
    6bc0:	8522                	mv	a0,s0
    6bc2:	d9bff0ef          	jal	ra,695c <prvInsertTimerInActiveList>
    6bc6:	b715                	j	6aea <prvTimerTask+0xa8>
    6bc8:	02444783          	lbu	a5,36(s0)
    6bcc:	0027f713          	andi	a4,a5,2
    6bd0:	f755                	bnez	a4,6b7c <prvTimerTask+0x13a>
    6bd2:	8522                	mv	a0,s0
    6bd4:	be3fe0ef          	jal	ra,57b6 <vPortFree>
    6bd8:	bf09                	j	6aea <prvTimerTask+0xa8>

00006bda <xTimerCreateTimerTask>:
    6bda:	93df92ef          	jal	t0,516 <__riscv_save_0>
    6bde:	d19ff0ef          	jal	ra,68f6 <prvCheckForValidListAndQueue>
    6be2:	200007b7          	lui	a5,0x20000
    6be6:	18c7a783          	lw	a5,396(a5) # 2000018c <xTimerQueue>
    6bea:	e39d                	bnez	a5,6c10 <xTimerCreateTimerTask+0x36>
    6bec:	67a1                	lui	a5,0x8
    6bee:	80078793          	addi	a5,a5,-2048 # 7800 <printInt+0x24>
    6bf2:	30079073          	csrw	mstatus,a5
    6bf6:	0000c637          	lui	a2,0xc
    6bfa:	0000c537          	lui	a0,0xc
    6bfe:	5ac60613          	addi	a2,a2,1452 # c5ac <dmp_memory+0xd34>
    6c02:	11900593          	li	a1,281
    6c06:	50450513          	addi	a0,a0,1284 # c504 <dmp_memory+0xc8c>
    6c0a:	23e010ef          	jal	ra,7e48 <printf>
    6c0e:	a001                	j	6c0e <xTimerCreateTimerTask+0x34>
    6c10:	200007b7          	lui	a5,0x20000
    6c14:	0000c5b7          	lui	a1,0xc
    6c18:	00007537          	lui	a0,0x7
    6c1c:	19078793          	addi	a5,a5,400 # 20000190 <xTimerTaskHandle>
    6c20:	4715                	li	a4,5
    6c22:	4681                	li	a3,0
    6c24:	10000613          	li	a2,256
    6c28:	5c458593          	addi	a1,a1,1476 # c5c4 <dmp_memory+0xd4c>
    6c2c:	a4250513          	addi	a0,a0,-1470 # 6a42 <prvTimerTask>
    6c30:	b2cff0ef          	jal	ra,5f5c <xTaskCreate>
    6c34:	dd45                	beqz	a0,6bec <xTimerCreateTimerTask+0x12>
    6c36:	905f906f          	j	53a <__riscv_restore_0>

00006c3a <Delay_Init>:
    6c3a:	80c1a783          	lw	a5,-2036(gp) # 200000e4 <SystemCoreClock>
    6c3e:	007a1737          	lui	a4,0x7a1
    6c42:	20070713          	addi	a4,a4,512 # 7a1200 <_data_lma+0x794960>
    6c46:	02e7d7b3          	divu	a5,a5,a4
    6c4a:	20000737          	lui	a4,0x20000
    6c4e:	0ff7f793          	andi	a5,a5,255
    6c52:	18f70b23          	sb	a5,406(a4) # 20000196 <p_us>
    6c56:	3e800713          	li	a4,1000
    6c5a:	02e787b3          	mul	a5,a5,a4
    6c5e:	20000737          	lui	a4,0x20000
    6c62:	18f71a23          	sh	a5,404(a4) # 20000194 <p_ms>
    6c66:	8082                	ret

00006c68 <Delay_Us>:
    6c68:	e000f7b7          	lui	a5,0xe000f
    6c6c:	43d8                	lw	a4,4(a5)
    6c6e:	4681                	li	a3,0
    6c70:	9b79                	andi	a4,a4,-2
    6c72:	c3d8                	sw	a4,4(a5)
    6c74:	20000737          	lui	a4,0x20000
    6c78:	19674703          	lbu	a4,406(a4) # 20000196 <p_us>
    6c7c:	02a70633          	mul	a2,a4,a0
    6c80:	cb90                	sw	a2,16(a5)
    6c82:	cbd4                	sw	a3,20(a5)
    6c84:	4398                	lw	a4,0(a5)
    6c86:	01076713          	ori	a4,a4,16
    6c8a:	c398                	sw	a4,0(a5)
    6c8c:	4398                	lw	a4,0(a5)
    6c8e:	02176713          	ori	a4,a4,33
    6c92:	c398                	sw	a4,0(a5)
    6c94:	43d8                	lw	a4,4(a5)
    6c96:	8b05                	andi	a4,a4,1
    6c98:	df75                	beqz	a4,6c94 <Delay_Us+0x2c>
    6c9a:	4398                	lw	a4,0(a5)
    6c9c:	9b79                	andi	a4,a4,-2
    6c9e:	c398                	sw	a4,0(a5)
    6ca0:	8082                	ret

00006ca2 <Delay_Ms>:
    6ca2:	e000f7b7          	lui	a5,0xe000f
    6ca6:	43d8                	lw	a4,4(a5)
    6ca8:	4681                	li	a3,0
    6caa:	9b79                	andi	a4,a4,-2
    6cac:	c3d8                	sw	a4,4(a5)
    6cae:	20000737          	lui	a4,0x20000
    6cb2:	19475703          	lhu	a4,404(a4) # 20000194 <p_ms>
    6cb6:	02a70633          	mul	a2,a4,a0
    6cba:	cb90                	sw	a2,16(a5)
    6cbc:	cbd4                	sw	a3,20(a5)
    6cbe:	4398                	lw	a4,0(a5)
    6cc0:	01076713          	ori	a4,a4,16
    6cc4:	c398                	sw	a4,0(a5)
    6cc6:	4398                	lw	a4,0(a5)
    6cc8:	02176713          	ori	a4,a4,33
    6ccc:	c398                	sw	a4,0(a5)
    6cce:	43d8                	lw	a4,4(a5)
    6cd0:	8b05                	andi	a4,a4,1
    6cd2:	df75                	beqz	a4,6cce <Delay_Ms+0x2c>
    6cd4:	4398                	lw	a4,0(a5)
    6cd6:	9b79                	andi	a4,a4,-2
    6cd8:	c398                	sw	a4,0(a5)
    6cda:	8082                	ret

00006cdc <USART_Printf_Init>:
    6cdc:	83bf92ef          	jal	t0,516 <__riscv_save_0>
    6ce0:	842a                	mv	s0,a0
    6ce2:	6511                	lui	a0,0x4
    6ce4:	1101                	addi	sp,sp,-32
    6ce6:	4585                	li	a1,1
    6ce8:	0511                	addi	a0,a0,4
    6cea:	988fb0ef          	jal	ra,1e72 <RCC_APB2PeriphClockCmd>
    6cee:	20000793          	li	a5,512
    6cf2:	827c                	sh	a5,4(sp)
    6cf4:	40011537          	lui	a0,0x40011
    6cf8:	478d                	li	a5,3
    6cfa:	c43e                	sw	a5,8(sp)
    6cfc:	004c                	addi	a1,sp,4
    6cfe:	47e1                	li	a5,24
    6d00:	80050513          	addi	a0,a0,-2048 # 40010800 <__freertos_irq_stack_top+0x20008800>
    6d04:	c63e                	sw	a5,12(sp)
    6d06:	c29fa0ef          	jal	ra,192e <GPIO_Init>
    6d0a:	c822                	sw	s0,16(sp)
    6d0c:	40014437          	lui	s0,0x40014
    6d10:	000807b7          	lui	a5,0x80
    6d14:	080c                	addi	a1,sp,16
    6d16:	80040513          	addi	a0,s0,-2048 # 40013800 <__freertos_irq_stack_top+0x2000b800>
    6d1a:	cc3e                	sw	a5,24(sp)
    6d1c:	ca02                	sw	zero,20(sp)
    6d1e:	00011e23          	sh	zero,28(sp)
    6d22:	d78fb0ef          	jal	ra,229a <USART_Init>
    6d26:	4585                	li	a1,1
    6d28:	80040513          	addi	a0,s0,-2048
    6d2c:	e2afb0ef          	jal	ra,2356 <USART_Cmd>
    6d30:	6105                	addi	sp,sp,32
    6d32:	809f906f          	j	53a <__riscv_restore_0>

00006d36 <_write>:
    6d36:	fc6f92ef          	jal	t0,4fc <__riscv_save_4>
    6d3a:	400144b7          	lui	s1,0x40014
    6d3e:	89ae                	mv	s3,a1
    6d40:	8932                	mv	s2,a2
    6d42:	4401                	li	s0,0
    6d44:	80048493          	addi	s1,s1,-2048 # 40013800 <__freertos_irq_stack_top+0x2000b800>
    6d48:	01244563          	blt	s0,s2,6d52 <_write+0x1c>
    6d4c:	854a                	mv	a0,s2
    6d4e:	fe2f906f          	j	530 <__riscv_restore_4>
    6d52:	04000593          	li	a1,64
    6d56:	8526                	mv	a0,s1
    6d58:	e5afb0ef          	jal	ra,23b2 <USART_GetFlagStatus>
    6d5c:	d97d                	beqz	a0,6d52 <_write+0x1c>
    6d5e:	008987b3          	add	a5,s3,s0
    6d62:	00078583          	lb	a1,0(a5) # 80000 <_data_lma+0x73760>
    6d66:	8526                	mv	a0,s1
    6d68:	0405                	addi	s0,s0,1
    6d6a:	05c2                	slli	a1,a1,0x10
    6d6c:	81c1                	srli	a1,a1,0x10
    6d6e:	e34fb0ef          	jal	ra,23a2 <USART_SendData>
    6d72:	bfd9                	j	6d48 <_write+0x12>

00006d74 <asinf>:
    6d74:	7139                	addi	sp,sp,-64
    6d76:	dc22                	sw	s0,56(sp)
    6d78:	da26                	sw	s1,52(sp)
    6d7a:	d84a                	sw	s2,48(sp)
    6d7c:	de06                	sw	ra,60(sp)
    6d7e:	82018913          	addi	s2,gp,-2016 # 200000f8 <__fdlib_version>
    6d82:	842a                	mv	s0,a0
    6d84:	2845                	jal	6e34 <__ieee754_asinf>
    6d86:	00092703          	lw	a4,0(s2)
    6d8a:	57fd                	li	a5,-1
    6d8c:	84aa                	mv	s1,a0
    6d8e:	02f70363          	beq	a4,a5,6db4 <asinf+0x40>
    6d92:	85a2                	mv	a1,s0
    6d94:	8522                	mv	a0,s0
    6d96:	0d2040ef          	jal	ra,ae68 <__unordsf2>
    6d9a:	ed09                	bnez	a0,6db4 <asinf+0x40>
    6d9c:	8522                	mv	a0,s0
    6d9e:	10f000ef          	jal	ra,76ac <fabsf>
    6da2:	00005797          	auipc	a5,0x5
    6da6:	8ca78793          	addi	a5,a5,-1846 # b66c <memcpy+0x2cc>
    6daa:	438c                	lw	a1,0(a5)
    6dac:	18f030ef          	jal	ra,a73a <__gesf2>
    6db0:	00a04963          	bgtz	a0,6dc2 <asinf+0x4e>
    6db4:	50f2                	lw	ra,60(sp)
    6db6:	5462                	lw	s0,56(sp)
    6db8:	8526                	mv	a0,s1
    6dba:	5942                	lw	s2,48(sp)
    6dbc:	54d2                	lw	s1,52(sp)
    6dbe:	6121                	addi	sp,sp,64
    6dc0:	8082                	ret
    6dc2:	4785                	li	a5,1
    6dc4:	c43e                	sw	a5,8(sp)
    6dc6:	8522                	mv	a0,s0
    6dc8:	00006797          	auipc	a5,0x6
    6dcc:	80478793          	addi	a5,a5,-2044 # c5cc <dmp_memory+0xd54>
    6dd0:	c63e                	sw	a5,12(sp)
    6dd2:	d402                	sw	zero,40(sp)
    6dd4:	31c040ef          	jal	ra,b0f0 <__extendsfdf2>
    6dd8:	872a                	mv	a4,a0
    6dda:	00004517          	auipc	a0,0x4
    6dde:	73250513          	addi	a0,a0,1842 # b50c <memcpy+0x16c>
    6de2:	cc3a                	sw	a4,24(sp)
    6de4:	c83a                	sw	a4,16(sp)
    6de6:	ce2e                	sw	a1,28(sp)
    6de8:	ca2e                	sw	a1,20(sp)
    6dea:	2535                	jal	7416 <nan>
    6dec:	00092703          	lw	a4,0(s2)
    6df0:	d02a                	sw	a0,32(sp)
    6df2:	d22e                	sw	a1,36(sp)
    6df4:	4789                	li	a5,2
    6df6:	02f70363          	beq	a4,a5,6e1c <asinf+0xa8>
    6dfa:	0028                	addi	a0,sp,8
    6dfc:	2d19                	jal	7412 <matherr>
    6dfe:	cd19                	beqz	a0,6e1c <asinf+0xa8>
    6e00:	57a2                	lw	a5,40(sp)
    6e02:	e39d                	bnez	a5,6e28 <asinf+0xb4>
    6e04:	5502                	lw	a0,32(sp)
    6e06:	5592                	lw	a1,36(sp)
    6e08:	394040ef          	jal	ra,b19c <__truncdfsf2>
    6e0c:	50f2                	lw	ra,60(sp)
    6e0e:	5462                	lw	s0,56(sp)
    6e10:	84aa                	mv	s1,a0
    6e12:	8526                	mv	a0,s1
    6e14:	5942                	lw	s2,48(sp)
    6e16:	54d2                	lw	s1,52(sp)
    6e18:	6121                	addi	sp,sp,64
    6e1a:	8082                	ret
    6e1c:	558040ef          	jal	ra,b374 <__errno>
    6e20:	02100793          	li	a5,33
    6e24:	c11c                	sw	a5,0(a0)
    6e26:	bfe9                	j	6e00 <asinf+0x8c>
    6e28:	54c040ef          	jal	ra,b374 <__errno>
    6e2c:	57a2                	lw	a5,40(sp)
    6e2e:	c11c                	sw	a5,0(a0)
    6e30:	bfd1                	j	6e04 <asinf+0x90>

00006e32 <atan2f>:
    6e32:	ae8d                	j	71a4 <__ieee754_atan2f>

00006e34 <__ieee754_asinf>:
    6e34:	1101                	addi	sp,sp,-32
    6e36:	cc22                	sw	s0,24(sp)
    6e38:	00151413          	slli	s0,a0,0x1
    6e3c:	ca26                	sw	s1,20(sp)
    6e3e:	ce06                	sw	ra,28(sp)
    6e40:	c84a                	sw	s2,16(sp)
    6e42:	c64e                	sw	s3,12(sp)
    6e44:	c452                	sw	s4,8(sp)
    6e46:	c256                	sw	s5,4(sp)
    6e48:	c05a                	sw	s6,0(sp)
    6e4a:	8005                	srli	s0,s0,0x1
    6e4c:	3f8007b7          	lui	a5,0x3f800
    6e50:	84aa                	mv	s1,a0
    6e52:	1af40663          	beq	s0,a5,6ffe <__ieee754_asinf+0x1ca>
    6e56:	1887cc63          	blt	a5,s0,6fee <__ieee754_asinf+0x1ba>
    6e5a:	3f0007b7          	lui	a5,0x3f000
    6e5e:	892a                	mv	s2,a0
    6e60:	00005997          	auipc	s3,0x5
    6e64:	80c98993          	addi	s3,s3,-2036 # b66c <memcpy+0x2cc>
    6e68:	02f45863          	bge	s0,a5,6e98 <__ieee754_asinf+0x64>
    6e6c:	320007b7          	lui	a5,0x32000
    6e70:	24f45363          	bge	s0,a5,70b6 <__ieee754_asinf+0x282>
    6e74:	00005797          	auipc	a5,0x5
    6e78:	76878793          	addi	a5,a5,1896 # c5dc <dmp_memory+0xd64>
    6e7c:	438c                	lw	a1,0(a5)
    6e7e:	00004997          	auipc	s3,0x4
    6e82:	7ee98993          	addi	s3,s3,2030 # b66c <memcpy+0x2cc>
    6e86:	23c030ef          	jal	ra,a0c2 <__addsf3>
    6e8a:	0009a583          	lw	a1,0(s3)
    6e8e:	0ad030ef          	jal	ra,a73a <__gesf2>
    6e92:	87a6                	mv	a5,s1
    6e94:	14a04263          	bgtz	a0,6fd8 <__ieee754_asinf+0x1a4>
    6e98:	8526                	mv	a0,s1
    6e9a:	013000ef          	jal	ra,76ac <fabsf>
    6e9e:	85aa                	mv	a1,a0
    6ea0:	0009a503          	lw	a0,0(s3)
    6ea4:	43d030ef          	jal	ra,aae0 <__subsf3>
    6ea8:	00005797          	auipc	a5,0x5
    6eac:	76078793          	addi	a5,a5,1888 # c608 <dmp_memory+0xd90>
    6eb0:	438c                	lw	a1,0(a5)
    6eb2:	19b030ef          	jal	ra,a84c <__mulsf3>
    6eb6:	00005797          	auipc	a5,0x5
    6eba:	72a78793          	addi	a5,a5,1834 # c5e0 <dmp_memory+0xd68>
    6ebe:	438c                	lw	a1,0(a5)
    6ec0:	84aa                	mv	s1,a0
    6ec2:	18b030ef          	jal	ra,a84c <__mulsf3>
    6ec6:	00005797          	auipc	a5,0x5
    6eca:	71e78793          	addi	a5,a5,1822 # c5e4 <dmp_memory+0xd6c>
    6ece:	438c                	lw	a1,0(a5)
    6ed0:	1f2030ef          	jal	ra,a0c2 <__addsf3>
    6ed4:	85a6                	mv	a1,s1
    6ed6:	177030ef          	jal	ra,a84c <__mulsf3>
    6eda:	00005797          	auipc	a5,0x5
    6ede:	70e78793          	addi	a5,a5,1806 # c5e8 <dmp_memory+0xd70>
    6ee2:	438c                	lw	a1,0(a5)
    6ee4:	3fd030ef          	jal	ra,aae0 <__subsf3>
    6ee8:	85a6                	mv	a1,s1
    6eea:	163030ef          	jal	ra,a84c <__mulsf3>
    6eee:	00005797          	auipc	a5,0x5
    6ef2:	6fe78793          	addi	a5,a5,1790 # c5ec <dmp_memory+0xd74>
    6ef6:	438c                	lw	a1,0(a5)
    6ef8:	1ca030ef          	jal	ra,a0c2 <__addsf3>
    6efc:	85a6                	mv	a1,s1
    6efe:	14f030ef          	jal	ra,a84c <__mulsf3>
    6f02:	00005797          	auipc	a5,0x5
    6f06:	6ee78793          	addi	a5,a5,1774 # c5f0 <dmp_memory+0xd78>
    6f0a:	438c                	lw	a1,0(a5)
    6f0c:	3d5030ef          	jal	ra,aae0 <__subsf3>
    6f10:	85a6                	mv	a1,s1
    6f12:	13b030ef          	jal	ra,a84c <__mulsf3>
    6f16:	00005797          	auipc	a5,0x5
    6f1a:	6de78793          	addi	a5,a5,1758 # c5f4 <dmp_memory+0xd7c>
    6f1e:	438c                	lw	a1,0(a5)
    6f20:	1a2030ef          	jal	ra,a0c2 <__addsf3>
    6f24:	85a6                	mv	a1,s1
    6f26:	127030ef          	jal	ra,a84c <__mulsf3>
    6f2a:	00005797          	auipc	a5,0x5
    6f2e:	6ce78793          	addi	a5,a5,1742 # c5f8 <dmp_memory+0xd80>
    6f32:	438c                	lw	a1,0(a5)
    6f34:	8a2a                	mv	s4,a0
    6f36:	8526                	mv	a0,s1
    6f38:	115030ef          	jal	ra,a84c <__mulsf3>
    6f3c:	00005797          	auipc	a5,0x5
    6f40:	6c078793          	addi	a5,a5,1728 # c5fc <dmp_memory+0xd84>
    6f44:	438c                	lw	a1,0(a5)
    6f46:	39b030ef          	jal	ra,aae0 <__subsf3>
    6f4a:	85a6                	mv	a1,s1
    6f4c:	101030ef          	jal	ra,a84c <__mulsf3>
    6f50:	00005797          	auipc	a5,0x5
    6f54:	6b078793          	addi	a5,a5,1712 # c600 <dmp_memory+0xd88>
    6f58:	438c                	lw	a1,0(a5)
    6f5a:	168030ef          	jal	ra,a0c2 <__addsf3>
    6f5e:	85a6                	mv	a1,s1
    6f60:	0ed030ef          	jal	ra,a84c <__mulsf3>
    6f64:	00005797          	auipc	a5,0x5
    6f68:	6a078793          	addi	a5,a5,1696 # c604 <dmp_memory+0xd8c>
    6f6c:	438c                	lw	a1,0(a5)
    6f6e:	373030ef          	jal	ra,aae0 <__subsf3>
    6f72:	85a6                	mv	a1,s1
    6f74:	0d9030ef          	jal	ra,a84c <__mulsf3>
    6f78:	0009a583          	lw	a1,0(s3)
    6f7c:	146030ef          	jal	ra,a0c2 <__addsf3>
    6f80:	8aaa                	mv	s5,a0
    6f82:	8526                	mv	a0,s1
    6f84:	2e4d                	jal	7336 <__ieee754_sqrtf>
    6f86:	3f79a7b7          	lui	a5,0x3f79a
    6f8a:	99978793          	addi	a5,a5,-1639 # 3f799999 <__freertos_irq_stack_top+0x1f791999>
    6f8e:	89aa                	mv	s3,a0
    6f90:	0887dd63          	bge	a5,s0,702a <__ieee754_asinf+0x1f6>
    6f94:	85d6                	mv	a1,s5
    6f96:	8552                	mv	a0,s4
    6f98:	494030ef          	jal	ra,a42c <__divsf3>
    6f9c:	85ce                	mv	a1,s3
    6f9e:	0af030ef          	jal	ra,a84c <__mulsf3>
    6fa2:	85ce                	mv	a1,s3
    6fa4:	11e030ef          	jal	ra,a0c2 <__addsf3>
    6fa8:	85aa                	mv	a1,a0
    6faa:	118030ef          	jal	ra,a0c2 <__addsf3>
    6fae:	00005797          	auipc	a5,0x5
    6fb2:	65e78793          	addi	a5,a5,1630 # c60c <dmp_memory+0xd94>
    6fb6:	438c                	lw	a1,0(a5)
    6fb8:	10a030ef          	jal	ra,a0c2 <__addsf3>
    6fbc:	00005797          	auipc	a5,0x5
    6fc0:	61878793          	addi	a5,a5,1560 # c5d4 <dmp_memory+0xd5c>
    6fc4:	85aa                	mv	a1,a0
    6fc6:	4388                	lw	a0,0(a5)
    6fc8:	319030ef          	jal	ra,aae0 <__subsf3>
    6fcc:	87aa                	mv	a5,a0
    6fce:	01204563          	bgtz	s2,6fd8 <__ieee754_asinf+0x1a4>
    6fd2:	80000737          	lui	a4,0x80000
    6fd6:	8fb9                	xor	a5,a5,a4
    6fd8:	40f2                	lw	ra,28(sp)
    6fda:	4462                	lw	s0,24(sp)
    6fdc:	44d2                	lw	s1,20(sp)
    6fde:	4942                	lw	s2,16(sp)
    6fe0:	49b2                	lw	s3,12(sp)
    6fe2:	4a22                	lw	s4,8(sp)
    6fe4:	4a92                	lw	s5,4(sp)
    6fe6:	4b02                	lw	s6,0(sp)
    6fe8:	853e                	mv	a0,a5
    6fea:	6105                	addi	sp,sp,32
    6fec:	8082                	ret
    6fee:	85aa                	mv	a1,a0
    6ff0:	2f1030ef          	jal	ra,aae0 <__subsf3>
    6ff4:	85aa                	mv	a1,a0
    6ff6:	436030ef          	jal	ra,a42c <__divsf3>
    6ffa:	87aa                	mv	a5,a0
    6ffc:	bff1                	j	6fd8 <__ieee754_asinf+0x1a4>
    6ffe:	00005797          	auipc	a5,0x5
    7002:	5d678793          	addi	a5,a5,1494 # c5d4 <dmp_memory+0xd5c>
    7006:	438c                	lw	a1,0(a5)
    7008:	045030ef          	jal	ra,a84c <__mulsf3>
    700c:	00005797          	auipc	a5,0x5
    7010:	5cc78793          	addi	a5,a5,1484 # c5d8 <dmp_memory+0xd60>
    7014:	438c                	lw	a1,0(a5)
    7016:	842a                	mv	s0,a0
    7018:	8526                	mv	a0,s1
    701a:	033030ef          	jal	ra,a84c <__mulsf3>
    701e:	85aa                	mv	a1,a0
    7020:	8522                	mv	a0,s0
    7022:	0a0030ef          	jal	ra,a0c2 <__addsf3>
    7026:	87aa                	mv	a5,a0
    7028:	bf45                	j	6fd8 <__ieee754_asinf+0x1a4>
    702a:	85aa                	mv	a1,a0
    702c:	747d                	lui	s0,0xfffff
    702e:	8c69                	and	s0,s0,a0
    7030:	092030ef          	jal	ra,a0c2 <__addsf3>
    7034:	8b2a                	mv	s6,a0
    7036:	85d6                	mv	a1,s5
    7038:	8552                	mv	a0,s4
    703a:	3f2030ef          	jal	ra,a42c <__divsf3>
    703e:	85aa                	mv	a1,a0
    7040:	855a                	mv	a0,s6
    7042:	00b030ef          	jal	ra,a84c <__mulsf3>
    7046:	8a2a                	mv	s4,a0
    7048:	85a2                	mv	a1,s0
    704a:	8522                	mv	a0,s0
    704c:	001030ef          	jal	ra,a84c <__mulsf3>
    7050:	85aa                	mv	a1,a0
    7052:	8526                	mv	a0,s1
    7054:	28d030ef          	jal	ra,aae0 <__subsf3>
    7058:	84aa                	mv	s1,a0
    705a:	85a2                	mv	a1,s0
    705c:	854e                	mv	a0,s3
    705e:	064030ef          	jal	ra,a0c2 <__addsf3>
    7062:	85aa                	mv	a1,a0
    7064:	8526                	mv	a0,s1
    7066:	3c6030ef          	jal	ra,a42c <__divsf3>
    706a:	85aa                	mv	a1,a0
    706c:	056030ef          	jal	ra,a0c2 <__addsf3>
    7070:	00005797          	auipc	a5,0x5
    7074:	56878793          	addi	a5,a5,1384 # c5d8 <dmp_memory+0xd60>
    7078:	85aa                	mv	a1,a0
    707a:	4388                	lw	a0,0(a5)
    707c:	00005497          	auipc	s1,0x5
    7080:	59448493          	addi	s1,s1,1428 # c610 <dmp_memory+0xd98>
    7084:	25d030ef          	jal	ra,aae0 <__subsf3>
    7088:	85aa                	mv	a1,a0
    708a:	8552                	mv	a0,s4
    708c:	255030ef          	jal	ra,aae0 <__subsf3>
    7090:	89aa                	mv	s3,a0
    7092:	85a2                	mv	a1,s0
    7094:	8522                	mv	a0,s0
    7096:	02c030ef          	jal	ra,a0c2 <__addsf3>
    709a:	85aa                	mv	a1,a0
    709c:	4088                	lw	a0,0(s1)
    709e:	243030ef          	jal	ra,aae0 <__subsf3>
    70a2:	85aa                	mv	a1,a0
    70a4:	854e                	mv	a0,s3
    70a6:	23b030ef          	jal	ra,aae0 <__subsf3>
    70aa:	85aa                	mv	a1,a0
    70ac:	4088                	lw	a0,0(s1)
    70ae:	233030ef          	jal	ra,aae0 <__subsf3>
    70b2:	87aa                	mv	a5,a0
    70b4:	bf29                	j	6fce <__ieee754_asinf+0x19a>
    70b6:	85aa                	mv	a1,a0
    70b8:	794030ef          	jal	ra,a84c <__mulsf3>
    70bc:	00005797          	auipc	a5,0x5
    70c0:	52478793          	addi	a5,a5,1316 # c5e0 <dmp_memory+0xd68>
    70c4:	438c                	lw	a1,0(a5)
    70c6:	842a                	mv	s0,a0
    70c8:	784030ef          	jal	ra,a84c <__mulsf3>
    70cc:	00005797          	auipc	a5,0x5
    70d0:	51878793          	addi	a5,a5,1304 # c5e4 <dmp_memory+0xd6c>
    70d4:	438c                	lw	a1,0(a5)
    70d6:	7ed020ef          	jal	ra,a0c2 <__addsf3>
    70da:	85a2                	mv	a1,s0
    70dc:	770030ef          	jal	ra,a84c <__mulsf3>
    70e0:	00005797          	auipc	a5,0x5
    70e4:	50878793          	addi	a5,a5,1288 # c5e8 <dmp_memory+0xd70>
    70e8:	438c                	lw	a1,0(a5)
    70ea:	1f7030ef          	jal	ra,aae0 <__subsf3>
    70ee:	85a2                	mv	a1,s0
    70f0:	75c030ef          	jal	ra,a84c <__mulsf3>
    70f4:	00005797          	auipc	a5,0x5
    70f8:	4f878793          	addi	a5,a5,1272 # c5ec <dmp_memory+0xd74>
    70fc:	438c                	lw	a1,0(a5)
    70fe:	7c5020ef          	jal	ra,a0c2 <__addsf3>
    7102:	85a2                	mv	a1,s0
    7104:	748030ef          	jal	ra,a84c <__mulsf3>
    7108:	00005797          	auipc	a5,0x5
    710c:	4e878793          	addi	a5,a5,1256 # c5f0 <dmp_memory+0xd78>
    7110:	438c                	lw	a1,0(a5)
    7112:	1cf030ef          	jal	ra,aae0 <__subsf3>
    7116:	85a2                	mv	a1,s0
    7118:	734030ef          	jal	ra,a84c <__mulsf3>
    711c:	00005797          	auipc	a5,0x5
    7120:	4d878793          	addi	a5,a5,1240 # c5f4 <dmp_memory+0xd7c>
    7124:	438c                	lw	a1,0(a5)
    7126:	79d020ef          	jal	ra,a0c2 <__addsf3>
    712a:	85a2                	mv	a1,s0
    712c:	720030ef          	jal	ra,a84c <__mulsf3>
    7130:	00005797          	auipc	a5,0x5
    7134:	4c878793          	addi	a5,a5,1224 # c5f8 <dmp_memory+0xd80>
    7138:	438c                	lw	a1,0(a5)
    713a:	892a                	mv	s2,a0
    713c:	8522                	mv	a0,s0
    713e:	70e030ef          	jal	ra,a84c <__mulsf3>
    7142:	00005797          	auipc	a5,0x5
    7146:	4ba78793          	addi	a5,a5,1210 # c5fc <dmp_memory+0xd84>
    714a:	438c                	lw	a1,0(a5)
    714c:	195030ef          	jal	ra,aae0 <__subsf3>
    7150:	85a2                	mv	a1,s0
    7152:	6fa030ef          	jal	ra,a84c <__mulsf3>
    7156:	00005797          	auipc	a5,0x5
    715a:	4aa78793          	addi	a5,a5,1194 # c600 <dmp_memory+0xd88>
    715e:	438c                	lw	a1,0(a5)
    7160:	763020ef          	jal	ra,a0c2 <__addsf3>
    7164:	85a2                	mv	a1,s0
    7166:	6e6030ef          	jal	ra,a84c <__mulsf3>
    716a:	00005797          	auipc	a5,0x5
    716e:	49a78793          	addi	a5,a5,1178 # c604 <dmp_memory+0xd8c>
    7172:	438c                	lw	a1,0(a5)
    7174:	16d030ef          	jal	ra,aae0 <__subsf3>
    7178:	85a2                	mv	a1,s0
    717a:	6d2030ef          	jal	ra,a84c <__mulsf3>
    717e:	00004797          	auipc	a5,0x4
    7182:	4ee78793          	addi	a5,a5,1262 # b66c <memcpy+0x2cc>
    7186:	438c                	lw	a1,0(a5)
    7188:	73b020ef          	jal	ra,a0c2 <__addsf3>
    718c:	85aa                	mv	a1,a0
    718e:	854a                	mv	a0,s2
    7190:	29c030ef          	jal	ra,a42c <__divsf3>
    7194:	85a6                	mv	a1,s1
    7196:	6b6030ef          	jal	ra,a84c <__mulsf3>
    719a:	85a6                	mv	a1,s1
    719c:	727020ef          	jal	ra,a0c2 <__addsf3>
    71a0:	87aa                	mv	a5,a0
    71a2:	bd1d                	j	6fd8 <__ieee754_asinf+0x1a4>

000071a4 <__ieee754_atan2f>:
    71a4:	800007b7          	lui	a5,0x80000
    71a8:	1141                	addi	sp,sp,-16
    71aa:	fff7c793          	not	a5,a5
    71ae:	872e                	mv	a4,a1
    71b0:	c606                	sw	ra,12(sp)
    71b2:	c422                	sw	s0,8(sp)
    71b4:	8dfd                	and	a1,a1,a5
    71b6:	7f800637          	lui	a2,0x7f800
    71ba:	86aa                	mv	a3,a0
    71bc:	04b64063          	blt	a2,a1,71fc <__ieee754_atan2f+0x58>
    71c0:	8fe9                	and	a5,a5,a0
    71c2:	832a                	mv	t1,a0
    71c4:	02f64c63          	blt	a2,a5,71fc <__ieee754_atan2f+0x58>
    71c8:	3f8008b7          	lui	a7,0x3f800
    71cc:	0f170063          	beq	a4,a7,72ac <__ieee754_atan2f+0x108>
    71d0:	41e75413          	srai	s0,a4,0x1e
    71d4:	8809                	andi	s0,s0,2
    71d6:	817d                	srli	a0,a0,0x1f
    71d8:	8c49                	or	s0,s0,a0
    71da:	eb8d                	bnez	a5,720c <__ieee754_atan2f+0x68>
    71dc:	4789                	li	a5,2
    71de:	08f40e63          	beq	s0,a5,727a <__ieee754_atan2f+0xd6>
    71e2:	478d                	li	a5,3
    71e4:	8536                	mv	a0,a3
    71e6:	00f41f63          	bne	s0,a5,7204 <__ieee754_atan2f+0x60>
    71ea:	40b2                	lw	ra,12(sp)
    71ec:	4422                	lw	s0,8(sp)
    71ee:	00005797          	auipc	a5,0x5
    71f2:	42a78793          	addi	a5,a5,1066 # c618 <dmp_memory+0xda0>
    71f6:	4388                	lw	a0,0(a5)
    71f8:	0141                	addi	sp,sp,16
    71fa:	8082                	ret
    71fc:	85b6                	mv	a1,a3
    71fe:	853a                	mv	a0,a4
    7200:	6c3020ef          	jal	ra,a0c2 <__addsf3>
    7204:	40b2                	lw	ra,12(sp)
    7206:	4422                	lw	s0,8(sp)
    7208:	0141                	addi	sp,sp,16
    720a:	8082                	ret
    720c:	cdb9                	beqz	a1,726a <__ieee754_atan2f+0xc6>
    720e:	06c58c63          	beq	a1,a2,7286 <__ieee754_atan2f+0xe2>
    7212:	04c78c63          	beq	a5,a2,726a <__ieee754_atan2f+0xc6>
    7216:	8f8d                	sub	a5,a5,a1
    7218:	87dd                	srai	a5,a5,0x17
    721a:	03c00613          	li	a2,60
    721e:	08f64b63          	blt	a2,a5,72b4 <__ieee754_atan2f+0x110>
    7222:	00075863          	bgez	a4,7232 <__ieee754_atan2f+0x8e>
    7226:	fc400613          	li	a2,-60
    722a:	00000513          	li	a0,0
    722e:	00c7c863          	blt	a5,a2,723e <__ieee754_atan2f+0x9a>
    7232:	85ba                	mv	a1,a4
    7234:	8536                	mv	a0,a3
    7236:	1f6030ef          	jal	ra,a42c <__divsf3>
    723a:	298d                	jal	76ac <fabsf>
    723c:	22e5                	jal	7424 <atanf>
    723e:	4785                	li	a5,1
    7240:	0cf40563          	beq	s0,a5,730a <__ieee754_atan2f+0x166>
    7244:	4789                	li	a5,2
    7246:	0af40263          	beq	s0,a5,72ea <__ieee754_atan2f+0x146>
    724a:	dc4d                	beqz	s0,7204 <__ieee754_atan2f+0x60>
    724c:	00005797          	auipc	a5,0x5
    7250:	3e478793          	addi	a5,a5,996 # c630 <dmp_memory+0xdb8>
    7254:	438c                	lw	a1,0(a5)
    7256:	66d020ef          	jal	ra,a0c2 <__addsf3>
    725a:	00005797          	auipc	a5,0x5
    725e:	3ba78793          	addi	a5,a5,954 # c614 <dmp_memory+0xd9c>
    7262:	438c                	lw	a1,0(a5)
    7264:	07d030ef          	jal	ra,aae0 <__subsf3>
    7268:	bf71                	j	7204 <__ieee754_atan2f+0x60>
    726a:	06034a63          	bltz	t1,72de <__ieee754_atan2f+0x13a>
    726e:	00005797          	auipc	a5,0x5
    7272:	36678793          	addi	a5,a5,870 # c5d4 <dmp_memory+0xd5c>
    7276:	4388                	lw	a0,0(a5)
    7278:	b771                	j	7204 <__ieee754_atan2f+0x60>
    727a:	00005797          	auipc	a5,0x5
    727e:	39a78793          	addi	a5,a5,922 # c614 <dmp_memory+0xd9c>
    7282:	4388                	lw	a0,0(a5)
    7284:	b741                	j	7204 <__ieee754_atan2f+0x60>
    7286:	02b78d63          	beq	a5,a1,72c0 <__ieee754_atan2f+0x11c>
    728a:	4789                	li	a5,2
    728c:	fef407e3          	beq	s0,a5,727a <__ieee754_atan2f+0xd6>
    7290:	478d                	li	a5,3
    7292:	f4f40ce3          	beq	s0,a5,71ea <__ieee754_atan2f+0x46>
    7296:	4785                	li	a5,1
    7298:	00000513          	li	a0,0
    729c:	f6f414e3          	bne	s0,a5,7204 <__ieee754_atan2f+0x60>
    72a0:	00005797          	auipc	a5,0x5
    72a4:	37c78793          	addi	a5,a5,892 # c61c <dmp_memory+0xda4>
    72a8:	4388                	lw	a0,0(a5)
    72aa:	bfa9                	j	7204 <__ieee754_atan2f+0x60>
    72ac:	4422                	lw	s0,8(sp)
    72ae:	40b2                	lw	ra,12(sp)
    72b0:	0141                	addi	sp,sp,16
    72b2:	aa8d                	j	7424 <atanf>
    72b4:	00005797          	auipc	a5,0x5
    72b8:	32078793          	addi	a5,a5,800 # c5d4 <dmp_memory+0xd5c>
    72bc:	4388                	lw	a0,0(a5)
    72be:	b741                	j	723e <__ieee754_atan2f+0x9a>
    72c0:	4789                	li	a5,2
    72c2:	06f40463          	beq	s0,a5,732a <__ieee754_atan2f+0x186>
    72c6:	478d                	li	a5,3
    72c8:	04f40b63          	beq	s0,a5,731e <__ieee754_atan2f+0x17a>
    72cc:	4785                	li	a5,1
    72ce:	04f40263          	beq	s0,a5,7312 <__ieee754_atan2f+0x16e>
    72d2:	00005797          	auipc	a5,0x5
    72d6:	33e78793          	addi	a5,a5,830 # c610 <dmp_memory+0xd98>
    72da:	4388                	lw	a0,0(a5)
    72dc:	b725                	j	7204 <__ieee754_atan2f+0x60>
    72de:	00005797          	auipc	a5,0x5
    72e2:	34278793          	addi	a5,a5,834 # c620 <dmp_memory+0xda8>
    72e6:	4388                	lw	a0,0(a5)
    72e8:	bf31                	j	7204 <__ieee754_atan2f+0x60>
    72ea:	00005797          	auipc	a5,0x5
    72ee:	34678793          	addi	a5,a5,838 # c630 <dmp_memory+0xdb8>
    72f2:	438c                	lw	a1,0(a5)
    72f4:	5cf020ef          	jal	ra,a0c2 <__addsf3>
    72f8:	00005797          	auipc	a5,0x5
    72fc:	31c78793          	addi	a5,a5,796 # c614 <dmp_memory+0xd9c>
    7300:	85aa                	mv	a1,a0
    7302:	4388                	lw	a0,0(a5)
    7304:	7dc030ef          	jal	ra,aae0 <__subsf3>
    7308:	bdf5                	j	7204 <__ieee754_atan2f+0x60>
    730a:	800007b7          	lui	a5,0x80000
    730e:	8d3d                	xor	a0,a0,a5
    7310:	bdd5                	j	7204 <__ieee754_atan2f+0x60>
    7312:	00005797          	auipc	a5,0x5
    7316:	31a78793          	addi	a5,a5,794 # c62c <dmp_memory+0xdb4>
    731a:	4388                	lw	a0,0(a5)
    731c:	b5e5                	j	7204 <__ieee754_atan2f+0x60>
    731e:	00005797          	auipc	a5,0x5
    7322:	30a78793          	addi	a5,a5,778 # c628 <dmp_memory+0xdb0>
    7326:	4388                	lw	a0,0(a5)
    7328:	bdf1                	j	7204 <__ieee754_atan2f+0x60>
    732a:	00005797          	auipc	a5,0x5
    732e:	2fa78793          	addi	a5,a5,762 # c624 <dmp_memory+0xdac>
    7332:	4388                	lw	a0,0(a5)
    7334:	bdc1                	j	7204 <__ieee754_atan2f+0x60>

00007336 <__ieee754_sqrtf>:
    7336:	1141                	addi	sp,sp,-16
    7338:	00151793          	slli	a5,a0,0x1
    733c:	c422                	sw	s0,8(sp)
    733e:	c606                	sw	ra,12(sp)
    7340:	8385                	srli	a5,a5,0x1
    7342:	7f800737          	lui	a4,0x7f800
    7346:	842a                	mv	s0,a0
    7348:	85aa                	mv	a1,a0
    734a:	08e7f863          	bgeu	a5,a4,73da <__ieee754_sqrtf+0xa4>
    734e:	c3c9                	beqz	a5,73d0 <__ieee754_sqrtf+0x9a>
    7350:	87aa                	mv	a5,a0
    7352:	0a054263          	bltz	a0,73f6 <__ieee754_sqrtf+0xc0>
    7356:	8f69                	and	a4,a4,a0
    7358:	41755693          	srai	a3,a0,0x17
    735c:	e305                	bnez	a4,737c <__ieee754_sqrtf+0x46>
    735e:	00851713          	slli	a4,a0,0x8
    7362:	0a074563          	bltz	a4,740c <__ieee754_sqrtf+0xd6>
    7366:	4701                	li	a4,0
    7368:	a011                	j	736c <__ieee754_sqrtf+0x36>
    736a:	8732                	mv	a4,a2
    736c:	0786                	slli	a5,a5,0x1
    736e:	00879593          	slli	a1,a5,0x8
    7372:	00170613          	addi	a2,a4,1 # 7f800001 <__freertos_irq_stack_top+0x5f7f8001>
    7376:	fe05dae3          	bgez	a1,736a <__ieee754_sqrtf+0x34>
    737a:	8e99                	sub	a3,a3,a4
    737c:	00800737          	lui	a4,0x800
    7380:	fff70613          	addi	a2,a4,-1 # 7fffff <_data_lma+0x7f375f>
    7384:	8ff1                	and	a5,a5,a2
    7386:	f8168693          	addi	a3,a3,-127
    738a:	8f5d                	or	a4,a4,a5
    738c:	0016f613          	andi	a2,a3,1
    7390:	00171793          	slli	a5,a4,0x1
    7394:	ee31                	bnez	a2,73f0 <__ieee754_sqrtf+0xba>
    7396:	4016d813          	srai	a6,a3,0x1
    739a:	4501                	li	a0,0
    739c:	46e5                	li	a3,25
    739e:	4581                	li	a1,0
    73a0:	01000737          	lui	a4,0x1000
    73a4:	00e58633          	add	a2,a1,a4
    73a8:	16fd                	addi	a3,a3,-1
    73aa:	00c7c663          	blt	a5,a2,73b6 <__ieee754_sqrtf+0x80>
    73ae:	00e605b3          	add	a1,a2,a4
    73b2:	8f91                	sub	a5,a5,a2
    73b4:	953a                	add	a0,a0,a4
    73b6:	0786                	slli	a5,a5,0x1
    73b8:	8305                	srli	a4,a4,0x1
    73ba:	f6ed                	bnez	a3,73a4 <__ieee754_sqrtf+0x6e>
    73bc:	c399                	beqz	a5,73c2 <__ieee754_sqrtf+0x8c>
    73be:	0505                	addi	a0,a0,1
    73c0:	9979                	andi	a0,a0,-2
    73c2:	8505                	srai	a0,a0,0x1
    73c4:	3f0005b7          	lui	a1,0x3f000
    73c8:	95aa                	add	a1,a1,a0
    73ca:	01781693          	slli	a3,a6,0x17
    73ce:	95b6                	add	a1,a1,a3
    73d0:	40b2                	lw	ra,12(sp)
    73d2:	4422                	lw	s0,8(sp)
    73d4:	852e                	mv	a0,a1
    73d6:	0141                	addi	sp,sp,16
    73d8:	8082                	ret
    73da:	472030ef          	jal	ra,a84c <__mulsf3>
    73de:	85a2                	mv	a1,s0
    73e0:	4e3020ef          	jal	ra,a0c2 <__addsf3>
    73e4:	40b2                	lw	ra,12(sp)
    73e6:	4422                	lw	s0,8(sp)
    73e8:	85aa                	mv	a1,a0
    73ea:	852e                	mv	a0,a1
    73ec:	0141                	addi	sp,sp,16
    73ee:	8082                	ret
    73f0:	00271793          	slli	a5,a4,0x2
    73f4:	b74d                	j	7396 <__ieee754_sqrtf+0x60>
    73f6:	6ea030ef          	jal	ra,aae0 <__subsf3>
    73fa:	85aa                	mv	a1,a0
    73fc:	030030ef          	jal	ra,a42c <__divsf3>
    7400:	40b2                	lw	ra,12(sp)
    7402:	4422                	lw	s0,8(sp)
    7404:	85aa                	mv	a1,a0
    7406:	852e                	mv	a0,a1
    7408:	0141                	addi	sp,sp,16
    740a:	8082                	ret
    740c:	577d                	li	a4,-1
    740e:	8e99                	sub	a3,a3,a4
    7410:	b7b5                	j	737c <__ieee754_sqrtf+0x46>

00007412 <matherr>:
    7412:	4501                	li	a0,0
    7414:	8082                	ret

00007416 <nan>:
    7416:	00005797          	auipc	a5,0x5
    741a:	22278793          	addi	a5,a5,546 # c638 <dmp_memory+0xdc0>
    741e:	4388                	lw	a0,0(a5)
    7420:	43cc                	lw	a1,4(a5)
    7422:	8082                	ret

00007424 <atanf>:
    7424:	1101                	addi	sp,sp,-32
    7426:	cc22                	sw	s0,24(sp)
    7428:	00151413          	slli	s0,a0,0x1
    742c:	ca26                	sw	s1,20(sp)
    742e:	c64e                	sw	s3,12(sp)
    7430:	ce06                	sw	ra,28(sp)
    7432:	c84a                	sw	s2,16(sp)
    7434:	c452                	sw	s4,8(sp)
    7436:	8005                	srli	s0,s0,0x1
    7438:	508007b7          	lui	a5,0x50800
    743c:	84aa                	mv	s1,a0
    743e:	89aa                	mv	s3,a0
    7440:	02f44663          	blt	s0,a5,746c <atanf+0x48>
    7444:	7f8007b7          	lui	a5,0x7f800
    7448:	1687c763          	blt	a5,s0,75b6 <atanf+0x192>
    744c:	18a05c63          	blez	a0,75e4 <atanf+0x1c0>
    7450:	00005797          	auipc	a5,0x5
    7454:	18478793          	addi	a5,a5,388 # c5d4 <dmp_memory+0xd5c>
    7458:	439c                	lw	a5,0(a5)
    745a:	40f2                	lw	ra,28(sp)
    745c:	4462                	lw	s0,24(sp)
    745e:	44d2                	lw	s1,20(sp)
    7460:	4942                	lw	s2,16(sp)
    7462:	49b2                	lw	s3,12(sp)
    7464:	4a22                	lw	s4,8(sp)
    7466:	853e                	mv	a0,a5
    7468:	6105                	addi	sp,sp,32
    746a:	8082                	ret
    746c:	3ee007b7          	lui	a5,0x3ee00
    7470:	18f45563          	bge	s0,a5,75fa <atanf+0x1d6>
    7474:	310007b7          	lui	a5,0x31000
    7478:	14f44463          	blt	s0,a5,75c0 <atanf+0x19c>
    747c:	597d                	li	s2,-1
    747e:	85a6                	mv	a1,s1
    7480:	8526                	mv	a0,s1
    7482:	3ca030ef          	jal	ra,a84c <__mulsf3>
    7486:	85aa                	mv	a1,a0
    7488:	8a2a                	mv	s4,a0
    748a:	3c2030ef          	jal	ra,a84c <__mulsf3>
    748e:	00005797          	auipc	a5,0x5
    7492:	1be78793          	addi	a5,a5,446 # c64c <dmp_memory+0xdd4>
    7496:	438c                	lw	a1,0(a5)
    7498:	842a                	mv	s0,a0
    749a:	3b2030ef          	jal	ra,a84c <__mulsf3>
    749e:	00005797          	auipc	a5,0x5
    74a2:	1b278793          	addi	a5,a5,434 # c650 <dmp_memory+0xdd8>
    74a6:	438c                	lw	a1,0(a5)
    74a8:	41b020ef          	jal	ra,a0c2 <__addsf3>
    74ac:	85a2                	mv	a1,s0
    74ae:	39e030ef          	jal	ra,a84c <__mulsf3>
    74b2:	00005797          	auipc	a5,0x5
    74b6:	1a278793          	addi	a5,a5,418 # c654 <dmp_memory+0xddc>
    74ba:	438c                	lw	a1,0(a5)
    74bc:	407020ef          	jal	ra,a0c2 <__addsf3>
    74c0:	85a2                	mv	a1,s0
    74c2:	38a030ef          	jal	ra,a84c <__mulsf3>
    74c6:	00005797          	auipc	a5,0x5
    74ca:	19278793          	addi	a5,a5,402 # c658 <dmp_memory+0xde0>
    74ce:	438c                	lw	a1,0(a5)
    74d0:	3f3020ef          	jal	ra,a0c2 <__addsf3>
    74d4:	85a2                	mv	a1,s0
    74d6:	376030ef          	jal	ra,a84c <__mulsf3>
    74da:	00005797          	auipc	a5,0x5
    74de:	18278793          	addi	a5,a5,386 # c65c <dmp_memory+0xde4>
    74e2:	438c                	lw	a1,0(a5)
    74e4:	3df020ef          	jal	ra,a0c2 <__addsf3>
    74e8:	85a2                	mv	a1,s0
    74ea:	362030ef          	jal	ra,a84c <__mulsf3>
    74ee:	00005797          	auipc	a5,0x5
    74f2:	17278793          	addi	a5,a5,370 # c660 <dmp_memory+0xde8>
    74f6:	438c                	lw	a1,0(a5)
    74f8:	3cb020ef          	jal	ra,a0c2 <__addsf3>
    74fc:	85d2                	mv	a1,s4
    74fe:	34e030ef          	jal	ra,a84c <__mulsf3>
    7502:	00005797          	auipc	a5,0x5
    7506:	16278793          	addi	a5,a5,354 # c664 <dmp_memory+0xdec>
    750a:	438c                	lw	a1,0(a5)
    750c:	8a2a                	mv	s4,a0
    750e:	8522                	mv	a0,s0
    7510:	33c030ef          	jal	ra,a84c <__mulsf3>
    7514:	00005797          	auipc	a5,0x5
    7518:	15478793          	addi	a5,a5,340 # c668 <dmp_memory+0xdf0>
    751c:	438c                	lw	a1,0(a5)
    751e:	5c2030ef          	jal	ra,aae0 <__subsf3>
    7522:	85a2                	mv	a1,s0
    7524:	328030ef          	jal	ra,a84c <__mulsf3>
    7528:	00005797          	auipc	a5,0x5
    752c:	14478793          	addi	a5,a5,324 # c66c <dmp_memory+0xdf4>
    7530:	438c                	lw	a1,0(a5)
    7532:	5ae030ef          	jal	ra,aae0 <__subsf3>
    7536:	85a2                	mv	a1,s0
    7538:	314030ef          	jal	ra,a84c <__mulsf3>
    753c:	00005797          	auipc	a5,0x5
    7540:	13478793          	addi	a5,a5,308 # c670 <dmp_memory+0xdf8>
    7544:	438c                	lw	a1,0(a5)
    7546:	59a030ef          	jal	ra,aae0 <__subsf3>
    754a:	85a2                	mv	a1,s0
    754c:	300030ef          	jal	ra,a84c <__mulsf3>
    7550:	00005797          	auipc	a5,0x5
    7554:	12478793          	addi	a5,a5,292 # c674 <dmp_memory+0xdfc>
    7558:	438c                	lw	a1,0(a5)
    755a:	586030ef          	jal	ra,aae0 <__subsf3>
    755e:	85a2                	mv	a1,s0
    7560:	2ec030ef          	jal	ra,a84c <__mulsf3>
    7564:	85aa                	mv	a1,a0
    7566:	8552                	mv	a0,s4
    7568:	35b020ef          	jal	ra,a0c2 <__addsf3>
    756c:	85a6                	mv	a1,s1
    756e:	2de030ef          	jal	ra,a84c <__mulsf3>
    7572:	57fd                	li	a5,-1
    7574:	85aa                	mv	a1,a0
    7576:	06f90d63          	beq	s2,a5,75f0 <atanf+0x1cc>
    757a:	090a                	slli	s2,s2,0x2
    757c:	00005797          	auipc	a5,0x5
    7580:	10c78793          	addi	a5,a5,268 # c688 <atanlo>
    7584:	97ca                	add	a5,a5,s2
    7586:	438c                	lw	a1,0(a5)
    7588:	00005797          	auipc	a5,0x5
    758c:	0f078793          	addi	a5,a5,240 # c678 <atanhi>
    7590:	993e                	add	s2,s2,a5
    7592:	54e030ef          	jal	ra,aae0 <__subsf3>
    7596:	85a6                	mv	a1,s1
    7598:	548030ef          	jal	ra,aae0 <__subsf3>
    759c:	85aa                	mv	a1,a0
    759e:	00092503          	lw	a0,0(s2)
    75a2:	53e030ef          	jal	ra,aae0 <__subsf3>
    75a6:	87aa                	mv	a5,a0
    75a8:	ea09d9e3          	bgez	s3,745a <atanf+0x36>
    75ac:	80000737          	lui	a4,0x80000
    75b0:	00a747b3          	xor	a5,a4,a0
    75b4:	b55d                	j	745a <atanf+0x36>
    75b6:	85aa                	mv	a1,a0
    75b8:	30b020ef          	jal	ra,a0c2 <__addsf3>
    75bc:	87aa                	mv	a5,a0
    75be:	bd71                	j	745a <atanf+0x36>
    75c0:	00005797          	auipc	a5,0x5
    75c4:	01c78793          	addi	a5,a5,28 # c5dc <dmp_memory+0xd64>
    75c8:	438c                	lw	a1,0(a5)
    75ca:	2f9020ef          	jal	ra,a0c2 <__addsf3>
    75ce:	00004797          	auipc	a5,0x4
    75d2:	09e78793          	addi	a5,a5,158 # b66c <memcpy+0x2cc>
    75d6:	438c                	lw	a1,0(a5)
    75d8:	162030ef          	jal	ra,a73a <__gesf2>
    75dc:	87a6                	mv	a5,s1
    75de:	e8a05fe3          	blez	a0,747c <atanf+0x58>
    75e2:	bda5                	j	745a <atanf+0x36>
    75e4:	00005797          	auipc	a5,0x5
    75e8:	03c78793          	addi	a5,a5,60 # c620 <dmp_memory+0xda8>
    75ec:	439c                	lw	a5,0(a5)
    75ee:	b5b5                	j	745a <atanf+0x36>
    75f0:	8526                	mv	a0,s1
    75f2:	4ee030ef          	jal	ra,aae0 <__subsf3>
    75f6:	87aa                	mv	a5,a0
    75f8:	b58d                	j	745a <atanf+0x36>
    75fa:	284d                	jal	76ac <fabsf>
    75fc:	3f9807b7          	lui	a5,0x3f980
    7600:	84aa                	mv	s1,a0
    7602:	04f45063          	bge	s0,a5,7642 <atanf+0x21e>
    7606:	3f3007b7          	lui	a5,0x3f300
    760a:	08f45563          	bge	s0,a5,7694 <atanf+0x270>
    760e:	85aa                	mv	a1,a0
    7610:	2b3020ef          	jal	ra,a0c2 <__addsf3>
    7614:	00004797          	auipc	a5,0x4
    7618:	05878793          	addi	a5,a5,88 # b66c <memcpy+0x2cc>
    761c:	438c                	lw	a1,0(a5)
    761e:	4901                	li	s2,0
    7620:	4c0030ef          	jal	ra,aae0 <__subsf3>
    7624:	00005797          	auipc	a5,0x5
    7628:	01c78793          	addi	a5,a5,28 # c640 <dmp_memory+0xdc8>
    762c:	438c                	lw	a1,0(a5)
    762e:	842a                	mv	s0,a0
    7630:	8526                	mv	a0,s1
    7632:	291020ef          	jal	ra,a0c2 <__addsf3>
    7636:	85aa                	mv	a1,a0
    7638:	8522                	mv	a0,s0
    763a:	5f3020ef          	jal	ra,a42c <__divsf3>
    763e:	84aa                	mv	s1,a0
    7640:	bd3d                	j	747e <atanf+0x5a>
    7642:	401c07b7          	lui	a5,0x401c0
    7646:	02f45c63          	bge	s0,a5,767e <atanf+0x25a>
    764a:	00005417          	auipc	s0,0x5
    764e:	ffa40413          	addi	s0,s0,-6 # c644 <dmp_memory+0xdcc>
    7652:	400c                	lw	a1,0(s0)
    7654:	4909                	li	s2,2
    7656:	48a030ef          	jal	ra,aae0 <__subsf3>
    765a:	400c                	lw	a1,0(s0)
    765c:	8a2a                	mv	s4,a0
    765e:	8526                	mv	a0,s1
    7660:	1ec030ef          	jal	ra,a84c <__mulsf3>
    7664:	00004797          	auipc	a5,0x4
    7668:	00878793          	addi	a5,a5,8 # b66c <memcpy+0x2cc>
    766c:	438c                	lw	a1,0(a5)
    766e:	255020ef          	jal	ra,a0c2 <__addsf3>
    7672:	85aa                	mv	a1,a0
    7674:	8552                	mv	a0,s4
    7676:	5b7020ef          	jal	ra,a42c <__divsf3>
    767a:	84aa                	mv	s1,a0
    767c:	b509                	j	747e <atanf+0x5a>
    767e:	00005797          	auipc	a5,0x5
    7682:	fca78793          	addi	a5,a5,-54 # c648 <dmp_memory+0xdd0>
    7686:	4388                	lw	a0,0(a5)
    7688:	85a6                	mv	a1,s1
    768a:	490d                	li	s2,3
    768c:	5a1020ef          	jal	ra,a42c <__divsf3>
    7690:	84aa                	mv	s1,a0
    7692:	b3f5                	j	747e <atanf+0x5a>
    7694:	00004417          	auipc	s0,0x4
    7698:	fd840413          	addi	s0,s0,-40 # b66c <memcpy+0x2cc>
    769c:	400c                	lw	a1,0(s0)
    769e:	4905                	li	s2,1
    76a0:	440030ef          	jal	ra,aae0 <__subsf3>
    76a4:	8a2a                	mv	s4,a0
    76a6:	400c                	lw	a1,0(s0)
    76a8:	8526                	mv	a0,s1
    76aa:	b7d1                	j	766e <atanf+0x24a>

000076ac <fabsf>:
    76ac:	0506                	slli	a0,a0,0x1
    76ae:	8105                	srli	a0,a0,0x1
    76b0:	8082                	ret

000076b2 <printchar>:
    76b2:	1101                	addi	sp,sp,-32
    76b4:	ce06                	sw	ra,28(sp)
    76b6:	c62e                	sw	a1,12(sp)
    76b8:	cd0d                	beqz	a0,76f2 <printchar+0x40>
    76ba:	4118                	lw	a4,0(a0)
    76bc:	87aa                	mv	a5,a0
    76be:	c305                	beqz	a4,76de <printchar+0x2c>
    76c0:	4158                	lw	a4,4(a0)
    76c2:	557d                	li	a0,-1
    76c4:	cb11                	beqz	a4,76d8 <printchar+0x26>
    76c6:	4685                	li	a3,1
    76c8:	00d71b63          	bne	a4,a3,76de <printchar+0x2c>
    76cc:	4798                	lw	a4,8(a5)
    76ce:	00070023          	sb	zero,0(a4) # 80000000 <__freertos_irq_stack_top+0x5fff8000>
    76d2:	0007a223          	sw	zero,4(a5)
    76d6:	4505                	li	a0,1
    76d8:	40f2                	lw	ra,28(sp)
    76da:	6105                	addi	sp,sp,32
    76dc:	8082                	ret
    76de:	4798                	lw	a4,8(a5)
    76e0:	46b2                	lw	a3,12(sp)
    76e2:	a314                	sb	a3,0(a4)
    76e4:	4798                	lw	a4,8(a5)
    76e6:	0705                	addi	a4,a4,1
    76e8:	c798                	sw	a4,8(a5)
    76ea:	43d8                	lw	a4,4(a5)
    76ec:	177d                	addi	a4,a4,-1
    76ee:	c3d8                	sw	a4,4(a5)
    76f0:	b7dd                	j	76d6 <printchar+0x24>
    76f2:	4605                	li	a2,1
    76f4:	006c                	addi	a1,sp,12
    76f6:	e40ff0ef          	jal	ra,6d36 <_write>
    76fa:	bff1                	j	76d6 <printchar+0x24>

000076fc <prints>:
    76fc:	7179                	addi	sp,sp,-48
    76fe:	d422                	sw	s0,40(sp)
    7700:	d226                	sw	s1,36(sp)
    7702:	ce4e                	sw	s3,28(sp)
    7704:	cc52                	sw	s4,24(sp)
    7706:	ca56                	sw	s5,20(sp)
    7708:	d606                	sw	ra,44(sp)
    770a:	d04a                	sw	s2,32(sp)
    770c:	c85a                	sw	s6,16(sp)
    770e:	8a2a                	mv	s4,a0
    7710:	8aae                	mv	s5,a1
    7712:	8432                	mv	s0,a2
    7714:	4481                	li	s1,0
    7716:	02000993          	li	s3,32
    771a:	02064463          	bltz	a2,7742 <prints+0x46>
    771e:	009a87b3          	add	a5,s5,s1
    7722:	00078783          	lb	a5,0(a5)
    7726:	e39d                	bnez	a5,774c <prints+0x50>
    7728:	0284d663          	bge	s1,s0,7754 <prints+0x58>
    772c:	02e4d263          	bge	s1,a4,7750 <prints+0x54>
    7730:	8c19                	sub	s0,s0,a4
    7732:	0026f793          	andi	a5,a3,2
    7736:	02000993          	li	s3,32
    773a:	c781                	beqz	a5,7742 <prints+0x46>
    773c:	e319                	bnez	a4,7742 <prints+0x46>
    773e:	03000993          	li	s3,48
    7742:	8a85                	andi	a3,a3,1
    7744:	4901                	li	s2,0
    7746:	ea85                	bnez	a3,7776 <prints+0x7a>
    7748:	8922                	mv	s2,s0
    774a:	a831                	j	7766 <prints+0x6a>
    774c:	0485                	addi	s1,s1,1
    774e:	bfc1                	j	771e <prints+0x22>
    7750:	8c05                	sub	s0,s0,s1
    7752:	b7c5                	j	7732 <prints+0x36>
    7754:	4401                	li	s0,0
    7756:	bff1                	j	7732 <prints+0x36>
    7758:	85ce                	mv	a1,s3
    775a:	8552                	mv	a0,s4
    775c:	c63a                	sw	a4,12(sp)
    775e:	f55ff0ef          	jal	ra,76b2 <printchar>
    7762:	4732                	lw	a4,12(sp)
    7764:	197d                	addi	s2,s2,-1
    7766:	ff2049e3          	bgtz	s2,7758 <prints+0x5c>
    776a:	8922                	mv	s2,s0
    776c:	00045363          	bgez	s0,7772 <prints+0x76>
    7770:	4901                	li	s2,0
    7772:	41240433          	sub	s0,s0,s2
    7776:	02e4cb63          	blt	s1,a4,77ac <prints+0xb0>
    777a:	84ca                	mv	s1,s2
    777c:	412487b3          	sub	a5,s1,s2
    7780:	97d6                	add	a5,a5,s5
    7782:	00078583          	lb	a1,0(a5)
    7786:	e1a1                	bnez	a1,77c6 <prints+0xca>
    7788:	8922                	mv	s2,s0
    778a:	05204363          	bgtz	s2,77d0 <prints+0xd4>
    778e:	00045363          	bgez	s0,7794 <prints+0x98>
    7792:	4401                	li	s0,0
    7794:	00940533          	add	a0,s0,s1
    7798:	50b2                	lw	ra,44(sp)
    779a:	5422                	lw	s0,40(sp)
    779c:	5492                	lw	s1,36(sp)
    779e:	5902                	lw	s2,32(sp)
    77a0:	49f2                	lw	s3,28(sp)
    77a2:	4a62                	lw	s4,24(sp)
    77a4:	4ad2                	lw	s5,20(sp)
    77a6:	4b42                	lw	s6,16(sp)
    77a8:	6145                	addi	sp,sp,48
    77aa:	8082                	ret
    77ac:	409704b3          	sub	s1,a4,s1
    77b0:	8b26                	mv	s6,s1
    77b2:	03000593          	li	a1,48
    77b6:	8552                	mv	a0,s4
    77b8:	1b7d                	addi	s6,s6,-1
    77ba:	ef9ff0ef          	jal	ra,76b2 <printchar>
    77be:	fe0b1ae3          	bnez	s6,77b2 <prints+0xb6>
    77c2:	9926                	add	s2,s2,s1
    77c4:	bf5d                	j	777a <prints+0x7e>
    77c6:	8552                	mv	a0,s4
    77c8:	eebff0ef          	jal	ra,76b2 <printchar>
    77cc:	0485                	addi	s1,s1,1
    77ce:	b77d                	j	777c <prints+0x80>
    77d0:	85ce                	mv	a1,s3
    77d2:	8552                	mv	a0,s4
    77d4:	edfff0ef          	jal	ra,76b2 <printchar>
    77d8:	197d                	addi	s2,s2,-1
    77da:	bf45                	j	778a <prints+0x8e>

000077dc <printInt>:
    77dc:	715d                	addi	sp,sp,-80
    77de:	c2a6                	sw	s1,68(sp)
    77e0:	dc52                	sw	s4,56(sp)
    77e2:	c686                	sw	ra,76(sp)
    77e4:	c4a2                	sw	s0,72(sp)
    77e6:	c0ca                	sw	s2,64(sp)
    77e8:	de4e                	sw	s3,60(sp)
    77ea:	da56                	sw	s5,52(sp)
    77ec:	84ba                	mv	s1,a4
    77ee:	8a3e                	mv	s4,a5
    77f0:	e19d                	bnez	a1,7816 <printInt+0x3a>
    77f2:	03000793          	li	a5,48
    77f6:	4701                	li	a4,0
    77f8:	86d2                	mv	a3,s4
    77fa:	8626                	mv	a2,s1
    77fc:	082c                	addi	a1,sp,24
    77fe:	84fc                	sh	a5,24(sp)
    7800:	efdff0ef          	jal	ra,76fc <prints>
    7804:	40b6                	lw	ra,76(sp)
    7806:	4426                	lw	s0,72(sp)
    7808:	4496                	lw	s1,68(sp)
    780a:	4906                	lw	s2,64(sp)
    780c:	59f2                	lw	s3,60(sp)
    780e:	5a62                	lw	s4,56(sp)
    7810:	5ad2                	lw	s5,52(sp)
    7812:	6161                	addi	sp,sp,80
    7814:	8082                	ret
    7816:	892a                	mv	s2,a0
    7818:	8436                	mv	s0,a3
    781a:	8ac6                	mv	s5,a7
    781c:	ca91                	beqz	a3,7830 <printInt+0x54>
    781e:	47a9                	li	a5,10
    7820:	4401                	li	s0,0
    7822:	00f61763          	bne	a2,a5,7830 <printInt+0x54>
    7826:	0005d563          	bgez	a1,7830 <printInt+0x54>
    782a:	40b005b3          	neg	a1,a1
    782e:	4405                	li	s0,1
    7830:	020107a3          	sb	zero,47(sp)
    7834:	02f10793          	addi	a5,sp,47
    7838:	46a5                	li	a3,9
    783a:	fc680513          	addi	a0,a6,-58
    783e:	02c5f733          	remu	a4,a1,a2
    7842:	00e6d363          	bge	a3,a4,7848 <printInt+0x6c>
    7846:	972a                	add	a4,a4,a0
    7848:	03070713          	addi	a4,a4,48
    784c:	fee78fa3          	sb	a4,-1(a5)
    7850:	fff78993          	addi	s3,a5,-1
    7854:	02c5d733          	divu	a4,a1,a2
    7858:	04c5fb63          	bgeu	a1,a2,78ae <printInt+0xd2>
    785c:	cc09                	beqz	s0,7876 <printInt+0x9a>
    785e:	c8b9                	beqz	s1,78b4 <printInt+0xd8>
    7860:	002a7713          	andi	a4,s4,2
    7864:	cb21                	beqz	a4,78b4 <printInt+0xd8>
    7866:	02d00593          	li	a1,45
    786a:	854a                	mv	a0,s2
    786c:	c642                	sw	a6,12(sp)
    786e:	e45ff0ef          	jal	ra,76b2 <printchar>
    7872:	4832                	lw	a6,12(sp)
    7874:	14fd                	addi	s1,s1,-1
    7876:	004a7793          	andi	a5,s4,4
    787a:	c38d                	beqz	a5,789c <printInt+0xc0>
    787c:	06100793          	li	a5,97
    7880:	03000593          	li	a1,48
    7884:	854a                	mv	a0,s2
    7886:	02f81f63          	bne	a6,a5,78c4 <printInt+0xe8>
    788a:	e29ff0ef          	jal	ra,76b2 <printchar>
    788e:	07800593          	li	a1,120
    7892:	854a                	mv	a0,s2
    7894:	e1fff0ef          	jal	ra,76b2 <printchar>
    7898:	0409                	addi	s0,s0,2
    789a:	14f9                	addi	s1,s1,-2
    789c:	8756                	mv	a4,s5
    789e:	86d2                	mv	a3,s4
    78a0:	8626                	mv	a2,s1
    78a2:	85ce                	mv	a1,s3
    78a4:	854a                	mv	a0,s2
    78a6:	e57ff0ef          	jal	ra,76fc <prints>
    78aa:	9522                	add	a0,a0,s0
    78ac:	bfa1                	j	7804 <printInt+0x28>
    78ae:	85ba                	mv	a1,a4
    78b0:	87ce                	mv	a5,s3
    78b2:	b771                	j	783e <printInt+0x62>
    78b4:	02d00713          	li	a4,45
    78b8:	fee98fa3          	sb	a4,-1(s3)
    78bc:	4401                	li	s0,0
    78be:	ffe78993          	addi	s3,a5,-2
    78c2:	bf55                	j	7876 <printInt+0x9a>
    78c4:	defff0ef          	jal	ra,76b2 <printchar>
    78c8:	05800593          	li	a1,88
    78cc:	b7d9                	j	7892 <printInt+0xb6>

000078ce <printLongLongInt>:
    78ce:	711d                	addi	sp,sp,-96
    78d0:	c8ca                	sw	s2,80(sp)
    78d2:	c6ce                	sw	s3,76(sp)
    78d4:	c2d6                	sw	s5,68(sp)
    78d6:	c0da                	sw	s6,64(sp)
    78d8:	893a                	mv	s2,a4
    78da:	ce86                	sw	ra,92(sp)
    78dc:	cca2                	sw	s0,88(sp)
    78de:	caa6                	sw	s1,84(sp)
    78e0:	c4d2                	sw	s4,72(sp)
    78e2:	de5e                	sw	s7,60(sp)
    78e4:	dc62                	sw	s8,56(sp)
    78e6:	da66                	sw	s9,52(sp)
    78e8:	d86a                	sw	s10,48(sp)
    78ea:	d66e                	sw	s11,44(sp)
    78ec:	00c5e733          	or	a4,a1,a2
    78f0:	89be                	mv	s3,a5
    78f2:	8aaa                	mv	s5,a0
    78f4:	8b42                	mv	s6,a6
    78f6:	06014783          	lbu	a5,96(sp)
    78fa:	e331                	bnez	a4,793e <printLongLongInt+0x70>
    78fc:	cf8d                	beqz	a5,7936 <printLongLongInt+0x68>
    78fe:	678d                	lui	a5,0x3
    7900:	02d78793          	addi	a5,a5,45 # 302d <mpu_init+0x1b>
    7904:	847c                	sh	a5,8(sp)
    7906:	00010523          	sb	zero,10(sp)
    790a:	4701                	li	a4,0
    790c:	86da                	mv	a3,s6
    790e:	864e                	mv	a2,s3
    7910:	002c                	addi	a1,sp,8
    7912:	8556                	mv	a0,s5
    7914:	de9ff0ef          	jal	ra,76fc <prints>
    7918:	40f6                	lw	ra,92(sp)
    791a:	4466                	lw	s0,88(sp)
    791c:	44d6                	lw	s1,84(sp)
    791e:	4946                	lw	s2,80(sp)
    7920:	49b6                	lw	s3,76(sp)
    7922:	4a26                	lw	s4,72(sp)
    7924:	4a96                	lw	s5,68(sp)
    7926:	4b06                	lw	s6,64(sp)
    7928:	5bf2                	lw	s7,60(sp)
    792a:	5c62                	lw	s8,56(sp)
    792c:	5cd2                	lw	s9,52(sp)
    792e:	5d42                	lw	s10,48(sp)
    7930:	5db2                	lw	s11,44(sp)
    7932:	6125                	addi	sp,sp,96
    7934:	8082                	ret
    7936:	03000793          	li	a5,48
    793a:	847c                	sh	a5,8(sp)
    793c:	b7f9                	j	790a <printLongLongInt+0x3c>
    793e:	8a36                	mv	s4,a3
    7940:	84ae                	mv	s1,a1
    7942:	8432                	mv	s0,a2
    7944:	02090063          	beqz	s2,7964 <printLongLongInt+0x96>
    7948:	47a9                	li	a5,10
    794a:	4901                	li	s2,0
    794c:	00f69c63          	bne	a3,a5,7964 <printLongLongInt+0x96>
    7950:	00065a63          	bgez	a2,7964 <printLongLongInt+0x96>
    7954:	40b004b3          	neg	s1,a1
    7958:	009037b3          	snez	a5,s1
    795c:	40c00433          	neg	s0,a2
    7960:	8c1d                	sub	s0,s0,a5
    7962:	4905                	li	s2,1
    7964:	00010fa3          	sb	zero,31(sp)
    7968:	01f10d13          	addi	s10,sp,31
    796c:	41fa5d93          	srai	s11,s4,0x1f
    7970:	4ca5                	li	s9,9
    7972:	fc688c13          	addi	s8,a7,-58 # 3f7fffc6 <__freertos_irq_stack_top+0x1f7f7fc6>
    7976:	8652                	mv	a2,s4
    7978:	86ee                	mv	a3,s11
    797a:	8526                	mv	a0,s1
    797c:	85a2                	mv	a1,s0
    797e:	49f000ef          	jal	ra,861c <__umoddi3>
    7982:	00acd363          	bge	s9,a0,7988 <printLongLongInt+0xba>
    7986:	9562                	add	a0,a0,s8
    7988:	03050513          	addi	a0,a0,48
    798c:	fead0fa3          	sb	a0,-1(s10)
    7990:	8652                	mv	a2,s4
    7992:	86ee                	mv	a3,s11
    7994:	8526                	mv	a0,s1
    7996:	85a2                	mv	a1,s0
    7998:	fffd0b93          	addi	s7,s10,-1
    799c:	0ef000ef          	jal	ra,828a <__udivdi3>
    79a0:	01b46663          	bltu	s0,s11,79ac <printLongLongInt+0xde>
    79a4:	028d9a63          	bne	s11,s0,79d8 <printLongLongInt+0x10a>
    79a8:	0344f863          	bgeu	s1,s4,79d8 <printLongLongInt+0x10a>
    79ac:	00090d63          	beqz	s2,79c6 <printLongLongInt+0xf8>
    79b0:	02098863          	beqz	s3,79e0 <printLongLongInt+0x112>
    79b4:	002b7793          	andi	a5,s6,2
    79b8:	c785                	beqz	a5,79e0 <printLongLongInt+0x112>
    79ba:	02d00593          	li	a1,45
    79be:	8556                	mv	a0,s5
    79c0:	cf3ff0ef          	jal	ra,76b2 <printchar>
    79c4:	19fd                	addi	s3,s3,-1
    79c6:	4701                	li	a4,0
    79c8:	86da                	mv	a3,s6
    79ca:	864e                	mv	a2,s3
    79cc:	85de                	mv	a1,s7
    79ce:	8556                	mv	a0,s5
    79d0:	d2dff0ef          	jal	ra,76fc <prints>
    79d4:	954a                	add	a0,a0,s2
    79d6:	b789                	j	7918 <printLongLongInt+0x4a>
    79d8:	84aa                	mv	s1,a0
    79da:	842e                	mv	s0,a1
    79dc:	8d5e                	mv	s10,s7
    79de:	bf61                	j	7976 <printLongLongInt+0xa8>
    79e0:	02d00793          	li	a5,45
    79e4:	fefb8fa3          	sb	a5,-1(s7)
    79e8:	4901                	li	s2,0
    79ea:	ffed0b93          	addi	s7,s10,-2
    79ee:	bfe1                	j	79c6 <printLongLongInt+0xf8>

000079f0 <printDouble>:
    79f0:	715d                	addi	sp,sp,-80
    79f2:	c2a6                	sw	s1,68(sp)
    79f4:	c0ca                	sw	s2,64(sp)
    79f6:	84aa                	mv	s1,a0
    79f8:	892e                	mv	s2,a1
    79fa:	852e                	mv	a0,a1
    79fc:	85b2                	mv	a1,a2
    79fe:	c686                	sw	ra,76(sp)
    7a00:	ce3a                	sw	a4,28(sp)
    7a02:	cc42                	sw	a6,24(sp)
    7a04:	c4a2                	sw	s0,72(sp)
    7a06:	de4e                	sw	s3,60(sp)
    7a08:	dc52                	sw	s4,56(sp)
    7a0a:	89b2                	mv	s3,a2
    7a0c:	8a36                	mv	s4,a3
    7a0e:	da56                	sw	s5,52(sp)
    7a10:	d85a                	sw	s6,48(sp)
    7a12:	8abe                	mv	s5,a5
    7a14:	d65e                	sw	s7,44(sp)
    7a16:	d462                	sw	s8,40(sp)
    7a18:	d266                	sw	s9,36(sp)
    7a1a:	8c46                	mv	s8,a7
    7a1c:	d06a                	sw	s10,32(sp)
    7a1e:	432020ef          	jal	ra,9e50 <__fixdfdi>
    7a22:	8b2a                	mv	s6,a0
    7a24:	8bae                	mv	s7,a1
    7a26:	4601                	li	a2,0
    7a28:	4681                	li	a3,0
    7a2a:	85ce                	mv	a1,s3
    7a2c:	854a                	mv	a0,s2
    7a2e:	6a8010ef          	jal	ra,90d6 <__ledf2>
    7a32:	4772                	lw	a4,28(sp)
    7a34:	4862                	lw	a6,24(sp)
    7a36:	817d                	srli	a0,a0,0x1f
    7a38:	87ba                	mv	a5,a4
    7a3a:	c02a                	sw	a0,0(sp)
    7a3c:	4705                	li	a4,1
    7a3e:	88e2                	mv	a7,s8
    7a40:	86d2                	mv	a3,s4
    7a42:	85da                	mv	a1,s6
    7a44:	865e                	mv	a2,s7
    7a46:	8526                	mv	a0,s1
    7a48:	e87ff0ef          	jal	ra,78ce <printLongLongInt>
    7a4c:	8d2a                	mv	s10,a0
    7a4e:	02e00593          	li	a1,46
    7a52:	8526                	mv	a0,s1
    7a54:	c5fff0ef          	jal	ra,76b2 <printchar>
    7a58:	0d05                	addi	s10,s10,1
    7a5a:	4781                	li	a5,0
    7a5c:	4c85                	li	s9,1
    7a5e:	4401                	li	s0,0
    7a60:	4729                	li	a4,10
    7a62:	0757ce63          	blt	a5,s5,7ade <printDouble+0xee>
    7a66:	855a                	mv	a0,s6
    7a68:	85de                	mv	a1,s7
    7a6a:	4a2020ef          	jal	ra,9f0c <__floatdidf>
    7a6e:	862a                	mv	a2,a0
    7a70:	86ae                	mv	a3,a1
    7a72:	854a                	mv	a0,s2
    7a74:	85ce                	mv	a1,s3
    7a76:	3cf010ef          	jal	ra,9644 <__subdf3>
    7a7a:	892a                	mv	s2,a0
    7a7c:	89ae                	mv	s3,a1
    7a7e:	8566                	mv	a0,s9
    7a80:	85a2                	mv	a1,s0
    7a82:	48a020ef          	jal	ra,9f0c <__floatdidf>
    7a86:	862a                	mv	a2,a0
    7a88:	86ae                	mv	a3,a1
    7a8a:	854a                	mv	a0,s2
    7a8c:	85ce                	mv	a1,s3
    7a8e:	6fe010ef          	jal	ra,918c <__muldf3>
    7a92:	3be020ef          	jal	ra,9e50 <__fixdfdi>
    7a96:	41f5d613          	srai	a2,a1,0x1f
    7a9a:	8d31                	xor	a0,a0,a2
    7a9c:	00b647b3          	xor	a5,a2,a1
    7aa0:	40c505b3          	sub	a1,a0,a2
    7aa4:	00b53533          	sltu	a0,a0,a1
    7aa8:	40c78633          	sub	a2,a5,a2
    7aac:	c002                	sw	zero,0(sp)
    7aae:	88e2                	mv	a7,s8
    7ab0:	87d6                	mv	a5,s5
    7ab2:	86d2                	mv	a3,s4
    7ab4:	8e09                	sub	a2,a2,a0
    7ab6:	4809                	li	a6,2
    7ab8:	8526                	mv	a0,s1
    7aba:	4705                	li	a4,1
    7abc:	e13ff0ef          	jal	ra,78ce <printLongLongInt>
    7ac0:	40b6                	lw	ra,76(sp)
    7ac2:	4426                	lw	s0,72(sp)
    7ac4:	956a                	add	a0,a0,s10
    7ac6:	4496                	lw	s1,68(sp)
    7ac8:	4906                	lw	s2,64(sp)
    7aca:	59f2                	lw	s3,60(sp)
    7acc:	5a62                	lw	s4,56(sp)
    7ace:	5ad2                	lw	s5,52(sp)
    7ad0:	5b42                	lw	s6,48(sp)
    7ad2:	5bb2                	lw	s7,44(sp)
    7ad4:	5c22                	lw	s8,40(sp)
    7ad6:	5c92                	lw	s9,36(sp)
    7ad8:	5d02                	lw	s10,32(sp)
    7ada:	6161                	addi	sp,sp,80
    7adc:	8082                	ret
    7ade:	028706b3          	mul	a3,a4,s0
    7ae2:	0785                	addi	a5,a5,1
    7ae4:	03973433          	mulhu	s0,a4,s9
    7ae8:	03970cb3          	mul	s9,a4,s9
    7aec:	9436                	add	s0,s0,a3
    7aee:	bf95                	j	7a62 <printDouble+0x72>

00007af0 <print>:
    7af0:	715d                	addi	sp,sp,-80
    7af2:	d85a                	sw	s6,48(sp)
    7af4:	0000cb37          	lui	s6,0xc
    7af8:	c4a2                	sw	s0,72(sp)
    7afa:	c2a6                	sw	s1,68(sp)
    7afc:	c0ca                	sw	s2,64(sp)
    7afe:	de4e                	sw	s3,60(sp)
    7b00:	dc52                	sw	s4,56(sp)
    7b02:	da56                	sw	s5,52(sp)
    7b04:	d65e                	sw	s7,44(sp)
    7b06:	d462                	sw	s8,40(sp)
    7b08:	c686                	sw	ra,76(sp)
    7b0a:	d266                	sw	s9,36(sp)
    7b0c:	89aa                	mv	s3,a0
    7b0e:	892e                	mv	s2,a1
    7b10:	8432                	mv	s0,a2
    7b12:	4a01                	li	s4,0
    7b14:	4481                	li	s1,0
    7b16:	02500b93          	li	s7,37
    7b1a:	02b00a93          	li	s5,43
    7b1e:	4c29                	li	s8,10
    7b20:	698b0b13          	addi	s6,s6,1688 # c698 <atanlo+0x10>
    7b24:	00090583          	lb	a1,0(s2)
    7b28:	e58d                	bnez	a1,7b52 <print+0x62>
    7b2a:	00098663          	beqz	s3,7b36 <print+0x46>
    7b2e:	4581                	li	a1,0
    7b30:	854e                	mv	a0,s3
    7b32:	b81ff0ef          	jal	ra,76b2 <printchar>
    7b36:	40b6                	lw	ra,76(sp)
    7b38:	4426                	lw	s0,72(sp)
    7b3a:	8526                	mv	a0,s1
    7b3c:	4906                	lw	s2,64(sp)
    7b3e:	4496                	lw	s1,68(sp)
    7b40:	59f2                	lw	s3,60(sp)
    7b42:	5a62                	lw	s4,56(sp)
    7b44:	5ad2                	lw	s5,52(sp)
    7b46:	5b42                	lw	s6,48(sp)
    7b48:	5bb2                	lw	s7,44(sp)
    7b4a:	5c22                	lw	s8,40(sp)
    7b4c:	5c92                	lw	s9,36(sp)
    7b4e:	6161                	addi	sp,sp,80
    7b50:	8082                	ret
    7b52:	01758863          	beq	a1,s7,7b62 <print+0x72>
    7b56:	854e                	mv	a0,s3
    7b58:	b5bff0ef          	jal	ra,76b2 <printchar>
    7b5c:	0485                	addi	s1,s1,1
    7b5e:	0905                	addi	s2,s2,1
    7b60:	b7d1                	j	7b24 <print+0x34>
    7b62:	00190783          	lb	a5,1(s2)
    7b66:	00190c93          	addi	s9,s2,1
    7b6a:	01779a63          	bne	a5,s7,7b7e <print+0x8e>
    7b6e:	02500593          	li	a1,37
    7b72:	854e                	mv	a0,s3
    7b74:	b3fff0ef          	jal	ra,76b2 <printchar>
    7b78:	0485                	addi	s1,s1,1
    7b7a:	8966                	mv	s2,s9
    7b7c:	b7cd                	j	7b5e <print+0x6e>
    7b7e:	d7d5                	beqz	a5,7b2a <print+0x3a>
    7b80:	05578763          	beq	a5,s5,7bce <print+0xde>
    7b84:	00fac863          	blt	s5,a5,7b94 <print+0xa4>
    7b88:	02300713          	li	a4,35
    7b8c:	04e78463          	beq	a5,a4,7bd4 <print+0xe4>
    7b90:	4781                	li	a5,0
    7b92:	a005                	j	7bb2 <print+0xc2>
    7b94:	02d00713          	li	a4,45
    7b98:	00e78a63          	beq	a5,a4,7bac <print+0xbc>
    7b9c:	03000713          	li	a4,48
    7ba0:	fee798e3          	bne	a5,a4,7b90 <print+0xa0>
    7ba4:	00290c93          	addi	s9,s2,2
    7ba8:	4789                	li	a5,2
    7baa:	a021                	j	7bb2 <print+0xc2>
    7bac:	00290c93          	addi	s9,s2,2
    7bb0:	4785                	li	a5,1
    7bb2:	000c8703          	lb	a4,0(s9)
    7bb6:	05570363          	beq	a4,s5,7bfc <print+0x10c>
    7bba:	02eac163          	blt	s5,a4,7bdc <print+0xec>
    7bbe:	02300693          	li	a3,35
    7bc2:	02d70b63          	beq	a4,a3,7bf8 <print+0x108>
    7bc6:	8966                	mv	s2,s9
    7bc8:	4501                	li	a0,0
    7bca:	45a5                	li	a1,9
    7bcc:	a835                	j	7c08 <print+0x118>
    7bce:	00290c93          	addi	s9,s2,2
    7bd2:	bf7d                	j	7b90 <print+0xa0>
    7bd4:	00290c93          	addi	s9,s2,2
    7bd8:	4791                	li	a5,4
    7bda:	bfe1                	j	7bb2 <print+0xc2>
    7bdc:	02d00693          	li	a3,45
    7be0:	00d70963          	beq	a4,a3,7bf2 <print+0x102>
    7be4:	03000693          	li	a3,48
    7be8:	fcd71fe3          	bne	a4,a3,7bc6 <print+0xd6>
    7bec:	0027e793          	ori	a5,a5,2
    7bf0:	a031                	j	7bfc <print+0x10c>
    7bf2:	0c85                	addi	s9,s9,1
    7bf4:	4785                	li	a5,1
    7bf6:	bfc1                	j	7bc6 <print+0xd6>
    7bf8:	0047e793          	ori	a5,a5,4
    7bfc:	0c85                	addi	s9,s9,1
    7bfe:	b7e1                	j	7bc6 <print+0xd6>
    7c00:	03850533          	mul	a0,a0,s8
    7c04:	0905                	addi	s2,s2,1
    7c06:	9536                	add	a0,a0,a3
    7c08:	00090703          	lb	a4,0(s2)
    7c0c:	fd070693          	addi	a3,a4,-48
    7c10:	0ff6f613          	andi	a2,a3,255
    7c14:	fec5f6e3          	bgeu	a1,a2,7c00 <print+0x110>
    7c18:	02e00613          	li	a2,46
    7c1c:	4699                	li	a3,6
    7c1e:	00c71e63          	bne	a4,a2,7c3a <print+0x14a>
    7c22:	0905                	addi	s2,s2,1
    7c24:	4681                	li	a3,0
    7c26:	4625                	li	a2,9
    7c28:	00090703          	lb	a4,0(s2)
    7c2c:	fd070713          	addi	a4,a4,-48
    7c30:	0ff77593          	andi	a1,a4,255
    7c34:	02b67563          	bgeu	a2,a1,7c5e <print+0x16e>
    7c38:	8a36                	mv	s4,a3
    7c3a:	00090703          	lb	a4,0(s2)
    7c3e:	06a00613          	li	a2,106
    7c42:	0ac70963          	beq	a4,a2,7cf4 <print+0x204>
    7c46:	02e64163          	blt	a2,a4,7c68 <print+0x178>
    7c4a:	04c00613          	li	a2,76
    7c4e:	0ac70363          	beq	a4,a2,7cf4 <print+0x204>
    7c52:	06800613          	li	a2,104
    7c56:	08c70863          	beq	a4,a2,7ce6 <print+0x1f6>
    7c5a:	4601                	li	a2,0
    7c5c:	a81d                	j	7c92 <print+0x1a2>
    7c5e:	038686b3          	mul	a3,a3,s8
    7c62:	0905                	addi	s2,s2,1
    7c64:	96ba                	add	a3,a3,a4
    7c66:	b7c9                	j	7c28 <print+0x138>
    7c68:	07400613          	li	a2,116
    7c6c:	08c70463          	beq	a4,a2,7cf4 <print+0x204>
    7c70:	07a00613          	li	a2,122
    7c74:	08c70063          	beq	a4,a2,7cf4 <print+0x204>
    7c78:	06c00593          	li	a1,108
    7c7c:	4601                	li	a2,0
    7c7e:	00b71a63          	bne	a4,a1,7c92 <print+0x1a2>
    7c82:	00190583          	lb	a1,1(s2)
    7c86:	460d                	li	a2,3
    7c88:	00e59463          	bne	a1,a4,7c90 <print+0x1a0>
    7c8c:	0905                	addi	s2,s2,1
    7c8e:	4611                	li	a2,4
    7c90:	0905                	addi	s2,s2,1
    7c92:	00090703          	lb	a4,0(s2)
    7c96:	06000593          	li	a1,96
    7c9a:	06100813          	li	a6,97
    7c9e:	00e5c463          	blt	a1,a4,7ca6 <print+0x1b6>
    7ca2:	04100813          	li	a6,65
    7ca6:	06700593          	li	a1,103
    7caa:	06e5c263          	blt	a1,a4,7d0e <print+0x21e>
    7cae:	06500593          	li	a1,101
    7cb2:	16b75963          	bge	a4,a1,7e24 <print+0x334>
    7cb6:	04700593          	li	a1,71
    7cba:	02e5cf63          	blt	a1,a4,7cf8 <print+0x208>
    7cbe:	04500613          	li	a2,69
    7cc2:	16c75163          	bge	a4,a2,7e24 <print+0x334>
    7cc6:	04300693          	li	a3,67
    7cca:	e8d71ae3          	bne	a4,a3,7b5e <print+0x6e>
    7cce:	4018                	lw	a4,0(s0)
    7cd0:	00440c93          	addi	s9,s0,4
    7cd4:	00010ea3          	sb	zero,29(sp)
    7cd8:	00e10e23          	sb	a4,28(sp)
    7cdc:	86be                	mv	a3,a5
    7cde:	4701                	li	a4,0
    7ce0:	862a                	mv	a2,a0
    7ce2:	086c                	addi	a1,sp,28
    7ce4:	a071                	j	7d70 <print+0x280>
    7ce6:	00190583          	lb	a1,1(s2)
    7cea:	4601                	li	a2,0
    7cec:	fae593e3          	bne	a1,a4,7c92 <print+0x1a2>
    7cf0:	0909                	addi	s2,s2,2
    7cf2:	b745                	j	7c92 <print+0x1a2>
    7cf4:	0905                	addi	s2,s2,1
    7cf6:	b795                	j	7c5a <print+0x16a>
    7cf8:	06300693          	li	a3,99
    7cfc:	fcd709e3          	beq	a4,a3,7cce <print+0x1de>
    7d00:	06e6ce63          	blt	a3,a4,7d7c <print+0x28c>
    7d04:	05800693          	li	a3,88
    7d08:	02d70363          	beq	a4,a3,7d2e <print+0x23e>
    7d0c:	bd89                	j	7b5e <print+0x6e>
    7d0e:	07300693          	li	a3,115
    7d12:	04d70663          	beq	a4,a3,7d5e <print+0x26e>
    7d16:	02e6cd63          	blt	a3,a4,7d50 <print+0x260>
    7d1a:	06f00693          	li	a3,111
    7d1e:	0cd70b63          	beq	a4,a3,7df4 <print+0x304>
    7d22:	07000693          	li	a3,112
    7d26:	0047e793          	ori	a5,a5,4
    7d2a:	e2d71ae3          	bne	a4,a3,7b5e <print+0x6e>
    7d2e:	4711                	li	a4,4
    7d30:	0ae61b63          	bne	a2,a4,7de6 <print+0x2f6>
    7d34:	041d                	addi	s0,s0,7
    7d36:	ff847713          	andi	a4,s0,-8
    7d3a:	430c                	lw	a1,0(a4)
    7d3c:	4350                	lw	a2,4(a4)
    7d3e:	00870413          	addi	s0,a4,8
    7d42:	88c2                	mv	a7,a6
    7d44:	c002                	sw	zero,0(sp)
    7d46:	883e                	mv	a6,a5
    7d48:	4701                	li	a4,0
    7d4a:	87aa                	mv	a5,a0
    7d4c:	46c1                	li	a3,16
    7d4e:	a0b9                	j	7d9c <print+0x2ac>
    7d50:	07500693          	li	a3,117
    7d54:	06d70363          	beq	a4,a3,7dba <print+0x2ca>
    7d58:	07800693          	li	a3,120
    7d5c:	b775                	j	7d08 <print+0x218>
    7d5e:	4018                	lw	a4,0(s0)
    7d60:	00440c93          	addi	s9,s0,4
    7d64:	85da                	mv	a1,s6
    7d66:	c311                	beqz	a4,7d6a <print+0x27a>
    7d68:	85ba                	mv	a1,a4
    7d6a:	8752                	mv	a4,s4
    7d6c:	86be                	mv	a3,a5
    7d6e:	862a                	mv	a2,a0
    7d70:	854e                	mv	a0,s3
    7d72:	98bff0ef          	jal	ra,76fc <prints>
    7d76:	94aa                	add	s1,s1,a0
    7d78:	8466                	mv	s0,s9
    7d7a:	b3d5                	j	7b5e <print+0x6e>
    7d7c:	4711                	li	a4,4
    7d7e:	02e61463          	bne	a2,a4,7da6 <print+0x2b6>
    7d82:	041d                	addi	s0,s0,7
    7d84:	ff847713          	andi	a4,s0,-8
    7d88:	430c                	lw	a1,0(a4)
    7d8a:	4350                	lw	a2,4(a4)
    7d8c:	00870413          	addi	s0,a4,8
    7d90:	88c2                	mv	a7,a6
    7d92:	c002                	sw	zero,0(sp)
    7d94:	883e                	mv	a6,a5
    7d96:	4705                	li	a4,1
    7d98:	87aa                	mv	a5,a0
    7d9a:	46a9                	li	a3,10
    7d9c:	854e                	mv	a0,s3
    7d9e:	b31ff0ef          	jal	ra,78ce <printLongLongInt>
    7da2:	94aa                	add	s1,s1,a0
    7da4:	bb6d                	j	7b5e <print+0x6e>
    7da6:	400c                	lw	a1,0(s0)
    7da8:	88d2                	mv	a7,s4
    7daa:	0411                	addi	s0,s0,4
    7dac:	872a                	mv	a4,a0
    7dae:	4685                	li	a3,1
    7db0:	4629                	li	a2,10
    7db2:	854e                	mv	a0,s3
    7db4:	a29ff0ef          	jal	ra,77dc <printInt>
    7db8:	b7ed                	j	7da2 <print+0x2b2>
    7dba:	4711                	li	a4,4
    7dbc:	00e61f63          	bne	a2,a4,7dda <print+0x2ea>
    7dc0:	041d                	addi	s0,s0,7
    7dc2:	ff847713          	andi	a4,s0,-8
    7dc6:	430c                	lw	a1,0(a4)
    7dc8:	4350                	lw	a2,4(a4)
    7dca:	00870413          	addi	s0,a4,8
    7dce:	88c2                	mv	a7,a6
    7dd0:	c002                	sw	zero,0(sp)
    7dd2:	883e                	mv	a6,a5
    7dd4:	4701                	li	a4,0
    7dd6:	87aa                	mv	a5,a0
    7dd8:	b7c9                	j	7d9a <print+0x2aa>
    7dda:	400c                	lw	a1,0(s0)
    7ddc:	88d2                	mv	a7,s4
    7dde:	0411                	addi	s0,s0,4
    7de0:	872a                	mv	a4,a0
    7de2:	4681                	li	a3,0
    7de4:	b7f1                	j	7db0 <print+0x2c0>
    7de6:	400c                	lw	a1,0(s0)
    7de8:	88d2                	mv	a7,s4
    7dea:	0411                	addi	s0,s0,4
    7dec:	872a                	mv	a4,a0
    7dee:	4681                	li	a3,0
    7df0:	4641                	li	a2,16
    7df2:	b7c1                	j	7db2 <print+0x2c2>
    7df4:	4711                	li	a4,4
    7df6:	02e61063          	bne	a2,a4,7e16 <print+0x326>
    7dfa:	041d                	addi	s0,s0,7
    7dfc:	ff847713          	andi	a4,s0,-8
    7e00:	430c                	lw	a1,0(a4)
    7e02:	4350                	lw	a2,4(a4)
    7e04:	00870413          	addi	s0,a4,8
    7e08:	88c2                	mv	a7,a6
    7e0a:	c002                	sw	zero,0(sp)
    7e0c:	883e                	mv	a6,a5
    7e0e:	4701                	li	a4,0
    7e10:	87aa                	mv	a5,a0
    7e12:	46a1                	li	a3,8
    7e14:	b761                	j	7d9c <print+0x2ac>
    7e16:	400c                	lw	a1,0(s0)
    7e18:	88d2                	mv	a7,s4
    7e1a:	0411                	addi	s0,s0,4
    7e1c:	872a                	mv	a4,a0
    7e1e:	4681                	li	a3,0
    7e20:	4621                	li	a2,8
    7e22:	bf41                	j	7db2 <print+0x2c2>
    7e24:	041d                	addi	s0,s0,7
    7e26:	ff847613          	andi	a2,s0,-8
    7e2a:	00860413          	addi	s0,a2,8 # 7f800008 <__freertos_irq_stack_top+0x5f7f8008>
    7e2e:	420c                	lw	a1,0(a2)
    7e30:	4250                	lw	a2,4(a2)
    7e32:	40d50733          	sub	a4,a0,a3
    7e36:	88c2                	mv	a7,a6
    7e38:	177d                	addi	a4,a4,-1
    7e3a:	883e                	mv	a6,a5
    7e3c:	854e                	mv	a0,s3
    7e3e:	87b6                	mv	a5,a3
    7e40:	46a9                	li	a3,10
    7e42:	bafff0ef          	jal	ra,79f0 <printDouble>
    7e46:	bfb1                	j	7da2 <print+0x2b2>

00007e48 <printf>:
    7e48:	7139                	addi	sp,sp,-64
    7e4a:	d22e                	sw	a1,36(sp)
    7e4c:	d432                	sw	a2,40(sp)
    7e4e:	85aa                	mv	a1,a0
    7e50:	1050                	addi	a2,sp,36
    7e52:	4501                	li	a0,0
    7e54:	ce06                	sw	ra,28(sp)
    7e56:	d636                	sw	a3,44(sp)
    7e58:	d83a                	sw	a4,48(sp)
    7e5a:	da3e                	sw	a5,52(sp)
    7e5c:	dc42                	sw	a6,56(sp)
    7e5e:	de46                	sw	a7,60(sp)
    7e60:	c632                	sw	a2,12(sp)
    7e62:	c8fff0ef          	jal	ra,7af0 <print>
    7e66:	40f2                	lw	ra,28(sp)
    7e68:	6121                	addi	sp,sp,64
    7e6a:	8082                	ret

00007e6c <puts>:
    7e6c:	1101                	addi	sp,sp,-32
    7e6e:	cc22                	sw	s0,24(sp)
    7e70:	ca26                	sw	s1,20(sp)
    7e72:	ce06                	sw	ra,28(sp)
    7e74:	211c                	lbu	a5,0(a0)
    7e76:	84aa                	mv	s1,a0
    7e78:	4401                	li	s0,0
    7e7a:	87dc                	sb	a5,15(sp)
    7e7c:	00f10783          	lb	a5,15(sp)
    7e80:	0405                	addi	s0,s0,1
    7e82:	ef99                	bnez	a5,7ea0 <puts+0x34>
    7e84:	47a9                	li	a5,10
    7e86:	00f10593          	addi	a1,sp,15
    7e8a:	4605                	li	a2,1
    7e8c:	4501                	li	a0,0
    7e8e:	87dc                	sb	a5,15(sp)
    7e90:	ea7fe0ef          	jal	ra,6d36 <_write>
    7e94:	8522                	mv	a0,s0
    7e96:	40f2                	lw	ra,28(sp)
    7e98:	4462                	lw	s0,24(sp)
    7e9a:	44d2                	lw	s1,20(sp)
    7e9c:	6105                	addi	sp,sp,32
    7e9e:	8082                	ret
    7ea0:	4605                	li	a2,1
    7ea2:	00f10593          	addi	a1,sp,15
    7ea6:	4501                	li	a0,0
    7ea8:	e8ffe0ef          	jal	ra,6d36 <_write>
    7eac:	008487b3          	add	a5,s1,s0
    7eb0:	239c                	lbu	a5,0(a5)
    7eb2:	87dc                	sb	a5,15(sp)
    7eb4:	b7e1                	j	7e7c <puts+0x10>

00007eb6 <__divdi3>:
    7eb6:	4801                	li	a6,0
    7eb8:	0e05c563          	bltz	a1,7fa2 <__divdi3+0xec>
    7ebc:	0006db63          	bgez	a3,7ed2 <__divdi3+0x1c>
    7ec0:	40c00633          	neg	a2,a2
    7ec4:	00c037b3          	snez	a5,a2
    7ec8:	40d006b3          	neg	a3,a3
    7ecc:	fff84813          	not	a6,a6
    7ed0:	8e9d                	sub	a3,a3,a5
    7ed2:	87b6                	mv	a5,a3
    7ed4:	8332                	mv	t1,a2
    7ed6:	8eaa                	mv	t4,a0
    7ed8:	88ae                	mv	a7,a1
    7eda:	16069f63          	bnez	a3,8058 <__divdi3+0x1a2>
    7ede:	0cc5fb63          	bgeu	a1,a2,7fb4 <__divdi3+0xfe>
    7ee2:	6741                	lui	a4,0x10
    7ee4:	1ce66f63          	bltu	a2,a4,80c2 <__divdi3+0x20c>
    7ee8:	010007b7          	lui	a5,0x1000
    7eec:	36f66363          	bltu	a2,a5,8252 <__divdi3+0x39c>
    7ef0:	01865693          	srli	a3,a2,0x18
    7ef4:	47e1                	li	a5,24
    7ef6:	00005717          	auipc	a4,0x5
    7efa:	8aa70713          	addi	a4,a4,-1878 # c7a0 <__clz_tab>
    7efe:	9736                	add	a4,a4,a3
    7f00:	2318                	lbu	a4,0(a4)
    7f02:	97ba                	add	a5,a5,a4
    7f04:	02000713          	li	a4,32
    7f08:	8f1d                	sub	a4,a4,a5
    7f0a:	cb19                	beqz	a4,7f20 <__divdi3+0x6a>
    7f0c:	00e595b3          	sll	a1,a1,a4
    7f10:	00f557b3          	srl	a5,a0,a5
    7f14:	00e61333          	sll	t1,a2,a4
    7f18:	00b7e8b3          	or	a7,a5,a1
    7f1c:	00e51eb3          	sll	t4,a0,a4
    7f20:	01035613          	srli	a2,t1,0x10
    7f24:	02c8d7b3          	divu	a5,a7,a2
    7f28:	01031693          	slli	a3,t1,0x10
    7f2c:	82c1                	srli	a3,a3,0x10
    7f2e:	010ed713          	srli	a4,t4,0x10
    7f32:	02c8f5b3          	remu	a1,a7,a2
    7f36:	02f68533          	mul	a0,a3,a5
    7f3a:	05c2                	slli	a1,a1,0x10
    7f3c:	00e5e8b3          	or	a7,a1,a4
    7f40:	00a8fa63          	bgeu	a7,a0,7f54 <__divdi3+0x9e>
    7f44:	989a                	add	a7,a7,t1
    7f46:	fff78713          	addi	a4,a5,-1 # ffffff <_data_lma+0xff375f>
    7f4a:	0068e463          	bltu	a7,t1,7f52 <__divdi3+0x9c>
    7f4e:	32a8e863          	bltu	a7,a0,827e <__divdi3+0x3c8>
    7f52:	87ba                	mv	a5,a4
    7f54:	40a888b3          	sub	a7,a7,a0
    7f58:	02c8d5b3          	divu	a1,a7,a2
    7f5c:	0ec2                	slli	t4,t4,0x10
    7f5e:	010ede93          	srli	t4,t4,0x10
    7f62:	02c8f8b3          	remu	a7,a7,a2
    7f66:	02b686b3          	mul	a3,a3,a1
    7f6a:	08c2                	slli	a7,a7,0x10
    7f6c:	01d8e8b3          	or	a7,a7,t4
    7f70:	00d8fb63          	bgeu	a7,a3,7f86 <__divdi3+0xd0>
    7f74:	989a                	add	a7,a7,t1
    7f76:	fff58713          	addi	a4,a1,-1 # 3effffff <__freertos_irq_stack_top+0x1eff7fff>
    7f7a:	0068e563          	bltu	a7,t1,7f84 <__divdi3+0xce>
    7f7e:	15f9                	addi	a1,a1,-2
    7f80:	00d8e363          	bltu	a7,a3,7f86 <__divdi3+0xd0>
    7f84:	85ba                	mv	a1,a4
    7f86:	01079513          	slli	a0,a5,0x10
    7f8a:	8d4d                	or	a0,a0,a1
    7f8c:	4581                	li	a1,0
    7f8e:	00080963          	beqz	a6,7fa0 <__divdi3+0xea>
    7f92:	40a00533          	neg	a0,a0
    7f96:	00a037b3          	snez	a5,a0
    7f9a:	40b005b3          	neg	a1,a1
    7f9e:	8d9d                	sub	a1,a1,a5
    7fa0:	8082                	ret
    7fa2:	40a00533          	neg	a0,a0
    7fa6:	00a037b3          	snez	a5,a0
    7faa:	40b005b3          	neg	a1,a1
    7fae:	8d9d                	sub	a1,a1,a5
    7fb0:	587d                	li	a6,-1
    7fb2:	b729                	j	7ebc <__divdi3+0x6>
    7fb4:	e601                	bnez	a2,7fbc <__divdi3+0x106>
    7fb6:	4305                	li	t1,1
    7fb8:	02d35333          	divu	t1,t1,a3
    7fbc:	6741                	lui	a4,0x10
    7fbe:	0ee36963          	bltu	t1,a4,80b0 <__divdi3+0x1fa>
    7fc2:	010007b7          	lui	a5,0x1000
    7fc6:	28f36a63          	bltu	t1,a5,825a <__divdi3+0x3a4>
    7fca:	01835693          	srli	a3,t1,0x18
    7fce:	47e1                	li	a5,24
    7fd0:	00004717          	auipc	a4,0x4
    7fd4:	7d070713          	addi	a4,a4,2000 # c7a0 <__clz_tab>
    7fd8:	9736                	add	a4,a4,a3
    7fda:	2318                	lbu	a4,0(a4)
    7fdc:	97ba                	add	a5,a5,a4
    7fde:	02000713          	li	a4,32
    7fe2:	8f1d                	sub	a4,a4,a5
    7fe4:	eb65                	bnez	a4,80d4 <__divdi3+0x21e>
    7fe6:	01031893          	slli	a7,t1,0x10
    7fea:	406586b3          	sub	a3,a1,t1
    7fee:	01035f13          	srli	t5,t1,0x10
    7ff2:	0108d893          	srli	a7,a7,0x10
    7ff6:	4585                	li	a1,1
    7ff8:	010ed713          	srli	a4,t4,0x10
    7ffc:	03e6d7b3          	divu	a5,a3,t5
    8000:	03e6f6b3          	remu	a3,a3,t5
    8004:	03178633          	mul	a2,a5,a7
    8008:	06c2                	slli	a3,a3,0x10
    800a:	8f55                	or	a4,a4,a3
    800c:	00c77a63          	bgeu	a4,a2,8020 <__divdi3+0x16a>
    8010:	971a                	add	a4,a4,t1
    8012:	fff78693          	addi	a3,a5,-1 # ffffff <_data_lma+0xff375f>
    8016:	00676463          	bltu	a4,t1,801e <__divdi3+0x168>
    801a:	26c76563          	bltu	a4,a2,8284 <__divdi3+0x3ce>
    801e:	87b6                	mv	a5,a3
    8020:	8f11                	sub	a4,a4,a2
    8022:	03e756b3          	divu	a3,a4,t5
    8026:	0ec2                	slli	t4,t4,0x10
    8028:	010ede93          	srli	t4,t4,0x10
    802c:	03e77733          	remu	a4,a4,t5
    8030:	031688b3          	mul	a7,a3,a7
    8034:	0742                	slli	a4,a4,0x10
    8036:	01d76733          	or	a4,a4,t4
    803a:	01177b63          	bgeu	a4,a7,8050 <__divdi3+0x19a>
    803e:	971a                	add	a4,a4,t1
    8040:	fff68613          	addi	a2,a3,-1
    8044:	00676563          	bltu	a4,t1,804e <__divdi3+0x198>
    8048:	16f9                	addi	a3,a3,-2
    804a:	01176363          	bltu	a4,a7,8050 <__divdi3+0x19a>
    804e:	86b2                	mv	a3,a2
    8050:	01079513          	slli	a0,a5,0x10
    8054:	8d55                	or	a0,a0,a3
    8056:	bf25                	j	7f8e <__divdi3+0xd8>
    8058:	04d5e163          	bltu	a1,a3,809a <__divdi3+0x1e4>
    805c:	67c1                	lui	a5,0x10
    805e:	04f6e163          	bltu	a3,a5,80a0 <__divdi3+0x1ea>
    8062:	010007b7          	lui	a5,0x1000
    8066:	1ef6e263          	bltu	a3,a5,824a <__divdi3+0x394>
    806a:	0186d893          	srli	a7,a3,0x18
    806e:	4761                	li	a4,24
    8070:	00004797          	auipc	a5,0x4
    8074:	73078793          	addi	a5,a5,1840 # c7a0 <__clz_tab>
    8078:	97c6                	add	a5,a5,a7
    807a:	0007c303          	lbu	t1,0(a5)
    807e:	02000793          	li	a5,32
    8082:	933a                	add	t1,t1,a4
    8084:	406787b3          	sub	a5,a5,t1
    8088:	ebe9                	bnez	a5,815a <__divdi3+0x2a4>
    808a:	1cb6ec63          	bltu	a3,a1,8262 <__divdi3+0x3ac>
    808e:	00c53533          	sltu	a0,a0,a2
    8092:	00154513          	xori	a0,a0,1
    8096:	4581                	li	a1,0
    8098:	bddd                	j	7f8e <__divdi3+0xd8>
    809a:	4581                	li	a1,0
    809c:	4501                	li	a0,0
    809e:	bdc5                	j	7f8e <__divdi3+0xd8>
    80a0:	0ff00793          	li	a5,255
    80a4:	1cd7f263          	bgeu	a5,a3,8268 <__divdi3+0x3b2>
    80a8:	0086d893          	srli	a7,a3,0x8
    80ac:	4721                	li	a4,8
    80ae:	b7c9                	j	8070 <__divdi3+0x1ba>
    80b0:	0ff00713          	li	a4,255
    80b4:	869a                	mv	a3,t1
    80b6:	f0677de3          	bgeu	a4,t1,7fd0 <__divdi3+0x11a>
    80ba:	00835693          	srli	a3,t1,0x8
    80be:	47a1                	li	a5,8
    80c0:	bf01                	j	7fd0 <__divdi3+0x11a>
    80c2:	0ff00713          	li	a4,255
    80c6:	86b2                	mv	a3,a2
    80c8:	e2c777e3          	bgeu	a4,a2,7ef6 <__divdi3+0x40>
    80cc:	00865693          	srli	a3,a2,0x8
    80d0:	47a1                	li	a5,8
    80d2:	b515                	j	7ef6 <__divdi3+0x40>
    80d4:	00e31333          	sll	t1,t1,a4
    80d8:	00f5d633          	srl	a2,a1,a5
    80dc:	01035f13          	srli	t5,t1,0x10
    80e0:	03e65e33          	divu	t3,a2,t5
    80e4:	00e596b3          	sll	a3,a1,a4
    80e8:	00f557b3          	srl	a5,a0,a5
    80ec:	8edd                	or	a3,a3,a5
    80ee:	01031893          	slli	a7,t1,0x10
    80f2:	0108d893          	srli	a7,a7,0x10
    80f6:	00e51eb3          	sll	t4,a0,a4
    80fa:	0106d593          	srli	a1,a3,0x10
    80fe:	03e677b3          	remu	a5,a2,t5
    8102:	03c88733          	mul	a4,a7,t3
    8106:	07c2                	slli	a5,a5,0x10
    8108:	8fcd                	or	a5,a5,a1
    810a:	00e7fb63          	bgeu	a5,a4,8120 <__divdi3+0x26a>
    810e:	979a                	add	a5,a5,t1
    8110:	fffe0613          	addi	a2,t3,-1
    8114:	1667e363          	bltu	a5,t1,827a <__divdi3+0x3c4>
    8118:	16e7f163          	bgeu	a5,a4,827a <__divdi3+0x3c4>
    811c:	1e79                	addi	t3,t3,-2
    811e:	979a                	add	a5,a5,t1
    8120:	8f99                	sub	a5,a5,a4
    8122:	03e7d633          	divu	a2,a5,t5
    8126:	01069713          	slli	a4,a3,0x10
    812a:	8341                	srli	a4,a4,0x10
    812c:	03e7f7b3          	remu	a5,a5,t5
    8130:	02c88533          	mul	a0,a7,a2
    8134:	01079693          	slli	a3,a5,0x10
    8138:	8ed9                	or	a3,a3,a4
    813a:	00a6fb63          	bgeu	a3,a0,8150 <__divdi3+0x29a>
    813e:	969a                	add	a3,a3,t1
    8140:	fff60793          	addi	a5,a2,-1
    8144:	1266e763          	bltu	a3,t1,8272 <__divdi3+0x3bc>
    8148:	12a6f563          	bgeu	a3,a0,8272 <__divdi3+0x3bc>
    814c:	1679                	addi	a2,a2,-2
    814e:	969a                	add	a3,a3,t1
    8150:	010e1593          	slli	a1,t3,0x10
    8154:	8e89                	sub	a3,a3,a0
    8156:	8dd1                	or	a1,a1,a2
    8158:	b545                	j	7ff8 <__divdi3+0x142>
    815a:	00665733          	srl	a4,a2,t1
    815e:	00f696b3          	sll	a3,a3,a5
    8162:	8ed9                	or	a3,a3,a4
    8164:	0065d8b3          	srl	a7,a1,t1
    8168:	0106df13          	srli	t5,a3,0x10
    816c:	03e8deb3          	divu	t4,a7,t5
    8170:	01069e13          	slli	t3,a3,0x10
    8174:	00655333          	srl	t1,a0,t1
    8178:	010e5e13          	srli	t3,t3,0x10
    817c:	00f595b3          	sll	a1,a1,a5
    8180:	00b365b3          	or	a1,t1,a1
    8184:	0105d713          	srli	a4,a1,0x10
    8188:	00f61633          	sll	a2,a2,a5
    818c:	03e8f8b3          	remu	a7,a7,t5
    8190:	03de0333          	mul	t1,t3,t4
    8194:	08c2                	slli	a7,a7,0x10
    8196:	00e8e733          	or	a4,a7,a4
    819a:	00677b63          	bgeu	a4,t1,81b0 <__divdi3+0x2fa>
    819e:	9736                	add	a4,a4,a3
    81a0:	fffe8893          	addi	a7,t4,-1
    81a4:	0cd76963          	bltu	a4,a3,8276 <__divdi3+0x3c0>
    81a8:	0c677763          	bgeu	a4,t1,8276 <__divdi3+0x3c0>
    81ac:	1ef9                	addi	t4,t4,-2
    81ae:	9736                	add	a4,a4,a3
    81b0:	40670733          	sub	a4,a4,t1
    81b4:	03e75333          	divu	t1,a4,t5
    81b8:	05c2                	slli	a1,a1,0x10
    81ba:	81c1                	srli	a1,a1,0x10
    81bc:	03e77733          	remu	a4,a4,t5
    81c0:	026e08b3          	mul	a7,t3,t1
    81c4:	0742                	slli	a4,a4,0x10
    81c6:	8dd9                	or	a1,a1,a4
    81c8:	0115fb63          	bgeu	a1,a7,81de <__divdi3+0x328>
    81cc:	95b6                	add	a1,a1,a3
    81ce:	fff30713          	addi	a4,t1,-1
    81d2:	08d5ee63          	bltu	a1,a3,826e <__divdi3+0x3b8>
    81d6:	0915fc63          	bgeu	a1,a7,826e <__divdi3+0x3b8>
    81da:	1379                	addi	t1,t1,-2
    81dc:	95b6                	add	a1,a1,a3
    81de:	0ec2                	slli	t4,t4,0x10
    81e0:	6f41                	lui	t5,0x10
    81e2:	006eeeb3          	or	t4,t4,t1
    81e6:	ffff0713          	addi	a4,t5,-1 # ffff <_data_lma+0x375f>
    81ea:	00eef6b3          	and	a3,t4,a4
    81ee:	010ed313          	srli	t1,t4,0x10
    81f2:	8f71                	and	a4,a4,a2
    81f4:	8241                	srli	a2,a2,0x10
    81f6:	02e68e33          	mul	t3,a3,a4
    81fa:	411585b3          	sub	a1,a1,a7
    81fe:	02c686b3          	mul	a3,a3,a2
    8202:	010e5893          	srli	a7,t3,0x10
    8206:	02e30733          	mul	a4,t1,a4
    820a:	96ba                	add	a3,a3,a4
    820c:	96c6                	add	a3,a3,a7
    820e:	02c30633          	mul	a2,t1,a2
    8212:	00e6f363          	bgeu	a3,a4,8218 <__divdi3+0x362>
    8216:	967a                	add	a2,a2,t5
    8218:	0106d313          	srli	t1,a3,0x10
    821c:	961a                	add	a2,a2,t1
    821e:	02c5e263          	bltu	a1,a2,8242 <__divdi3+0x38c>
    8222:	00c58563          	beq	a1,a2,822c <__divdi3+0x376>
    8226:	8576                	mv	a0,t4
    8228:	4581                	li	a1,0
    822a:	b395                	j	7f8e <__divdi3+0xd8>
    822c:	6741                	lui	a4,0x10
    822e:	177d                	addi	a4,a4,-1
    8230:	8ef9                	and	a3,a3,a4
    8232:	06c2                	slli	a3,a3,0x10
    8234:	00ee7e33          	and	t3,t3,a4
    8238:	00f517b3          	sll	a5,a0,a5
    823c:	96f2                	add	a3,a3,t3
    823e:	fed7f4e3          	bgeu	a5,a3,8226 <__divdi3+0x370>
    8242:	fffe8513          	addi	a0,t4,-1
    8246:	4581                	li	a1,0
    8248:	b399                	j	7f8e <__divdi3+0xd8>
    824a:	0106d893          	srli	a7,a3,0x10
    824e:	4741                	li	a4,16
    8250:	b505                	j	8070 <__divdi3+0x1ba>
    8252:	01065693          	srli	a3,a2,0x10
    8256:	47c1                	li	a5,16
    8258:	b979                	j	7ef6 <__divdi3+0x40>
    825a:	01035693          	srli	a3,t1,0x10
    825e:	47c1                	li	a5,16
    8260:	bb85                	j	7fd0 <__divdi3+0x11a>
    8262:	4581                	li	a1,0
    8264:	4505                	li	a0,1
    8266:	b325                	j	7f8e <__divdi3+0xd8>
    8268:	88b6                	mv	a7,a3
    826a:	4701                	li	a4,0
    826c:	b511                	j	8070 <__divdi3+0x1ba>
    826e:	833a                	mv	t1,a4
    8270:	b7bd                	j	81de <__divdi3+0x328>
    8272:	863e                	mv	a2,a5
    8274:	bdf1                	j	8150 <__divdi3+0x29a>
    8276:	8ec6                	mv	t4,a7
    8278:	bf25                	j	81b0 <__divdi3+0x2fa>
    827a:	8e32                	mv	t3,a2
    827c:	b555                	j	8120 <__divdi3+0x26a>
    827e:	17f9                	addi	a5,a5,-2
    8280:	989a                	add	a7,a7,t1
    8282:	b9c9                	j	7f54 <__divdi3+0x9e>
    8284:	17f9                	addi	a5,a5,-2
    8286:	971a                	add	a4,a4,t1
    8288:	bb61                	j	8020 <__divdi3+0x16a>

0000828a <__udivdi3>:
    828a:	87b6                	mv	a5,a3
    828c:	88b2                	mv	a7,a2
    828e:	832a                	mv	t1,a0
    8290:	882e                	mv	a6,a1
    8292:	14069b63          	bnez	a3,83e8 <__udivdi3+0x15e>
    8296:	0ac5f863          	bgeu	a1,a2,8346 <__udivdi3+0xbc>
    829a:	6741                	lui	a4,0x10
    829c:	1ae66b63          	bltu	a2,a4,8452 <__udivdi3+0x1c8>
    82a0:	010007b7          	lui	a5,0x1000
    82a4:	34f66063          	bltu	a2,a5,85e4 <__udivdi3+0x35a>
    82a8:	01865693          	srli	a3,a2,0x18
    82ac:	47e1                	li	a5,24
    82ae:	00004717          	auipc	a4,0x4
    82b2:	4f270713          	addi	a4,a4,1266 # c7a0 <__clz_tab>
    82b6:	9736                	add	a4,a4,a3
    82b8:	2318                	lbu	a4,0(a4)
    82ba:	97ba                	add	a5,a5,a4
    82bc:	02000713          	li	a4,32
    82c0:	8f1d                	sub	a4,a4,a5
    82c2:	cb19                	beqz	a4,82d8 <__udivdi3+0x4e>
    82c4:	00e59833          	sll	a6,a1,a4
    82c8:	00f557b3          	srl	a5,a0,a5
    82cc:	00e618b3          	sll	a7,a2,a4
    82d0:	0107e833          	or	a6,a5,a6
    82d4:	00e51333          	sll	t1,a0,a4
    82d8:	0108d613          	srli	a2,a7,0x10
    82dc:	02c85533          	divu	a0,a6,a2
    82e0:	01089693          	slli	a3,a7,0x10
    82e4:	82c1                	srli	a3,a3,0x10
    82e6:	01035793          	srli	a5,t1,0x10
    82ea:	02c87733          	remu	a4,a6,a2
    82ee:	02a685b3          	mul	a1,a3,a0
    82f2:	0742                	slli	a4,a4,0x10
    82f4:	00f76833          	or	a6,a4,a5
    82f8:	00b87a63          	bgeu	a6,a1,830c <__udivdi3+0x82>
    82fc:	9846                	add	a6,a6,a7
    82fe:	fff50793          	addi	a5,a0,-1
    8302:	01186463          	bltu	a6,a7,830a <__udivdi3+0x80>
    8306:	30b86563          	bltu	a6,a1,8610 <__udivdi3+0x386>
    830a:	853e                	mv	a0,a5
    830c:	40b80833          	sub	a6,a6,a1
    8310:	02c85733          	divu	a4,a6,a2
    8314:	0342                	slli	t1,t1,0x10
    8316:	01035313          	srli	t1,t1,0x10
    831a:	02c87833          	remu	a6,a6,a2
    831e:	02e686b3          	mul	a3,a3,a4
    8322:	0842                	slli	a6,a6,0x10
    8324:	00686833          	or	a6,a6,t1
    8328:	00d87b63          	bgeu	a6,a3,833e <__udivdi3+0xb4>
    832c:	9846                	add	a6,a6,a7
    832e:	fff70793          	addi	a5,a4,-1
    8332:	01186563          	bltu	a6,a7,833c <__udivdi3+0xb2>
    8336:	1779                	addi	a4,a4,-2
    8338:	00d86363          	bltu	a6,a3,833e <__udivdi3+0xb4>
    833c:	873e                	mv	a4,a5
    833e:	0542                	slli	a0,a0,0x10
    8340:	8d59                	or	a0,a0,a4
    8342:	4581                	li	a1,0
    8344:	8082                	ret
    8346:	e601                	bnez	a2,834e <__udivdi3+0xc4>
    8348:	4705                	li	a4,1
    834a:	02c758b3          	divu	a7,a4,a2
    834e:	6741                	lui	a4,0x10
    8350:	0ee8e863          	bltu	a7,a4,8440 <__udivdi3+0x1b6>
    8354:	010007b7          	lui	a5,0x1000
    8358:	28f8ea63          	bltu	a7,a5,85ec <__udivdi3+0x362>
    835c:	0188d693          	srli	a3,a7,0x18
    8360:	47e1                	li	a5,24
    8362:	00004717          	auipc	a4,0x4
    8366:	43e70713          	addi	a4,a4,1086 # c7a0 <__clz_tab>
    836a:	9736                	add	a4,a4,a3
    836c:	2314                	lbu	a3,0(a4)
    836e:	96be                	add	a3,a3,a5
    8370:	02000793          	li	a5,32
    8374:	8f95                	sub	a5,a5,a3
    8376:	e7fd                	bnez	a5,8464 <__udivdi3+0x1da>
    8378:	01089e93          	slli	t4,a7,0x10
    837c:	41158733          	sub	a4,a1,a7
    8380:	0108df13          	srli	t5,a7,0x10
    8384:	010ede93          	srli	t4,t4,0x10
    8388:	4585                	li	a1,1
    838a:	01035793          	srli	a5,t1,0x10
    838e:	03e75533          	divu	a0,a4,t5
    8392:	03e77733          	remu	a4,a4,t5
    8396:	03d506b3          	mul	a3,a0,t4
    839a:	0742                	slli	a4,a4,0x10
    839c:	8fd9                	or	a5,a5,a4
    839e:	00d7fa63          	bgeu	a5,a3,83b2 <__udivdi3+0x128>
    83a2:	97c6                	add	a5,a5,a7
    83a4:	fff50713          	addi	a4,a0,-1
    83a8:	0117e463          	bltu	a5,a7,83b0 <__udivdi3+0x126>
    83ac:	26d7e563          	bltu	a5,a3,8616 <__udivdi3+0x38c>
    83b0:	853a                	mv	a0,a4
    83b2:	8f95                	sub	a5,a5,a3
    83b4:	03e7d733          	divu	a4,a5,t5
    83b8:	0342                	slli	t1,t1,0x10
    83ba:	01035313          	srli	t1,t1,0x10
    83be:	03e7f7b3          	remu	a5,a5,t5
    83c2:	03d70eb3          	mul	t4,a4,t4
    83c6:	07c2                	slli	a5,a5,0x10
    83c8:	0067e7b3          	or	a5,a5,t1
    83cc:	01d7fb63          	bgeu	a5,t4,83e2 <__udivdi3+0x158>
    83d0:	97c6                	add	a5,a5,a7
    83d2:	fff70693          	addi	a3,a4,-1
    83d6:	0117e563          	bltu	a5,a7,83e0 <__udivdi3+0x156>
    83da:	1779                	addi	a4,a4,-2
    83dc:	01d7e363          	bltu	a5,t4,83e2 <__udivdi3+0x158>
    83e0:	8736                	mv	a4,a3
    83e2:	0542                	slli	a0,a0,0x10
    83e4:	8d59                	or	a0,a0,a4
    83e6:	8082                	ret
    83e8:	04d5e163          	bltu	a1,a3,842a <__udivdi3+0x1a0>
    83ec:	67c1                	lui	a5,0x10
    83ee:	04f6e163          	bltu	a3,a5,8430 <__udivdi3+0x1a6>
    83f2:	010007b7          	lui	a5,0x1000
    83f6:	1ef6e363          	bltu	a3,a5,85dc <__udivdi3+0x352>
    83fa:	0186d713          	srli	a4,a3,0x18
    83fe:	4861                	li	a6,24
    8400:	00004797          	auipc	a5,0x4
    8404:	3a078793          	addi	a5,a5,928 # c7a0 <__clz_tab>
    8408:	97ba                	add	a5,a5,a4
    840a:	2398                	lbu	a4,0(a5)
    840c:	02000e13          	li	t3,32
    8410:	9742                	add	a4,a4,a6
    8412:	40ee0e33          	sub	t3,t3,a4
    8416:	0c0e1a63          	bnez	t3,84ea <__udivdi3+0x260>
    841a:	1cb6ed63          	bltu	a3,a1,85f4 <__udivdi3+0x36a>
    841e:	00c53533          	sltu	a0,a0,a2
    8422:	00154513          	xori	a0,a0,1
    8426:	4581                	li	a1,0
    8428:	8082                	ret
    842a:	4581                	li	a1,0
    842c:	4501                	li	a0,0
    842e:	8082                	ret
    8430:	0ff00793          	li	a5,255
    8434:	1cd7f363          	bgeu	a5,a3,85fa <__udivdi3+0x370>
    8438:	0086d713          	srli	a4,a3,0x8
    843c:	4821                	li	a6,8
    843e:	b7c9                	j	8400 <__udivdi3+0x176>
    8440:	0ff00713          	li	a4,255
    8444:	86c6                	mv	a3,a7
    8446:	f1177ee3          	bgeu	a4,a7,8362 <__udivdi3+0xd8>
    844a:	0088d693          	srli	a3,a7,0x8
    844e:	47a1                	li	a5,8
    8450:	bf09                	j	8362 <__udivdi3+0xd8>
    8452:	0ff00713          	li	a4,255
    8456:	86b2                	mv	a3,a2
    8458:	e4c77be3          	bgeu	a4,a2,82ae <__udivdi3+0x24>
    845c:	00865693          	srli	a3,a2,0x8
    8460:	47a1                	li	a5,8
    8462:	b5b1                	j	82ae <__udivdi3+0x24>
    8464:	00f898b3          	sll	a7,a7,a5
    8468:	00d5d633          	srl	a2,a1,a3
    846c:	0108df13          	srli	t5,a7,0x10
    8470:	03e65e33          	divu	t3,a2,t5
    8474:	00f59733          	sll	a4,a1,a5
    8478:	00d556b3          	srl	a3,a0,a3
    847c:	8f55                	or	a4,a4,a3
    847e:	01089e93          	slli	t4,a7,0x10
    8482:	010ede93          	srli	t4,t4,0x10
    8486:	00f51333          	sll	t1,a0,a5
    848a:	01075593          	srli	a1,a4,0x10
    848e:	03e676b3          	remu	a3,a2,t5
    8492:	03ce87b3          	mul	a5,t4,t3
    8496:	06c2                	slli	a3,a3,0x10
    8498:	8ecd                	or	a3,a3,a1
    849a:	00f6fb63          	bgeu	a3,a5,84b0 <__udivdi3+0x226>
    849e:	96c6                	add	a3,a3,a7
    84a0:	fffe0613          	addi	a2,t3,-1
    84a4:	1716e463          	bltu	a3,a7,860c <__udivdi3+0x382>
    84a8:	16f6f263          	bgeu	a3,a5,860c <__udivdi3+0x382>
    84ac:	1e79                	addi	t3,t3,-2
    84ae:	96c6                	add	a3,a3,a7
    84b0:	8e9d                	sub	a3,a3,a5
    84b2:	03e6d633          	divu	a2,a3,t5
    84b6:	01071793          	slli	a5,a4,0x10
    84ba:	83c1                	srli	a5,a5,0x10
    84bc:	03e6f6b3          	remu	a3,a3,t5
    84c0:	02ce8533          	mul	a0,t4,a2
    84c4:	01069713          	slli	a4,a3,0x10
    84c8:	8f5d                	or	a4,a4,a5
    84ca:	00a77b63          	bgeu	a4,a0,84e0 <__udivdi3+0x256>
    84ce:	9746                	add	a4,a4,a7
    84d0:	fff60793          	addi	a5,a2,-1
    84d4:	13176863          	bltu	a4,a7,8604 <__udivdi3+0x37a>
    84d8:	12a77663          	bgeu	a4,a0,8604 <__udivdi3+0x37a>
    84dc:	1679                	addi	a2,a2,-2
    84de:	9746                	add	a4,a4,a7
    84e0:	010e1593          	slli	a1,t3,0x10
    84e4:	8f09                	sub	a4,a4,a0
    84e6:	8dd1                	or	a1,a1,a2
    84e8:	b54d                	j	838a <__udivdi3+0x100>
    84ea:	00e657b3          	srl	a5,a2,a4
    84ee:	01c696b3          	sll	a3,a3,t3
    84f2:	8edd                	or	a3,a3,a5
    84f4:	00e5d333          	srl	t1,a1,a4
    84f8:	0106df13          	srli	t5,a3,0x10
    84fc:	03e357b3          	divu	a5,t1,t5
    8500:	01069e93          	slli	t4,a3,0x10
    8504:	010ede93          	srli	t4,t4,0x10
    8508:	01c59833          	sll	a6,a1,t3
    850c:	00e55733          	srl	a4,a0,a4
    8510:	01076833          	or	a6,a4,a6
    8514:	01085893          	srli	a7,a6,0x10
    8518:	01c61633          	sll	a2,a2,t3
    851c:	03e37333          	remu	t1,t1,t5
    8520:	02fe85b3          	mul	a1,t4,a5
    8524:	0342                	slli	t1,t1,0x10
    8526:	011368b3          	or	a7,t1,a7
    852a:	00b8fb63          	bgeu	a7,a1,8540 <__udivdi3+0x2b6>
    852e:	98b6                	add	a7,a7,a3
    8530:	fff78713          	addi	a4,a5,-1
    8534:	0cd8ea63          	bltu	a7,a3,8608 <__udivdi3+0x37e>
    8538:	0cb8f863          	bgeu	a7,a1,8608 <__udivdi3+0x37e>
    853c:	17f9                	addi	a5,a5,-2
    853e:	98b6                	add	a7,a7,a3
    8540:	40b888b3          	sub	a7,a7,a1
    8544:	03e8d733          	divu	a4,a7,t5
    8548:	0842                	slli	a6,a6,0x10
    854a:	01085813          	srli	a6,a6,0x10
    854e:	03e8f8b3          	remu	a7,a7,t5
    8552:	02ee8333          	mul	t1,t4,a4
    8556:	08c2                	slli	a7,a7,0x10
    8558:	0108e5b3          	or	a1,a7,a6
    855c:	0065fb63          	bgeu	a1,t1,8572 <__udivdi3+0x2e8>
    8560:	95b6                	add	a1,a1,a3
    8562:	fff70813          	addi	a6,a4,-1
    8566:	08d5ed63          	bltu	a1,a3,8600 <__udivdi3+0x376>
    856a:	0865fb63          	bgeu	a1,t1,8600 <__udivdi3+0x376>
    856e:	1779                	addi	a4,a4,-2
    8570:	95b6                	add	a1,a1,a3
    8572:	07c2                	slli	a5,a5,0x10
    8574:	6f41                	lui	t5,0x10
    8576:	8fd9                	or	a5,a5,a4
    8578:	ffff0713          	addi	a4,t5,-1 # ffff <_data_lma+0x375f>
    857c:	00e7f6b3          	and	a3,a5,a4
    8580:	0107d893          	srli	a7,a5,0x10
    8584:	8f71                	and	a4,a4,a2
    8586:	8241                	srli	a2,a2,0x10
    8588:	02e68eb3          	mul	t4,a3,a4
    858c:	406585b3          	sub	a1,a1,t1
    8590:	02c686b3          	mul	a3,a3,a2
    8594:	010ed813          	srli	a6,t4,0x10
    8598:	02e88733          	mul	a4,a7,a4
    859c:	96ba                	add	a3,a3,a4
    859e:	96c2                	add	a3,a3,a6
    85a0:	02c88633          	mul	a2,a7,a2
    85a4:	00e6f363          	bgeu	a3,a4,85aa <__udivdi3+0x320>
    85a8:	967a                	add	a2,a2,t5
    85aa:	0106d893          	srli	a7,a3,0x10
    85ae:	9646                	add	a2,a2,a7
    85b0:	02c5e263          	bltu	a1,a2,85d4 <__udivdi3+0x34a>
    85b4:	00c58563          	beq	a1,a2,85be <__udivdi3+0x334>
    85b8:	853e                	mv	a0,a5
    85ba:	4581                	li	a1,0
    85bc:	8082                	ret
    85be:	6741                	lui	a4,0x10
    85c0:	177d                	addi	a4,a4,-1
    85c2:	8ef9                	and	a3,a3,a4
    85c4:	06c2                	slli	a3,a3,0x10
    85c6:	00eefeb3          	and	t4,t4,a4
    85ca:	01c51533          	sll	a0,a0,t3
    85ce:	96f6                	add	a3,a3,t4
    85d0:	fed574e3          	bgeu	a0,a3,85b8 <__udivdi3+0x32e>
    85d4:	fff78513          	addi	a0,a5,-1
    85d8:	4581                	li	a1,0
    85da:	8082                	ret
    85dc:	0106d713          	srli	a4,a3,0x10
    85e0:	4841                	li	a6,16
    85e2:	bd39                	j	8400 <__udivdi3+0x176>
    85e4:	01065693          	srli	a3,a2,0x10
    85e8:	47c1                	li	a5,16
    85ea:	b1d1                	j	82ae <__udivdi3+0x24>
    85ec:	0108d693          	srli	a3,a7,0x10
    85f0:	47c1                	li	a5,16
    85f2:	bb85                	j	8362 <__udivdi3+0xd8>
    85f4:	4581                	li	a1,0
    85f6:	4505                	li	a0,1
    85f8:	8082                	ret
    85fa:	8736                	mv	a4,a3
    85fc:	4801                	li	a6,0
    85fe:	b509                	j	8400 <__udivdi3+0x176>
    8600:	8742                	mv	a4,a6
    8602:	bf85                	j	8572 <__udivdi3+0x2e8>
    8604:	863e                	mv	a2,a5
    8606:	bde9                	j	84e0 <__udivdi3+0x256>
    8608:	87ba                	mv	a5,a4
    860a:	bf1d                	j	8540 <__udivdi3+0x2b6>
    860c:	8e32                	mv	t3,a2
    860e:	b54d                	j	84b0 <__udivdi3+0x226>
    8610:	1579                	addi	a0,a0,-2
    8612:	9846                	add	a6,a6,a7
    8614:	b9e5                	j	830c <__udivdi3+0x82>
    8616:	1579                	addi	a0,a0,-2
    8618:	97c6                	add	a5,a5,a7
    861a:	bb61                	j	83b2 <__udivdi3+0x128>

0000861c <__umoddi3>:
    861c:	87b6                	mv	a5,a3
    861e:	8832                	mv	a6,a2
    8620:	832a                	mv	t1,a0
    8622:	872e                	mv	a4,a1
    8624:	8e2e                	mv	t3,a1
    8626:	14069163          	bnez	a3,8768 <__umoddi3+0x14c>
    862a:	0ac5f063          	bgeu	a1,a2,86ca <__umoddi3+0xae>
    862e:	6741                	lui	a4,0x10
    8630:	1ae67663          	bgeu	a2,a4,87dc <__umoddi3+0x1c0>
    8634:	0ff00713          	li	a4,255
    8638:	86b2                	mv	a3,a2
    863a:	00c77563          	bgeu	a4,a2,8644 <__umoddi3+0x28>
    863e:	00865693          	srli	a3,a2,0x8
    8642:	47a1                	li	a5,8
    8644:	00004717          	auipc	a4,0x4
    8648:	15c70713          	addi	a4,a4,348 # c7a0 <__clz_tab>
    864c:	9736                	add	a4,a4,a3
    864e:	2318                	lbu	a4,0(a4)
    8650:	02000893          	li	a7,32
    8654:	97ba                	add	a5,a5,a4
    8656:	40f888b3          	sub	a7,a7,a5
    865a:	00088c63          	beqz	a7,8672 <__umoddi3+0x56>
    865e:	011595b3          	sll	a1,a1,a7
    8662:	00f557b3          	srl	a5,a0,a5
    8666:	01161833          	sll	a6,a2,a7
    866a:	00b7ee33          	or	t3,a5,a1
    866e:	01151333          	sll	t1,a0,a7
    8672:	01085613          	srli	a2,a6,0x10
    8676:	02ce57b3          	divu	a5,t3,a2
    867a:	01081513          	slli	a0,a6,0x10
    867e:	8141                	srli	a0,a0,0x10
    8680:	01035693          	srli	a3,t1,0x10
    8684:	02ce7e33          	remu	t3,t3,a2
    8688:	02f507b3          	mul	a5,a0,a5
    868c:	0e42                	slli	t3,t3,0x10
    868e:	00de6733          	or	a4,t3,a3
    8692:	00f77863          	bgeu	a4,a5,86a2 <__umoddi3+0x86>
    8696:	9742                	add	a4,a4,a6
    8698:	01076563          	bltu	a4,a6,86a2 <__umoddi3+0x86>
    869c:	00f77363          	bgeu	a4,a5,86a2 <__umoddi3+0x86>
    86a0:	9742                	add	a4,a4,a6
    86a2:	8f1d                	sub	a4,a4,a5
    86a4:	02c756b3          	divu	a3,a4,a2
    86a8:	01031793          	slli	a5,t1,0x10
    86ac:	83c1                	srli	a5,a5,0x10
    86ae:	02c77733          	remu	a4,a4,a2
    86b2:	02d50533          	mul	a0,a0,a3
    86b6:	0742                	slli	a4,a4,0x10
    86b8:	8fd9                	or	a5,a5,a4
    86ba:	08a7eb63          	bltu	a5,a0,8750 <__umoddi3+0x134>
    86be:	40a78533          	sub	a0,a5,a0
    86c2:	01155533          	srl	a0,a0,a7
    86c6:	4581                	li	a1,0
    86c8:	8082                	ret
    86ca:	e601                	bnez	a2,86d2 <__umoddi3+0xb6>
    86cc:	4705                	li	a4,1
    86ce:	02c75833          	divu	a6,a4,a2
    86d2:	6741                	lui	a4,0x10
    86d4:	0ee86b63          	bltu	a6,a4,87ca <__umoddi3+0x1ae>
    86d8:	010007b7          	lui	a5,0x1000
    86dc:	2af86463          	bltu	a6,a5,8984 <__umoddi3+0x368>
    86e0:	01885693          	srli	a3,a6,0x18
    86e4:	47e1                	li	a5,24
    86e6:	00004717          	auipc	a4,0x4
    86ea:	0ba70713          	addi	a4,a4,186 # c7a0 <__clz_tab>
    86ee:	9736                	add	a4,a4,a3
    86f0:	2318                	lbu	a4,0(a4)
    86f2:	02000893          	li	a7,32
    86f6:	97ba                	add	a5,a5,a4
    86f8:	40f888b3          	sub	a7,a7,a5
    86fc:	1e089a63          	bnez	a7,88f0 <__umoddi3+0x2d4>
    8700:	01081e13          	slli	t3,a6,0x10
    8704:	410585b3          	sub	a1,a1,a6
    8708:	01085613          	srli	a2,a6,0x10
    870c:	010e5e13          	srli	t3,t3,0x10
    8710:	01035713          	srli	a4,t1,0x10
    8714:	02c5d6b3          	divu	a3,a1,a2
    8718:	02c5f5b3          	remu	a1,a1,a2
    871c:	03c686b3          	mul	a3,a3,t3
    8720:	05c2                	slli	a1,a1,0x10
    8722:	8f4d                	or	a4,a4,a1
    8724:	00d77763          	bgeu	a4,a3,8732 <__umoddi3+0x116>
    8728:	9742                	add	a4,a4,a6
    872a:	01076463          	bltu	a4,a6,8732 <__umoddi3+0x116>
    872e:	26d76a63          	bltu	a4,a3,89a2 <__umoddi3+0x386>
    8732:	8f15                	sub	a4,a4,a3
    8734:	02c75533          	divu	a0,a4,a2
    8738:	0342                	slli	t1,t1,0x10
    873a:	01035313          	srli	t1,t1,0x10
    873e:	02c77733          	remu	a4,a4,a2
    8742:	03c50533          	mul	a0,a0,t3
    8746:	0742                	slli	a4,a4,0x10
    8748:	006767b3          	or	a5,a4,t1
    874c:	00a7f863          	bgeu	a5,a0,875c <__umoddi3+0x140>
    8750:	97c2                	add	a5,a5,a6
    8752:	0107e563          	bltu	a5,a6,875c <__umoddi3+0x140>
    8756:	00a7f363          	bgeu	a5,a0,875c <__umoddi3+0x140>
    875a:	97c2                	add	a5,a5,a6
    875c:	40a78533          	sub	a0,a5,a0
    8760:	01155533          	srl	a0,a0,a7
    8764:	4581                	li	a1,0
    8766:	8082                	ret
    8768:	882a                	mv	a6,a0
    876a:	f4d5efe3          	bltu	a1,a3,86c8 <__umoddi3+0xac>
    876e:	67c1                	lui	a5,0x10
    8770:	04f6e563          	bltu	a3,a5,87ba <__umoddi3+0x19e>
    8774:	010007b7          	lui	a5,0x1000
    8778:	20f6e263          	bltu	a3,a5,897c <__umoddi3+0x360>
    877c:	0186d313          	srli	t1,a3,0x18
    8780:	48e1                	li	a7,24
    8782:	00004797          	auipc	a5,0x4
    8786:	01e78793          	addi	a5,a5,30 # c7a0 <__clz_tab>
    878a:	979a                	add	a5,a5,t1
    878c:	0007ce03          	lbu	t3,0(a5)
    8790:	02000313          	li	t1,32
    8794:	9e46                	add	t3,t3,a7
    8796:	41c30333          	sub	t1,t1,t3
    879a:	04031963          	bnez	t1,87ec <__umoddi3+0x1d0>
    879e:	00b6e463          	bltu	a3,a1,87a6 <__umoddi3+0x18a>
    87a2:	00c56963          	bltu	a0,a2,87b4 <__umoddi3+0x198>
    87a6:	40c50833          	sub	a6,a0,a2
    87aa:	8d95                	sub	a1,a1,a3
    87ac:	01053733          	sltu	a4,a0,a6
    87b0:	40e58733          	sub	a4,a1,a4
    87b4:	8542                	mv	a0,a6
    87b6:	85ba                	mv	a1,a4
    87b8:	8082                	ret
    87ba:	0ff00793          	li	a5,255
    87be:	1cd7fb63          	bgeu	a5,a3,8994 <__umoddi3+0x378>
    87c2:	0086d313          	srli	t1,a3,0x8
    87c6:	48a1                	li	a7,8
    87c8:	bf6d                	j	8782 <__umoddi3+0x166>
    87ca:	0ff00713          	li	a4,255
    87ce:	86c2                	mv	a3,a6
    87d0:	f1077be3          	bgeu	a4,a6,86e6 <__umoddi3+0xca>
    87d4:	00885693          	srli	a3,a6,0x8
    87d8:	47a1                	li	a5,8
    87da:	b731                	j	86e6 <__umoddi3+0xca>
    87dc:	010007b7          	lui	a5,0x1000
    87e0:	1af66663          	bltu	a2,a5,898c <__umoddi3+0x370>
    87e4:	01865693          	srli	a3,a2,0x18
    87e8:	47e1                	li	a5,24
    87ea:	bda9                	j	8644 <__umoddi3+0x28>
    87ec:	01c657b3          	srl	a5,a2,t3
    87f0:	006696b3          	sll	a3,a3,t1
    87f4:	8edd                	or	a3,a3,a5
    87f6:	01c5d8b3          	srl	a7,a1,t3
    87fa:	0106d713          	srli	a4,a3,0x10
    87fe:	02e8deb3          	divu	t4,a7,a4
    8802:	01069f13          	slli	t5,a3,0x10
    8806:	01c557b3          	srl	a5,a0,t3
    880a:	010f5f13          	srli	t5,t5,0x10
    880e:	006595b3          	sll	a1,a1,t1
    8812:	8ddd                	or	a1,a1,a5
    8814:	0105d813          	srli	a6,a1,0x10
    8818:	00661633          	sll	a2,a2,t1
    881c:	00651533          	sll	a0,a0,t1
    8820:	02e8f8b3          	remu	a7,a7,a4
    8824:	03df07b3          	mul	a5,t5,t4
    8828:	08c2                	slli	a7,a7,0x10
    882a:	0108e833          	or	a6,a7,a6
    882e:	00f87b63          	bgeu	a6,a5,8844 <__umoddi3+0x228>
    8832:	9836                	add	a6,a6,a3
    8834:	fffe8893          	addi	a7,t4,-1
    8838:	16d86363          	bltu	a6,a3,899e <__umoddi3+0x382>
    883c:	16f87163          	bgeu	a6,a5,899e <__umoddi3+0x382>
    8840:	1ef9                	addi	t4,t4,-2
    8842:	9836                	add	a6,a6,a3
    8844:	40f80833          	sub	a6,a6,a5
    8848:	02e857b3          	divu	a5,a6,a4
    884c:	05c2                	slli	a1,a1,0x10
    884e:	81c1                	srli	a1,a1,0x10
    8850:	02e87833          	remu	a6,a6,a4
    8854:	02ff0f33          	mul	t5,t5,a5
    8858:	01081713          	slli	a4,a6,0x10
    885c:	8f4d                	or	a4,a4,a1
    885e:	01e77b63          	bgeu	a4,t5,8874 <__umoddi3+0x258>
    8862:	9736                	add	a4,a4,a3
    8864:	fff78593          	addi	a1,a5,-1 # ffffff <_data_lma+0xff375f>
    8868:	12d76963          	bltu	a4,a3,899a <__umoddi3+0x37e>
    886c:	13e77763          	bgeu	a4,t5,899a <__umoddi3+0x37e>
    8870:	17f9                	addi	a5,a5,-2
    8872:	9736                	add	a4,a4,a3
    8874:	0ec2                	slli	t4,t4,0x10
    8876:	62c1                	lui	t0,0x10
    8878:	00feeeb3          	or	t4,t4,a5
    887c:	fff28813          	addi	a6,t0,-1 # ffff <_data_lma+0x375f>
    8880:	010ef8b3          	and	a7,t4,a6
    8884:	01065593          	srli	a1,a2,0x10
    8888:	010ede93          	srli	t4,t4,0x10
    888c:	01067833          	and	a6,a2,a6
    8890:	03088fb3          	mul	t6,a7,a6
    8894:	41e70733          	sub	a4,a4,t5
    8898:	030e8833          	mul	a6,t4,a6
    889c:	010fd793          	srli	a5,t6,0x10
    88a0:	02b888b3          	mul	a7,a7,a1
    88a4:	98c2                	add	a7,a7,a6
    88a6:	97c6                	add	a5,a5,a7
    88a8:	02be8eb3          	mul	t4,t4,a1
    88ac:	0107f363          	bgeu	a5,a6,88b2 <__umoddi3+0x296>
    88b0:	9e96                	add	t4,t4,t0
    88b2:	6841                	lui	a6,0x10
    88b4:	187d                	addi	a6,a6,-1
    88b6:	0107d593          	srli	a1,a5,0x10
    88ba:	0107f7b3          	and	a5,a5,a6
    88be:	07c2                	slli	a5,a5,0x10
    88c0:	010fffb3          	and	t6,t6,a6
    88c4:	95f6                	add	a1,a1,t4
    88c6:	97fe                	add	a5,a5,t6
    88c8:	0ab76263          	bltu	a4,a1,896c <__umoddi3+0x350>
    88cc:	08b70e63          	beq	a4,a1,8968 <__umoddi3+0x34c>
    88d0:	40f507b3          	sub	a5,a0,a5
    88d4:	00f53533          	sltu	a0,a0,a5
    88d8:	40b705b3          	sub	a1,a4,a1
    88dc:	8d89                	sub	a1,a1,a0
    88de:	01c59e33          	sll	t3,a1,t3
    88e2:	0067d533          	srl	a0,a5,t1
    88e6:	00ae6533          	or	a0,t3,a0
    88ea:	0065d5b3          	srl	a1,a1,t1
    88ee:	8082                	ret
    88f0:	01181833          	sll	a6,a6,a7
    88f4:	00f5d733          	srl	a4,a1,a5
    88f8:	01085613          	srli	a2,a6,0x10
    88fc:	02c756b3          	divu	a3,a4,a2
    8900:	01081e13          	slli	t3,a6,0x10
    8904:	00f557b3          	srl	a5,a0,a5
    8908:	010e5e13          	srli	t3,t3,0x10
    890c:	011595b3          	sll	a1,a1,a7
    8910:	8ddd                	or	a1,a1,a5
    8912:	0105de93          	srli	t4,a1,0x10
    8916:	01151333          	sll	t1,a0,a7
    891a:	02c77733          	remu	a4,a4,a2
    891e:	02de07b3          	mul	a5,t3,a3
    8922:	01071693          	slli	a3,a4,0x10
    8926:	01d6e6b3          	or	a3,a3,t4
    892a:	00f6f863          	bgeu	a3,a5,893a <__umoddi3+0x31e>
    892e:	96c2                	add	a3,a3,a6
    8930:	0106e563          	bltu	a3,a6,893a <__umoddi3+0x31e>
    8934:	00f6f363          	bgeu	a3,a5,893a <__umoddi3+0x31e>
    8938:	96c2                	add	a3,a3,a6
    893a:	8e9d                	sub	a3,a3,a5
    893c:	02c6d733          	divu	a4,a3,a2
    8940:	01059793          	slli	a5,a1,0x10
    8944:	83c1                	srli	a5,a5,0x10
    8946:	02c6f6b3          	remu	a3,a3,a2
    894a:	02ee0733          	mul	a4,t3,a4
    894e:	01069593          	slli	a1,a3,0x10
    8952:	8ddd                	or	a1,a1,a5
    8954:	00e5f863          	bgeu	a1,a4,8964 <__umoddi3+0x348>
    8958:	95c2                	add	a1,a1,a6
    895a:	0105e563          	bltu	a1,a6,8964 <__umoddi3+0x348>
    895e:	00e5f363          	bgeu	a1,a4,8964 <__umoddi3+0x348>
    8962:	95c2                	add	a1,a1,a6
    8964:	8d99                	sub	a1,a1,a4
    8966:	b36d                	j	8710 <__umoddi3+0xf4>
    8968:	f6f574e3          	bgeu	a0,a5,88d0 <__umoddi3+0x2b4>
    896c:	40c78633          	sub	a2,a5,a2
    8970:	00c7b7b3          	sltu	a5,a5,a2
    8974:	97b6                	add	a5,a5,a3
    8976:	8d9d                	sub	a1,a1,a5
    8978:	87b2                	mv	a5,a2
    897a:	bf99                	j	88d0 <__umoddi3+0x2b4>
    897c:	0106d313          	srli	t1,a3,0x10
    8980:	48c1                	li	a7,16
    8982:	b501                	j	8782 <__umoddi3+0x166>
    8984:	01085693          	srli	a3,a6,0x10
    8988:	47c1                	li	a5,16
    898a:	bbb1                	j	86e6 <__umoddi3+0xca>
    898c:	01065693          	srli	a3,a2,0x10
    8990:	47c1                	li	a5,16
    8992:	b94d                	j	8644 <__umoddi3+0x28>
    8994:	8336                	mv	t1,a3
    8996:	4881                	li	a7,0
    8998:	b3ed                	j	8782 <__umoddi3+0x166>
    899a:	87ae                	mv	a5,a1
    899c:	bde1                	j	8874 <__umoddi3+0x258>
    899e:	8ec6                	mv	t4,a7
    89a0:	b555                	j	8844 <__umoddi3+0x228>
    89a2:	9742                	add	a4,a4,a6
    89a4:	b379                	j	8732 <__umoddi3+0x116>

000089a6 <__adddf3>:
    89a6:	00100837          	lui	a6,0x100
    89aa:	1101                	addi	sp,sp,-32
    89ac:	187d                	addi	a6,a6,-1
    89ae:	00b87733          	and	a4,a6,a1
    89b2:	ca26                	sw	s1,20(sp)
    89b4:	00d87833          	and	a6,a6,a3
    89b8:	0145d493          	srli	s1,a1,0x14
    89bc:	0146d313          	srli	t1,a3,0x14
    89c0:	00371e13          	slli	t3,a4,0x3
    89c4:	c64e                	sw	s3,12(sp)
    89c6:	01d55713          	srli	a4,a0,0x1d
    89ca:	080e                	slli	a6,a6,0x3
    89cc:	01d65793          	srli	a5,a2,0x1d
    89d0:	7ff4f493          	andi	s1,s1,2047
    89d4:	7ff37313          	andi	t1,t1,2047
    89d8:	ce06                	sw	ra,28(sp)
    89da:	cc22                	sw	s0,24(sp)
    89dc:	c84a                	sw	s2,16(sp)
    89de:	01f5d993          	srli	s3,a1,0x1f
    89e2:	01f6de93          	srli	t4,a3,0x1f
    89e6:	01c76733          	or	a4,a4,t3
    89ea:	00351f13          	slli	t5,a0,0x3
    89ee:	0107e833          	or	a6,a5,a6
    89f2:	00361f93          	slli	t6,a2,0x3
    89f6:	40648e33          	sub	t3,s1,t1
    89fa:	19d98063          	beq	s3,t4,8b7a <__adddf3+0x1d4>
    89fe:	13c05663          	blez	t3,8b2a <__adddf3+0x184>
    8a02:	1c030463          	beqz	t1,8bca <__adddf3+0x224>
    8a06:	008006b7          	lui	a3,0x800
    8a0a:	7ff00793          	li	a5,2047
    8a0e:	00d86833          	or	a6,a6,a3
    8a12:	36f48f63          	beq	s1,a5,8d90 <__adddf3+0x3ea>
    8a16:	03800793          	li	a5,56
    8a1a:	35c7c063          	blt	a5,t3,8d5a <__adddf3+0x3b4>
    8a1e:	47fd                	li	a5,31
    8a20:	47c7cd63          	blt	a5,t3,8e9a <__adddf3+0x4f4>
    8a24:	02000513          	li	a0,32
    8a28:	41c50533          	sub	a0,a0,t3
    8a2c:	01cfd7b3          	srl	a5,t6,t3
    8a30:	00a816b3          	sll	a3,a6,a0
    8a34:	00af9933          	sll	s2,t6,a0
    8a38:	8edd                	or	a3,a3,a5
    8a3a:	01203933          	snez	s2,s2
    8a3e:	01c857b3          	srl	a5,a6,t3
    8a42:	0126e933          	or	s2,a3,s2
    8a46:	8f1d                	sub	a4,a4,a5
    8a48:	412f0933          	sub	s2,t5,s2
    8a4c:	012f37b3          	sltu	a5,t5,s2
    8a50:	40f70633          	sub	a2,a4,a5
    8a54:	00861793          	slli	a5,a2,0x8
    8a58:	2407d463          	bgez	a5,8ca0 <__adddf3+0x2fa>
    8a5c:	00800737          	lui	a4,0x800
    8a60:	177d                	addi	a4,a4,-1
    8a62:	00e67433          	and	s0,a2,a4
    8a66:	2c040c63          	beqz	s0,8d3e <__adddf3+0x398>
    8a6a:	8522                	mv	a0,s0
    8a6c:	09b020ef          	jal	ra,b306 <__clzsi2>
    8a70:	ff850713          	addi	a4,a0,-8
    8a74:	02000793          	li	a5,32
    8a78:	8f99                	sub	a5,a5,a4
    8a7a:	00f957b3          	srl	a5,s2,a5
    8a7e:	00e41633          	sll	a2,s0,a4
    8a82:	8fd1                	or	a5,a5,a2
    8a84:	00e91933          	sll	s2,s2,a4
    8a88:	2a974163          	blt	a4,s1,8d2a <__adddf3+0x384>
    8a8c:	40970533          	sub	a0,a4,s1
    8a90:	00150613          	addi	a2,a0,1
    8a94:	477d                	li	a4,31
    8a96:	38c74d63          	blt	a4,a2,8e30 <__adddf3+0x48a>
    8a9a:	02000713          	li	a4,32
    8a9e:	8f11                	sub	a4,a4,a2
    8aa0:	00c956b3          	srl	a3,s2,a2
    8aa4:	00e91933          	sll	s2,s2,a4
    8aa8:	00e79733          	sll	a4,a5,a4
    8aac:	8f55                	or	a4,a4,a3
    8aae:	01203933          	snez	s2,s2
    8ab2:	01276933          	or	s2,a4,s2
    8ab6:	00c7d633          	srl	a2,a5,a2
    8aba:	4481                	li	s1,0
    8abc:	00797793          	andi	a5,s2,7
    8ac0:	cf81                	beqz	a5,8ad8 <__adddf3+0x132>
    8ac2:	00f97713          	andi	a4,s2,15
    8ac6:	4791                	li	a5,4
    8ac8:	00f70863          	beq	a4,a5,8ad8 <__adddf3+0x132>
    8acc:	00490713          	addi	a4,s2,4
    8ad0:	01273933          	sltu	s2,a4,s2
    8ad4:	964a                	add	a2,a2,s2
    8ad6:	893a                	mv	s2,a4
    8ad8:	00861793          	slli	a5,a2,0x8
    8adc:	1c07d663          	bgez	a5,8ca8 <__adddf3+0x302>
    8ae0:	00148513          	addi	a0,s1,1
    8ae4:	7ff00793          	li	a5,2047
    8ae8:	85ce                	mv	a1,s3
    8aea:	20f50463          	beq	a0,a5,8cf2 <__adddf3+0x34c>
    8aee:	ff8007b7          	lui	a5,0xff800
    8af2:	17fd                	addi	a5,a5,-1
    8af4:	8ff1                	and	a5,a5,a2
    8af6:	01d79893          	slli	a7,a5,0x1d
    8afa:	00395913          	srli	s2,s2,0x3
    8afe:	07a6                	slli	a5,a5,0x9
    8b00:	0128e8b3          	or	a7,a7,s2
    8b04:	83b1                	srli	a5,a5,0xc
    8b06:	7ff57513          	andi	a0,a0,2047
    8b0a:	00c79693          	slli	a3,a5,0xc
    8b0e:	0552                	slli	a0,a0,0x14
    8b10:	40f2                	lw	ra,28(sp)
    8b12:	4462                	lw	s0,24(sp)
    8b14:	82b1                	srli	a3,a3,0xc
    8b16:	05fe                	slli	a1,a1,0x1f
    8b18:	8ec9                	or	a3,a3,a0
    8b1a:	8ecd                	or	a3,a3,a1
    8b1c:	44d2                	lw	s1,20(sp)
    8b1e:	4942                	lw	s2,16(sp)
    8b20:	49b2                	lw	s3,12(sp)
    8b22:	8546                	mv	a0,a7
    8b24:	85b6                	mv	a1,a3
    8b26:	6105                	addi	sp,sp,32
    8b28:	8082                	ret
    8b2a:	0a0e1e63          	bnez	t3,8be6 <__adddf3+0x240>
    8b2e:	00148313          	addi	t1,s1,1
    8b32:	7fe37313          	andi	t1,t1,2046
    8b36:	22031763          	bnez	t1,8d64 <__adddf3+0x3be>
    8b3a:	01e767b3          	or	a5,a4,t5
    8b3e:	01f868b3          	or	a7,a6,t6
    8b42:	1a049d63          	bnez	s1,8cfc <__adddf3+0x356>
    8b46:	40078763          	beqz	a5,8f54 <__adddf3+0x5ae>
    8b4a:	44088663          	beqz	a7,8f96 <__adddf3+0x5f0>
    8b4e:	41ff0933          	sub	s2,t5,t6
    8b52:	410707b3          	sub	a5,a4,a6
    8b56:	012f3633          	sltu	a2,t5,s2
    8b5a:	40c78633          	sub	a2,a5,a2
    8b5e:	00861793          	slli	a5,a2,0x8
    8b62:	4c07d663          	bgez	a5,902e <__adddf3+0x688>
    8b66:	41ef8933          	sub	s2,t6,t5
    8b6a:	40e807b3          	sub	a5,a6,a4
    8b6e:	012fb633          	sltu	a2,t6,s2
    8b72:	40c78633          	sub	a2,a5,a2
    8b76:	89f6                	mv	s3,t4
    8b78:	b791                	j	8abc <__adddf3+0x116>
    8b7a:	0fc05063          	blez	t3,8c5a <__adddf3+0x2b4>
    8b7e:	0c030063          	beqz	t1,8c3e <__adddf3+0x298>
    8b82:	008006b7          	lui	a3,0x800
    8b86:	7ff00793          	li	a5,2047
    8b8a:	00d86833          	or	a6,a6,a3
    8b8e:	3af48a63          	beq	s1,a5,8f42 <__adddf3+0x59c>
    8b92:	03800793          	li	a5,56
    8b96:	13c7cb63          	blt	a5,t3,8ccc <__adddf3+0x326>
    8b9a:	47fd                	li	a5,31
    8b9c:	35c7df63          	bge	a5,t3,8efa <__adddf3+0x554>
    8ba0:	fe0e0913          	addi	s2,t3,-32
    8ba4:	02000793          	li	a5,32
    8ba8:	012856b3          	srl	a3,a6,s2
    8bac:	00fe0a63          	beq	t3,a5,8bc0 <__adddf3+0x21a>
    8bb0:	04000913          	li	s2,64
    8bb4:	41c90933          	sub	s2,s2,t3
    8bb8:	01281933          	sll	s2,a6,s2
    8bbc:	012fefb3          	or	t6,t6,s2
    8bc0:	01f03933          	snez	s2,t6
    8bc4:	00d96933          	or	s2,s2,a3
    8bc8:	a231                	j	8cd4 <__adddf3+0x32e>
    8bca:	01f867b3          	or	a5,a6,t6
    8bce:	1c078a63          	beqz	a5,8da2 <__adddf3+0x3fc>
    8bd2:	fffe0793          	addi	a5,t3,-1
    8bd6:	38078c63          	beqz	a5,8f6e <__adddf3+0x5c8>
    8bda:	7ff00693          	li	a3,2047
    8bde:	1ade0963          	beq	t3,a3,8d90 <__adddf3+0x3ea>
    8be2:	8e3e                	mv	t3,a5
    8be4:	bd0d                	j	8a16 <__adddf3+0x70>
    8be6:	409305b3          	sub	a1,t1,s1
    8bea:	22049163          	bnez	s1,8e0c <__adddf3+0x466>
    8bee:	01e767b3          	or	a5,a4,t5
    8bf2:	32078763          	beqz	a5,8f20 <__adddf3+0x57a>
    8bf6:	fff58793          	addi	a5,a1,-1
    8bfa:	44078163          	beqz	a5,903c <__adddf3+0x696>
    8bfe:	7ff00693          	li	a3,2047
    8c02:	20d58c63          	beq	a1,a3,8e1a <__adddf3+0x474>
    8c06:	85be                	mv	a1,a5
    8c08:	03800793          	li	a5,56
    8c0c:	2ab7cc63          	blt	a5,a1,8ec4 <__adddf3+0x51e>
    8c10:	47fd                	li	a5,31
    8c12:	3cb7cf63          	blt	a5,a1,8ff0 <__adddf3+0x64a>
    8c16:	02000793          	li	a5,32
    8c1a:	8f8d                	sub	a5,a5,a1
    8c1c:	00f71933          	sll	s2,a4,a5
    8c20:	00bf56b3          	srl	a3,t5,a1
    8c24:	00ff17b3          	sll	a5,t5,a5
    8c28:	00d96933          	or	s2,s2,a3
    8c2c:	00f037b3          	snez	a5,a5
    8c30:	00b75733          	srl	a4,a4,a1
    8c34:	00f96933          	or	s2,s2,a5
    8c38:	40e80833          	sub	a6,a6,a4
    8c3c:	ac41                	j	8ecc <__adddf3+0x526>
    8c3e:	01f867b3          	or	a5,a6,t6
    8c42:	34078063          	beqz	a5,8f82 <__adddf3+0x5dc>
    8c46:	fffe0793          	addi	a5,t3,-1
    8c4a:	20078a63          	beqz	a5,8e5e <__adddf3+0x4b8>
    8c4e:	7ff00693          	li	a3,2047
    8c52:	2ede0863          	beq	t3,a3,8f42 <__adddf3+0x59c>
    8c56:	8e3e                	mv	t3,a5
    8c58:	bf2d                	j	8b92 <__adddf3+0x1ec>
    8c5a:	140e1e63          	bnez	t3,8db6 <__adddf3+0x410>
    8c5e:	00148693          	addi	a3,s1,1
    8c62:	7fe6f793          	andi	a5,a3,2046
    8c66:	34079163          	bnez	a5,8fa8 <__adddf3+0x602>
    8c6a:	01e767b3          	or	a5,a4,t5
    8c6e:	2c049563          	bnez	s1,8f38 <__adddf3+0x592>
    8c72:	3e078063          	beqz	a5,9052 <__adddf3+0x6ac>
    8c76:	01f867b3          	or	a5,a6,t6
    8c7a:	30078e63          	beqz	a5,8f96 <__adddf3+0x5f0>
    8c7e:	01ff0933          	add	s2,t5,t6
    8c82:	010707b3          	add	a5,a4,a6
    8c86:	01e93f33          	sltu	t5,s2,t5
    8c8a:	01e78633          	add	a2,a5,t5
    8c8e:	00861793          	slli	a5,a2,0x8
    8c92:	0007d763          	bgez	a5,8ca0 <__adddf3+0x2fa>
    8c96:	ff8007b7          	lui	a5,0xff800
    8c9a:	17fd                	addi	a5,a5,-1
    8c9c:	8e7d                	and	a2,a2,a5
    8c9e:	4485                	li	s1,1
    8ca0:	00797793          	andi	a5,s2,7
    8ca4:	e0079fe3          	bnez	a5,8ac2 <__adddf3+0x11c>
    8ca8:	01d61793          	slli	a5,a2,0x1d
    8cac:	00395893          	srli	a7,s2,0x3
    8cb0:	00f8e8b3          	or	a7,a7,a5
    8cb4:	00365793          	srli	a5,a2,0x3
    8cb8:	7ff00713          	li	a4,2047
    8cbc:	04e48d63          	beq	s1,a4,8d16 <__adddf3+0x370>
    8cc0:	07b2                	slli	a5,a5,0xc
    8cc2:	83b1                	srli	a5,a5,0xc
    8cc4:	7ff4f513          	andi	a0,s1,2047
    8cc8:	85ce                	mv	a1,s3
    8cca:	b581                	j	8b0a <__adddf3+0x164>
    8ccc:	01f86933          	or	s2,a6,t6
    8cd0:	01203933          	snez	s2,s2
    8cd4:	997a                	add	s2,s2,t5
    8cd6:	01e937b3          	sltu	a5,s2,t5
    8cda:	00e78633          	add	a2,a5,a4
    8cde:	00861793          	slli	a5,a2,0x8
    8ce2:	fa07dfe3          	bgez	a5,8ca0 <__adddf3+0x2fa>
    8ce6:	0485                	addi	s1,s1,1
    8ce8:	7ff00793          	li	a5,2047
    8cec:	18f49663          	bne	s1,a5,8e78 <__adddf3+0x4d2>
    8cf0:	85ce                	mv	a1,s3
    8cf2:	7ff00513          	li	a0,2047
    8cf6:	4781                	li	a5,0
    8cf8:	4881                	li	a7,0
    8cfa:	bd01                	j	8b0a <__adddf3+0x164>
    8cfc:	ebc1                	bnez	a5,8d8c <__adddf3+0x3e6>
    8cfe:	3a088463          	beqz	a7,90a6 <__adddf3+0x700>
    8d02:	00361693          	slli	a3,a2,0x3
    8d06:	01d81793          	slli	a5,a6,0x1d
    8d0a:	828d                	srli	a3,a3,0x3
    8d0c:	00d7e8b3          	or	a7,a5,a3
    8d10:	89f6                	mv	s3,t4
    8d12:	00385793          	srli	a5,a6,0x3
    8d16:	00f8e7b3          	or	a5,a7,a5
    8d1a:	dbf9                	beqz	a5,8cf0 <__adddf3+0x34a>
    8d1c:	4581                	li	a1,0
    8d1e:	7ff00513          	li	a0,2047
    8d22:	000807b7          	lui	a5,0x80
    8d26:	4881                	li	a7,0
    8d28:	b3cd                	j	8b0a <__adddf3+0x164>
    8d2a:	ff800637          	lui	a2,0xff800
    8d2e:	167d                	addi	a2,a2,-1
    8d30:	8e7d                	and	a2,a2,a5
    8d32:	00797793          	andi	a5,s2,7
    8d36:	8c99                	sub	s1,s1,a4
    8d38:	d80795e3          	bnez	a5,8ac2 <__adddf3+0x11c>
    8d3c:	b7b5                	j	8ca8 <__adddf3+0x302>
    8d3e:	854a                	mv	a0,s2
    8d40:	5c6020ef          	jal	ra,b306 <__clzsi2>
    8d44:	01850713          	addi	a4,a0,24
    8d48:	47fd                	li	a5,31
    8d4a:	d2e7d5e3          	bge	a5,a4,8a74 <__adddf3+0xce>
    8d4e:	ff850613          	addi	a2,a0,-8
    8d52:	00c917b3          	sll	a5,s2,a2
    8d56:	4901                	li	s2,0
    8d58:	bb05                	j	8a88 <__adddf3+0xe2>
    8d5a:	01f86933          	or	s2,a6,t6
    8d5e:	01203933          	snez	s2,s2
    8d62:	b1dd                	j	8a48 <__adddf3+0xa2>
    8d64:	41ff0933          	sub	s2,t5,t6
    8d68:	41070633          	sub	a2,a4,a6
    8d6c:	012f3433          	sltu	s0,t5,s2
    8d70:	40860433          	sub	s0,a2,s0
    8d74:	00841793          	slli	a5,s0,0x8
    8d78:	2407cd63          	bltz	a5,8fd2 <__adddf3+0x62c>
    8d7c:	008968b3          	or	a7,s2,s0
    8d80:	ce0893e3          	bnez	a7,8a66 <__adddf3+0xc0>
    8d84:	4781                	li	a5,0
    8d86:	4981                	li	s3,0
    8d88:	4481                	li	s1,0
    8d8a:	bf1d                	j	8cc0 <__adddf3+0x31a>
    8d8c:	f80898e3          	bnez	a7,8d1c <__adddf3+0x376>
    8d90:	050e                	slli	a0,a0,0x3
    8d92:	01d71793          	slli	a5,a4,0x1d
    8d96:	810d                	srli	a0,a0,0x3
    8d98:	00a7e8b3          	or	a7,a5,a0
    8d9c:	00375793          	srli	a5,a4,0x3
    8da0:	bf9d                	j	8d16 <__adddf3+0x370>
    8da2:	050e                	slli	a0,a0,0x3
    8da4:	01d71793          	slli	a5,a4,0x1d
    8da8:	810d                	srli	a0,a0,0x3
    8daa:	00a7e8b3          	or	a7,a5,a0
    8dae:	84f2                	mv	s1,t3
    8db0:	00375793          	srli	a5,a4,0x3
    8db4:	b711                	j	8cb8 <__adddf3+0x312>
    8db6:	40930533          	sub	a0,t1,s1
    8dba:	12048263          	beqz	s1,8ede <__adddf3+0x538>
    8dbe:	008006b7          	lui	a3,0x800
    8dc2:	7ff00793          	li	a5,2047
    8dc6:	8f55                	or	a4,a4,a3
    8dc8:	2ef30d63          	beq	t1,a5,90c2 <__adddf3+0x71c>
    8dcc:	03800793          	li	a5,56
    8dd0:	20a7cb63          	blt	a5,a0,8fe6 <__adddf3+0x640>
    8dd4:	47fd                	li	a5,31
    8dd6:	2aa7c363          	blt	a5,a0,907c <__adddf3+0x6d6>
    8dda:	02000793          	li	a5,32
    8dde:	8f89                	sub	a5,a5,a0
    8de0:	00f71933          	sll	s2,a4,a5
    8de4:	00af56b3          	srl	a3,t5,a0
    8de8:	00ff17b3          	sll	a5,t5,a5
    8dec:	00d96933          	or	s2,s2,a3
    8df0:	00f037b3          	snez	a5,a5
    8df4:	00a75733          	srl	a4,a4,a0
    8df8:	00f96933          	or	s2,s2,a5
    8dfc:	983a                	add	a6,a6,a4
    8dfe:	997e                	add	s2,s2,t6
    8e00:	01f937b3          	sltu	a5,s2,t6
    8e04:	01078633          	add	a2,a5,a6
    8e08:	849a                	mv	s1,t1
    8e0a:	bdd1                	j	8cde <__adddf3+0x338>
    8e0c:	008006b7          	lui	a3,0x800
    8e10:	7ff00793          	li	a5,2047
    8e14:	8f55                	or	a4,a4,a3
    8e16:	def319e3          	bne	t1,a5,8c08 <__adddf3+0x262>
    8e1a:	00361793          	slli	a5,a2,0x3
    8e1e:	838d                	srli	a5,a5,0x3
    8e20:	01d81893          	slli	a7,a6,0x1d
    8e24:	0117e8b3          	or	a7,a5,a7
    8e28:	89f6                	mv	s3,t4
    8e2a:	00385793          	srli	a5,a6,0x3
    8e2e:	b5e5                	j	8d16 <__adddf3+0x370>
    8e30:	fe150713          	addi	a4,a0,-31
    8e34:	02000693          	li	a3,32
    8e38:	00e7d733          	srl	a4,a5,a4
    8e3c:	00d60a63          	beq	a2,a3,8e50 <__adddf3+0x4aa>
    8e40:	04000693          	li	a3,64
    8e44:	40c68633          	sub	a2,a3,a2
    8e48:	00c79633          	sll	a2,a5,a2
    8e4c:	00c96933          	or	s2,s2,a2
    8e50:	01203933          	snez	s2,s2
    8e54:	00e96933          	or	s2,s2,a4
    8e58:	4601                	li	a2,0
    8e5a:	4481                	li	s1,0
    8e5c:	b591                	j	8ca0 <__adddf3+0x2fa>
    8e5e:	01ff0933          	add	s2,t5,t6
    8e62:	010707b3          	add	a5,a4,a6
    8e66:	01e93633          	sltu	a2,s2,t5
    8e6a:	963e                	add	a2,a2,a5
    8e6c:	00861793          	slli	a5,a2,0x8
    8e70:	4485                	li	s1,1
    8e72:	e207d7e3          	bgez	a5,8ca0 <__adddf3+0x2fa>
    8e76:	4489                	li	s1,2
    8e78:	ff8007b7          	lui	a5,0xff800
    8e7c:	17fd                	addi	a5,a5,-1
    8e7e:	8ff1                	and	a5,a5,a2
    8e80:	00195713          	srli	a4,s2,0x1
    8e84:	00197913          	andi	s2,s2,1
    8e88:	01276933          	or	s2,a4,s2
    8e8c:	01f79893          	slli	a7,a5,0x1f
    8e90:	0128e933          	or	s2,a7,s2
    8e94:	0017d613          	srli	a2,a5,0x1
    8e98:	b115                	j	8abc <__adddf3+0x116>
    8e9a:	fe0e0913          	addi	s2,t3,-32
    8e9e:	02000793          	li	a5,32
    8ea2:	012856b3          	srl	a3,a6,s2
    8ea6:	00fe0a63          	beq	t3,a5,8eba <__adddf3+0x514>
    8eaa:	04000913          	li	s2,64
    8eae:	41c90933          	sub	s2,s2,t3
    8eb2:	01281933          	sll	s2,a6,s2
    8eb6:	012fefb3          	or	t6,t6,s2
    8eba:	01f03933          	snez	s2,t6
    8ebe:	00d96933          	or	s2,s2,a3
    8ec2:	b659                	j	8a48 <__adddf3+0xa2>
    8ec4:	01e76933          	or	s2,a4,t5
    8ec8:	01203933          	snez	s2,s2
    8ecc:	412f8933          	sub	s2,t6,s2
    8ed0:	012fb7b3          	sltu	a5,t6,s2
    8ed4:	40f80633          	sub	a2,a6,a5
    8ed8:	849a                	mv	s1,t1
    8eda:	89f6                	mv	s3,t4
    8edc:	bea5                	j	8a54 <__adddf3+0xae>
    8ede:	01e767b3          	or	a5,a4,t5
    8ee2:	18078263          	beqz	a5,9066 <__adddf3+0x6c0>
    8ee6:	fff50793          	addi	a5,a0,-1
    8eea:	1c078463          	beqz	a5,90b2 <__adddf3+0x70c>
    8eee:	7ff00693          	li	a3,2047
    8ef2:	12d50463          	beq	a0,a3,901a <__adddf3+0x674>
    8ef6:	853e                	mv	a0,a5
    8ef8:	bdd1                	j	8dcc <__adddf3+0x426>
    8efa:	02000793          	li	a5,32
    8efe:	41c787b3          	sub	a5,a5,t3
    8f02:	00f816b3          	sll	a3,a6,a5
    8f06:	00ff9933          	sll	s2,t6,a5
    8f0a:	01cfd633          	srl	a2,t6,t3
    8f0e:	8ed1                	or	a3,a3,a2
    8f10:	01203933          	snez	s2,s2
    8f14:	01c857b3          	srl	a5,a6,t3
    8f18:	0126e933          	or	s2,a3,s2
    8f1c:	973e                	add	a4,a4,a5
    8f1e:	bb5d                	j	8cd4 <__adddf3+0x32e>
    8f20:	00361793          	slli	a5,a2,0x3
    8f24:	838d                	srli	a5,a5,0x3
    8f26:	01d81893          	slli	a7,a6,0x1d
    8f2a:	0117e8b3          	or	a7,a5,a7
    8f2e:	84ae                	mv	s1,a1
    8f30:	00385793          	srli	a5,a6,0x3
    8f34:	89f6                	mv	s3,t4
    8f36:	b349                	j	8cb8 <__adddf3+0x312>
    8f38:	c3ed                	beqz	a5,901a <__adddf3+0x674>
    8f3a:	01f86933          	or	s2,a6,t6
    8f3e:	dc091fe3          	bnez	s2,8d1c <__adddf3+0x376>
    8f42:	050e                	slli	a0,a0,0x3
    8f44:	01d71793          	slli	a5,a4,0x1d
    8f48:	810d                	srli	a0,a0,0x3
    8f4a:	00f568b3          	or	a7,a0,a5
    8f4e:	00375793          	srli	a5,a4,0x3
    8f52:	b3d1                	j	8d16 <__adddf3+0x370>
    8f54:	0e088163          	beqz	a7,9036 <__adddf3+0x690>
    8f58:	00361693          	slli	a3,a2,0x3
    8f5c:	01d81793          	slli	a5,a6,0x1d
    8f60:	828d                	srli	a3,a3,0x3
    8f62:	00d7e8b3          	or	a7,a5,a3
    8f66:	89f6                	mv	s3,t4
    8f68:	00385793          	srli	a5,a6,0x3
    8f6c:	bb91                	j	8cc0 <__adddf3+0x31a>
    8f6e:	41ff0933          	sub	s2,t5,t6
    8f72:	410707b3          	sub	a5,a4,a6
    8f76:	012f3f33          	sltu	t5,t5,s2
    8f7a:	41e78633          	sub	a2,a5,t5
    8f7e:	4485                	li	s1,1
    8f80:	bcd1                	j	8a54 <__adddf3+0xae>
    8f82:	050e                	slli	a0,a0,0x3
    8f84:	01d71793          	slli	a5,a4,0x1d
    8f88:	810d                	srli	a0,a0,0x3
    8f8a:	00f568b3          	or	a7,a0,a5
    8f8e:	84f2                	mv	s1,t3
    8f90:	00375793          	srli	a5,a4,0x3
    8f94:	b315                	j	8cb8 <__adddf3+0x312>
    8f96:	050e                	slli	a0,a0,0x3
    8f98:	01d71793          	slli	a5,a4,0x1d
    8f9c:	810d                	srli	a0,a0,0x3
    8f9e:	00a7e8b3          	or	a7,a5,a0
    8fa2:	00375793          	srli	a5,a4,0x3
    8fa6:	bb29                	j	8cc0 <__adddf3+0x31a>
    8fa8:	7ff00793          	li	a5,2047
    8fac:	d4f682e3          	beq	a3,a5,8cf0 <__adddf3+0x34a>
    8fb0:	01ff0933          	add	s2,t5,t6
    8fb4:	01e93633          	sltu	a2,s2,t5
    8fb8:	010707b3          	add	a5,a4,a6
    8fbc:	97b2                	add	a5,a5,a2
    8fbe:	01f79893          	slli	a7,a5,0x1f
    8fc2:	00195913          	srli	s2,s2,0x1
    8fc6:	0128e933          	or	s2,a7,s2
    8fca:	0017d613          	srli	a2,a5,0x1
    8fce:	84b6                	mv	s1,a3
    8fd0:	b9c1                	j	8ca0 <__adddf3+0x2fa>
    8fd2:	41ef8933          	sub	s2,t6,t5
    8fd6:	40e80733          	sub	a4,a6,a4
    8fda:	012fb633          	sltu	a2,t6,s2
    8fde:	40c70433          	sub	s0,a4,a2
    8fe2:	89f6                	mv	s3,t4
    8fe4:	b449                	j	8a66 <__adddf3+0xc0>
    8fe6:	01e76933          	or	s2,a4,t5
    8fea:	01203933          	snez	s2,s2
    8fee:	bd01                	j	8dfe <__adddf3+0x458>
    8ff0:	fe058793          	addi	a5,a1,-32
    8ff4:	02000693          	li	a3,32
    8ff8:	00f757b3          	srl	a5,a4,a5
    8ffc:	00d58a63          	beq	a1,a3,9010 <__adddf3+0x66a>
    9000:	04000693          	li	a3,64
    9004:	40b685b3          	sub	a1,a3,a1
    9008:	00b71733          	sll	a4,a4,a1
    900c:	00ef6f33          	or	t5,t5,a4
    9010:	01e03933          	snez	s2,t5
    9014:	00f96933          	or	s2,s2,a5
    9018:	bd55                	j	8ecc <__adddf3+0x526>
    901a:	00361793          	slli	a5,a2,0x3
    901e:	838d                	srli	a5,a5,0x3
    9020:	01d81893          	slli	a7,a6,0x1d
    9024:	0117e8b3          	or	a7,a5,a7
    9028:	00385793          	srli	a5,a6,0x3
    902c:	b1ed                	j	8d16 <__adddf3+0x370>
    902e:	00c968b3          	or	a7,s2,a2
    9032:	c60897e3          	bnez	a7,8ca0 <__adddf3+0x2fa>
    9036:	4781                	li	a5,0
    9038:	4981                	li	s3,0
    903a:	b159                	j	8cc0 <__adddf3+0x31a>
    903c:	41ef8933          	sub	s2,t6,t5
    9040:	40e807b3          	sub	a5,a6,a4
    9044:	012fb633          	sltu	a2,t6,s2
    9048:	40c78633          	sub	a2,a5,a2
    904c:	89f6                	mv	s3,t4
    904e:	4485                	li	s1,1
    9050:	b411                	j	8a54 <__adddf3+0xae>
    9052:	00361693          	slli	a3,a2,0x3
    9056:	01d81793          	slli	a5,a6,0x1d
    905a:	828d                	srli	a3,a3,0x3
    905c:	00d7e8b3          	or	a7,a5,a3
    9060:	00385793          	srli	a5,a6,0x3
    9064:	b9b1                	j	8cc0 <__adddf3+0x31a>
    9066:	00361693          	slli	a3,a2,0x3
    906a:	01d81793          	slli	a5,a6,0x1d
    906e:	828d                	srli	a3,a3,0x3
    9070:	00d7e8b3          	or	a7,a5,a3
    9074:	84aa                	mv	s1,a0
    9076:	00385793          	srli	a5,a6,0x3
    907a:	b93d                	j	8cb8 <__adddf3+0x312>
    907c:	fe050793          	addi	a5,a0,-32
    9080:	02000693          	li	a3,32
    9084:	00f757b3          	srl	a5,a4,a5
    9088:	00d50a63          	beq	a0,a3,909c <__adddf3+0x6f6>
    908c:	04000693          	li	a3,64
    9090:	40a68533          	sub	a0,a3,a0
    9094:	00a71733          	sll	a4,a4,a0
    9098:	00ef6f33          	or	t5,t5,a4
    909c:	01e03933          	snez	s2,t5
    90a0:	00f96933          	or	s2,s2,a5
    90a4:	bba9                	j	8dfe <__adddf3+0x458>
    90a6:	4581                	li	a1,0
    90a8:	7ff00513          	li	a0,2047
    90ac:	000807b7          	lui	a5,0x80
    90b0:	bca9                	j	8b0a <__adddf3+0x164>
    90b2:	01ff0933          	add	s2,t5,t6
    90b6:	010707b3          	add	a5,a4,a6
    90ba:	01f93633          	sltu	a2,s2,t6
    90be:	963e                	add	a2,a2,a5
    90c0:	b375                	j	8e6c <__adddf3+0x4c6>
    90c2:	00361693          	slli	a3,a2,0x3
    90c6:	01d81793          	slli	a5,a6,0x1d
    90ca:	828d                	srli	a3,a3,0x3
    90cc:	00d7e8b3          	or	a7,a5,a3
    90d0:	00385793          	srli	a5,a6,0x3
    90d4:	b189                	j	8d16 <__adddf3+0x370>

000090d6 <__ledf2>:
    90d6:	0145d713          	srli	a4,a1,0x14
    90da:	001007b7          	lui	a5,0x100
    90de:	17fd                	addi	a5,a5,-1
    90e0:	0146d813          	srli	a6,a3,0x14
    90e4:	7ff77713          	andi	a4,a4,2047
    90e8:	7ff00893          	li	a7,2047
    90ec:	00b7fe33          	and	t3,a5,a1
    90f0:	8eaa                	mv	t4,a0
    90f2:	8ff5                	and	a5,a5,a3
    90f4:	81fd                	srli	a1,a1,0x1f
    90f6:	8f32                	mv	t5,a2
    90f8:	7ff87813          	andi	a6,a6,2047
    90fc:	82fd                	srli	a3,a3,0x1f
    90fe:	03170e63          	beq	a4,a7,913a <__ledf2+0x64>
    9102:	01180d63          	beq	a6,a7,911c <__ledf2+0x46>
    9106:	e329                	bnez	a4,9148 <__ledf2+0x72>
    9108:	00ae68b3          	or	a7,t3,a0
    910c:	00081f63          	bnez	a6,912a <__ledf2+0x54>
    9110:	8e5d                	or	a2,a2,a5
    9112:	ee01                	bnez	a2,912a <__ledf2+0x54>
    9114:	4301                	li	t1,0
    9116:	04088c63          	beqz	a7,916e <__ledf2+0x98>
    911a:	a821                	j	9132 <__ledf2+0x5c>
    911c:	00c7e8b3          	or	a7,a5,a2
    9120:	4309                	li	t1,2
    9122:	04089663          	bnez	a7,916e <__ledf2+0x98>
    9126:	d36d                	beqz	a4,9108 <__ledf2+0x32>
    9128:	a005                	j	9148 <__ledf2+0x72>
    912a:	04088463          	beqz	a7,9172 <__ledf2+0x9c>
    912e:	02d58563          	beq	a1,a3,9158 <__ledf2+0x82>
    9132:	4305                	li	t1,1
    9134:	cd8d                	beqz	a1,916e <__ledf2+0x98>
    9136:	537d                	li	t1,-1
    9138:	a81d                	j	916e <__ledf2+0x98>
    913a:	00ae68b3          	or	a7,t3,a0
    913e:	4309                	li	t1,2
    9140:	02089763          	bnez	a7,916e <__ledf2+0x98>
    9144:	02e80a63          	beq	a6,a4,9178 <__ledf2+0xa2>
    9148:	00081463          	bnez	a6,9150 <__ledf2+0x7a>
    914c:	8e5d                	or	a2,a2,a5
    914e:	d275                	beqz	a2,9132 <__ledf2+0x5c>
    9150:	fed591e3          	bne	a1,a3,9132 <__ledf2+0x5c>
    9154:	fce84fe3          	blt	a6,a4,9132 <__ledf2+0x5c>
    9158:	01074963          	blt	a4,a6,916a <__ledf2+0x94>
    915c:	fdc7ebe3          	bltu	a5,t3,9132 <__ledf2+0x5c>
    9160:	00fe0f63          	beq	t3,a5,917e <__ledf2+0xa8>
    9164:	4301                	li	t1,0
    9166:	00fe7463          	bgeu	t3,a5,916e <__ledf2+0x98>
    916a:	d5f1                	beqz	a1,9136 <__ledf2+0x60>
    916c:	4305                	li	t1,1
    916e:	851a                	mv	a0,t1
    9170:	8082                	ret
    9172:	feed                	bnez	a3,916c <__ledf2+0x96>
    9174:	537d                	li	t1,-1
    9176:	bfe5                	j	916e <__ledf2+0x98>
    9178:	8e5d                	or	a2,a2,a5
    917a:	da79                	beqz	a2,9150 <__ledf2+0x7a>
    917c:	bfcd                	j	916e <__ledf2+0x98>
    917e:	fbdf6ae3          	bltu	t5,t4,9132 <__ledf2+0x5c>
    9182:	4301                	li	t1,0
    9184:	ffeef5e3          	bgeu	t4,t5,916e <__ledf2+0x98>
    9188:	f1f5                	bnez	a1,916c <__ledf2+0x96>
    918a:	b775                	j	9136 <__ledf2+0x60>

0000918c <__muldf3>:
    918c:	7139                	addi	sp,sp,-64
    918e:	d84a                	sw	s2,48(sp)
    9190:	0145d913          	srli	s2,a1,0x14
    9194:	d64e                	sw	s3,44(sp)
    9196:	d452                	sw	s4,40(sp)
    9198:	d256                	sw	s5,36(sp)
    919a:	00c59993          	slli	s3,a1,0xc
    919e:	de06                	sw	ra,60(sp)
    91a0:	dc22                	sw	s0,56(sp)
    91a2:	da26                	sw	s1,52(sp)
    91a4:	d05a                	sw	s6,32(sp)
    91a6:	ce5e                	sw	s7,28(sp)
    91a8:	7ff97913          	andi	s2,s2,2047
    91ac:	8a2a                	mv	s4,a0
    91ae:	00c9d993          	srli	s3,s3,0xc
    91b2:	01f5da93          	srli	s5,a1,0x1f
    91b6:	0e090d63          	beqz	s2,92b0 <__muldf3+0x124>
    91ba:	7ff00793          	li	a5,2047
    91be:	18f90663          	beq	s2,a5,934a <__muldf3+0x1be>
    91c2:	01d55413          	srli	s0,a0,0x1d
    91c6:	098e                	slli	s3,s3,0x3
    91c8:	013469b3          	or	s3,s0,s3
    91cc:	00800437          	lui	s0,0x800
    91d0:	0089e433          	or	s0,s3,s0
    91d4:	00351493          	slli	s1,a0,0x3
    91d8:	c0190913          	addi	s2,s2,-1023
    91dc:	4981                	li	s3,0
    91de:	4b81                	li	s7,0
    91e0:	0146d713          	srli	a4,a3,0x14
    91e4:	00c69a13          	slli	s4,a3,0xc
    91e8:	7ff77713          	andi	a4,a4,2047
    91ec:	85b2                	mv	a1,a2
    91ee:	00ca5a13          	srli	s4,s4,0xc
    91f2:	01f6db13          	srli	s6,a3,0x1f
    91f6:	10070b63          	beqz	a4,930c <__muldf3+0x180>
    91fa:	7ff00793          	li	a5,2047
    91fe:	04f70363          	beq	a4,a5,9244 <__muldf3+0xb8>
    9202:	01d65793          	srli	a5,a2,0x1d
    9206:	0a0e                	slli	s4,s4,0x3
    9208:	0147ea33          	or	s4,a5,s4
    920c:	c0170713          	addi	a4,a4,-1023 # 7ffc01 <_data_lma+0x7f3361>
    9210:	008007b7          	lui	a5,0x800
    9214:	00fa67b3          	or	a5,s4,a5
    9218:	00361593          	slli	a1,a2,0x3
    921c:	993a                	add	s2,s2,a4
    921e:	4881                	li	a7,0
    9220:	016ac733          	xor	a4,s5,s6
    9224:	46bd                	li	a3,15
    9226:	853a                	mv	a0,a4
    9228:	00190813          	addi	a6,s2,1
    922c:	1736e863          	bltu	a3,s3,939c <__muldf3+0x210>
    9230:	00003617          	auipc	a2,0x3
    9234:	47060613          	addi	a2,a2,1136 # c6a0 <atanlo+0x18>
    9238:	098a                	slli	s3,s3,0x2
    923a:	99b2                	add	s3,s3,a2
    923c:	0009a683          	lw	a3,0(s3)
    9240:	96b2                	add	a3,a3,a2
    9242:	8682                	jr	a3
    9244:	00ca67b3          	or	a5,s4,a2
    9248:	7ff90913          	addi	s2,s2,2047
    924c:	12079963          	bnez	a5,937e <__muldf3+0x1f2>
    9250:	0029e993          	ori	s3,s3,2
    9254:	4581                	li	a1,0
    9256:	4889                	li	a7,2
    9258:	b7e1                	j	9220 <__muldf3+0x94>
    925a:	4701                	li	a4,0
    925c:	7ff00793          	li	a5,2047
    9260:	00080437          	lui	s0,0x80
    9264:	4481                	li	s1,0
    9266:	0432                	slli	s0,s0,0xc
    9268:	07d2                	slli	a5,a5,0x14
    926a:	8031                	srli	s0,s0,0xc
    926c:	077e                	slli	a4,a4,0x1f
    926e:	8c5d                	or	s0,s0,a5
    9270:	8c59                	or	s0,s0,a4
    9272:	85a2                	mv	a1,s0
    9274:	50f2                	lw	ra,60(sp)
    9276:	5462                	lw	s0,56(sp)
    9278:	8526                	mv	a0,s1
    927a:	5942                	lw	s2,48(sp)
    927c:	54d2                	lw	s1,52(sp)
    927e:	59b2                	lw	s3,44(sp)
    9280:	5a22                	lw	s4,40(sp)
    9282:	5a92                	lw	s5,36(sp)
    9284:	5b02                	lw	s6,32(sp)
    9286:	4bf2                	lw	s7,28(sp)
    9288:	6121                	addi	sp,sp,64
    928a:	8082                	ret
    928c:	855a                	mv	a0,s6
    928e:	843e                	mv	s0,a5
    9290:	84ae                	mv	s1,a1
    9292:	8bc6                	mv	s7,a7
    9294:	4789                	li	a5,2
    9296:	0efb8d63          	beq	s7,a5,9390 <__muldf3+0x204>
    929a:	478d                	li	a5,3
    929c:	fafb8fe3          	beq	s7,a5,925a <__muldf3+0xce>
    92a0:	4785                	li	a5,1
    92a2:	872a                	mv	a4,a0
    92a4:	38fb9e63          	bne	s7,a5,9640 <__muldf3+0x4b4>
    92a8:	4781                	li	a5,0
    92aa:	4401                	li	s0,0
    92ac:	4481                	li	s1,0
    92ae:	bf65                	j	9266 <__muldf3+0xda>
    92b0:	00a9e433          	or	s0,s3,a0
    92b4:	c061                	beqz	s0,9374 <__muldf3+0x1e8>
    92b6:	c636                	sw	a3,12(sp)
    92b8:	c432                	sw	a2,8(sp)
    92ba:	2a098c63          	beqz	s3,9572 <__muldf3+0x3e6>
    92be:	854e                	mv	a0,s3
    92c0:	046020ef          	jal	ra,b306 <__clzsi2>
    92c4:	4622                	lw	a2,8(sp)
    92c6:	46b2                	lw	a3,12(sp)
    92c8:	87aa                	mv	a5,a0
    92ca:	ff550713          	addi	a4,a0,-11
    92ce:	4475                	li	s0,29
    92d0:	ff878493          	addi	s1,a5,-8 # 7ffff8 <_data_lma+0x7f3758>
    92d4:	8c19                	sub	s0,s0,a4
    92d6:	009999b3          	sll	s3,s3,s1
    92da:	008a5433          	srl	s0,s4,s0
    92de:	01346433          	or	s0,s0,s3
    92e2:	009a14b3          	sll	s1,s4,s1
    92e6:	0146d713          	srli	a4,a3,0x14
    92ea:	c0d00913          	li	s2,-1011
    92ee:	00c69a13          	slli	s4,a3,0xc
    92f2:	7ff77713          	andi	a4,a4,2047
    92f6:	40f90933          	sub	s2,s2,a5
    92fa:	4981                	li	s3,0
    92fc:	4b81                	li	s7,0
    92fe:	85b2                	mv	a1,a2
    9300:	00ca5a13          	srli	s4,s4,0xc
    9304:	01f6db13          	srli	s6,a3,0x1f
    9308:	ee0719e3          	bnez	a4,91fa <__muldf3+0x6e>
    930c:	00ca67b3          	or	a5,s4,a2
    9310:	c7b1                	beqz	a5,935c <__muldf3+0x1d0>
    9312:	220a0f63          	beqz	s4,9550 <__muldf3+0x3c4>
    9316:	8552                	mv	a0,s4
    9318:	c432                	sw	a2,8(sp)
    931a:	7ed010ef          	jal	ra,b306 <__clzsi2>
    931e:	4622                	lw	a2,8(sp)
    9320:	872a                	mv	a4,a0
    9322:	ff550693          	addi	a3,a0,-11
    9326:	47f5                	li	a5,29
    9328:	ff870593          	addi	a1,a4,-8
    932c:	8f95                	sub	a5,a5,a3
    932e:	00ba1a33          	sll	s4,s4,a1
    9332:	00f657b3          	srl	a5,a2,a5
    9336:	0147e7b3          	or	a5,a5,s4
    933a:	00b615b3          	sll	a1,a2,a1
    933e:	40e90933          	sub	s2,s2,a4
    9342:	c0d90913          	addi	s2,s2,-1011
    9346:	4881                	li	a7,0
    9348:	bde1                	j	9220 <__muldf3+0x94>
    934a:	00a9e433          	or	s0,s3,a0
    934e:	ec01                	bnez	s0,9366 <__muldf3+0x1da>
    9350:	49a1                	li	s3,8
    9352:	4481                	li	s1,0
    9354:	7ff00913          	li	s2,2047
    9358:	4b89                	li	s7,2
    935a:	b559                	j	91e0 <__muldf3+0x54>
    935c:	0019e993          	ori	s3,s3,1
    9360:	4581                	li	a1,0
    9362:	4885                	li	a7,1
    9364:	bd75                	j	9220 <__muldf3+0x94>
    9366:	844e                	mv	s0,s3
    9368:	84aa                	mv	s1,a0
    936a:	49b1                	li	s3,12
    936c:	7ff00913          	li	s2,2047
    9370:	4b8d                	li	s7,3
    9372:	b5bd                	j	91e0 <__muldf3+0x54>
    9374:	4991                	li	s3,4
    9376:	4481                	li	s1,0
    9378:	4901                	li	s2,0
    937a:	4b85                	li	s7,1
    937c:	b595                	j	91e0 <__muldf3+0x54>
    937e:	0039e993          	ori	s3,s3,3
    9382:	87d2                	mv	a5,s4
    9384:	488d                	li	a7,3
    9386:	bd69                	j	9220 <__muldf3+0x94>
    9388:	4789                	li	a5,2
    938a:	8556                	mv	a0,s5
    938c:	f0fb97e3          	bne	s7,a5,929a <__muldf3+0x10e>
    9390:	872a                	mv	a4,a0
    9392:	7ff00793          	li	a5,2047
    9396:	4401                	li	s0,0
    9398:	4481                	li	s1,0
    939a:	b5f1                	j	9266 <__muldf3+0xda>
    939c:	6ec1                	lui	t4,0x10
    939e:	fffe8613          	addi	a2,t4,-1 # ffff <_data_lma+0x375f>
    93a2:	0104d693          	srli	a3,s1,0x10
    93a6:	0105de13          	srli	t3,a1,0x10
    93aa:	8cf1                	and	s1,s1,a2
    93ac:	8df1                	and	a1,a1,a2
    93ae:	02958633          	mul	a2,a1,s1
    93b2:	02b68333          	mul	t1,a3,a1
    93b6:	01065893          	srli	a7,a2,0x10
    93ba:	029e0533          	mul	a0,t3,s1
    93be:	951a                	add	a0,a0,t1
    93c0:	98aa                	add	a7,a7,a0
    93c2:	03c682b3          	mul	t0,a3,t3
    93c6:	0068f363          	bgeu	a7,t1,93cc <__muldf3+0x240>
    93ca:	92f6                	add	t0,t0,t4
    93cc:	6fc1                	lui	t6,0x10
    93ce:	ffff8313          	addi	t1,t6,-1 # ffff <_data_lma+0x375f>
    93d2:	0067f533          	and	a0,a5,t1
    93d6:	0107d393          	srli	t2,a5,0x10
    93da:	0068f7b3          	and	a5,a7,t1
    93de:	07c2                	slli	a5,a5,0x10
    93e0:	00667333          	and	t1,a2,t1
    93e4:	933e                	add	t1,t1,a5
    93e6:	02950633          	mul	a2,a0,s1
    93ea:	0108d893          	srli	a7,a7,0x10
    93ee:	02a687b3          	mul	a5,a3,a0
    93f2:	01065f13          	srli	t5,a2,0x10
    93f6:	029384b3          	mul	s1,t2,s1
    93fa:	94be                	add	s1,s1,a5
    93fc:	94fa                	add	s1,s1,t5
    93fe:	02768eb3          	mul	t4,a3,t2
    9402:	00f4f363          	bgeu	s1,a5,9408 <__muldf3+0x27c>
    9406:	9efe                	add	t4,t4,t6
    9408:	6a41                	lui	s4,0x10
    940a:	fffa0793          	addi	a5,s4,-1 # ffff <_data_lma+0x375f>
    940e:	01045f93          	srli	t6,s0,0x10
    9412:	00f476b3          	and	a3,s0,a5
    9416:	00f4f9b3          	and	s3,s1,a5
    941a:	8e7d                	and	a2,a2,a5
    941c:	80c1                	srli	s1,s1,0x10
    941e:	02d58433          	mul	s0,a1,a3
    9422:	09c2                	slli	s3,s3,0x10
    9424:	01d48f33          	add	t5,s1,t4
    9428:	99b2                	add	s3,s3,a2
    942a:	98ce                	add	a7,a7,s3
    942c:	02de07b3          	mul	a5,t3,a3
    9430:	01045e93          	srli	t4,s0,0x10
    9434:	02bf85b3          	mul	a1,t6,a1
    9438:	97ae                	add	a5,a5,a1
    943a:	9ebe                	add	t4,t4,a5
    943c:	03fe0e33          	mul	t3,t3,t6
    9440:	00bef363          	bgeu	t4,a1,9446 <__muldf3+0x2ba>
    9444:	9e52                	add	t3,t3,s4
    9446:	67c1                	lui	a5,0x10
    9448:	fff78593          	addi	a1,a5,-1 # ffff <_data_lma+0x375f>
    944c:	00bef633          	and	a2,t4,a1
    9450:	8c6d                	and	s0,s0,a1
    9452:	0642                	slli	a2,a2,0x10
    9454:	9622                	add	a2,a2,s0
    9456:	010ede93          	srli	t4,t4,0x10
    945a:	02d505b3          	mul	a1,a0,a3
    945e:	9e76                	add	t3,t3,t4
    9460:	02af8533          	mul	a0,t6,a0
    9464:	0105d413          	srli	s0,a1,0x10
    9468:	02d386b3          	mul	a3,t2,a3
    946c:	96aa                	add	a3,a3,a0
    946e:	96a2                	add	a3,a3,s0
    9470:	03f38fb3          	mul	t6,t2,t6
    9474:	00a6f363          	bgeu	a3,a0,947a <__muldf3+0x2ee>
    9478:	9fbe                	add	t6,t6,a5
    947a:	6541                	lui	a0,0x10
    947c:	157d                	addi	a0,a0,-1
    947e:	00a6f7b3          	and	a5,a3,a0
    9482:	07c2                	slli	a5,a5,0x10
    9484:	8d6d                	and	a0,a0,a1
    9486:	97aa                	add	a5,a5,a0
    9488:	005885b3          	add	a1,a7,t0
    948c:	0135b9b3          	sltu	s3,a1,s3
    9490:	97fa                	add	a5,a5,t5
    9492:	95b2                	add	a1,a1,a2
    9494:	01378433          	add	s0,a5,s3
    9498:	00c5b633          	sltu	a2,a1,a2
    949c:	01c40eb3          	add	t4,s0,t3
    94a0:	00ce8533          	add	a0,t4,a2
    94a4:	01343433          	sltu	s0,s0,s3
    94a8:	01e7b7b3          	sltu	a5,a5,t5
    94ac:	8fc1                	or	a5,a5,s0
    94ae:	01cebe33          	sltu	t3,t4,t3
    94b2:	0106d413          	srli	s0,a3,0x10
    94b6:	00c53633          	sltu	a2,a0,a2
    94ba:	943e                	add	s0,s0,a5
    94bc:	00ce6633          	or	a2,t3,a2
    94c0:	00959493          	slli	s1,a1,0x9
    94c4:	9432                	add	s0,s0,a2
    94c6:	947e                	add	s0,s0,t6
    94c8:	0064e4b3          	or	s1,s1,t1
    94cc:	0426                	slli	s0,s0,0x9
    94ce:	01755693          	srli	a3,a0,0x17
    94d2:	009034b3          	snez	s1,s1
    94d6:	81dd                	srli	a1,a1,0x17
    94d8:	00951793          	slli	a5,a0,0x9
    94dc:	8ccd                	or	s1,s1,a1
    94de:	8c55                	or	s0,s0,a3
    94e0:	8cdd                	or	s1,s1,a5
    94e2:	00741793          	slli	a5,s0,0x7
    94e6:	0007db63          	bgez	a5,94fc <__muldf3+0x370>
    94ea:	0014d793          	srli	a5,s1,0x1
    94ee:	8885                	andi	s1,s1,1
    94f0:	01f41693          	slli	a3,s0,0x1f
    94f4:	8cdd                	or	s1,s1,a5
    94f6:	8cd5                	or	s1,s1,a3
    94f8:	8005                	srli	s0,s0,0x1
    94fa:	8942                	mv	s2,a6
    94fc:	3ff90793          	addi	a5,s2,1023
    9500:	08f05963          	blez	a5,9592 <__muldf3+0x406>
    9504:	0074f693          	andi	a3,s1,7
    9508:	ce81                	beqz	a3,9520 <__muldf3+0x394>
    950a:	00f4f693          	andi	a3,s1,15
    950e:	4611                	li	a2,4
    9510:	00c68863          	beq	a3,a2,9520 <__muldf3+0x394>
    9514:	00448693          	addi	a3,s1,4
    9518:	0096b4b3          	sltu	s1,a3,s1
    951c:	9426                	add	s0,s0,s1
    951e:	84b6                	mv	s1,a3
    9520:	00741693          	slli	a3,s0,0x7
    9524:	0006d863          	bgez	a3,9534 <__muldf3+0x3a8>
    9528:	ff0007b7          	lui	a5,0xff000
    952c:	17fd                	addi	a5,a5,-1
    952e:	8c7d                	and	s0,s0,a5
    9530:	40090793          	addi	a5,s2,1024
    9534:	7fe00693          	li	a3,2046
    9538:	0ef6cf63          	blt	a3,a5,9636 <__muldf3+0x4aa>
    953c:	0034d693          	srli	a3,s1,0x3
    9540:	01d41493          	slli	s1,s0,0x1d
    9544:	0426                	slli	s0,s0,0x9
    9546:	8cd5                	or	s1,s1,a3
    9548:	8031                	srli	s0,s0,0xc
    954a:	7ff7f793          	andi	a5,a5,2047
    954e:	bb21                	j	9266 <__muldf3+0xda>
    9550:	8532                	mv	a0,a2
    9552:	c432                	sw	a2,8(sp)
    9554:	5b3010ef          	jal	ra,b306 <__clzsi2>
    9558:	01550693          	addi	a3,a0,21 # 10015 <_data_lma+0x3775>
    955c:	47f1                	li	a5,28
    955e:	02050713          	addi	a4,a0,32
    9562:	4622                	lw	a2,8(sp)
    9564:	dcd7d1e3          	bge	a5,a3,9326 <__muldf3+0x19a>
    9568:	1561                	addi	a0,a0,-8
    956a:	00a617b3          	sll	a5,a2,a0
    956e:	4581                	li	a1,0
    9570:	b3f9                	j	933e <__muldf3+0x1b2>
    9572:	595010ef          	jal	ra,b306 <__clzsi2>
    9576:	01550713          	addi	a4,a0,21
    957a:	45f1                	li	a1,28
    957c:	02050793          	addi	a5,a0,32
    9580:	4622                	lw	a2,8(sp)
    9582:	46b2                	lw	a3,12(sp)
    9584:	d4e5d5e3          	bge	a1,a4,92ce <__muldf3+0x142>
    9588:	1561                	addi	a0,a0,-8
    958a:	00aa1433          	sll	s0,s4,a0
    958e:	4481                	li	s1,0
    9590:	bb99                	j	92e6 <__muldf3+0x15a>
    9592:	4685                	li	a3,1
    9594:	8e9d                	sub	a3,a3,a5
    9596:	e7b1                	bnez	a5,95e2 <__muldf3+0x456>
    9598:	41e90913          	addi	s2,s2,1054
    959c:	012497b3          	sll	a5,s1,s2
    95a0:	00d4d4b3          	srl	s1,s1,a3
    95a4:	01241933          	sll	s2,s0,s2
    95a8:	00f037b3          	snez	a5,a5
    95ac:	009964b3          	or	s1,s2,s1
    95b0:	8cdd                	or	s1,s1,a5
    95b2:	0074f793          	andi	a5,s1,7
    95b6:	00d456b3          	srl	a3,s0,a3
    95ba:	cf81                	beqz	a5,95d2 <__muldf3+0x446>
    95bc:	00f4f793          	andi	a5,s1,15
    95c0:	4611                	li	a2,4
    95c2:	00c78863          	beq	a5,a2,95d2 <__muldf3+0x446>
    95c6:	00448793          	addi	a5,s1,4
    95ca:	0097b4b3          	sltu	s1,a5,s1
    95ce:	96a6                	add	a3,a3,s1
    95d0:	84be                	mv	s1,a5
    95d2:	00869793          	slli	a5,a3,0x8
    95d6:	0407d863          	bgez	a5,9626 <__muldf3+0x49a>
    95da:	4785                	li	a5,1
    95dc:	4401                	li	s0,0
    95de:	4481                	li	s1,0
    95e0:	b159                	j	9266 <__muldf3+0xda>
    95e2:	03800613          	li	a2,56
    95e6:	ccd641e3          	blt	a2,a3,92a8 <__muldf3+0x11c>
    95ea:	467d                	li	a2,31
    95ec:	fad656e3          	bge	a2,a3,9598 <__muldf3+0x40c>
    95f0:	5605                	li	a2,-31
    95f2:	40f607b3          	sub	a5,a2,a5
    95f6:	02000593          	li	a1,32
    95fa:	00f45633          	srl	a2,s0,a5
    95fe:	00b68763          	beq	a3,a1,960c <__muldf3+0x480>
    9602:	43e90913          	addi	s2,s2,1086
    9606:	012417b3          	sll	a5,s0,s2
    960a:	8cdd                	or	s1,s1,a5
    960c:	009034b3          	snez	s1,s1
    9610:	8cd1                	or	s1,s1,a2
    9612:	0074f693          	andi	a3,s1,7
    9616:	4401                	li	s0,0
    9618:	ca99                	beqz	a3,962e <__muldf3+0x4a2>
    961a:	00f4f793          	andi	a5,s1,15
    961e:	4611                	li	a2,4
    9620:	4681                	li	a3,0
    9622:	fac792e3          	bne	a5,a2,95c6 <__muldf3+0x43a>
    9626:	00969413          	slli	s0,a3,0x9
    962a:	8031                	srli	s0,s0,0xc
    962c:	06f6                	slli	a3,a3,0x1d
    962e:	808d                	srli	s1,s1,0x3
    9630:	8cd5                	or	s1,s1,a3
    9632:	4781                	li	a5,0
    9634:	b90d                	j	9266 <__muldf3+0xda>
    9636:	7ff00793          	li	a5,2047
    963a:	4401                	li	s0,0
    963c:	4481                	li	s1,0
    963e:	b125                	j	9266 <__muldf3+0xda>
    9640:	8942                	mv	s2,a6
    9642:	bd6d                	j	94fc <__muldf3+0x370>

00009644 <__subdf3>:
    9644:	00100737          	lui	a4,0x100
    9648:	177d                	addi	a4,a4,-1
    964a:	1101                	addi	sp,sp,-32
    964c:	00b77333          	and	t1,a4,a1
    9650:	0146d893          	srli	a7,a3,0x14
    9654:	8f75                	and	a4,a4,a3
    9656:	01d65e93          	srli	t4,a2,0x1d
    965a:	cc22                	sw	s0,24(sp)
    965c:	ca26                	sw	s1,20(sp)
    965e:	030e                	slli	t1,t1,0x3
    9660:	0145d493          	srli	s1,a1,0x14
    9664:	01d55793          	srli	a5,a0,0x1d
    9668:	070e                	slli	a4,a4,0x3
    966a:	ce06                	sw	ra,28(sp)
    966c:	c84a                	sw	s2,16(sp)
    966e:	c64e                	sw	s3,12(sp)
    9670:	7ff8f893          	andi	a7,a7,2047
    9674:	7ff00e13          	li	t3,2047
    9678:	00eee733          	or	a4,t4,a4
    967c:	7ff4f493          	andi	s1,s1,2047
    9680:	01f5d413          	srli	s0,a1,0x1f
    9684:	0067e333          	or	t1,a5,t1
    9688:	00351f13          	slli	t5,a0,0x3
    968c:	82fd                	srli	a3,a3,0x1f
    968e:	00361e93          	slli	t4,a2,0x3
    9692:	19c88063          	beq	a7,t3,9812 <__subdf3+0x1ce>
    9696:	0016c693          	xori	a3,a3,1
    969a:	411485b3          	sub	a1,s1,a7
    969e:	12d40563          	beq	s0,a3,97c8 <__subdf3+0x184>
    96a2:	18b05163          	blez	a1,9824 <__subdf3+0x1e0>
    96a6:	1a088b63          	beqz	a7,985c <__subdf3+0x218>
    96aa:	008007b7          	lui	a5,0x800
    96ae:	8f5d                	or	a4,a4,a5
    96b0:	59c48163          	beq	s1,t3,9c32 <__subdf3+0x5ee>
    96b4:	03800793          	li	a5,56
    96b8:	34b7c463          	blt	a5,a1,9a00 <__subdf3+0x3bc>
    96bc:	47fd                	li	a5,31
    96be:	48b7c563          	blt	a5,a1,9b48 <__subdf3+0x504>
    96c2:	02000793          	li	a5,32
    96c6:	8f8d                	sub	a5,a5,a1
    96c8:	00bed9b3          	srl	s3,t4,a1
    96cc:	00f71833          	sll	a6,a4,a5
    96d0:	00fe9eb3          	sll	t4,t4,a5
    96d4:	01386833          	or	a6,a6,s3
    96d8:	00b75733          	srl	a4,a4,a1
    96dc:	01d039b3          	snez	s3,t4
    96e0:	01386833          	or	a6,a6,s3
    96e4:	40e30333          	sub	t1,t1,a4
    96e8:	410f09b3          	sub	s3,t5,a6
    96ec:	013f37b3          	sltu	a5,t5,s3
    96f0:	40f30633          	sub	a2,t1,a5
    96f4:	00861793          	slli	a5,a2,0x8
    96f8:	2407d363          	bgez	a5,993e <__subdf3+0x2fa>
    96fc:	00800937          	lui	s2,0x800
    9700:	197d                	addi	s2,s2,-1
    9702:	01267933          	and	s2,a2,s2
    9706:	2c090f63          	beqz	s2,99e4 <__subdf3+0x3a0>
    970a:	854a                	mv	a0,s2
    970c:	3fb010ef          	jal	ra,b306 <__clzsi2>
    9710:	ff850713          	addi	a4,a0,-8
    9714:	02000793          	li	a5,32
    9718:	8f99                	sub	a5,a5,a4
    971a:	00f9d7b3          	srl	a5,s3,a5
    971e:	00e91633          	sll	a2,s2,a4
    9722:	8fd1                	or	a5,a5,a2
    9724:	00e999b3          	sll	s3,s3,a4
    9728:	2a974463          	blt	a4,s1,99d0 <__subdf3+0x38c>
    972c:	8f05                	sub	a4,a4,s1
    972e:	00170613          	addi	a2,a4,1 # 100001 <_data_lma+0xf3761>
    9732:	46fd                	li	a3,31
    9734:	3ac6c563          	blt	a3,a2,9ade <__subdf3+0x49a>
    9738:	02000713          	li	a4,32
    973c:	8f11                	sub	a4,a4,a2
    973e:	00c9d6b3          	srl	a3,s3,a2
    9742:	00e99833          	sll	a6,s3,a4
    9746:	00e79733          	sll	a4,a5,a4
    974a:	8f55                	or	a4,a4,a3
    974c:	01003833          	snez	a6,a6
    9750:	010769b3          	or	s3,a4,a6
    9754:	00c7d633          	srl	a2,a5,a2
    9758:	4481                	li	s1,0
    975a:	0079f793          	andi	a5,s3,7
    975e:	cf81                	beqz	a5,9776 <__subdf3+0x132>
    9760:	00f9f693          	andi	a3,s3,15
    9764:	4791                	li	a5,4
    9766:	00f68863          	beq	a3,a5,9776 <__subdf3+0x132>
    976a:	00498693          	addi	a3,s3,4
    976e:	0136b833          	sltu	a6,a3,s3
    9772:	9642                	add	a2,a2,a6
    9774:	89b6                	mv	s3,a3
    9776:	00861793          	slli	a5,a2,0x8
    977a:	1c07d663          	bgez	a5,9946 <__subdf3+0x302>
    977e:	00148713          	addi	a4,s1,1
    9782:	7ff00793          	li	a5,2047
    9786:	8805                	andi	s0,s0,1
    9788:	20f70663          	beq	a4,a5,9994 <__subdf3+0x350>
    978c:	ff8007b7          	lui	a5,0xff800
    9790:	17fd                	addi	a5,a5,-1
    9792:	8ff1                	and	a5,a5,a2
    9794:	01d79813          	slli	a6,a5,0x1d
    9798:	0039d993          	srli	s3,s3,0x3
    979c:	07a6                	slli	a5,a5,0x9
    979e:	01386833          	or	a6,a6,s3
    97a2:	83b1                	srli	a5,a5,0xc
    97a4:	7ff77713          	andi	a4,a4,2047
    97a8:	00c79693          	slli	a3,a5,0xc
    97ac:	0752                	slli	a4,a4,0x14
    97ae:	82b1                	srli	a3,a3,0xc
    97b0:	047e                	slli	s0,s0,0x1f
    97b2:	8ed9                	or	a3,a3,a4
    97b4:	8ec1                	or	a3,a3,s0
    97b6:	40f2                	lw	ra,28(sp)
    97b8:	4462                	lw	s0,24(sp)
    97ba:	44d2                	lw	s1,20(sp)
    97bc:	4942                	lw	s2,16(sp)
    97be:	49b2                	lw	s3,12(sp)
    97c0:	8542                	mv	a0,a6
    97c2:	85b6                	mv	a1,a3
    97c4:	6105                	addi	sp,sp,32
    97c6:	8082                	ret
    97c8:	0ab05663          	blez	a1,9874 <__subdf3+0x230>
    97cc:	12088a63          	beqz	a7,9900 <__subdf3+0x2bc>
    97d0:	008007b7          	lui	a5,0x800
    97d4:	8f5d                	or	a4,a4,a5
    97d6:	2dc48763          	beq	s1,t3,9aa4 <__subdf3+0x460>
    97da:	03800793          	li	a5,56
    97de:	18b7c763          	blt	a5,a1,996c <__subdf3+0x328>
    97e2:	47fd                	li	a5,31
    97e4:	3cb7d263          	bge	a5,a1,9ba8 <__subdf3+0x564>
    97e8:	fe058813          	addi	a6,a1,-32
    97ec:	02000793          	li	a5,32
    97f0:	010759b3          	srl	s3,a4,a6
    97f4:	00f58a63          	beq	a1,a5,9808 <__subdf3+0x1c4>
    97f8:	04000793          	li	a5,64
    97fc:	40b785b3          	sub	a1,a5,a1
    9800:	00b71733          	sll	a4,a4,a1
    9804:	00eeeeb3          	or	t4,t4,a4
    9808:	01d03833          	snez	a6,t4
    980c:	01386833          	or	a6,a6,s3
    9810:	a295                	j	9974 <__subdf3+0x330>
    9812:	01d767b3          	or	a5,a4,t4
    9816:	80148593          	addi	a1,s1,-2047
    981a:	e399                	bnez	a5,9820 <__subdf3+0x1dc>
    981c:	0016c693          	xori	a3,a3,1
    9820:	04d40a63          	beq	s0,a3,9874 <__subdf3+0x230>
    9824:	e1d1                	bnez	a1,98a8 <__subdf3+0x264>
    9826:	00148793          	addi	a5,s1,1
    982a:	7fe7f793          	andi	a5,a5,2046
    982e:	1e079963          	bnez	a5,9a20 <__subdf3+0x3dc>
    9832:	01e367b3          	or	a5,t1,t5
    9836:	01d76833          	or	a6,a4,t4
    983a:	16049263          	bnez	s1,999e <__subdf3+0x35a>
    983e:	3c078263          	beqz	a5,9c02 <__subdf3+0x5be>
    9842:	42081663          	bnez	a6,9c6e <__subdf3+0x62a>
    9846:	00351813          	slli	a6,a0,0x3
    984a:	01d31693          	slli	a3,t1,0x1d
    984e:	00385813          	srli	a6,a6,0x3
    9852:	0106e833          	or	a6,a3,a6
    9856:	00335793          	srli	a5,t1,0x3
    985a:	a219                	j	9960 <__subdf3+0x31c>
    985c:	01d767b3          	or	a5,a4,t4
    9860:	1a078563          	beqz	a5,9a0a <__subdf3+0x3c6>
    9864:	fff58793          	addi	a5,a1,-1
    9868:	3a078b63          	beqz	a5,9c1e <__subdf3+0x5da>
    986c:	23c58c63          	beq	a1,t3,9aa4 <__subdf3+0x460>
    9870:	85be                	mv	a1,a5
    9872:	b589                	j	96b4 <__subdf3+0x70>
    9874:	1c059963          	bnez	a1,9a46 <__subdf3+0x402>
    9878:	00148693          	addi	a3,s1,1
    987c:	7fe6f793          	andi	a5,a3,2046
    9880:	efc1                	bnez	a5,9918 <__subdf3+0x2d4>
    9882:	01e367b3          	or	a5,t1,t5
    9886:	36049063          	bnez	s1,9be6 <__subdf3+0x5a2>
    988a:	44078d63          	beqz	a5,9ce4 <__subdf3+0x6a0>
    988e:	01d767b3          	or	a5,a4,t4
    9892:	46079463          	bnez	a5,9cfa <__subdf3+0x6b6>
    9896:	050e                	slli	a0,a0,0x3
    9898:	01d31813          	slli	a6,t1,0x1d
    989c:	810d                	srli	a0,a0,0x3
    989e:	00a86833          	or	a6,a6,a0
    98a2:	00335793          	srli	a5,t1,0x3
    98a6:	a86d                	j	9960 <__subdf3+0x31c>
    98a8:	409885b3          	sub	a1,a7,s1
    98ac:	20049763          	bnez	s1,9aba <__subdf3+0x476>
    98b0:	01e367b3          	or	a5,t1,t5
    98b4:	30078d63          	beqz	a5,9bce <__subdf3+0x58a>
    98b8:	fff58793          	addi	a5,a1,-1
    98bc:	40078963          	beqz	a5,9cce <__subdf3+0x68a>
    98c0:	7ff00513          	li	a0,2047
    98c4:	20a58363          	beq	a1,a0,9aca <__subdf3+0x486>
    98c8:	85be                	mv	a1,a5
    98ca:	03800793          	li	a5,56
    98ce:	2ab7c263          	blt	a5,a1,9b72 <__subdf3+0x52e>
    98d2:	47fd                	li	a5,31
    98d4:	3cb7c863          	blt	a5,a1,9ca4 <__subdf3+0x660>
    98d8:	02000793          	li	a5,32
    98dc:	8f8d                	sub	a5,a5,a1
    98de:	00f31833          	sll	a6,t1,a5
    98e2:	00bf5633          	srl	a2,t5,a1
    98e6:	00ff17b3          	sll	a5,t5,a5
    98ea:	00c86833          	or	a6,a6,a2
    98ee:	00f039b3          	snez	s3,a5
    98f2:	00b35333          	srl	t1,t1,a1
    98f6:	01386833          	or	a6,a6,s3
    98fa:	40670733          	sub	a4,a4,t1
    98fe:	acb5                	j	9b7a <__subdf3+0x536>
    9900:	01d767b3          	or	a5,a4,t4
    9904:	10078363          	beqz	a5,9a0a <__subdf3+0x3c6>
    9908:	fff58793          	addi	a5,a1,-1
    990c:	1e078f63          	beqz	a5,9b0a <__subdf3+0x4c6>
    9910:	2fc58063          	beq	a1,t3,9bf0 <__subdf3+0x5ac>
    9914:	85be                	mv	a1,a5
    9916:	b5d1                	j	97da <__subdf3+0x196>
    9918:	7ff00793          	li	a5,2047
    991c:	06f68b63          	beq	a3,a5,9992 <__subdf3+0x34e>
    9920:	9efa                	add	t4,t4,t5
    9922:	01eeb633          	sltu	a2,t4,t5
    9926:	00e307b3          	add	a5,t1,a4
    992a:	97b2                	add	a5,a5,a2
    992c:	01f79813          	slli	a6,a5,0x1f
    9930:	001ede93          	srli	t4,t4,0x1
    9934:	01d869b3          	or	s3,a6,t4
    9938:	0017d613          	srli	a2,a5,0x1
    993c:	84b6                	mv	s1,a3
    993e:	0079f793          	andi	a5,s3,7
    9942:	e0079fe3          	bnez	a5,9760 <__subdf3+0x11c>
    9946:	01d61793          	slli	a5,a2,0x1d
    994a:	0039d813          	srli	a6,s3,0x3
    994e:	00f86833          	or	a6,a6,a5
    9952:	85a6                	mv	a1,s1
    9954:	00365793          	srli	a5,a2,0x3
    9958:	7ff00713          	li	a4,2047
    995c:	06e58063          	beq	a1,a4,99bc <__subdf3+0x378>
    9960:	07b2                	slli	a5,a5,0xc
    9962:	83b1                	srli	a5,a5,0xc
    9964:	7ff5f713          	andi	a4,a1,2047
    9968:	8805                	andi	s0,s0,1
    996a:	bd3d                	j	97a8 <__subdf3+0x164>
    996c:	01d76733          	or	a4,a4,t4
    9970:	00e03833          	snez	a6,a4
    9974:	01e809b3          	add	s3,a6,t5
    9978:	01e9b7b3          	sltu	a5,s3,t5
    997c:	00678633          	add	a2,a5,t1
    9980:	00861793          	slli	a5,a2,0x8
    9984:	fa07dde3          	bgez	a5,993e <__subdf3+0x2fa>
    9988:	0485                	addi	s1,s1,1
    998a:	7ff00793          	li	a5,2047
    998e:	18f49c63          	bne	s1,a5,9b26 <__subdf3+0x4e2>
    9992:	8805                	andi	s0,s0,1
    9994:	7ff00713          	li	a4,2047
    9998:	4781                	li	a5,0
    999a:	4801                	li	a6,0
    999c:	b531                	j	97a8 <__subdf3+0x164>
    999e:	10079163          	bnez	a5,9aa0 <__subdf3+0x45c>
    99a2:	3c080163          	beqz	a6,9d64 <__subdf3+0x720>
    99a6:	00361813          	slli	a6,a2,0x3
    99aa:	01d71793          	slli	a5,a4,0x1d
    99ae:	00385813          	srli	a6,a6,0x3
    99b2:	00f86833          	or	a6,a6,a5
    99b6:	8436                	mv	s0,a3
    99b8:	00375793          	srli	a5,a4,0x3
    99bc:	00f867b3          	or	a5,a6,a5
    99c0:	dbe9                	beqz	a5,9992 <__subdf3+0x34e>
    99c2:	4401                	li	s0,0
    99c4:	7ff00713          	li	a4,2047
    99c8:	000807b7          	lui	a5,0x80
    99cc:	4801                	li	a6,0
    99ce:	bbe9                	j	97a8 <__subdf3+0x164>
    99d0:	ff800637          	lui	a2,0xff800
    99d4:	167d                	addi	a2,a2,-1
    99d6:	8e7d                	and	a2,a2,a5
    99d8:	0079f793          	andi	a5,s3,7
    99dc:	8c99                	sub	s1,s1,a4
    99de:	d80791e3          	bnez	a5,9760 <__subdf3+0x11c>
    99e2:	b795                	j	9946 <__subdf3+0x302>
    99e4:	854e                	mv	a0,s3
    99e6:	121010ef          	jal	ra,b306 <__clzsi2>
    99ea:	01850713          	addi	a4,a0,24
    99ee:	47fd                	li	a5,31
    99f0:	d2e7d2e3          	bge	a5,a4,9714 <__subdf3+0xd0>
    99f4:	ff850613          	addi	a2,a0,-8
    99f8:	00c997b3          	sll	a5,s3,a2
    99fc:	4981                	li	s3,0
    99fe:	b32d                	j	9728 <__subdf3+0xe4>
    9a00:	01d76833          	or	a6,a4,t4
    9a04:	01003833          	snez	a6,a6
    9a08:	b1c5                	j	96e8 <__subdf3+0xa4>
    9a0a:	00351813          	slli	a6,a0,0x3
    9a0e:	01d31793          	slli	a5,t1,0x1d
    9a12:	00385813          	srli	a6,a6,0x3
    9a16:	00f86833          	or	a6,a6,a5
    9a1a:	00335793          	srli	a5,t1,0x3
    9a1e:	bf2d                	j	9958 <__subdf3+0x314>
    9a20:	41df09b3          	sub	s3,t5,t4
    9a24:	40e30933          	sub	s2,t1,a4
    9a28:	013f3633          	sltu	a2,t5,s3
    9a2c:	40c90933          	sub	s2,s2,a2
    9a30:	00891793          	slli	a5,s2,0x8
    9a34:	2007ca63          	bltz	a5,9c48 <__subdf3+0x604>
    9a38:	0129e833          	or	a6,s3,s2
    9a3c:	cc0815e3          	bnez	a6,9706 <__subdf3+0xc2>
    9a40:	4781                	li	a5,0
    9a42:	4401                	li	s0,0
    9a44:	bf31                	j	9960 <__subdf3+0x31c>
    9a46:	409885b3          	sub	a1,a7,s1
    9a4a:	14048163          	beqz	s1,9b8c <__subdf3+0x548>
    9a4e:	008006b7          	lui	a3,0x800
    9a52:	7ff00793          	li	a5,2047
    9a56:	00d36333          	or	t1,t1,a3
    9a5a:	20f88163          	beq	a7,a5,9c5c <__subdf3+0x618>
    9a5e:	03800793          	li	a5,56
    9a62:	22b7cc63          	blt	a5,a1,9c9a <__subdf3+0x656>
    9a66:	47fd                	li	a5,31
    9a68:	2cb7c963          	blt	a5,a1,9d3a <__subdf3+0x6f6>
    9a6c:	02000793          	li	a5,32
    9a70:	8f8d                	sub	a5,a5,a1
    9a72:	00f31833          	sll	a6,t1,a5
    9a76:	00bf56b3          	srl	a3,t5,a1
    9a7a:	00ff17b3          	sll	a5,t5,a5
    9a7e:	00d86833          	or	a6,a6,a3
    9a82:	00f039b3          	snez	s3,a5
    9a86:	00b35333          	srl	t1,t1,a1
    9a8a:	01386833          	or	a6,a6,s3
    9a8e:	971a                	add	a4,a4,t1
    9a90:	01d809b3          	add	s3,a6,t4
    9a94:	01d9b7b3          	sltu	a5,s3,t4
    9a98:	00e78633          	add	a2,a5,a4
    9a9c:	84c6                	mv	s1,a7
    9a9e:	b5cd                	j	9980 <__subdf3+0x33c>
    9aa0:	f20811e3          	bnez	a6,99c2 <__subdf3+0x37e>
    9aa4:	00351813          	slli	a6,a0,0x3
    9aa8:	01d31793          	slli	a5,t1,0x1d
    9aac:	00385813          	srli	a6,a6,0x3
    9ab0:	00f86833          	or	a6,a6,a5
    9ab4:	00335793          	srli	a5,t1,0x3
    9ab8:	b711                	j	99bc <__subdf3+0x378>
    9aba:	00800537          	lui	a0,0x800
    9abe:	7ff00793          	li	a5,2047
    9ac2:	00a36333          	or	t1,t1,a0
    9ac6:	e0f892e3          	bne	a7,a5,98ca <__subdf3+0x286>
    9aca:	060e                	slli	a2,a2,0x3
    9acc:	01d71813          	slli	a6,a4,0x1d
    9ad0:	820d                	srli	a2,a2,0x3
    9ad2:	00c86833          	or	a6,a6,a2
    9ad6:	00375793          	srli	a5,a4,0x3
    9ada:	8436                	mv	s0,a3
    9adc:	b5c5                	j	99bc <__subdf3+0x378>
    9ade:	1705                	addi	a4,a4,-31
    9ae0:	02000693          	li	a3,32
    9ae4:	00e7d733          	srl	a4,a5,a4
    9ae8:	00d60a63          	beq	a2,a3,9afc <__subdf3+0x4b8>
    9aec:	04000693          	li	a3,64
    9af0:	40c68633          	sub	a2,a3,a2
    9af4:	00c79633          	sll	a2,a5,a2
    9af8:	00c9e9b3          	or	s3,s3,a2
    9afc:	01303833          	snez	a6,s3
    9b00:	00e869b3          	or	s3,a6,a4
    9b04:	4601                	li	a2,0
    9b06:	4481                	li	s1,0
    9b08:	bd1d                	j	993e <__subdf3+0x2fa>
    9b0a:	01df09b3          	add	s3,t5,t4
    9b0e:	00e307b3          	add	a5,t1,a4
    9b12:	01e9bf33          	sltu	t5,s3,t5
    9b16:	01e78633          	add	a2,a5,t5
    9b1a:	00861793          	slli	a5,a2,0x8
    9b1e:	4485                	li	s1,1
    9b20:	e007dfe3          	bgez	a5,993e <__subdf3+0x2fa>
    9b24:	4489                	li	s1,2
    9b26:	ff8007b7          	lui	a5,0xff800
    9b2a:	17fd                	addi	a5,a5,-1
    9b2c:	8ff1                	and	a5,a5,a2
    9b2e:	0019d713          	srli	a4,s3,0x1
    9b32:	0019f813          	andi	a6,s3,1
    9b36:	01076833          	or	a6,a4,a6
    9b3a:	01f79993          	slli	s3,a5,0x1f
    9b3e:	0109e9b3          	or	s3,s3,a6
    9b42:	0017d613          	srli	a2,a5,0x1
    9b46:	b911                	j	975a <__subdf3+0x116>
    9b48:	fe058813          	addi	a6,a1,-32
    9b4c:	02000793          	li	a5,32
    9b50:	010759b3          	srl	s3,a4,a6
    9b54:	00f58a63          	beq	a1,a5,9b68 <__subdf3+0x524>
    9b58:	04000793          	li	a5,64
    9b5c:	40b785b3          	sub	a1,a5,a1
    9b60:	00b71733          	sll	a4,a4,a1
    9b64:	00eeeeb3          	or	t4,t4,a4
    9b68:	01d03833          	snez	a6,t4
    9b6c:	01386833          	or	a6,a6,s3
    9b70:	bea5                	j	96e8 <__subdf3+0xa4>
    9b72:	01e36333          	or	t1,t1,t5
    9b76:	00603833          	snez	a6,t1
    9b7a:	410e89b3          	sub	s3,t4,a6
    9b7e:	013eb7b3          	sltu	a5,t4,s3
    9b82:	40f70633          	sub	a2,a4,a5
    9b86:	84c6                	mv	s1,a7
    9b88:	8436                	mv	s0,a3
    9b8a:	b6ad                	j	96f4 <__subdf3+0xb0>
    9b8c:	01e367b3          	or	a5,t1,t5
    9b90:	18078763          	beqz	a5,9d1e <__subdf3+0x6da>
    9b94:	fff58793          	addi	a5,a1,-1
    9b98:	1c078c63          	beqz	a5,9d70 <__subdf3+0x72c>
    9b9c:	7ff00693          	li	a3,2047
    9ba0:	0ad58e63          	beq	a1,a3,9c5c <__subdf3+0x618>
    9ba4:	85be                	mv	a1,a5
    9ba6:	bd65                	j	9a5e <__subdf3+0x41a>
    9ba8:	02000793          	li	a5,32
    9bac:	8f8d                	sub	a5,a5,a1
    9bae:	00bed9b3          	srl	s3,t4,a1
    9bb2:	00f71833          	sll	a6,a4,a5
    9bb6:	00fe9eb3          	sll	t4,t4,a5
    9bba:	01386833          	or	a6,a6,s3
    9bbe:	00b75733          	srl	a4,a4,a1
    9bc2:	01d039b3          	snez	s3,t4
    9bc6:	01386833          	or	a6,a6,s3
    9bca:	933a                	add	t1,t1,a4
    9bcc:	b365                	j	9974 <__subdf3+0x330>
    9bce:	00361813          	slli	a6,a2,0x3
    9bd2:	01d71793          	slli	a5,a4,0x1d
    9bd6:	00385813          	srli	a6,a6,0x3
    9bda:	0107e833          	or	a6,a5,a6
    9bde:	8436                	mv	s0,a3
    9be0:	00375793          	srli	a5,a4,0x3
    9be4:	bb95                	j	9958 <__subdf3+0x314>
    9be6:	cbbd                	beqz	a5,9c5c <__subdf3+0x618>
    9be8:	01d76733          	or	a4,a4,t4
    9bec:	dc071be3          	bnez	a4,99c2 <__subdf3+0x37e>
    9bf0:	050e                	slli	a0,a0,0x3
    9bf2:	01d31813          	slli	a6,t1,0x1d
    9bf6:	810d                	srli	a0,a0,0x3
    9bf8:	00a86833          	or	a6,a6,a0
    9bfc:	00335793          	srli	a5,t1,0x3
    9c00:	bb75                	j	99bc <__subdf3+0x378>
    9c02:	e2080fe3          	beqz	a6,9a40 <__subdf3+0x3fc>
    9c06:	00361813          	slli	a6,a2,0x3
    9c0a:	01d71793          	slli	a5,a4,0x1d
    9c0e:	00385813          	srli	a6,a6,0x3
    9c12:	00f86833          	or	a6,a6,a5
    9c16:	8436                	mv	s0,a3
    9c18:	00375793          	srli	a5,a4,0x3
    9c1c:	b391                	j	9960 <__subdf3+0x31c>
    9c1e:	41df09b3          	sub	s3,t5,t4
    9c22:	40e307b3          	sub	a5,t1,a4
    9c26:	013f3f33          	sltu	t5,t5,s3
    9c2a:	41e78633          	sub	a2,a5,t5
    9c2e:	4485                	li	s1,1
    9c30:	b4d1                	j	96f4 <__subdf3+0xb0>
    9c32:	00351813          	slli	a6,a0,0x3
    9c36:	01d31693          	slli	a3,t1,0x1d
    9c3a:	00385813          	srli	a6,a6,0x3
    9c3e:	0106e833          	or	a6,a3,a6
    9c42:	00335793          	srli	a5,t1,0x3
    9c46:	bb9d                	j	99bc <__subdf3+0x378>
    9c48:	41ee89b3          	sub	s3,t4,t5
    9c4c:	40670633          	sub	a2,a4,t1
    9c50:	013eb933          	sltu	s2,t4,s3
    9c54:	41260933          	sub	s2,a2,s2
    9c58:	8436                	mv	s0,a3
    9c5a:	b475                	j	9706 <__subdf3+0xc2>
    9c5c:	060e                	slli	a2,a2,0x3
    9c5e:	01d71813          	slli	a6,a4,0x1d
    9c62:	820d                	srli	a2,a2,0x3
    9c64:	00c86833          	or	a6,a6,a2
    9c68:	00375793          	srli	a5,a4,0x3
    9c6c:	bb81                	j	99bc <__subdf3+0x378>
    9c6e:	41df09b3          	sub	s3,t5,t4
    9c72:	40e307b3          	sub	a5,t1,a4
    9c76:	013f3633          	sltu	a2,t5,s3
    9c7a:	40c78633          	sub	a2,a5,a2
    9c7e:	00861793          	slli	a5,a2,0x8
    9c82:	0a07d763          	bgez	a5,9d30 <__subdf3+0x6ec>
    9c86:	41ee89b3          	sub	s3,t4,t5
    9c8a:	406707b3          	sub	a5,a4,t1
    9c8e:	013ebeb3          	sltu	t4,t4,s3
    9c92:	41d78633          	sub	a2,a5,t4
    9c96:	8436                	mv	s0,a3
    9c98:	b4c9                	j	975a <__subdf3+0x116>
    9c9a:	01e36333          	or	t1,t1,t5
    9c9e:	00603833          	snez	a6,t1
    9ca2:	b3fd                	j	9a90 <__subdf3+0x44c>
    9ca4:	fe058813          	addi	a6,a1,-32
    9ca8:	02000793          	li	a5,32
    9cac:	010359b3          	srl	s3,t1,a6
    9cb0:	00f58a63          	beq	a1,a5,9cc4 <__subdf3+0x680>
    9cb4:	04000793          	li	a5,64
    9cb8:	40b785b3          	sub	a1,a5,a1
    9cbc:	00b31333          	sll	t1,t1,a1
    9cc0:	006f6f33          	or	t5,t5,t1
    9cc4:	01e03833          	snez	a6,t5
    9cc8:	01386833          	or	a6,a6,s3
    9ccc:	b57d                	j	9b7a <__subdf3+0x536>
    9cce:	41ee89b3          	sub	s3,t4,t5
    9cd2:	406707b3          	sub	a5,a4,t1
    9cd6:	013ebeb3          	sltu	t4,t4,s3
    9cda:	41d78633          	sub	a2,a5,t4
    9cde:	8436                	mv	s0,a3
    9ce0:	4485                	li	s1,1
    9ce2:	bc09                	j	96f4 <__subdf3+0xb0>
    9ce4:	00361813          	slli	a6,a2,0x3
    9ce8:	01d71793          	slli	a5,a4,0x1d
    9cec:	00385813          	srli	a6,a6,0x3
    9cf0:	00f86833          	or	a6,a6,a5
    9cf4:	00375793          	srli	a5,a4,0x3
    9cf8:	b1a5                	j	9960 <__subdf3+0x31c>
    9cfa:	01df09b3          	add	s3,t5,t4
    9cfe:	00e307b3          	add	a5,t1,a4
    9d02:	01e9bf33          	sltu	t5,s3,t5
    9d06:	01e78633          	add	a2,a5,t5
    9d0a:	00861793          	slli	a5,a2,0x8
    9d0e:	c207d8e3          	bgez	a5,993e <__subdf3+0x2fa>
    9d12:	ff8007b7          	lui	a5,0xff800
    9d16:	17fd                	addi	a5,a5,-1
    9d18:	8e7d                	and	a2,a2,a5
    9d1a:	4485                	li	s1,1
    9d1c:	b10d                	j	993e <__subdf3+0x2fa>
    9d1e:	060e                	slli	a2,a2,0x3
    9d20:	01d71813          	slli	a6,a4,0x1d
    9d24:	820d                	srli	a2,a2,0x3
    9d26:	00c86833          	or	a6,a6,a2
    9d2a:	00375793          	srli	a5,a4,0x3
    9d2e:	b12d                	j	9958 <__subdf3+0x314>
    9d30:	00c9e833          	or	a6,s3,a2
    9d34:	d00806e3          	beqz	a6,9a40 <__subdf3+0x3fc>
    9d38:	b119                	j	993e <__subdf3+0x2fa>
    9d3a:	fe058813          	addi	a6,a1,-32
    9d3e:	02000793          	li	a5,32
    9d42:	010359b3          	srl	s3,t1,a6
    9d46:	00f58a63          	beq	a1,a5,9d5a <__subdf3+0x716>
    9d4a:	04000793          	li	a5,64
    9d4e:	40b785b3          	sub	a1,a5,a1
    9d52:	00b31333          	sll	t1,t1,a1
    9d56:	006f6f33          	or	t5,t5,t1
    9d5a:	01e03833          	snez	a6,t5
    9d5e:	01386833          	or	a6,a6,s3
    9d62:	b33d                	j	9a90 <__subdf3+0x44c>
    9d64:	4401                	li	s0,0
    9d66:	7ff00713          	li	a4,2047
    9d6a:	000807b7          	lui	a5,0x80
    9d6e:	bc2d                	j	97a8 <__subdf3+0x164>
    9d70:	01df09b3          	add	s3,t5,t4
    9d74:	00e307b3          	add	a5,t1,a4
    9d78:	01d9beb3          	sltu	t4,s3,t4
    9d7c:	01d78633          	add	a2,a5,t4
    9d80:	bb69                	j	9b1a <__subdf3+0x4d6>

00009d82 <__fixunsdfsi>:
    9d82:	0145d793          	srli	a5,a1,0x14
    9d86:	001006b7          	lui	a3,0x100
    9d8a:	fff68713          	addi	a4,a3,-1 # fffff <_data_lma+0xf375f>
    9d8e:	7ff7f793          	andi	a5,a5,2047
    9d92:	3fe00613          	li	a2,1022
    9d96:	882a                	mv	a6,a0
    9d98:	8f6d                	and	a4,a4,a1
    9d9a:	4501                	li	a0,0
    9d9c:	81fd                	srli	a1,a1,0x1f
    9d9e:	00f65463          	bge	a2,a5,9da6 <__fixunsdfsi+0x24>
    9da2:	c199                	beqz	a1,9da8 <__fixunsdfsi+0x26>
    9da4:	8082                	ret
    9da6:	8082                	ret
    9da8:	41e00613          	li	a2,1054
    9dac:	557d                	li	a0,-1
    9dae:	fef64be3          	blt	a2,a5,9da4 <__fixunsdfsi+0x22>
    9db2:	43300513          	li	a0,1075
    9db6:	8d1d                	sub	a0,a0,a5
    9db8:	467d                	li	a2,31
    9dba:	8f55                	or	a4,a4,a3
    9dbc:	00a64a63          	blt	a2,a0,9dd0 <__fixunsdfsi+0x4e>
    9dc0:	bed78793          	addi	a5,a5,-1043 # 7fbed <_data_lma+0x7334d>
    9dc4:	00f71733          	sll	a4,a4,a5
    9dc8:	00a85533          	srl	a0,a6,a0
    9dcc:	8d59                	or	a0,a0,a4
    9dce:	8082                	ret
    9dd0:	41300513          	li	a0,1043
    9dd4:	40f507b3          	sub	a5,a0,a5
    9dd8:	00f75533          	srl	a0,a4,a5
    9ddc:	8082                	ret

00009dde <__floatsidf>:
    9dde:	1141                	addi	sp,sp,-16
    9de0:	c606                	sw	ra,12(sp)
    9de2:	c422                	sw	s0,8(sp)
    9de4:	c226                	sw	s1,4(sp)
    9de6:	cd0d                	beqz	a0,9e20 <__floatsidf+0x42>
    9de8:	41f55793          	srai	a5,a0,0x1f
    9dec:	00a7c4b3          	xor	s1,a5,a0
    9df0:	8c9d                	sub	s1,s1,a5
    9df2:	842a                	mv	s0,a0
    9df4:	8526                	mv	a0,s1
    9df6:	510010ef          	jal	ra,b306 <__clzsi2>
    9dfa:	41e00693          	li	a3,1054
    9dfe:	8e89                	sub	a3,a3,a0
    9e00:	47a9                	li	a5,10
    9e02:	807d                	srli	s0,s0,0x1f
    9e04:	7ff6f693          	andi	a3,a3,2047
    9e08:	02a7cd63          	blt	a5,a0,9e42 <__floatsidf+0x64>
    9e0c:	472d                	li	a4,11
    9e0e:	8f09                	sub	a4,a4,a0
    9e10:	00e4d7b3          	srl	a5,s1,a4
    9e14:	0555                	addi	a0,a0,21
    9e16:	07b2                	slli	a5,a5,0xc
    9e18:	00a494b3          	sll	s1,s1,a0
    9e1c:	83b1                	srli	a5,a5,0xc
    9e1e:	a029                	j	9e28 <__floatsidf+0x4a>
    9e20:	4401                	li	s0,0
    9e22:	4681                	li	a3,0
    9e24:	4781                	li	a5,0
    9e26:	4481                	li	s1,0
    9e28:	07b2                	slli	a5,a5,0xc
    9e2a:	06d2                	slli	a3,a3,0x14
    9e2c:	83b1                	srli	a5,a5,0xc
    9e2e:	047e                	slli	s0,s0,0x1f
    9e30:	8fd5                	or	a5,a5,a3
    9e32:	8fc1                	or	a5,a5,s0
    9e34:	40b2                	lw	ra,12(sp)
    9e36:	4422                	lw	s0,8(sp)
    9e38:	8526                	mv	a0,s1
    9e3a:	85be                	mv	a1,a5
    9e3c:	4492                	lw	s1,4(sp)
    9e3e:	0141                	addi	sp,sp,16
    9e40:	8082                	ret
    9e42:	1555                	addi	a0,a0,-11
    9e44:	00a497b3          	sll	a5,s1,a0
    9e48:	07b2                	slli	a5,a5,0xc
    9e4a:	83b1                	srli	a5,a5,0xc
    9e4c:	4481                	li	s1,0
    9e4e:	bfe9                	j	9e28 <__floatsidf+0x4a>

00009e50 <__fixdfdi>:
    9e50:	00100737          	lui	a4,0x100
    9e54:	0145d793          	srli	a5,a1,0x14
    9e58:	fff70693          	addi	a3,a4,-1 # fffff <_data_lma+0xf375f>
    9e5c:	7ff7f793          	andi	a5,a5,2047
    9e60:	3fe00813          	li	a6,1022
    9e64:	8eed                	and	a3,a3,a1
    9e66:	01f5d613          	srli	a2,a1,0x1f
    9e6a:	02f85363          	bge	a6,a5,9e90 <__fixdfdi+0x40>
    9e6e:	43d00593          	li	a1,1085
    9e72:	02f5d263          	bge	a1,a5,9e96 <__fixdfdi+0x46>
    9e76:	4585                	li	a1,1
    9e78:	8d91                	sub	a1,a1,a2
    9e7a:	40b00533          	neg	a0,a1
    9e7e:	41f5d613          	srai	a2,a1,0x1f
    9e82:	800005b7          	lui	a1,0x80000
    9e86:	00a037b3          	snez	a5,a0
    9e8a:	8d91                	sub	a1,a1,a2
    9e8c:	8d9d                	sub	a1,a1,a5
    9e8e:	8082                	ret
    9e90:	4501                	li	a0,0
    9e92:	4581                	li	a1,0
    9e94:	8082                	ret
    9e96:	43200813          	li	a6,1074
    9e9a:	00e6e5b3          	or	a1,a3,a4
    9e9e:	02f85463          	bge	a6,a5,9ec6 <__fixdfdi+0x76>
    9ea2:	bad78713          	addi	a4,a5,-1107
    9ea6:	bcd78793          	addi	a5,a5,-1075
    9eaa:	04074563          	bltz	a4,9ef4 <__fixdfdi+0xa4>
    9eae:	00e515b3          	sll	a1,a0,a4
    9eb2:	4501                	li	a0,0
    9eb4:	d265                	beqz	a2,9e94 <__fixdfdi+0x44>
    9eb6:	40a00533          	neg	a0,a0
    9eba:	00a037b3          	snez	a5,a0
    9ebe:	40b005b3          	neg	a1,a1
    9ec2:	8d9d                	sub	a1,a1,a5
    9ec4:	8082                	ret
    9ec6:	43300693          	li	a3,1075
    9eca:	8e9d                	sub	a3,a3,a5
    9ecc:	477d                	li	a4,31
    9ece:	00d74c63          	blt	a4,a3,9ee6 <__fixdfdi+0x96>
    9ed2:	bed78713          	addi	a4,a5,-1043
    9ed6:	00e59733          	sll	a4,a1,a4
    9eda:	00d55533          	srl	a0,a0,a3
    9ede:	8d59                	or	a0,a0,a4
    9ee0:	00d5d5b3          	srl	a1,a1,a3
    9ee4:	bfc1                	j	9eb4 <__fixdfdi+0x64>
    9ee6:	41300513          	li	a0,1043
    9eea:	8d1d                	sub	a0,a0,a5
    9eec:	00a5d533          	srl	a0,a1,a0
    9ef0:	4581                	li	a1,0
    9ef2:	b7c9                	j	9eb4 <__fixdfdi+0x64>
    9ef4:	46fd                	li	a3,31
    9ef6:	00155713          	srli	a4,a0,0x1
    9efa:	8e9d                	sub	a3,a3,a5
    9efc:	00d75733          	srl	a4,a4,a3
    9f00:	00f595b3          	sll	a1,a1,a5
    9f04:	8dd9                	or	a1,a1,a4
    9f06:	00f51533          	sll	a0,a0,a5
    9f0a:	b76d                	j	9eb4 <__fixdfdi+0x64>

00009f0c <__floatdidf>:
    9f0c:	1101                	addi	sp,sp,-32
    9f0e:	ce06                	sw	ra,28(sp)
    9f10:	cc22                	sw	s0,24(sp)
    9f12:	ca26                	sw	s1,20(sp)
    9f14:	c84a                	sw	s2,16(sp)
    9f16:	c64e                	sw	s3,12(sp)
    9f18:	00b567b3          	or	a5,a0,a1
    9f1c:	cf9d                	beqz	a5,9f5a <__floatdidf+0x4e>
    9f1e:	84ae                	mv	s1,a1
    9f20:	89aa                	mv	s3,a0
    9f22:	01f5d913          	srli	s2,a1,0x1f
    9f26:	0405ce63          	bltz	a1,9f82 <__floatdidf+0x76>
    9f2a:	8426                	mv	s0,s1
    9f2c:	c4ad                	beqz	s1,9f96 <__floatdidf+0x8a>
    9f2e:	8526                	mv	a0,s1
    9f30:	3d6010ef          	jal	ra,b306 <__clzsi2>
    9f34:	43e00693          	li	a3,1086
    9f38:	8e89                	sub	a3,a3,a0
    9f3a:	43300793          	li	a5,1075
    9f3e:	08d7ca63          	blt	a5,a3,9fd2 <__floatdidf+0xc6>
    9f42:	00c49793          	slli	a5,s1,0xc
    9f46:	462d                	li	a2,11
    9f48:	874e                	mv	a4,s3
    9f4a:	7ff6f693          	andi	a3,a3,2047
    9f4e:	83b1                	srli	a5,a5,0xc
    9f50:	00a65963          	bge	a2,a0,9f62 <__floatdidf+0x56>
    9f54:	ff550613          	addi	a2,a0,-11 # 7ffff5 <_data_lma+0x7f3755>
    9f58:	a8b9                	j	9fb6 <__floatdidf+0xaa>
    9f5a:	4901                	li	s2,0
    9f5c:	4681                	li	a3,0
    9f5e:	4781                	li	a5,0
    9f60:	4701                	li	a4,0
    9f62:	07b2                	slli	a5,a5,0xc
    9f64:	40f2                	lw	ra,28(sp)
    9f66:	4462                	lw	s0,24(sp)
    9f68:	06d2                	slli	a3,a3,0x14
    9f6a:	83b1                	srli	a5,a5,0xc
    9f6c:	097e                	slli	s2,s2,0x1f
    9f6e:	8fd5                	or	a5,a5,a3
    9f70:	0127e7b3          	or	a5,a5,s2
    9f74:	44d2                	lw	s1,20(sp)
    9f76:	4942                	lw	s2,16(sp)
    9f78:	49b2                	lw	s3,12(sp)
    9f7a:	853a                	mv	a0,a4
    9f7c:	85be                	mv	a1,a5
    9f7e:	6105                	addi	sp,sp,32
    9f80:	8082                	ret
    9f82:	40a00533          	neg	a0,a0
    9f86:	00a036b3          	snez	a3,a0
    9f8a:	40b004b3          	neg	s1,a1
    9f8e:	8c95                	sub	s1,s1,a3
    9f90:	89aa                	mv	s3,a0
    9f92:	8426                	mv	s0,s1
    9f94:	fcc9                	bnez	s1,9f2e <__floatdidf+0x22>
    9f96:	854e                	mv	a0,s3
    9f98:	36e010ef          	jal	ra,b306 <__clzsi2>
    9f9c:	862a                	mv	a2,a0
    9f9e:	43e00693          	li	a3,1086
    9fa2:	02050513          	addi	a0,a0,32
    9fa6:	8e89                	sub	a3,a3,a0
    9fa8:	02a00793          	li	a5,42
    9fac:	7ff6f693          	andi	a3,a3,2047
    9fb0:	0ca7c763          	blt	a5,a0,a07e <__floatdidf+0x172>
    9fb4:	0655                	addi	a2,a2,21
    9fb6:	02b00713          	li	a4,43
    9fba:	8f09                	sub	a4,a4,a0
    9fbc:	00c497b3          	sll	a5,s1,a2
    9fc0:	00e9d733          	srl	a4,s3,a4
    9fc4:	8f5d                	or	a4,a4,a5
    9fc6:	00c71793          	slli	a5,a4,0xc
    9fca:	83b1                	srli	a5,a5,0xc
    9fcc:	00c99733          	sll	a4,s3,a2
    9fd0:	bf49                	j	9f62 <__floatdidf+0x56>
    9fd2:	43600793          	li	a5,1078
    9fd6:	02d7db63          	bge	a5,a3,a00c <__floatdidf+0x100>
    9fda:	4721                	li	a4,8
    9fdc:	8f09                	sub	a4,a4,a0
    9fde:	fe070593          	addi	a1,a4,-32
    9fe2:	0c05c263          	bltz	a1,a0a6 <__floatdidf+0x19a>
    9fe6:	00b4d5b3          	srl	a1,s1,a1
    9fea:	4701                	li	a4,0
    9fec:	01850613          	addi	a2,a0,24
    9ff0:	03850793          	addi	a5,a0,56
    9ff4:	08064c63          	bltz	a2,a08c <__floatdidf+0x180>
    9ff8:	00c99633          	sll	a2,s3,a2
    9ffc:	4981                	li	s3,0
    9ffe:	00c9e9b3          	or	s3,s3,a2
    a002:	01303633          	snez	a2,s3
    a006:	00c5e9b3          	or	s3,a1,a2
    a00a:	843a                	mv	s0,a4
    a00c:	47a1                	li	a5,8
    a00e:	864e                	mv	a2,s3
    a010:	04a7c963          	blt	a5,a0,a062 <__floatdidf+0x156>
    a014:	ff8007b7          	lui	a5,0xff800
    a018:	17fd                	addi	a5,a5,-1
    a01a:	00767593          	andi	a1,a2,7
    a01e:	00f47733          	and	a4,s0,a5
    a022:	c585                	beqz	a1,a04a <__floatdidf+0x13e>
    a024:	00f67593          	andi	a1,a2,15
    a028:	4811                	li	a6,4
    a02a:	03058063          	beq	a1,a6,a04a <__floatdidf+0x13e>
    a02e:	00460593          	addi	a1,a2,4 # ff800004 <__freertos_irq_stack_top+0xdf7f8004>
    a032:	00c5b633          	sltu	a2,a1,a2
    a036:	9732                	add	a4,a4,a2
    a038:	00871613          	slli	a2,a4,0x8
    a03c:	08065163          	bgez	a2,a0be <__floatdidf+0x1b2>
    a040:	43f00693          	li	a3,1087
    a044:	8f7d                	and	a4,a4,a5
    a046:	8e89                	sub	a3,a3,a0
    a048:	862e                	mv	a2,a1
    a04a:	00365513          	srli	a0,a2,0x3
    a04e:	00971793          	slli	a5,a4,0x9
    a052:	01d71613          	slli	a2,a4,0x1d
    a056:	00a66733          	or	a4,a2,a0
    a05a:	83b1                	srli	a5,a5,0xc
    a05c:	7ff6f693          	andi	a3,a3,2047
    a060:	b709                	j	9f62 <__floatdidf+0x56>
    a062:	02800793          	li	a5,40
    a066:	ff850593          	addi	a1,a0,-8
    a06a:	8f89                	sub	a5,a5,a0
    a06c:	00f9d7b3          	srl	a5,s3,a5
    a070:	00b41733          	sll	a4,s0,a1
    a074:	00e7e433          	or	s0,a5,a4
    a078:	00b99633          	sll	a2,s3,a1
    a07c:	bf61                	j	a014 <__floatdidf+0x108>
    a07e:	1655                	addi	a2,a2,-11
    a080:	00c997b3          	sll	a5,s3,a2
    a084:	07b2                	slli	a5,a5,0xc
    a086:	83b1                	srli	a5,a5,0xc
    a088:	4701                	li	a4,0
    a08a:	bde1                	j	9f62 <__floatdidf+0x56>
    a08c:	467d                	li	a2,31
    a08e:	0019d813          	srli	a6,s3,0x1
    a092:	8e1d                	sub	a2,a2,a5
    a094:	00c85833          	srl	a6,a6,a2
    a098:	00f49633          	sll	a2,s1,a5
    a09c:	00c86633          	or	a2,a6,a2
    a0a0:	00f999b3          	sll	s3,s3,a5
    a0a4:	bfa9                	j	9ffe <__floatdidf+0xf2>
    a0a6:	467d                	li	a2,31
    a0a8:	8e19                	sub	a2,a2,a4
    a0aa:	00149793          	slli	a5,s1,0x1
    a0ae:	00e9d5b3          	srl	a1,s3,a4
    a0b2:	00c797b3          	sll	a5,a5,a2
    a0b6:	8ddd                	or	a1,a1,a5
    a0b8:	00e4d733          	srl	a4,s1,a4
    a0bc:	bf05                	j	9fec <__floatdidf+0xe0>
    a0be:	862e                	mv	a2,a1
    a0c0:	b769                	j	a04a <__floatdidf+0x13e>

0000a0c2 <__addsf3>:
    a0c2:	1141                	addi	sp,sp,-16
    a0c4:	00800737          	lui	a4,0x800
    a0c8:	177d                	addi	a4,a4,-1
    a0ca:	0175d813          	srli	a6,a1,0x17
    a0ce:	c226                	sw	s1,4(sp)
    a0d0:	01755493          	srli	s1,a0,0x17
    a0d4:	00a77333          	and	t1,a4,a0
    a0d8:	0ff4f493          	andi	s1,s1,255
    a0dc:	00b776b3          	and	a3,a4,a1
    a0e0:	c04a                	sw	s2,0(sp)
    a0e2:	0ff87813          	andi	a6,a6,255
    a0e6:	01f55913          	srli	s2,a0,0x1f
    a0ea:	c606                	sw	ra,12(sp)
    a0ec:	c422                	sw	s0,8(sp)
    a0ee:	81fd                	srli	a1,a1,0x1f
    a0f0:	879a                	mv	a5,t1
    a0f2:	8526                	mv	a0,s1
    a0f4:	864a                	mv	a2,s2
    a0f6:	00331e13          	slli	t3,t1,0x3
    a0fa:	00369e93          	slli	t4,a3,0x3
    a0fe:	410488b3          	sub	a7,s1,a6
    a102:	0eb90a63          	beq	s2,a1,a1f6 <__addsf3+0x134>
    a106:	0d105063          	blez	a7,a1c6 <__addsf3+0x104>
    a10a:	14080463          	beqz	a6,a252 <__addsf3+0x190>
    a10e:	0ff00793          	li	a5,255
    a112:	14f48b63          	beq	s1,a5,a268 <__addsf3+0x1a6>
    a116:	040007b7          	lui	a5,0x4000
    a11a:	00feeeb3          	or	t4,t4,a5
    a11e:	47ed                	li	a5,27
    a120:	2917c163          	blt	a5,a7,a3a2 <__addsf3+0x2e0>
    a124:	02000793          	li	a5,32
    a128:	411787b3          	sub	a5,a5,a7
    a12c:	00fe97b3          	sll	a5,t4,a5
    a130:	011ed8b3          	srl	a7,t4,a7
    a134:	00f037b3          	snez	a5,a5
    a138:	00f8e7b3          	or	a5,a7,a5
    a13c:	40fe07b3          	sub	a5,t3,a5
    a140:	00579713          	slli	a4,a5,0x5
    a144:	18075e63          	bgez	a4,a2e0 <__addsf3+0x21e>
    a148:	04000437          	lui	s0,0x4000
    a14c:	147d                	addi	s0,s0,-1
    a14e:	8c7d                	and	s0,s0,a5
    a150:	8522                	mv	a0,s0
    a152:	1b4010ef          	jal	ra,b306 <__clzsi2>
    a156:	156d                	addi	a0,a0,-5
    a158:	00a417b3          	sll	a5,s0,a0
    a15c:	1a954863          	blt	a0,s1,a30c <__addsf3+0x24a>
    a160:	8d05                	sub	a0,a0,s1
    a162:	00150413          	addi	s0,a0,1
    a166:	02000713          	li	a4,32
    a16a:	8f01                	sub	a4,a4,s0
    a16c:	00e79733          	sll	a4,a5,a4
    a170:	00e03733          	snez	a4,a4
    a174:	0087d7b3          	srl	a5,a5,s0
    a178:	8fd9                	or	a5,a5,a4
    a17a:	4481                	li	s1,0
    a17c:	0077f713          	andi	a4,a5,7
    a180:	c719                	beqz	a4,a18e <__addsf3+0xcc>
    a182:	00f7f713          	andi	a4,a5,15
    a186:	4691                	li	a3,4
    a188:	00d70363          	beq	a4,a3,a18e <__addsf3+0xcc>
    a18c:	0791                	addi	a5,a5,4
    a18e:	00579713          	slli	a4,a5,0x5
    a192:	14075b63          	bgez	a4,a2e8 <__addsf3+0x226>
    a196:	0485                	addi	s1,s1,1
    a198:	0ff00713          	li	a4,255
    a19c:	864a                	mv	a2,s2
    a19e:	16e48363          	beq	s1,a4,a304 <__addsf3+0x242>
    a1a2:	079a                	slli	a5,a5,0x6
    a1a4:	83a5                	srli	a5,a5,0x9
    a1a6:	0ff4f513          	andi	a0,s1,255
    a1aa:	40b2                	lw	ra,12(sp)
    a1ac:	4422                	lw	s0,8(sp)
    a1ae:	07a6                	slli	a5,a5,0x9
    a1b0:	01751493          	slli	s1,a0,0x17
    a1b4:	0097d513          	srli	a0,a5,0x9
    a1b8:	8d45                	or	a0,a0,s1
    a1ba:	067e                	slli	a2,a2,0x1f
    a1bc:	4492                	lw	s1,4(sp)
    a1be:	4902                	lw	s2,0(sp)
    a1c0:	8d51                	or	a0,a0,a2
    a1c2:	0141                	addi	sp,sp,16
    a1c4:	8082                	ret
    a1c6:	0a089963          	bnez	a7,a278 <__addsf3+0x1b6>
    a1ca:	00148713          	addi	a4,s1,1
    a1ce:	0fe77713          	andi	a4,a4,254
    a1d2:	14071763          	bnez	a4,a320 <__addsf3+0x25e>
    a1d6:	22049063          	bnez	s1,a3f6 <__addsf3+0x334>
    a1da:	1e0e0d63          	beqz	t3,a3d4 <__addsf3+0x312>
    a1de:	fc0e86e3          	beqz	t4,a1aa <__addsf3+0xe8>
    a1e2:	41de07b3          	sub	a5,t3,t4
    a1e6:	00579713          	slli	a4,a5,0x5
    a1ea:	22075063          	bgez	a4,a40a <__addsf3+0x348>
    a1ee:	41ce87b3          	sub	a5,t4,t3
    a1f2:	892e                	mv	s2,a1
    a1f4:	b761                	j	a17c <__addsf3+0xba>
    a1f6:	0b105c63          	blez	a7,a2ae <__addsf3+0x1ec>
    a1fa:	08080e63          	beqz	a6,a296 <__addsf3+0x1d4>
    a1fe:	0ff00793          	li	a5,255
    a202:	06f48363          	beq	s1,a5,a268 <__addsf3+0x1a6>
    a206:	040007b7          	lui	a5,0x4000
    a20a:	00feeeb3          	or	t4,t4,a5
    a20e:	47ed                	li	a5,27
    a210:	1f17c963          	blt	a5,a7,a402 <__addsf3+0x340>
    a214:	02000793          	li	a5,32
    a218:	411787b3          	sub	a5,a5,a7
    a21c:	00fe97b3          	sll	a5,t4,a5
    a220:	011ed8b3          	srl	a7,t4,a7
    a224:	00f037b3          	snez	a5,a5
    a228:	00f8e7b3          	or	a5,a7,a5
    a22c:	97f2                	add	a5,a5,t3
    a22e:	00579713          	slli	a4,a5,0x5
    a232:	0a075763          	bgez	a4,a2e0 <__addsf3+0x21e>
    a236:	0485                	addi	s1,s1,1
    a238:	0ff00713          	li	a4,255
    a23c:	0ce48463          	beq	s1,a4,a304 <__addsf3+0x242>
    a240:	7e0006b7          	lui	a3,0x7e000
    a244:	0017d713          	srli	a4,a5,0x1
    a248:	16fd                	addi	a3,a3,-1
    a24a:	8b85                	andi	a5,a5,1
    a24c:	8f75                	and	a4,a4,a3
    a24e:	8fd9                	or	a5,a5,a4
    a250:	b735                	j	a17c <__addsf3+0xba>
    a252:	080e8d63          	beqz	t4,a2ec <__addsf3+0x22a>
    a256:	18fd                	addi	a7,a7,-1
    a258:	41de07b3          	sub	a5,t3,t4
    a25c:	ee0882e3          	beqz	a7,a140 <__addsf3+0x7e>
    a260:	0ff00793          	li	a5,255
    a264:	eaf49de3          	bne	s1,a5,a11e <__addsf3+0x5c>
    a268:	08030d63          	beqz	t1,a302 <__addsf3+0x240>
    a26c:	4601                	li	a2,0
    a26e:	0ff00513          	li	a0,255
    a272:	004007b7          	lui	a5,0x400
    a276:	bf15                	j	a1aa <__addsf3+0xe8>
    a278:	40980733          	sub	a4,a6,s1
    a27c:	e8ed                	bnez	s1,a36e <__addsf3+0x2ac>
    a27e:	140e0263          	beqz	t3,a3c2 <__addsf3+0x300>
    a282:	177d                	addi	a4,a4,-1
    a284:	18070863          	beqz	a4,a414 <__addsf3+0x352>
    a288:	0ff00793          	li	a5,255
    a28c:	0ef81963          	bne	a6,a5,a37e <__addsf3+0x2bc>
    a290:	892e                	mv	s2,a1
    a292:	8336                	mv	t1,a3
    a294:	bfd1                	j	a268 <__addsf3+0x1a6>
    a296:	040e8b63          	beqz	t4,a2ec <__addsf3+0x22a>
    a29a:	18fd                	addi	a7,a7,-1
    a29c:	01de07b3          	add	a5,t3,t4
    a2a0:	f80887e3          	beqz	a7,a22e <__addsf3+0x16c>
    a2a4:	0ff00793          	li	a5,255
    a2a8:	f6f493e3          	bne	s1,a5,a20e <__addsf3+0x14c>
    a2ac:	bf75                	j	a268 <__addsf3+0x1a6>
    a2ae:	08089563          	bnez	a7,a338 <__addsf3+0x276>
    a2b2:	0485                	addi	s1,s1,1
    a2b4:	0fe4f713          	andi	a4,s1,254
    a2b8:	12071363          	bnez	a4,a3de <__addsf3+0x31c>
    a2bc:	10051763          	bnez	a0,a3ca <__addsf3+0x308>
    a2c0:	140e0f63          	beqz	t3,a41e <__addsf3+0x35c>
    a2c4:	ee0e83e3          	beqz	t4,a1aa <__addsf3+0xe8>
    a2c8:	01de07b3          	add	a5,t3,t4
    a2cc:	00579713          	slli	a4,a5,0x5
    a2d0:	4481                	li	s1,0
    a2d2:	00075763          	bgez	a4,a2e0 <__addsf3+0x21e>
    a2d6:	fc000737          	lui	a4,0xfc000
    a2da:	177d                	addi	a4,a4,-1
    a2dc:	8ff9                	and	a5,a5,a4
    a2de:	4485                	li	s1,1
    a2e0:	0077f713          	andi	a4,a5,7
    a2e4:	e8071fe3          	bnez	a4,a182 <__addsf3+0xc0>
    a2e8:	0037d313          	srli	t1,a5,0x3
    a2ec:	0ff00793          	li	a5,255
    a2f0:	f6f48ce3          	beq	s1,a5,a268 <__addsf3+0x1a6>
    a2f4:	00931793          	slli	a5,t1,0x9
    a2f8:	83a5                	srli	a5,a5,0x9
    a2fa:	0ff4f513          	andi	a0,s1,255
    a2fe:	864a                	mv	a2,s2
    a300:	b56d                	j	a1aa <__addsf3+0xe8>
    a302:	864a                	mv	a2,s2
    a304:	0ff00513          	li	a0,255
    a308:	4781                	li	a5,0
    a30a:	b545                	j	a1aa <__addsf3+0xe8>
    a30c:	fc000737          	lui	a4,0xfc000
    a310:	177d                	addi	a4,a4,-1
    a312:	8ff9                	and	a5,a5,a4
    a314:	0077f713          	andi	a4,a5,7
    a318:	8c89                	sub	s1,s1,a0
    a31a:	e60714e3          	bnez	a4,a182 <__addsf3+0xc0>
    a31e:	b7e9                	j	a2e8 <__addsf3+0x226>
    a320:	41de0433          	sub	s0,t3,t4
    a324:	00541793          	slli	a5,s0,0x5
    a328:	0c07c363          	bltz	a5,a3ee <__addsf3+0x32c>
    a32c:	e20412e3          	bnez	s0,a150 <__addsf3+0x8e>
    a330:	4601                	li	a2,0
    a332:	4501                	li	a0,0
    a334:	4781                	li	a5,0
    a336:	bd95                	j	a1aa <__addsf3+0xe8>
    a338:	40980733          	sub	a4,a6,s1
    a33c:	c4ad                	beqz	s1,a3a6 <__addsf3+0x2e4>
    a33e:	0ff00793          	li	a5,255
    a342:	f4f808e3          	beq	a6,a5,a292 <__addsf3+0x1d0>
    a346:	040007b7          	lui	a5,0x4000
    a34a:	00fe6e33          	or	t3,t3,a5
    a34e:	47ed                	li	a5,27
    a350:	0ce7cc63          	blt	a5,a4,a428 <__addsf3+0x366>
    a354:	02000793          	li	a5,32
    a358:	8f99                	sub	a5,a5,a4
    a35a:	00fe17b3          	sll	a5,t3,a5
    a35e:	00ee5733          	srl	a4,t3,a4
    a362:	00f037b3          	snez	a5,a5
    a366:	8fd9                	or	a5,a5,a4
    a368:	97f6                	add	a5,a5,t4
    a36a:	84c2                	mv	s1,a6
    a36c:	b5c9                	j	a22e <__addsf3+0x16c>
    a36e:	0ff00793          	li	a5,255
    a372:	f0f80fe3          	beq	a6,a5,a290 <__addsf3+0x1ce>
    a376:	040007b7          	lui	a5,0x4000
    a37a:	00fe6e33          	or	t3,t3,a5
    a37e:	47ed                	li	a5,27
    a380:	08e7c363          	blt	a5,a4,a406 <__addsf3+0x344>
    a384:	02000693          	li	a3,32
    a388:	8e99                	sub	a3,a3,a4
    a38a:	00de16b3          	sll	a3,t3,a3
    a38e:	00ee57b3          	srl	a5,t3,a4
    a392:	00d03733          	snez	a4,a3
    a396:	8fd9                	or	a5,a5,a4
    a398:	40fe87b3          	sub	a5,t4,a5
    a39c:	84c2                	mv	s1,a6
    a39e:	892e                	mv	s2,a1
    a3a0:	b345                	j	a140 <__addsf3+0x7e>
    a3a2:	4785                	li	a5,1
    a3a4:	bb61                	j	a13c <__addsf3+0x7a>
    a3a6:	060e0e63          	beqz	t3,a422 <__addsf3+0x360>
    a3aa:	177d                	addi	a4,a4,-1
    a3ac:	01de07b3          	add	a5,t3,t4
    a3b0:	84c2                	mv	s1,a6
    a3b2:	e6070ee3          	beqz	a4,a22e <__addsf3+0x16c>
    a3b6:	0ff00793          	li	a5,255
    a3ba:	f8f81ae3          	bne	a6,a5,a34e <__addsf3+0x28c>
    a3be:	8336                	mv	t1,a3
    a3c0:	b565                	j	a268 <__addsf3+0x1a6>
    a3c2:	8336                	mv	t1,a3
    a3c4:	84c2                	mv	s1,a6
    a3c6:	892e                	mv	s2,a1
    a3c8:	b715                	j	a2ec <__addsf3+0x22a>
    a3ca:	ec0e04e3          	beqz	t3,a292 <__addsf3+0x1d0>
    a3ce:	e80e8de3          	beqz	t4,a268 <__addsf3+0x1a6>
    a3d2:	bd69                	j	a26c <__addsf3+0x1aa>
    a3d4:	020e8d63          	beqz	t4,a40e <__addsf3+0x34c>
    a3d8:	862e                	mv	a2,a1
    a3da:	87b6                	mv	a5,a3
    a3dc:	b3f9                	j	a1aa <__addsf3+0xe8>
    a3de:	0ff00793          	li	a5,255
    a3e2:	f2f481e3          	beq	s1,a5,a304 <__addsf3+0x242>
    a3e6:	01de07b3          	add	a5,t3,t4
    a3ea:	8385                	srli	a5,a5,0x1
    a3ec:	bdd5                	j	a2e0 <__addsf3+0x21e>
    a3ee:	41ce8433          	sub	s0,t4,t3
    a3f2:	892e                	mv	s2,a1
    a3f4:	bbb1                	j	a150 <__addsf3+0x8e>
    a3f6:	fc0e1ce3          	bnez	t3,a3ce <__addsf3+0x30c>
    a3fa:	e60e89e3          	beqz	t4,a26c <__addsf3+0x1aa>
    a3fe:	892e                	mv	s2,a1
    a400:	bd49                	j	a292 <__addsf3+0x1d0>
    a402:	4785                	li	a5,1
    a404:	b525                	j	a22c <__addsf3+0x16a>
    a406:	4785                	li	a5,1
    a408:	bf41                	j	a398 <__addsf3+0x2d6>
    a40a:	ec079be3          	bnez	a5,a2e0 <__addsf3+0x21e>
    a40e:	4601                	li	a2,0
    a410:	4781                	li	a5,0
    a412:	bb61                	j	a1aa <__addsf3+0xe8>
    a414:	41ce87b3          	sub	a5,t4,t3
    a418:	84c2                	mv	s1,a6
    a41a:	892e                	mv	s2,a1
    a41c:	b315                	j	a140 <__addsf3+0x7e>
    a41e:	87b6                	mv	a5,a3
    a420:	b369                	j	a1aa <__addsf3+0xe8>
    a422:	8336                	mv	t1,a3
    a424:	84c2                	mv	s1,a6
    a426:	b5d9                	j	a2ec <__addsf3+0x22a>
    a428:	4785                	li	a5,1
    a42a:	bf3d                	j	a368 <__addsf3+0x2a6>

0000a42c <__divsf3>:
    a42c:	7139                	addi	sp,sp,-64
    a42e:	01755793          	srli	a5,a0,0x17
    a432:	d84a                	sw	s2,48(sp)
    a434:	d256                	sw	s5,36(sp)
    a436:	ce5e                	sw	s7,28(sp)
    a438:	00951a93          	slli	s5,a0,0x9
    a43c:	01f55913          	srli	s2,a0,0x1f
    a440:	de06                	sw	ra,60(sp)
    a442:	dc22                	sw	s0,56(sp)
    a444:	da26                	sw	s1,52(sp)
    a446:	d64e                	sw	s3,44(sp)
    a448:	d452                	sw	s4,40(sp)
    a44a:	d05a                	sw	s6,32(sp)
    a44c:	0ff7f793          	andi	a5,a5,255
    a450:	009ada93          	srli	s5,s5,0x9
    a454:	8bca                	mv	s7,s2
    a456:	12078263          	beqz	a5,a57a <__divsf3+0x14e>
    a45a:	0ff00713          	li	a4,255
    a45e:	12e78463          	beq	a5,a4,a586 <__divsf3+0x15a>
    a462:	0a8e                	slli	s5,s5,0x3
    a464:	04000737          	lui	a4,0x4000
    a468:	00eaeab3          	or	s5,s5,a4
    a46c:	f8178a13          	addi	s4,a5,-127 # 3ffff81 <_data_lma+0x3ff36e1>
    a470:	4401                	li	s0,0
    a472:	4b01                	li	s6,0
    a474:	0175d793          	srli	a5,a1,0x17
    a478:	00959493          	slli	s1,a1,0x9
    a47c:	0ff7f793          	andi	a5,a5,255
    a480:	80a5                	srli	s1,s1,0x9
    a482:	01f5d993          	srli	s3,a1,0x1f
    a486:	c7fd                	beqz	a5,a574 <__divsf3+0x148>
    a488:	0ff00713          	li	a4,255
    a48c:	02e78763          	beq	a5,a4,a4ba <__divsf3+0x8e>
    a490:	048e                	slli	s1,s1,0x3
    a492:	f8178793          	addi	a5,a5,-127
    a496:	04000737          	lui	a4,0x4000
    a49a:	8cd9                	or	s1,s1,a4
    a49c:	40fa0a33          	sub	s4,s4,a5
    a4a0:	4681                	li	a3,0
    a4a2:	8c55                	or	s0,s0,a3
    a4a4:	00002717          	auipc	a4,0x2
    a4a8:	23c70713          	addi	a4,a4,572 # c6e0 <atanlo+0x58>
    a4ac:	040a                	slli	s0,s0,0x2
    a4ae:	943a                	add	s0,s0,a4
    a4b0:	401c                	lw	a5,0(s0)
    a4b2:	01394933          	xor	s2,s2,s3
    a4b6:	97ba                	add	a5,a5,a4
    a4b8:	8782                	jr	a5
    a4ba:	f01a0a13          	addi	s4,s4,-255
    a4be:	e8f9                	bnez	s1,a594 <__divsf3+0x168>
    a4c0:	4689                	li	a3,2
    a4c2:	8c55                	or	s0,s0,a3
    a4c4:	00002717          	auipc	a4,0x2
    a4c8:	25c70713          	addi	a4,a4,604 # c720 <atanlo+0x98>
    a4cc:	040a                	slli	s0,s0,0x2
    a4ce:	943a                	add	s0,s0,a4
    a4d0:	401c                	lw	a5,0(s0)
    a4d2:	01394933          	xor	s2,s2,s3
    a4d6:	97ba                	add	a5,a5,a4
    a4d8:	8782                	jr	a5
    a4da:	4901                	li	s2,0
    a4dc:	0ff00713          	li	a4,255
    a4e0:	004007b7          	lui	a5,0x400
    a4e4:	00979513          	slli	a0,a5,0x9
    a4e8:	50f2                	lw	ra,60(sp)
    a4ea:	5462                	lw	s0,56(sp)
    a4ec:	01771793          	slli	a5,a4,0x17
    a4f0:	8125                	srli	a0,a0,0x9
    a4f2:	097e                	slli	s2,s2,0x1f
    a4f4:	8d5d                	or	a0,a0,a5
    a4f6:	01256533          	or	a0,a0,s2
    a4fa:	54d2                	lw	s1,52(sp)
    a4fc:	5942                	lw	s2,48(sp)
    a4fe:	59b2                	lw	s3,44(sp)
    a500:	5a22                	lw	s4,40(sp)
    a502:	5a92                	lw	s5,36(sp)
    a504:	5b02                	lw	s6,32(sp)
    a506:	4bf2                	lw	s7,28(sp)
    a508:	6121                	addi	sp,sp,64
    a50a:	8082                	ret
    a50c:	0ff00713          	li	a4,255
    a510:	4781                	li	a5,0
    a512:	bfc9                	j	a4e4 <__divsf3+0xb8>
    a514:	8aa6                	mv	s5,s1
    a516:	8bce                	mv	s7,s3
    a518:	8b36                	mv	s6,a3
    a51a:	4789                	li	a5,2
    a51c:	1afb0b63          	beq	s6,a5,a6d2 <__divsf3+0x2a6>
    a520:	478d                	li	a5,3
    a522:	fafb0ce3          	beq	s6,a5,a4da <__divsf3+0xae>
    a526:	4785                	li	a5,1
    a528:	0afb0a63          	beq	s6,a5,a5dc <__divsf3+0x1b0>
    a52c:	07fa0713          	addi	a4,s4,127
    a530:	001bf913          	andi	s2,s7,1
    a534:	12e05763          	blez	a4,a662 <__divsf3+0x236>
    a538:	007af793          	andi	a5,s5,7
    a53c:	c799                	beqz	a5,a54a <__divsf3+0x11e>
    a53e:	00faf793          	andi	a5,s5,15
    a542:	4691                	li	a3,4
    a544:	00d78363          	beq	a5,a3,a54a <__divsf3+0x11e>
    a548:	0a91                	addi	s5,s5,4
    a54a:	004a9793          	slli	a5,s5,0x4
    a54e:	0007d963          	bgez	a5,a560 <__divsf3+0x134>
    a552:	f80007b7          	lui	a5,0xf8000
    a556:	17fd                	addi	a5,a5,-1
    a558:	00fafab3          	and	s5,s5,a5
    a55c:	080a0713          	addi	a4,s4,128
    a560:	0fe00793          	li	a5,254
    a564:	fae7c4e3          	blt	a5,a4,a50c <__divsf3+0xe0>
    a568:	006a9793          	slli	a5,s5,0x6
    a56c:	83a5                	srli	a5,a5,0x9
    a56e:	0ff77713          	andi	a4,a4,255
    a572:	bf8d                	j	a4e4 <__divsf3+0xb8>
    a574:	e4b9                	bnez	s1,a5c2 <__divsf3+0x196>
    a576:	4685                	li	a3,1
    a578:	b7a9                	j	a4c2 <__divsf3+0x96>
    a57a:	020a9463          	bnez	s5,a5a2 <__divsf3+0x176>
    a57e:	4411                	li	s0,4
    a580:	4a01                	li	s4,0
    a582:	4b05                	li	s6,1
    a584:	bdc5                	j	a474 <__divsf3+0x48>
    a586:	000a9963          	bnez	s5,a598 <__divsf3+0x16c>
    a58a:	4421                	li	s0,8
    a58c:	0ff00a13          	li	s4,255
    a590:	4b09                	li	s6,2
    a592:	b5cd                	j	a474 <__divsf3+0x48>
    a594:	468d                	li	a3,3
    a596:	b731                	j	a4a2 <__divsf3+0x76>
    a598:	4431                	li	s0,12
    a59a:	0ff00a13          	li	s4,255
    a59e:	4b0d                	li	s6,3
    a5a0:	bdd1                	j	a474 <__divsf3+0x48>
    a5a2:	8556                	mv	a0,s5
    a5a4:	c62e                	sw	a1,12(sp)
    a5a6:	561000ef          	jal	ra,b306 <__clzsi2>
    a5aa:	ffb50793          	addi	a5,a0,-5
    a5ae:	00fa9ab3          	sll	s5,s5,a5
    a5b2:	f8a00793          	li	a5,-118
    a5b6:	40a78a33          	sub	s4,a5,a0
    a5ba:	4401                	li	s0,0
    a5bc:	4b01                	li	s6,0
    a5be:	45b2                	lw	a1,12(sp)
    a5c0:	bd55                	j	a474 <__divsf3+0x48>
    a5c2:	8526                	mv	a0,s1
    a5c4:	543000ef          	jal	ra,b306 <__clzsi2>
    a5c8:	ffb50713          	addi	a4,a0,-5
    a5cc:	00aa07b3          	add	a5,s4,a0
    a5d0:	00e494b3          	sll	s1,s1,a4
    a5d4:	07678a13          	addi	s4,a5,118 # f8000076 <__freertos_irq_stack_top+0xd7ff8076>
    a5d8:	4681                	li	a3,0
    a5da:	b5e1                	j	a4a2 <__divsf3+0x76>
    a5dc:	001bf913          	andi	s2,s7,1
    a5e0:	4701                	li	a4,0
    a5e2:	4781                	li	a5,0
    a5e4:	b701                	j	a4e4 <__divsf3+0xb8>
    a5e6:	6641                	lui	a2,0x10
    a5e8:	00549513          	slli	a0,s1,0x5
    a5ec:	167d                	addi	a2,a2,-1
    a5ee:	01055793          	srli	a5,a0,0x10
    a5f2:	8e69                	and	a2,a2,a0
    a5f4:	0a9afa63          	bgeu	s5,s1,a6a8 <__divsf3+0x27c>
    a5f8:	02fad5b3          	divu	a1,s5,a5
    a5fc:	1a7d                	addi	s4,s4,-1
    a5fe:	86d6                	mv	a3,s5
    a600:	4701                	li	a4,0
    a602:	02c58833          	mul	a6,a1,a2
    a606:	02f6f6b3          	remu	a3,a3,a5
    a60a:	06c2                	slli	a3,a3,0x10
    a60c:	8f55                	or	a4,a4,a3
    a60e:	01077b63          	bgeu	a4,a6,a624 <__divsf3+0x1f8>
    a612:	972a                	add	a4,a4,a0
    a614:	fff58693          	addi	a3,a1,-1 # 7fffffff <__freertos_irq_stack_top+0x5fff7fff>
    a618:	0aa76863          	bltu	a4,a0,a6c8 <__divsf3+0x29c>
    a61c:	0b077663          	bgeu	a4,a6,a6c8 <__divsf3+0x29c>
    a620:	15f9                	addi	a1,a1,-2
    a622:	972a                	add	a4,a4,a0
    a624:	41070733          	sub	a4,a4,a6
    a628:	02f756b3          	divu	a3,a4,a5
    a62c:	02f77733          	remu	a4,a4,a5
    a630:	02c68ab3          	mul	s5,a3,a2
    a634:	01071793          	slli	a5,a4,0x10
    a638:	0157fb63          	bgeu	a5,s5,a64e <__divsf3+0x222>
    a63c:	97aa                	add	a5,a5,a0
    a63e:	fff68713          	addi	a4,a3,-1 # 7dffffff <__freertos_irq_stack_top+0x5dff7fff>
    a642:	08a7e163          	bltu	a5,a0,a6c4 <__divsf3+0x298>
    a646:	0757ff63          	bgeu	a5,s5,a6c4 <__divsf3+0x298>
    a64a:	16f9                	addi	a3,a3,-2
    a64c:	97aa                	add	a5,a5,a0
    a64e:	05c2                	slli	a1,a1,0x10
    a650:	41578ab3          	sub	s5,a5,s5
    a654:	8dd5                	or	a1,a1,a3
    a656:	01503ab3          	snez	s5,s5
    a65a:	0155eab3          	or	s5,a1,s5
    a65e:	8bca                	mv	s7,s2
    a660:	b5f1                	j	a52c <__divsf3+0x100>
    a662:	4685                	li	a3,1
    a664:	8e99                	sub	a3,a3,a4
    a666:	c711                	beqz	a4,a672 <__divsf3+0x246>
    a668:	466d                	li	a2,27
    a66a:	4701                	li	a4,0
    a66c:	4781                	li	a5,0
    a66e:	e6d64be3          	blt	a2,a3,a4e4 <__divsf3+0xb8>
    a672:	09ea0a13          	addi	s4,s4,158
    a676:	014a9a33          	sll	s4,s5,s4
    a67a:	00dad7b3          	srl	a5,s5,a3
    a67e:	01403ab3          	snez	s5,s4
    a682:	0157e7b3          	or	a5,a5,s5
    a686:	0077f713          	andi	a4,a5,7
    a68a:	c719                	beqz	a4,a698 <__divsf3+0x26c>
    a68c:	00f7f713          	andi	a4,a5,15
    a690:	4691                	li	a3,4
    a692:	00d70363          	beq	a4,a3,a698 <__divsf3+0x26c>
    a696:	0791                	addi	a5,a5,4
    a698:	00579713          	slli	a4,a5,0x5
    a69c:	02074863          	bltz	a4,a6cc <__divsf3+0x2a0>
    a6a0:	079a                	slli	a5,a5,0x6
    a6a2:	83a5                	srli	a5,a5,0x9
    a6a4:	4701                	li	a4,0
    a6a6:	bd3d                	j	a4e4 <__divsf3+0xb8>
    a6a8:	001ad693          	srli	a3,s5,0x1
    a6ac:	02f6d5b3          	divu	a1,a3,a5
    a6b0:	01fa9713          	slli	a4,s5,0x1f
    a6b4:	8341                	srli	a4,a4,0x10
    a6b6:	02c58833          	mul	a6,a1,a2
    a6ba:	b7b1                	j	a606 <__divsf3+0x1da>
    a6bc:	8bce                	mv	s7,s3
    a6be:	8b36                	mv	s6,a3
    a6c0:	4a81                	li	s5,0
    a6c2:	bda1                	j	a51a <__divsf3+0xee>
    a6c4:	86ba                	mv	a3,a4
    a6c6:	b761                	j	a64e <__divsf3+0x222>
    a6c8:	85b6                	mv	a1,a3
    a6ca:	bfa9                	j	a624 <__divsf3+0x1f8>
    a6cc:	4705                	li	a4,1
    a6ce:	4781                	li	a5,0
    a6d0:	bd11                	j	a4e4 <__divsf3+0xb8>
    a6d2:	001bf913          	andi	s2,s7,1
    a6d6:	0ff00713          	li	a4,255
    a6da:	4781                	li	a5,0
    a6dc:	b521                	j	a4e4 <__divsf3+0xb8>

0000a6de <__eqsf2>:
    a6de:	01755693          	srli	a3,a0,0x17
    a6e2:	008007b7          	lui	a5,0x800
    a6e6:	17fd                	addi	a5,a5,-1
    a6e8:	0175d613          	srli	a2,a1,0x17
    a6ec:	0ff6f693          	andi	a3,a3,255
    a6f0:	0ff00813          	li	a6,255
    a6f4:	00a7f8b3          	and	a7,a5,a0
    a6f8:	01f55713          	srli	a4,a0,0x1f
    a6fc:	8fed                	and	a5,a5,a1
    a6fe:	0ff67613          	andi	a2,a2,255
    a702:	81fd                	srli	a1,a1,0x1f
    a704:	03068463          	beq	a3,a6,a72c <__eqsf2+0x4e>
    a708:	0ff00513          	li	a0,255
    a70c:	02a60463          	beq	a2,a0,a734 <__eqsf2+0x56>
    a710:	4505                	li	a0,1
    a712:	00c68363          	beq	a3,a2,a718 <__eqsf2+0x3a>
    a716:	8082                	ret
    a718:	fef89fe3          	bne	a7,a5,a716 <__eqsf2+0x38>
    a71c:	4501                	li	a0,0
    a71e:	feb70ce3          	beq	a4,a1,a716 <__eqsf2+0x38>
    a722:	4505                	li	a0,1
    a724:	faed                	bnez	a3,a716 <__eqsf2+0x38>
    a726:	01103533          	snez	a0,a7
    a72a:	8082                	ret
    a72c:	4505                	li	a0,1
    a72e:	fc088de3          	beqz	a7,a708 <__eqsf2+0x2a>
    a732:	8082                	ret
    a734:	4505                	li	a0,1
    a736:	dfe9                	beqz	a5,a710 <__eqsf2+0x32>
    a738:	8082                	ret

0000a73a <__gesf2>:
    a73a:	01755693          	srli	a3,a0,0x17
    a73e:	008007b7          	lui	a5,0x800
    a742:	17fd                	addi	a5,a5,-1
    a744:	0175d613          	srli	a2,a1,0x17
    a748:	0ff6f693          	andi	a3,a3,255
    a74c:	0ff00813          	li	a6,255
    a750:	00a7f8b3          	and	a7,a5,a0
    a754:	01f55713          	srli	a4,a0,0x1f
    a758:	8fed                	and	a5,a5,a1
    a75a:	0ff67613          	andi	a2,a2,255
    a75e:	81fd                	srli	a1,a1,0x1f
    a760:	03068163          	beq	a3,a6,a782 <__gesf2+0x48>
    a764:	01060c63          	beq	a2,a6,a77c <__gesf2+0x42>
    a768:	e28d                	bnez	a3,a78a <__gesf2+0x50>
    a76a:	e211                	bnez	a2,a76e <__gesf2+0x34>
    a76c:	c3b1                	beqz	a5,a7b0 <__gesf2+0x76>
    a76e:	02088e63          	beqz	a7,a7aa <__gesf2+0x70>
    a772:	04b70563          	beq	a4,a1,a7bc <__gesf2+0x82>
    a776:	4505                	li	a0,1
    a778:	e71d                	bnez	a4,a7a6 <__gesf2+0x6c>
    a77a:	8082                	ret
    a77c:	d7f5                	beqz	a5,a768 <__gesf2+0x2e>
    a77e:	5579                	li	a0,-2
    a780:	8082                	ret
    a782:	fe089ee3          	bnez	a7,a77e <__gesf2+0x44>
    a786:	02d60963          	beq	a2,a3,a7b8 <__gesf2+0x7e>
    a78a:	e211                	bnez	a2,a78e <__gesf2+0x54>
    a78c:	d7ed                	beqz	a5,a776 <__gesf2+0x3c>
    a78e:	feb714e3          	bne	a4,a1,a776 <__gesf2+0x3c>
    a792:	fed642e3          	blt	a2,a3,a776 <__gesf2+0x3c>
    a796:	00c6c763          	blt	a3,a2,a7a4 <__gesf2+0x6a>
    a79a:	fd17eee3          	bltu	a5,a7,a776 <__gesf2+0x3c>
    a79e:	4501                	li	a0,0
    a7a0:	fcf8fde3          	bgeu	a7,a5,a77a <__gesf2+0x40>
    a7a4:	e701                	bnez	a4,a7ac <__gesf2+0x72>
    a7a6:	557d                	li	a0,-1
    a7a8:	8082                	ret
    a7aa:	ddf5                	beqz	a1,a7a6 <__gesf2+0x6c>
    a7ac:	4505                	li	a0,1
    a7ae:	8082                	ret
    a7b0:	4501                	li	a0,0
    a7b2:	fc0892e3          	bnez	a7,a776 <__gesf2+0x3c>
    a7b6:	8082                	ret
    a7b8:	dbf9                	beqz	a5,a78e <__gesf2+0x54>
    a7ba:	b7d1                	j	a77e <__gesf2+0x44>
    a7bc:	4681                	li	a3,0
    a7be:	bfe1                	j	a796 <__gesf2+0x5c>

0000a7c0 <__lesf2>:
    a7c0:	01755693          	srli	a3,a0,0x17
    a7c4:	008007b7          	lui	a5,0x800
    a7c8:	17fd                	addi	a5,a5,-1
    a7ca:	0175d613          	srli	a2,a1,0x17
    a7ce:	0ff6f693          	andi	a3,a3,255
    a7d2:	0ff00813          	li	a6,255
    a7d6:	00a7f8b3          	and	a7,a5,a0
    a7da:	01f55713          	srli	a4,a0,0x1f
    a7de:	8fed                	and	a5,a5,a1
    a7e0:	0ff67613          	andi	a2,a2,255
    a7e4:	81fd                	srli	a1,a1,0x1f
    a7e6:	03068763          	beq	a3,a6,a814 <__lesf2+0x54>
    a7ea:	01060963          	beq	a2,a6,a7fc <__lesf2+0x3c>
    a7ee:	ea85                	bnez	a3,a81e <__lesf2+0x5e>
    a7f0:	ea11                	bnez	a2,a804 <__lesf2+0x44>
    a7f2:	eb89                	bnez	a5,a804 <__lesf2+0x44>
    a7f4:	4501                	li	a0,0
    a7f6:	00089b63          	bnez	a7,a80c <__lesf2+0x4c>
    a7fa:	8082                	ret
    a7fc:	4509                	li	a0,2
    a7fe:	fff5                	bnez	a5,a7fa <__lesf2+0x3a>
    a800:	dae5                	beqz	a3,a7f0 <__lesf2+0x30>
    a802:	a831                	j	a81e <__lesf2+0x5e>
    a804:	02088c63          	beqz	a7,a83c <__lesf2+0x7c>
    a808:	04b70063          	beq	a4,a1,a848 <__lesf2+0x88>
    a80c:	4505                	li	a0,1
    a80e:	d775                	beqz	a4,a7fa <__lesf2+0x3a>
    a810:	557d                	li	a0,-1
    a812:	8082                	ret
    a814:	4509                	li	a0,2
    a816:	02089863          	bnez	a7,a846 <__lesf2+0x86>
    a81a:	02d60463          	beq	a2,a3,a842 <__lesf2+0x82>
    a81e:	e211                	bnez	a2,a822 <__lesf2+0x62>
    a820:	d7f5                	beqz	a5,a80c <__lesf2+0x4c>
    a822:	feb715e3          	bne	a4,a1,a80c <__lesf2+0x4c>
    a826:	fed643e3          	blt	a2,a3,a80c <__lesf2+0x4c>
    a82a:	00c6c763          	blt	a3,a2,a838 <__lesf2+0x78>
    a82e:	fd17efe3          	bltu	a5,a7,a80c <__lesf2+0x4c>
    a832:	4501                	li	a0,0
    a834:	fcf8f3e3          	bgeu	a7,a5,a7fa <__lesf2+0x3a>
    a838:	e319                	bnez	a4,a83e <__lesf2+0x7e>
    a83a:	bfd9                	j	a810 <__lesf2+0x50>
    a83c:	d9f1                	beqz	a1,a810 <__lesf2+0x50>
    a83e:	4505                	li	a0,1
    a840:	8082                	ret
    a842:	d3e5                	beqz	a5,a822 <__lesf2+0x62>
    a844:	8082                	ret
    a846:	8082                	ret
    a848:	4681                	li	a3,0
    a84a:	b7c5                	j	a82a <__lesf2+0x6a>

0000a84c <__mulsf3>:
    a84c:	7179                	addi	sp,sp,-48
    a84e:	d422                	sw	s0,40(sp)
    a850:	01755413          	srli	s0,a0,0x17
    a854:	ce4e                	sw	s3,28(sp)
    a856:	cc52                	sw	s4,24(sp)
    a858:	00951993          	slli	s3,a0,0x9
    a85c:	d606                	sw	ra,44(sp)
    a85e:	d226                	sw	s1,36(sp)
    a860:	d04a                	sw	s2,32(sp)
    a862:	ca56                	sw	s5,20(sp)
    a864:	c85a                	sw	s6,16(sp)
    a866:	0ff47413          	andi	s0,s0,255
    a86a:	0099d993          	srli	s3,s3,0x9
    a86e:	01f55a13          	srli	s4,a0,0x1f
    a872:	c469                	beqz	s0,a93c <__mulsf3+0xf0>
    a874:	0ff00793          	li	a5,255
    a878:	0ef40863          	beq	s0,a5,a968 <__mulsf3+0x11c>
    a87c:	00399793          	slli	a5,s3,0x3
    a880:	04000737          	lui	a4,0x4000
    a884:	00e7e9b3          	or	s3,a5,a4
    a888:	f8140413          	addi	s0,s0,-127 # 3ffff81 <_data_lma+0x3ff36e1>
    a88c:	4481                	li	s1,0
    a88e:	4b01                	li	s6,0
    a890:	0175d713          	srli	a4,a1,0x17
    a894:	00959a93          	slli	s5,a1,0x9
    a898:	0ff77713          	andi	a4,a4,255
    a89c:	009ada93          	srli	s5,s5,0x9
    a8a0:	01f5d913          	srli	s2,a1,0x1f
    a8a4:	cf45                	beqz	a4,a95c <__mulsf3+0x110>
    a8a6:	0ff00793          	li	a5,255
    a8aa:	02f70c63          	beq	a4,a5,a8e2 <__mulsf3+0x96>
    a8ae:	0a8e                	slli	s5,s5,0x3
    a8b0:	f8170713          	addi	a4,a4,-127 # 3ffff81 <_data_lma+0x3ff36e1>
    a8b4:	040007b7          	lui	a5,0x4000
    a8b8:	00faeab3          	or	s5,s5,a5
    a8bc:	943a                	add	s0,s0,a4
    a8be:	4601                	li	a2,0
    a8c0:	012a4533          	xor	a0,s4,s2
    a8c4:	47bd                	li	a5,15
    a8c6:	86aa                	mv	a3,a0
    a8c8:	00140593          	addi	a1,s0,1
    a8cc:	1097e263          	bltu	a5,s1,a9d0 <__mulsf3+0x184>
    a8d0:	00002717          	auipc	a4,0x2
    a8d4:	e9070713          	addi	a4,a4,-368 # c760 <atanlo+0xd8>
    a8d8:	048a                	slli	s1,s1,0x2
    a8da:	94ba                	add	s1,s1,a4
    a8dc:	409c                	lw	a5,0(s1)
    a8de:	97ba                	add	a5,a5,a4
    a8e0:	8782                	jr	a5
    a8e2:	0ff40413          	addi	s0,s0,255
    a8e6:	0c0a9863          	bnez	s5,a9b6 <__mulsf3+0x16a>
    a8ea:	0024e493          	ori	s1,s1,2
    a8ee:	4609                	li	a2,2
    a8f0:	bfc1                	j	a8c0 <__mulsf3+0x74>
    a8f2:	4501                	li	a0,0
    a8f4:	0ff00713          	li	a4,255
    a8f8:	004007b7          	lui	a5,0x400
    a8fc:	50b2                	lw	ra,44(sp)
    a8fe:	5422                	lw	s0,40(sp)
    a900:	07a6                	slli	a5,a5,0x9
    a902:	075e                	slli	a4,a4,0x17
    a904:	83a5                	srli	a5,a5,0x9
    a906:	057e                	slli	a0,a0,0x1f
    a908:	8fd9                	or	a5,a5,a4
    a90a:	5492                	lw	s1,36(sp)
    a90c:	5902                	lw	s2,32(sp)
    a90e:	49f2                	lw	s3,28(sp)
    a910:	4a62                	lw	s4,24(sp)
    a912:	4ad2                	lw	s5,20(sp)
    a914:	4b42                	lw	s6,16(sp)
    a916:	8d5d                	or	a0,a0,a5
    a918:	6145                	addi	sp,sp,48
    a91a:	8082                	ret
    a91c:	86ca                	mv	a3,s2
    a91e:	89d6                	mv	s3,s5
    a920:	8b32                	mv	s6,a2
    a922:	4789                	li	a5,2
    a924:	0afb0163          	beq	s6,a5,a9c6 <__mulsf3+0x17a>
    a928:	478d                	li	a5,3
    a92a:	fcfb04e3          	beq	s6,a5,a8f2 <__mulsf3+0xa6>
    a92e:	4785                	li	a5,1
    a930:	8536                	mv	a0,a3
    a932:	1afb1263          	bne	s6,a5,aad6 <__mulsf3+0x28a>
    a936:	4701                	li	a4,0
    a938:	4781                	li	a5,0
    a93a:	b7c9                	j	a8fc <__mulsf3+0xb0>
    a93c:	04099e63          	bnez	s3,a998 <__mulsf3+0x14c>
    a940:	0175d713          	srli	a4,a1,0x17
    a944:	00959a93          	slli	s5,a1,0x9
    a948:	0ff77713          	andi	a4,a4,255
    a94c:	4491                	li	s1,4
    a94e:	4401                	li	s0,0
    a950:	4b05                	li	s6,1
    a952:	009ada93          	srli	s5,s5,0x9
    a956:	01f5d913          	srli	s2,a1,0x1f
    a95a:	f731                	bnez	a4,a8a6 <__mulsf3+0x5a>
    a95c:	000a9d63          	bnez	s5,a976 <__mulsf3+0x12a>
    a960:	0014e493          	ori	s1,s1,1
    a964:	4605                	li	a2,1
    a966:	bfa9                	j	a8c0 <__mulsf3+0x74>
    a968:	02099363          	bnez	s3,a98e <__mulsf3+0x142>
    a96c:	44a1                	li	s1,8
    a96e:	0ff00413          	li	s0,255
    a972:	4b09                	li	s6,2
    a974:	bf31                	j	a890 <__mulsf3+0x44>
    a976:	8556                	mv	a0,s5
    a978:	18f000ef          	jal	ra,b306 <__clzsi2>
    a97c:	ffb50793          	addi	a5,a0,-5
    a980:	8c09                	sub	s0,s0,a0
    a982:	00fa9ab3          	sll	s5,s5,a5
    a986:	f8a40413          	addi	s0,s0,-118
    a98a:	4601                	li	a2,0
    a98c:	bf15                	j	a8c0 <__mulsf3+0x74>
    a98e:	44b1                	li	s1,12
    a990:	0ff00413          	li	s0,255
    a994:	4b0d                	li	s6,3
    a996:	bded                	j	a890 <__mulsf3+0x44>
    a998:	854e                	mv	a0,s3
    a99a:	c62e                	sw	a1,12(sp)
    a99c:	16b000ef          	jal	ra,b306 <__clzsi2>
    a9a0:	ffb50793          	addi	a5,a0,-5
    a9a4:	f8a00413          	li	s0,-118
    a9a8:	00f999b3          	sll	s3,s3,a5
    a9ac:	8c09                	sub	s0,s0,a0
    a9ae:	4481                	li	s1,0
    a9b0:	4b01                	li	s6,0
    a9b2:	45b2                	lw	a1,12(sp)
    a9b4:	bdf1                	j	a890 <__mulsf3+0x44>
    a9b6:	0034e493          	ori	s1,s1,3
    a9ba:	460d                	li	a2,3
    a9bc:	b711                	j	a8c0 <__mulsf3+0x74>
    a9be:	4789                	li	a5,2
    a9c0:	86d2                	mv	a3,s4
    a9c2:	f6fb13e3          	bne	s6,a5,a928 <__mulsf3+0xdc>
    a9c6:	8536                	mv	a0,a3
    a9c8:	0ff00713          	li	a4,255
    a9cc:	4781                	li	a5,0
    a9ce:	b73d                	j	a8fc <__mulsf3+0xb0>
    a9d0:	6341                	lui	t1,0x10
    a9d2:	fff30693          	addi	a3,t1,-1 # ffff <_data_lma+0x375f>
    a9d6:	0109d613          	srli	a2,s3,0x10
    a9da:	010ad893          	srli	a7,s5,0x10
    a9de:	00d9f7b3          	and	a5,s3,a3
    a9e2:	00dafab3          	and	s5,s5,a3
    a9e6:	03578833          	mul	a6,a5,s5
    a9ea:	02f889b3          	mul	s3,a7,a5
    a9ee:	01085713          	srli	a4,a6,0x10
    a9f2:	03560ab3          	mul	s5,a2,s5
    a9f6:	99d6                	add	s3,s3,s5
    a9f8:	974e                	add	a4,a4,s3
    a9fa:	03160633          	mul	a2,a2,a7
    a9fe:	01577363          	bgeu	a4,s5,aa04 <__mulsf3+0x1b8>
    aa02:	961a                	add	a2,a2,t1
    aa04:	67c1                	lui	a5,0x10
    aa06:	17fd                	addi	a5,a5,-1
    aa08:	00f776b3          	and	a3,a4,a5
    aa0c:	00f87833          	and	a6,a6,a5
    aa10:	06c2                	slli	a3,a3,0x10
    aa12:	96c2                	add	a3,a3,a6
    aa14:	00669993          	slli	s3,a3,0x6
    aa18:	01075793          	srli	a5,a4,0x10
    aa1c:	013039b3          	snez	s3,s3
    aa20:	82e9                	srli	a3,a3,0x1a
    aa22:	97b2                	add	a5,a5,a2
    aa24:	079a                	slli	a5,a5,0x6
    aa26:	00d9e6b3          	or	a3,s3,a3
    aa2a:	00d7e9b3          	or	s3,a5,a3
    aa2e:	00499793          	slli	a5,s3,0x4
    aa32:	0007d963          	bgez	a5,aa44 <__mulsf3+0x1f8>
    aa36:	0019d713          	srli	a4,s3,0x1
    aa3a:	0019f793          	andi	a5,s3,1
    aa3e:	00f769b3          	or	s3,a4,a5
    aa42:	842e                	mv	s0,a1
    aa44:	07f40713          	addi	a4,s0,127
    aa48:	04e05063          	blez	a4,aa88 <__mulsf3+0x23c>
    aa4c:	0079f793          	andi	a5,s3,7
    aa50:	c799                	beqz	a5,aa5e <__mulsf3+0x212>
    aa52:	00f9f793          	andi	a5,s3,15
    aa56:	4691                	li	a3,4
    aa58:	00d78363          	beq	a5,a3,aa5e <__mulsf3+0x212>
    aa5c:	0991                	addi	s3,s3,4
    aa5e:	00499793          	slli	a5,s3,0x4
    aa62:	0007d963          	bgez	a5,aa74 <__mulsf3+0x228>
    aa66:	f80007b7          	lui	a5,0xf8000
    aa6a:	17fd                	addi	a5,a5,-1
    aa6c:	00f9f9b3          	and	s3,s3,a5
    aa70:	08040713          	addi	a4,s0,128
    aa74:	0fe00793          	li	a5,254
    aa78:	04e7cb63          	blt	a5,a4,aace <__mulsf3+0x282>
    aa7c:	00699793          	slli	a5,s3,0x6
    aa80:	83a5                	srli	a5,a5,0x9
    aa82:	0ff77713          	andi	a4,a4,255
    aa86:	bd9d                	j	a8fc <__mulsf3+0xb0>
    aa88:	4785                	li	a5,1
    aa8a:	40e786b3          	sub	a3,a5,a4
    aa8e:	c711                	beqz	a4,aa9a <__mulsf3+0x24e>
    aa90:	466d                	li	a2,27
    aa92:	4701                	li	a4,0
    aa94:	4781                	li	a5,0
    aa96:	e6d643e3          	blt	a2,a3,a8fc <__mulsf3+0xb0>
    aa9a:	09e40713          	addi	a4,s0,158
    aa9e:	00e99733          	sll	a4,s3,a4
    aaa2:	00e03733          	snez	a4,a4
    aaa6:	00d9d7b3          	srl	a5,s3,a3
    aaaa:	8fd9                	or	a5,a5,a4
    aaac:	0077f713          	andi	a4,a5,7
    aab0:	c719                	beqz	a4,aabe <__mulsf3+0x272>
    aab2:	00f7f713          	andi	a4,a5,15
    aab6:	4691                	li	a3,4
    aab8:	00d70363          	beq	a4,a3,aabe <__mulsf3+0x272>
    aabc:	0791                	addi	a5,a5,4
    aabe:	00579713          	slli	a4,a5,0x5
    aac2:	00074c63          	bltz	a4,aada <__mulsf3+0x28e>
    aac6:	079a                	slli	a5,a5,0x6
    aac8:	83a5                	srli	a5,a5,0x9
    aaca:	4701                	li	a4,0
    aacc:	bd05                	j	a8fc <__mulsf3+0xb0>
    aace:	0ff00713          	li	a4,255
    aad2:	4781                	li	a5,0
    aad4:	b525                	j	a8fc <__mulsf3+0xb0>
    aad6:	842e                	mv	s0,a1
    aad8:	b7b5                	j	aa44 <__mulsf3+0x1f8>
    aada:	4705                	li	a4,1
    aadc:	4781                	li	a5,0
    aade:	bd39                	j	a8fc <__mulsf3+0xb0>

0000aae0 <__subsf3>:
    aae0:	00800737          	lui	a4,0x800
    aae4:	1141                	addi	sp,sp,-16
    aae6:	177d                	addi	a4,a4,-1
    aae8:	01755693          	srli	a3,a0,0x17
    aaec:	0175d813          	srli	a6,a1,0x17
    aaf0:	00a777b3          	and	a5,a4,a0
    aaf4:	0ff6f693          	andi	a3,a3,255
    aaf8:	01f55e93          	srli	t4,a0,0x1f
    aafc:	00b77633          	and	a2,a4,a1
    ab00:	c226                	sw	s1,4(sp)
    ab02:	c04a                	sw	s2,0(sp)
    ab04:	0ff87813          	andi	a6,a6,255
    ab08:	c606                	sw	ra,12(sp)
    ab0a:	c422                	sw	s0,8(sp)
    ab0c:	0ff00313          	li	t1,255
    ab10:	8e3e                	mv	t3,a5
    ab12:	8936                	mv	s2,a3
    ab14:	84f6                	mv	s1,t4
    ab16:	00379f13          	slli	t5,a5,0x3
    ab1a:	81fd                	srli	a1,a1,0x1f
    ab1c:	00361513          	slli	a0,a2,0x3
    ab20:	410688b3          	sub	a7,a3,a6
    ab24:	10680263          	beq	a6,t1,ac28 <__subsf3+0x148>
    ab28:	0015c593          	xori	a1,a1,1
    ab2c:	10be8c63          	beq	t4,a1,ac44 <__subsf3+0x164>
    ab30:	0d105463          	blez	a7,abf8 <__subsf3+0x118>
    ab34:	10081063          	bnez	a6,ac34 <__subsf3+0x154>
    ab38:	1e050463          	beqz	a0,ad20 <__subsf3+0x240>
    ab3c:	18fd                	addi	a7,a7,-1
    ab3e:	40af07b3          	sub	a5,t5,a0
    ab42:	02088663          	beqz	a7,ab6e <__subsf3+0x8e>
    ab46:	0ff00793          	li	a5,255
    ab4a:	16f68863          	beq	a3,a5,acba <__subsf3+0x1da>
    ab4e:	47ed                	li	a5,27
    ab50:	2917c763          	blt	a5,a7,adde <__subsf3+0x2fe>
    ab54:	02000713          	li	a4,32
    ab58:	41170733          	sub	a4,a4,a7
    ab5c:	00e51733          	sll	a4,a0,a4
    ab60:	011557b3          	srl	a5,a0,a7
    ab64:	00e03733          	snez	a4,a4
    ab68:	8fd9                	or	a5,a5,a4
    ab6a:	40ff07b3          	sub	a5,t5,a5
    ab6e:	00579713          	slli	a4,a5,0x5
    ab72:	1a075163          	bgez	a4,ad14 <__subsf3+0x234>
    ab76:	04000437          	lui	s0,0x4000
    ab7a:	147d                	addi	s0,s0,-1
    ab7c:	8c7d                	and	s0,s0,a5
    ab7e:	8522                	mv	a0,s0
    ab80:	2759                	jal	b306 <__clzsi2>
    ab82:	156d                	addi	a0,a0,-5
    ab84:	00a417b3          	sll	a5,s0,a0
    ab88:	1b254e63          	blt	a0,s2,ad44 <__subsf3+0x264>
    ab8c:	41250533          	sub	a0,a0,s2
    ab90:	00150413          	addi	s0,a0,1
    ab94:	02000713          	li	a4,32
    ab98:	8f01                	sub	a4,a4,s0
    ab9a:	00e79733          	sll	a4,a5,a4
    ab9e:	00e03733          	snez	a4,a4
    aba2:	0087d7b3          	srl	a5,a5,s0
    aba6:	8fd9                	or	a5,a5,a4
    aba8:	4901                	li	s2,0
    abaa:	0077f713          	andi	a4,a5,7
    abae:	c719                	beqz	a4,abbc <__subsf3+0xdc>
    abb0:	00f7f713          	andi	a4,a5,15
    abb4:	4691                	li	a3,4
    abb6:	00d70363          	beq	a4,a3,abbc <__subsf3+0xdc>
    abba:	0791                	addi	a5,a5,4
    abbc:	00579713          	slli	a4,a5,0x5
    abc0:	14075e63          	bgez	a4,ad1c <__subsf3+0x23c>
    abc4:	00190693          	addi	a3,s2,1 # 800001 <_data_lma+0x7f3761>
    abc8:	0ff00713          	li	a4,255
    abcc:	0014fe93          	andi	t4,s1,1
    abd0:	16e68663          	beq	a3,a4,ad3c <__subsf3+0x25c>
    abd4:	079a                	slli	a5,a5,0x6
    abd6:	83a5                	srli	a5,a5,0x9
    abd8:	0ff6f693          	andi	a3,a3,255
    abdc:	07a6                	slli	a5,a5,0x9
    abde:	40b2                	lw	ra,12(sp)
    abe0:	4422                	lw	s0,8(sp)
    abe2:	0097d513          	srli	a0,a5,0x9
    abe6:	06de                	slli	a3,a3,0x17
    abe8:	01fe9793          	slli	a5,t4,0x1f
    abec:	8d55                	or	a0,a0,a3
    abee:	4492                	lw	s1,4(sp)
    abf0:	4902                	lw	s2,0(sp)
    abf2:	8d5d                	or	a0,a0,a5
    abf4:	0141                	addi	sp,sp,16
    abf6:	8082                	ret
    abf8:	0a089263          	bnez	a7,ac9c <__subsf3+0x1bc>
    abfc:	00168713          	addi	a4,a3,1
    ac00:	0fe77713          	andi	a4,a4,254
    ac04:	14071b63          	bnez	a4,ad5a <__subsf3+0x27a>
    ac08:	22069463          	bnez	a3,ae30 <__subsf3+0x350>
    ac0c:	200f0263          	beqz	t5,ae10 <__subsf3+0x330>
    ac10:	d571                	beqz	a0,abdc <__subsf3+0xfc>
    ac12:	40af07b3          	sub	a5,t5,a0
    ac16:	00579713          	slli	a4,a5,0x5
    ac1a:	22075563          	bgez	a4,ae44 <__subsf3+0x364>
    ac1e:	41e507b3          	sub	a5,a0,t5
    ac22:	4901                	li	s2,0
    ac24:	84ae                	mv	s1,a1
    ac26:	b751                	j	abaa <__subsf3+0xca>
    ac28:	f00500e3          	beqz	a0,ab28 <__subsf3+0x48>
    ac2c:	0abe8a63          	beq	t4,a1,ace0 <__subsf3+0x200>
    ac30:	fd1054e3          	blez	a7,abf8 <__subsf3+0x118>
    ac34:	0ff00793          	li	a5,255
    ac38:	08f68163          	beq	a3,a5,acba <__subsf3+0x1da>
    ac3c:	040007b7          	lui	a5,0x4000
    ac40:	8d5d                	or	a0,a0,a5
    ac42:	b731                	j	ab4e <__subsf3+0x6e>
    ac44:	09105e63          	blez	a7,ace0 <__subsf3+0x200>
    ac48:	08080163          	beqz	a6,acca <__subsf3+0x1ea>
    ac4c:	0ff00793          	li	a5,255
    ac50:	06f68563          	beq	a3,a5,acba <__subsf3+0x1da>
    ac54:	040007b7          	lui	a5,0x4000
    ac58:	8d5d                	or	a0,a0,a5
    ac5a:	47ed                	li	a5,27
    ac5c:	1f17c063          	blt	a5,a7,ae3c <__subsf3+0x35c>
    ac60:	02000713          	li	a4,32
    ac64:	41170733          	sub	a4,a4,a7
    ac68:	00e51733          	sll	a4,a0,a4
    ac6c:	011557b3          	srl	a5,a0,a7
    ac70:	00e03733          	snez	a4,a4
    ac74:	8fd9                	or	a5,a5,a4
    ac76:	97fa                	add	a5,a5,t5
    ac78:	00579713          	slli	a4,a5,0x5
    ac7c:	08075c63          	bgez	a4,ad14 <__subsf3+0x234>
    ac80:	0905                	addi	s2,s2,1
    ac82:	0ff00713          	li	a4,255
    ac86:	0ae90b63          	beq	s2,a4,ad3c <__subsf3+0x25c>
    ac8a:	7e0006b7          	lui	a3,0x7e000
    ac8e:	0017d713          	srli	a4,a5,0x1
    ac92:	16fd                	addi	a3,a3,-1
    ac94:	8b85                	andi	a5,a5,1
    ac96:	8f75                	and	a4,a4,a3
    ac98:	8fd9                	or	a5,a5,a4
    ac9a:	bf01                	j	abaa <__subsf3+0xca>
    ac9c:	40d80733          	sub	a4,a6,a3
    aca0:	10069563          	bnez	a3,adaa <__subsf3+0x2ca>
    aca4:	140f0d63          	beqz	t5,adfe <__subsf3+0x31e>
    aca8:	177d                	addi	a4,a4,-1
    acaa:	1a070363          	beqz	a4,ae50 <__subsf3+0x370>
    acae:	0ff00793          	li	a5,255
    acb2:	10f81463          	bne	a6,a5,adba <__subsf3+0x2da>
    acb6:	84ae                	mv	s1,a1
    acb8:	8e32                	mv	t3,a2
    acba:	060e0f63          	beqz	t3,ad38 <__subsf3+0x258>
    acbe:	4e81                	li	t4,0
    acc0:	0ff00693          	li	a3,255
    acc4:	004007b7          	lui	a5,0x400
    acc8:	bf11                	j	abdc <__subsf3+0xfc>
    acca:	c939                	beqz	a0,ad20 <__subsf3+0x240>
    accc:	18fd                	addi	a7,a7,-1
    acce:	00af07b3          	add	a5,t5,a0
    acd2:	fa0883e3          	beqz	a7,ac78 <__subsf3+0x198>
    acd6:	0ff00793          	li	a5,255
    acda:	f8f690e3          	bne	a3,a5,ac5a <__subsf3+0x17a>
    acde:	bff1                	j	acba <__subsf3+0x1da>
    ace0:	08089963          	bnez	a7,ad72 <__subsf3+0x292>
    ace4:	00168913          	addi	s2,a3,1 # 7e000001 <__freertos_irq_stack_top+0x5dff8001>
    ace8:	0fe97713          	andi	a4,s2,254
    acec:	12071663          	bnez	a4,ae18 <__subsf3+0x338>
    acf0:	10069b63          	bnez	a3,ae06 <__subsf3+0x326>
    acf4:	160f0363          	beqz	t5,ae5a <__subsf3+0x37a>
    acf8:	ee0502e3          	beqz	a0,abdc <__subsf3+0xfc>
    acfc:	00af07b3          	add	a5,t5,a0
    ad00:	00579713          	slli	a4,a5,0x5
    ad04:	4901                	li	s2,0
    ad06:	00075763          	bgez	a4,ad14 <__subsf3+0x234>
    ad0a:	fc000737          	lui	a4,0xfc000
    ad0e:	177d                	addi	a4,a4,-1
    ad10:	8ff9                	and	a5,a5,a4
    ad12:	4905                	li	s2,1
    ad14:	0077f713          	andi	a4,a5,7
    ad18:	e8071ce3          	bnez	a4,abb0 <__subsf3+0xd0>
    ad1c:	0037de13          	srli	t3,a5,0x3
    ad20:	0ff00793          	li	a5,255
    ad24:	f8f90be3          	beq	s2,a5,acba <__subsf3+0x1da>
    ad28:	009e1793          	slli	a5,t3,0x9
    ad2c:	83a5                	srli	a5,a5,0x9
    ad2e:	0ff97693          	andi	a3,s2,255
    ad32:	0014fe93          	andi	t4,s1,1
    ad36:	b55d                	j	abdc <__subsf3+0xfc>
    ad38:	0014fe93          	andi	t4,s1,1
    ad3c:	0ff00693          	li	a3,255
    ad40:	4781                	li	a5,0
    ad42:	bd69                	j	abdc <__subsf3+0xfc>
    ad44:	fc000737          	lui	a4,0xfc000
    ad48:	177d                	addi	a4,a4,-1
    ad4a:	8ff9                	and	a5,a5,a4
    ad4c:	0077f713          	andi	a4,a5,7
    ad50:	40a90933          	sub	s2,s2,a0
    ad54:	e4071ee3          	bnez	a4,abb0 <__subsf3+0xd0>
    ad58:	b7d1                	j	ad1c <__subsf3+0x23c>
    ad5a:	40af0433          	sub	s0,t5,a0
    ad5e:	00541793          	slli	a5,s0,0x5
    ad62:	0c07c363          	bltz	a5,ae28 <__subsf3+0x348>
    ad66:	e0041ce3          	bnez	s0,ab7e <__subsf3+0x9e>
    ad6a:	4e81                	li	t4,0
    ad6c:	4681                	li	a3,0
    ad6e:	4781                	li	a5,0
    ad70:	b5b5                	j	abdc <__subsf3+0xfc>
    ad72:	40d80733          	sub	a4,a6,a3
    ad76:	c6b5                	beqz	a3,ade2 <__subsf3+0x302>
    ad78:	0ff00793          	li	a5,255
    ad7c:	f2f80ee3          	beq	a6,a5,acb8 <__subsf3+0x1d8>
    ad80:	040007b7          	lui	a5,0x4000
    ad84:	00ff6f33          	or	t5,t5,a5
    ad88:	47ed                	li	a5,27
    ad8a:	0ce7cd63          	blt	a5,a4,ae64 <__subsf3+0x384>
    ad8e:	02000793          	li	a5,32
    ad92:	8f99                	sub	a5,a5,a4
    ad94:	00ff17b3          	sll	a5,t5,a5
    ad98:	00ef5733          	srl	a4,t5,a4
    ad9c:	00f037b3          	snez	a5,a5
    ada0:	8f5d                	or	a4,a4,a5
    ada2:	00a707b3          	add	a5,a4,a0
    ada6:	8942                	mv	s2,a6
    ada8:	bdc1                	j	ac78 <__subsf3+0x198>
    adaa:	0ff00793          	li	a5,255
    adae:	f0f804e3          	beq	a6,a5,acb6 <__subsf3+0x1d6>
    adb2:	040007b7          	lui	a5,0x4000
    adb6:	00ff6f33          	or	t5,t5,a5
    adba:	47ed                	li	a5,27
    adbc:	08e7c263          	blt	a5,a4,ae40 <__subsf3+0x360>
    adc0:	02000793          	li	a5,32
    adc4:	8f99                	sub	a5,a5,a4
    adc6:	00ff17b3          	sll	a5,t5,a5
    adca:	00ef5733          	srl	a4,t5,a4
    adce:	00f037b3          	snez	a5,a5
    add2:	8fd9                	or	a5,a5,a4
    add4:	40f507b3          	sub	a5,a0,a5
    add8:	8942                	mv	s2,a6
    adda:	84ae                	mv	s1,a1
    addc:	bb49                	j	ab6e <__subsf3+0x8e>
    adde:	4785                	li	a5,1
    ade0:	b369                	j	ab6a <__subsf3+0x8a>
    ade2:	060f0e63          	beqz	t5,ae5e <__subsf3+0x37e>
    ade6:	177d                	addi	a4,a4,-1
    ade8:	00af07b3          	add	a5,t5,a0
    adec:	8942                	mv	s2,a6
    adee:	e80705e3          	beqz	a4,ac78 <__subsf3+0x198>
    adf2:	0ff00793          	li	a5,255
    adf6:	f8f819e3          	bne	a6,a5,ad88 <__subsf3+0x2a8>
    adfa:	8e32                	mv	t3,a2
    adfc:	bd7d                	j	acba <__subsf3+0x1da>
    adfe:	8e32                	mv	t3,a2
    ae00:	8942                	mv	s2,a6
    ae02:	84ae                	mv	s1,a1
    ae04:	bf31                	j	ad20 <__subsf3+0x240>
    ae06:	ea0f09e3          	beqz	t5,acb8 <__subsf3+0x1d8>
    ae0a:	ea0508e3          	beqz	a0,acba <__subsf3+0x1da>
    ae0e:	bd45                	j	acbe <__subsf3+0x1de>
    ae10:	cd0d                	beqz	a0,ae4a <__subsf3+0x36a>
    ae12:	8eae                	mv	t4,a1
    ae14:	87b2                	mv	a5,a2
    ae16:	b3d9                	j	abdc <__subsf3+0xfc>
    ae18:	0ff00793          	li	a5,255
    ae1c:	f2f900e3          	beq	s2,a5,ad3c <__subsf3+0x25c>
    ae20:	00af07b3          	add	a5,t5,a0
    ae24:	8385                	srli	a5,a5,0x1
    ae26:	b5fd                	j	ad14 <__subsf3+0x234>
    ae28:	41e50433          	sub	s0,a0,t5
    ae2c:	84ae                	mv	s1,a1
    ae2e:	bb81                	j	ab7e <__subsf3+0x9e>
    ae30:	fc0f1de3          	bnez	t5,ae0a <__subsf3+0x32a>
    ae34:	e80505e3          	beqz	a0,acbe <__subsf3+0x1de>
    ae38:	84ae                	mv	s1,a1
    ae3a:	bdbd                	j	acb8 <__subsf3+0x1d8>
    ae3c:	4785                	li	a5,1
    ae3e:	bd25                	j	ac76 <__subsf3+0x196>
    ae40:	4785                	li	a5,1
    ae42:	bf49                	j	add4 <__subsf3+0x2f4>
    ae44:	4901                	li	s2,0
    ae46:	ec0797e3          	bnez	a5,ad14 <__subsf3+0x234>
    ae4a:	4e81                	li	t4,0
    ae4c:	4781                	li	a5,0
    ae4e:	b379                	j	abdc <__subsf3+0xfc>
    ae50:	41e507b3          	sub	a5,a0,t5
    ae54:	8942                	mv	s2,a6
    ae56:	84ae                	mv	s1,a1
    ae58:	bb19                	j	ab6e <__subsf3+0x8e>
    ae5a:	87b2                	mv	a5,a2
    ae5c:	b341                	j	abdc <__subsf3+0xfc>
    ae5e:	8e32                	mv	t3,a2
    ae60:	8942                	mv	s2,a6
    ae62:	bd7d                	j	ad20 <__subsf3+0x240>
    ae64:	4705                	li	a4,1
    ae66:	bf35                	j	ada2 <__subsf3+0x2c2>

0000ae68 <__unordsf2>:
    ae68:	01755693          	srli	a3,a0,0x17
    ae6c:	008007b7          	lui	a5,0x800
    ae70:	17fd                	addi	a5,a5,-1
    ae72:	0175d613          	srli	a2,a1,0x17
    ae76:	0ff6f693          	andi	a3,a3,255
    ae7a:	0ff00813          	li	a6,255
    ae7e:	00a7f733          	and	a4,a5,a0
    ae82:	0ff67613          	andi	a2,a2,255
    ae86:	8fed                	and	a5,a5,a1
    ae88:	01068b63          	beq	a3,a6,ae9e <__unordsf2+0x36>
    ae8c:	0ff00713          	li	a4,255
    ae90:	4501                	li	a0,0
    ae92:	00e60363          	beq	a2,a4,ae98 <__unordsf2+0x30>
    ae96:	8082                	ret
    ae98:	00f03533          	snez	a0,a5
    ae9c:	8082                	ret
    ae9e:	4505                	li	a0,1
    aea0:	d775                	beqz	a4,ae8c <__unordsf2+0x24>
    aea2:	8082                	ret

0000aea4 <__fixsfsi>:
    aea4:	00800637          	lui	a2,0x800
    aea8:	01755713          	srli	a4,a0,0x17
    aeac:	fff60793          	addi	a5,a2,-1 # 7fffff <_data_lma+0x7f375f>
    aeb0:	0ff77713          	andi	a4,a4,255
    aeb4:	07e00593          	li	a1,126
    aeb8:	00a7f6b3          	and	a3,a5,a0
    aebc:	01f55793          	srli	a5,a0,0x1f
    aec0:	00e5fc63          	bgeu	a1,a4,aed8 <__fixsfsi+0x34>
    aec4:	09d00593          	li	a1,157
    aec8:	00e5fa63          	bgeu	a1,a4,aedc <__fixsfsi+0x38>
    aecc:	80000537          	lui	a0,0x80000
    aed0:	fff54513          	not	a0,a0
    aed4:	953e                	add	a0,a0,a5
    aed6:	8082                	ret
    aed8:	4501                	li	a0,0
    aeda:	8082                	ret
    aedc:	09500593          	li	a1,149
    aee0:	8ed1                	or	a3,a3,a2
    aee2:	00e5cd63          	blt	a1,a4,aefc <__fixsfsi+0x58>
    aee6:	09600613          	li	a2,150
    aeea:	40e60733          	sub	a4,a2,a4
    aeee:	00e6d733          	srl	a4,a3,a4
    aef2:	40e00533          	neg	a0,a4
    aef6:	f3f5                	bnez	a5,aeda <__fixsfsi+0x36>
    aef8:	853a                	mv	a0,a4
    aefa:	8082                	ret
    aefc:	f6a70713          	addi	a4,a4,-150 # fbffff6a <__freertos_irq_stack_top+0xdbff7f6a>
    af00:	00e69733          	sll	a4,a3,a4
    af04:	b7fd                	j	aef2 <__fixsfsi+0x4e>

0000af06 <__fixunssfsi>:
    af06:	01755713          	srli	a4,a0,0x17
    af0a:	00800637          	lui	a2,0x800
    af0e:	fff60793          	addi	a5,a2,-1 # 7fffff <_data_lma+0x7f375f>
    af12:	0ff77713          	andi	a4,a4,255
    af16:	07e00593          	li	a1,126
    af1a:	00a7f6b3          	and	a3,a5,a0
    af1e:	01f55793          	srli	a5,a0,0x1f
    af22:	4501                	li	a0,0
    af24:	00e5f463          	bgeu	a1,a4,af2c <__fixunssfsi+0x26>
    af28:	c399                	beqz	a5,af2e <__fixunssfsi+0x28>
    af2a:	8082                	ret
    af2c:	8082                	ret
    af2e:	09e00793          	li	a5,158
    af32:	557d                	li	a0,-1
    af34:	fee7ebe3          	bltu	a5,a4,af2a <__fixunssfsi+0x24>
    af38:	09500593          	li	a1,149
    af3c:	00c6e7b3          	or	a5,a3,a2
    af40:	00e5d763          	bge	a1,a4,af4e <__fixunssfsi+0x48>
    af44:	f6a70713          	addi	a4,a4,-150
    af48:	00e79533          	sll	a0,a5,a4
    af4c:	8082                	ret
    af4e:	09600513          	li	a0,150
    af52:	40e50733          	sub	a4,a0,a4
    af56:	00e7d533          	srl	a0,a5,a4
    af5a:	8082                	ret

0000af5c <__floatsisf>:
    af5c:	1141                	addi	sp,sp,-16
    af5e:	c606                	sw	ra,12(sp)
    af60:	c422                	sw	s0,8(sp)
    af62:	c226                	sw	s1,4(sp)
    af64:	cd0d                	beqz	a0,af9e <__floatsisf+0x42>
    af66:	41f55793          	srai	a5,a0,0x1f
    af6a:	00a7c433          	xor	s0,a5,a0
    af6e:	8c1d                	sub	s0,s0,a5
    af70:	84aa                	mv	s1,a0
    af72:	8522                	mv	a0,s0
    af74:	2e49                	jal	b306 <__clzsi2>
    af76:	09e00793          	li	a5,158
    af7a:	40a78733          	sub	a4,a5,a0
    af7e:	09600793          	li	a5,150
    af82:	80fd                	srli	s1,s1,0x1f
    af84:	02e7cc63          	blt	a5,a4,afbc <__floatsisf+0x60>
    af88:	46a1                	li	a3,8
    af8a:	0ff77793          	andi	a5,a4,255
    af8e:	00a6d563          	bge	a3,a0,af98 <__floatsisf+0x3c>
    af92:	1561                	addi	a0,a0,-8
    af94:	00a41433          	sll	s0,s0,a0
    af98:	0426                	slli	s0,s0,0x9
    af9a:	8025                	srli	s0,s0,0x9
    af9c:	a021                	j	afa4 <__floatsisf+0x48>
    af9e:	4481                	li	s1,0
    afa0:	4781                	li	a5,0
    afa2:	4401                	li	s0,0
    afa4:	0426                	slli	s0,s0,0x9
    afa6:	00945513          	srli	a0,s0,0x9
    afaa:	40b2                	lw	ra,12(sp)
    afac:	4422                	lw	s0,8(sp)
    afae:	07de                	slli	a5,a5,0x17
    afb0:	04fe                	slli	s1,s1,0x1f
    afb2:	8d5d                	or	a0,a0,a5
    afb4:	8d45                	or	a0,a0,s1
    afb6:	4492                	lw	s1,4(sp)
    afb8:	0141                	addi	sp,sp,16
    afba:	8082                	ret
    afbc:	09900793          	li	a5,153
    afc0:	00e7dd63          	bge	a5,a4,afda <__floatsisf+0x7e>
    afc4:	01b50793          	addi	a5,a0,27 # 8000001b <__freertos_irq_stack_top+0x5fff801b>
    afc8:	4695                	li	a3,5
    afca:	00f417b3          	sll	a5,s0,a5
    afce:	8e89                	sub	a3,a3,a0
    afd0:	00d45433          	srl	s0,s0,a3
    afd4:	00f037b3          	snez	a5,a5
    afd8:	8c5d                	or	s0,s0,a5
    afda:	4795                	li	a5,5
    afdc:	00a7d663          	bge	a5,a0,afe8 <__floatsisf+0x8c>
    afe0:	ffb50793          	addi	a5,a0,-5
    afe4:	00f41433          	sll	s0,s0,a5
    afe8:	fc0006b7          	lui	a3,0xfc000
    afec:	16fd                	addi	a3,a3,-1
    afee:	00747793          	andi	a5,s0,7
    aff2:	00d47633          	and	a2,s0,a3
    aff6:	c385                	beqz	a5,b016 <__floatsisf+0xba>
    aff8:	00f47793          	andi	a5,s0,15
    affc:	4591                	li	a1,4
    affe:	00b78c63          	beq	a5,a1,b016 <__floatsisf+0xba>
    b002:	0611                	addi	a2,a2,4
    b004:	00561793          	slli	a5,a2,0x5
    b008:	0007d763          	bgez	a5,b016 <__floatsisf+0xba>
    b00c:	09f00793          	li	a5,159
    b010:	8e75                	and	a2,a2,a3
    b012:	40a78733          	sub	a4,a5,a0
    b016:	00661413          	slli	s0,a2,0x6
    b01a:	8025                	srli	s0,s0,0x9
    b01c:	0ff77793          	andi	a5,a4,255
    b020:	b751                	j	afa4 <__floatsisf+0x48>

0000b022 <__floatunsisf>:
    b022:	1141                	addi	sp,sp,-16
    b024:	c606                	sw	ra,12(sp)
    b026:	c422                	sw	s0,8(sp)
    b028:	cd15                	beqz	a0,b064 <__floatunsisf+0x42>
    b02a:	842a                	mv	s0,a0
    b02c:	2ce9                	jal	b306 <__clzsi2>
    b02e:	09e00793          	li	a5,158
    b032:	40a78733          	sub	a4,a5,a0
    b036:	09600793          	li	a5,150
    b03a:	04e7c063          	blt	a5,a4,b07a <__floatunsisf+0x58>
    b03e:	46a1                	li	a3,8
    b040:	0ff77793          	andi	a5,a4,255
    b044:	00a6d563          	bge	a3,a0,b04e <__floatunsisf+0x2c>
    b048:	1561                	addi	a0,a0,-8
    b04a:	00a41433          	sll	s0,s0,a0
    b04e:	0426                	slli	s0,s0,0x9
    b050:	8025                	srli	s0,s0,0x9
    b052:	0426                	slli	s0,s0,0x9
    b054:	00945513          	srli	a0,s0,0x9
    b058:	40b2                	lw	ra,12(sp)
    b05a:	4422                	lw	s0,8(sp)
    b05c:	07de                	slli	a5,a5,0x17
    b05e:	8d5d                	or	a0,a0,a5
    b060:	0141                	addi	sp,sp,16
    b062:	8082                	ret
    b064:	4401                	li	s0,0
    b066:	0426                	slli	s0,s0,0x9
    b068:	00945513          	srli	a0,s0,0x9
    b06c:	40b2                	lw	ra,12(sp)
    b06e:	4422                	lw	s0,8(sp)
    b070:	4781                	li	a5,0
    b072:	07de                	slli	a5,a5,0x17
    b074:	8d5d                	or	a0,a0,a5
    b076:	0141                	addi	sp,sp,16
    b078:	8082                	ret
    b07a:	09900793          	li	a5,153
    b07e:	00e7dd63          	bge	a5,a4,b098 <__floatunsisf+0x76>
    b082:	01b50793          	addi	a5,a0,27
    b086:	4695                	li	a3,5
    b088:	00f417b3          	sll	a5,s0,a5
    b08c:	8e89                	sub	a3,a3,a0
    b08e:	00f037b3          	snez	a5,a5
    b092:	00d45433          	srl	s0,s0,a3
    b096:	8c5d                	or	s0,s0,a5
    b098:	4795                	li	a5,5
    b09a:	00a7d663          	bge	a5,a0,b0a6 <__floatunsisf+0x84>
    b09e:	ffb50793          	addi	a5,a0,-5
    b0a2:	00f41433          	sll	s0,s0,a5
    b0a6:	fc0006b7          	lui	a3,0xfc000
    b0aa:	16fd                	addi	a3,a3,-1
    b0ac:	00747793          	andi	a5,s0,7
    b0b0:	00d47633          	and	a2,s0,a3
    b0b4:	c385                	beqz	a5,b0d4 <__floatunsisf+0xb2>
    b0b6:	00f47793          	andi	a5,s0,15
    b0ba:	4591                	li	a1,4
    b0bc:	00b78c63          	beq	a5,a1,b0d4 <__floatunsisf+0xb2>
    b0c0:	0611                	addi	a2,a2,4
    b0c2:	00561793          	slli	a5,a2,0x5
    b0c6:	0007d763          	bgez	a5,b0d4 <__floatunsisf+0xb2>
    b0ca:	09f00793          	li	a5,159
    b0ce:	8e75                	and	a2,a2,a3
    b0d0:	40a78733          	sub	a4,a5,a0
    b0d4:	00661413          	slli	s0,a2,0x6
    b0d8:	8025                	srli	s0,s0,0x9
    b0da:	0426                	slli	s0,s0,0x9
    b0dc:	00945513          	srli	a0,s0,0x9
    b0e0:	40b2                	lw	ra,12(sp)
    b0e2:	4422                	lw	s0,8(sp)
    b0e4:	0ff77793          	andi	a5,a4,255
    b0e8:	07de                	slli	a5,a5,0x17
    b0ea:	8d5d                	or	a0,a0,a5
    b0ec:	0141                	addi	sp,sp,16
    b0ee:	8082                	ret

0000b0f0 <__extendsfdf2>:
    b0f0:	01755713          	srli	a4,a0,0x17
    b0f4:	0ff77713          	andi	a4,a4,255
    b0f8:	1141                	addi	sp,sp,-16
    b0fa:	00170793          	addi	a5,a4,1
    b0fe:	c422                	sw	s0,8(sp)
    b100:	c226                	sw	s1,4(sp)
    b102:	00951413          	slli	s0,a0,0x9
    b106:	c606                	sw	ra,12(sp)
    b108:	0fe7f793          	andi	a5,a5,254
    b10c:	8025                	srli	s0,s0,0x9
    b10e:	01f55493          	srli	s1,a0,0x1f
    b112:	c785                	beqz	a5,b13a <__extendsfdf2+0x4a>
    b114:	00345793          	srli	a5,s0,0x3
    b118:	38070713          	addi	a4,a4,896
    b11c:	0476                	slli	s0,s0,0x1d
    b11e:	07b2                	slli	a5,a5,0xc
    b120:	0752                	slli	a4,a4,0x14
    b122:	83b1                	srli	a5,a5,0xc
    b124:	01f49513          	slli	a0,s1,0x1f
    b128:	8fd9                	or	a5,a5,a4
    b12a:	8fc9                	or	a5,a5,a0
    b12c:	40b2                	lw	ra,12(sp)
    b12e:	8522                	mv	a0,s0
    b130:	4422                	lw	s0,8(sp)
    b132:	4492                	lw	s1,4(sp)
    b134:	85be                	mv	a1,a5
    b136:	0141                	addi	sp,sp,16
    b138:	8082                	ret
    b13a:	eb05                	bnez	a4,b16a <__extendsfdf2+0x7a>
    b13c:	c439                	beqz	s0,b18a <__extendsfdf2+0x9a>
    b13e:	8522                	mv	a0,s0
    b140:	22d9                	jal	b306 <__clzsi2>
    b142:	47a9                	li	a5,10
    b144:	04a7c663          	blt	a5,a0,b190 <__extendsfdf2+0xa0>
    b148:	472d                	li	a4,11
    b14a:	8f09                	sub	a4,a4,a0
    b14c:	01550793          	addi	a5,a0,21
    b150:	00e45733          	srl	a4,s0,a4
    b154:	00f41433          	sll	s0,s0,a5
    b158:	00c71793          	slli	a5,a4,0xc
    b15c:	38900713          	li	a4,905
    b160:	8f09                	sub	a4,a4,a0
    b162:	83b1                	srli	a5,a5,0xc
    b164:	7ff77713          	andi	a4,a4,2047
    b168:	bf5d                	j	b11e <__extendsfdf2+0x2e>
    b16a:	cc01                	beqz	s0,b182 <__extendsfdf2+0x92>
    b16c:	00345713          	srli	a4,s0,0x3
    b170:	000807b7          	lui	a5,0x80
    b174:	8fd9                	or	a5,a5,a4
    b176:	07b2                	slli	a5,a5,0xc
    b178:	0476                	slli	s0,s0,0x1d
    b17a:	83b1                	srli	a5,a5,0xc
    b17c:	7ff00713          	li	a4,2047
    b180:	bf79                	j	b11e <__extendsfdf2+0x2e>
    b182:	7ff00713          	li	a4,2047
    b186:	4781                	li	a5,0
    b188:	bf59                	j	b11e <__extendsfdf2+0x2e>
    b18a:	4701                	li	a4,0
    b18c:	4781                	li	a5,0
    b18e:	bf41                	j	b11e <__extendsfdf2+0x2e>
    b190:	ff550713          	addi	a4,a0,-11
    b194:	00e41733          	sll	a4,s0,a4
    b198:	4401                	li	s0,0
    b19a:	bf7d                	j	b158 <__extendsfdf2+0x68>

0000b19c <__truncdfsf2>:
    b19c:	0145d693          	srli	a3,a1,0x14
    b1a0:	00c59793          	slli	a5,a1,0xc
    b1a4:	7ff6f693          	andi	a3,a3,2047
    b1a8:	83b1                	srli	a5,a5,0xc
    b1aa:	00168613          	addi	a2,a3,1 # fc000001 <__freertos_irq_stack_top+0xdbff8001>
    b1ae:	078e                	slli	a5,a5,0x3
    b1b0:	01d55713          	srli	a4,a0,0x1d
    b1b4:	7fe67613          	andi	a2,a2,2046
    b1b8:	81fd                	srli	a1,a1,0x1f
    b1ba:	8f5d                	or	a4,a4,a5
    b1bc:	00351893          	slli	a7,a0,0x3
    b1c0:	ce35                	beqz	a2,b23c <__truncdfsf2+0xa0>
    b1c2:	c8068813          	addi	a6,a3,-896
    b1c6:	0fe00793          	li	a5,254
    b1ca:	0107dd63          	bge	a5,a6,b1e4 <__truncdfsf2+0x48>
    b1ce:	4781                	li	a5,0
    b1d0:	00979513          	slli	a0,a5,0x9
    b1d4:	0ff00693          	li	a3,255
    b1d8:	06de                	slli	a3,a3,0x17
    b1da:	8125                	srli	a0,a0,0x9
    b1dc:	05fe                	slli	a1,a1,0x1f
    b1de:	8d55                	or	a0,a0,a3
    b1e0:	8d4d                	or	a0,a0,a1
    b1e2:	8082                	ret
    b1e4:	0b005563          	blez	a6,b28e <__truncdfsf2+0xf2>
    b1e8:	00651793          	slli	a5,a0,0x6
    b1ec:	070e                	slli	a4,a4,0x3
    b1ee:	00f037b3          	snez	a5,a5
    b1f2:	8fd9                	or	a5,a5,a4
    b1f4:	01d8d893          	srli	a7,a7,0x1d
    b1f8:	0117e7b3          	or	a5,a5,a7
    b1fc:	0077f713          	andi	a4,a5,7
    b200:	10070163          	beqz	a4,b302 <__truncdfsf2+0x166>
    b204:	00f7f713          	andi	a4,a5,15
    b208:	4691                	li	a3,4
    b20a:	00d70363          	beq	a4,a3,b210 <__truncdfsf2+0x74>
    b20e:	0791                	addi	a5,a5,4
    b210:	04000737          	lui	a4,0x4000
    b214:	8f7d                	and	a4,a4,a5
    b216:	c775                	beqz	a4,b302 <__truncdfsf2+0x166>
    b218:	00180713          	addi	a4,a6,1 # 100001 <_data_lma+0xf3761>
    b21c:	0ff00613          	li	a2,255
    b220:	0ff77693          	andi	a3,a4,255
    b224:	fac705e3          	beq	a4,a2,b1ce <__truncdfsf2+0x32>
    b228:	079a                	slli	a5,a5,0x6
    b22a:	83a5                	srli	a5,a5,0x9
    b22c:	00979513          	slli	a0,a5,0x9
    b230:	06de                	slli	a3,a3,0x17
    b232:	8125                	srli	a0,a0,0x9
    b234:	05fe                	slli	a1,a1,0x1f
    b236:	8d55                	or	a0,a0,a3
    b238:	8d4d                	or	a0,a0,a1
    b23a:	8082                	ret
    b23c:	011767b3          	or	a5,a4,a7
    b240:	ee99                	bnez	a3,b25e <__truncdfsf2+0xc2>
    b242:	cf85                	beqz	a5,b27a <__truncdfsf2+0xde>
    b244:	4795                	li	a5,5
    b246:	079a                	slli	a5,a5,0x6
    b248:	83a5                	srli	a5,a5,0x9
    b24a:	00979513          	slli	a0,a5,0x9
    b24e:	0ff6f693          	andi	a3,a3,255
    b252:	06de                	slli	a3,a3,0x17
    b254:	8125                	srli	a0,a0,0x9
    b256:	05fe                	slli	a1,a1,0x1f
    b258:	8d55                	or	a0,a0,a3
    b25a:	8d4d                	or	a0,a0,a1
    b25c:	8082                	ret
    b25e:	dba5                	beqz	a5,b1ce <__truncdfsf2+0x32>
    b260:	004007b7          	lui	a5,0x400
    b264:	00979513          	slli	a0,a5,0x9
    b268:	0ff00693          	li	a3,255
    b26c:	06de                	slli	a3,a3,0x17
    b26e:	4581                	li	a1,0
    b270:	8125                	srli	a0,a0,0x9
    b272:	05fe                	slli	a1,a1,0x1f
    b274:	8d55                	or	a0,a0,a3
    b276:	8d4d                	or	a0,a0,a1
    b278:	8082                	ret
    b27a:	4781                	li	a5,0
    b27c:	00979513          	slli	a0,a5,0x9
    b280:	4681                	li	a3,0
    b282:	06de                	slli	a3,a3,0x17
    b284:	8125                	srli	a0,a0,0x9
    b286:	05fe                	slli	a1,a1,0x1f
    b288:	8d55                	or	a0,a0,a3
    b28a:	8d4d                	or	a0,a0,a1
    b28c:	8082                	ret
    b28e:	57a5                	li	a5,-23
    b290:	04f84863          	blt	a6,a5,b2e0 <__truncdfsf2+0x144>
    b294:	47f9                	li	a5,30
    b296:	00800637          	lui	a2,0x800
    b29a:	410787b3          	sub	a5,a5,a6
    b29e:	457d                	li	a0,31
    b2a0:	8e59                	or	a2,a2,a4
    b2a2:	04f55163          	bge	a0,a5,b2e4 <__truncdfsf2+0x148>
    b2a6:	5779                	li	a4,-2
    b2a8:	41070733          	sub	a4,a4,a6
    b2ac:	02000513          	li	a0,32
    b2b0:	00e65733          	srl	a4,a2,a4
    b2b4:	00a78863          	beq	a5,a0,b2c4 <__truncdfsf2+0x128>
    b2b8:	ca268693          	addi	a3,a3,-862
    b2bc:	00d616b3          	sll	a3,a2,a3
    b2c0:	00d8e8b3          	or	a7,a7,a3
    b2c4:	011037b3          	snez	a5,a7
    b2c8:	8fd9                	or	a5,a5,a4
    b2ca:	0077f713          	andi	a4,a5,7
    b2ce:	4801                	li	a6,0
    b2d0:	fb15                	bnez	a4,b204 <__truncdfsf2+0x68>
    b2d2:	00579713          	slli	a4,a5,0x5
    b2d6:	4685                	li	a3,1
    b2d8:	f40748e3          	bltz	a4,b228 <__truncdfsf2+0x8c>
    b2dc:	4681                	li	a3,0
    b2de:	b7a5                	j	b246 <__truncdfsf2+0xaa>
    b2e0:	4681                	li	a3,0
    b2e2:	b78d                	j	b244 <__truncdfsf2+0xa8>
    b2e4:	c8268693          	addi	a3,a3,-894
    b2e8:	00d89733          	sll	a4,a7,a3
    b2ec:	00e03733          	snez	a4,a4
    b2f0:	00d616b3          	sll	a3,a2,a3
    b2f4:	00f8d8b3          	srl	a7,a7,a5
    b2f8:	00d767b3          	or	a5,a4,a3
    b2fc:	00f8e7b3          	or	a5,a7,a5
    b300:	b7e9                	j	b2ca <__truncdfsf2+0x12e>
    b302:	86c2                	mv	a3,a6
    b304:	b789                	j	b246 <__truncdfsf2+0xaa>

0000b306 <__clzsi2>:
    b306:	67c1                	lui	a5,0x10
    b308:	02f57c63          	bgeu	a0,a5,b340 <__clzsi2+0x3a>
    b30c:	0ff00793          	li	a5,255
    b310:	02000713          	li	a4,32
    b314:	00a7eb63          	bltu	a5,a0,b32a <__clzsi2+0x24>
    b318:	00001797          	auipc	a5,0x1
    b31c:	48878793          	addi	a5,a5,1160 # c7a0 <__clz_tab>
    b320:	97aa                	add	a5,a5,a0
    b322:	2388                	lbu	a0,0(a5)
    b324:	40a70533          	sub	a0,a4,a0
    b328:	8082                	ret
    b32a:	8121                	srli	a0,a0,0x8
    b32c:	00001797          	auipc	a5,0x1
    b330:	47478793          	addi	a5,a5,1140 # c7a0 <__clz_tab>
    b334:	97aa                	add	a5,a5,a0
    b336:	2388                	lbu	a0,0(a5)
    b338:	4761                	li	a4,24
    b33a:	40a70533          	sub	a0,a4,a0
    b33e:	8082                	ret
    b340:	010007b7          	lui	a5,0x1000
    b344:	00f56d63          	bltu	a0,a5,b35e <__clzsi2+0x58>
    b348:	8161                	srli	a0,a0,0x18
    b34a:	00001797          	auipc	a5,0x1
    b34e:	45678793          	addi	a5,a5,1110 # c7a0 <__clz_tab>
    b352:	97aa                	add	a5,a5,a0
    b354:	2388                	lbu	a0,0(a5)
    b356:	4721                	li	a4,8
    b358:	40a70533          	sub	a0,a4,a0
    b35c:	8082                	ret
    b35e:	8141                	srli	a0,a0,0x10
    b360:	00001797          	auipc	a5,0x1
    b364:	44078793          	addi	a5,a5,1088 # c7a0 <__clz_tab>
    b368:	97aa                	add	a5,a5,a0
    b36a:	2388                	lbu	a0,0(a5)
    b36c:	4741                	li	a4,16
    b36e:	40a70533          	sub	a0,a4,a0
    b372:	8082                	ret

0000b374 <__errno>:
    b374:	82418793          	addi	a5,gp,-2012 # 200000fc <_impure_ptr>
    b378:	4388                	lw	a0,0(a5)
    b37a:	8082                	ret

0000b37c <memcmp>:
    b37c:	4701                	li	a4,0
    b37e:	00e61463          	bne	a2,a4,b386 <memcmp+0xa>
    b382:	4501                	li	a0,0
    b384:	8082                	ret
    b386:	00e507b3          	add	a5,a0,a4
    b38a:	0705                	addi	a4,a4,1
    b38c:	00e586b3          	add	a3,a1,a4
    b390:	239c                	lbu	a5,0(a5)
    b392:	fff6c683          	lbu	a3,-1(a3)
    b396:	fed784e3          	beq	a5,a3,b37e <memcmp+0x2>
    b39a:	40d78533          	sub	a0,a5,a3
    b39e:	8082                	ret

0000b3a0 <memcpy>:
    b3a0:	00a5c7b3          	xor	a5,a1,a0
    b3a4:	8b8d                	andi	a5,a5,3
    b3a6:	00c50733          	add	a4,a0,a2
    b3aa:	e781                	bnez	a5,b3b2 <memcpy+0x12>
    b3ac:	478d                	li	a5,3
    b3ae:	00c7ed63          	bltu	a5,a2,b3c8 <memcpy+0x28>
    b3b2:	87aa                	mv	a5,a0
    b3b4:	08e57e63          	bgeu	a0,a4,b450 <memcpy+0xb0>
    b3b8:	2194                	lbu	a3,0(a1)
    b3ba:	0785                	addi	a5,a5,1
    b3bc:	0585                	addi	a1,a1,1
    b3be:	fed78fa3          	sb	a3,-1(a5)
    b3c2:	fee7ebe3          	bltu	a5,a4,b3b8 <memcpy+0x18>
    b3c6:	8082                	ret
    b3c8:	00357693          	andi	a3,a0,3
    b3cc:	87aa                	mv	a5,a0
    b3ce:	ca89                	beqz	a3,b3e0 <memcpy+0x40>
    b3d0:	2194                	lbu	a3,0(a1)
    b3d2:	0785                	addi	a5,a5,1
    b3d4:	0585                	addi	a1,a1,1
    b3d6:	fed78fa3          	sb	a3,-1(a5)
    b3da:	0037f693          	andi	a3,a5,3
    b3de:	bfc5                	j	b3ce <memcpy+0x2e>
    b3e0:	ffc77693          	andi	a3,a4,-4
    b3e4:	fe068613          	addi	a2,a3,-32
    b3e8:	06c7f063          	bgeu	a5,a2,b448 <memcpy+0xa8>
    b3ec:	0005a383          	lw	t2,0(a1)
    b3f0:	0045a283          	lw	t0,4(a1)
    b3f4:	0085af83          	lw	t6,8(a1)
    b3f8:	00c5af03          	lw	t5,12(a1)
    b3fc:	0105ae83          	lw	t4,16(a1)
    b400:	0145ae03          	lw	t3,20(a1)
    b404:	0185a303          	lw	t1,24(a1)
    b408:	01c5a883          	lw	a7,28(a1)
    b40c:	02458593          	addi	a1,a1,36
    b410:	0077a023          	sw	t2,0(a5)
    b414:	ffc5a803          	lw	a6,-4(a1)
    b418:	0057a223          	sw	t0,4(a5)
    b41c:	01f7a423          	sw	t6,8(a5)
    b420:	01e7a623          	sw	t5,12(a5)
    b424:	01d7a823          	sw	t4,16(a5)
    b428:	01c7aa23          	sw	t3,20(a5)
    b42c:	0067ac23          	sw	t1,24(a5)
    b430:	0117ae23          	sw	a7,28(a5)
    b434:	02478793          	addi	a5,a5,36
    b438:	ff07ae23          	sw	a6,-4(a5)
    b43c:	b775                	j	b3e8 <memcpy+0x48>
    b43e:	4190                	lw	a2,0(a1)
    b440:	0791                	addi	a5,a5,4
    b442:	0591                	addi	a1,a1,4
    b444:	fec7ae23          	sw	a2,-4(a5)
    b448:	fed7ebe3          	bltu	a5,a3,b43e <memcpy+0x9e>
    b44c:	f6e7e6e3          	bltu	a5,a4,b3b8 <memcpy+0x18>
    b450:	8082                	ret
    b452:	0000                	unimp
    b454:	f2fe                	fsw	ft11,100(sp)
    b456:	f1aac4ab          	0xf1aac4ab
    b45a:	dfdf afbb dfdf      	0xdfdfafbbdfdf
    b460:	aab8                	sb	a4,18(a3)
    b462:	aaaa                	sh	a0,18(a3)
    b464:	88b0                	0x88b0
    b466:	00c7c5c3          	fmadd.s	fa1,fa5,fa2,ft0,rmm
    b46a:	0000                	unimp
    b46c:	b1d8                	sb	a4,5(a1)
    b46e:	f3b9                	bnez	a5,b3b4 <memcpy+0x14>
    b470:	b691a38b          	0xb691a38b
    b474:	b409                	j	ae76 <__unordsf2+0xe>
    b476:	00d9                	addi	ra,ra,22
    b478:	b1da                	sh	a4,36(a1)
    b47a:	f3b9                	bnez	a5,b3c0 <memcpy+0x20>
    b47c:	b691a38b          	0xb691a38b
    b480:	b4da                	sh	a4,44(s1)
    b482:	00da                	slli	ra,ra,0x16
    b484:	5078                	lw	a4,100(s0)
    b486:	4774726f          	jal	tp,530fc <_data_lma+0x4685c>
    b48a:	7465                	lui	s0,0xffff9
    b48c:	694d                	lui	s2,0x13
    b48e:	696e                	flw	fs2,216(sp)
    b490:	756d                	lui	a0,0xffffb
    b492:	456d                	li	a0,27
    b494:	6576                	flw	fa0,92(sp)
    b496:	4672                	lw	a2,28(sp)
    b498:	6572                	flw	fa0,28(sp)
    b49a:	4865                	li	a6,25
    b49c:	6165                	addi	sp,sp,112
    b49e:	5370                	lw	a2,100(a4)
    b4a0:	7a69                	lui	s4,0xffffa
    b4a2:	2065                	jal	b54a <memcpy+0x1aa>
    b4a4:	203d                	jal	b4d2 <memcpy+0x132>
    b4a6:	6425                	lui	s0,0x9
    b4a8:	0a0d                	addi	s4,s4,3
    b4aa:	0000                	unimp
    b4ac:	6179                	addi	sp,sp,464
    b4ae:	69665f77          	0x69665f77
    b4b2:	746c                	flw	fa1,108(s0)
    b4b4:	6465                	lui	s0,0x19
    b4b6:	253d                	jal	bae4 <dmp_memory+0x26c>
    b4b8:	0d66                	slli	s10,s10,0x19
    b4ba:	000a                	c.slli	zero,0x2
    b4bc:	6970                	flw	fa2,84(a0)
    b4be:	6374                	flw	fa3,68(a4)
    b4c0:	5f68                	lw	a0,124(a4)
    b4c2:	6966                	flw	fs2,88(sp)
    b4c4:	746c                	flw	fa1,108(s0)
    b4c6:	6465                	lui	s0,0x19
    b4c8:	253d                	jal	baf6 <dmp_memory+0x27e>
    b4ca:	0d66                	slli	s10,s10,0x19
    b4cc:	000a                	c.slli	zero,0x2
    b4ce:	0000                	unimp
    b4d0:	6f72                	flw	ft10,28(sp)
    b4d2:	6c6c                	flw	fa1,92(s0)
    b4d4:	665f 6c69 6574      	0x65746c69665f
    b4da:	3d64                	lbu	s1,31(a0)
    b4dc:	6625                	lui	a2,0x9
    b4de:	0a0d                	addi	s4,s4,3
    b4e0:	0000                	unimp
    b4e2:	0000                	unimp
    b4e4:	7661                	lui	a2,0xffff8
    b4e6:	795f 7761 665f      	0x665f7761795f
    b4ec:	6c69                	lui	s8,0x1a
    b4ee:	6574                	flw	fa3,76(a0)
    b4f0:	3d64                	lbu	s1,31(a0)
    b4f2:	6425                	lui	s0,0x9
    b4f4:	0a0d                	addi	s4,s4,3
    b4f6:	0000                	unimp
    b4f8:	7661                	lui	a2,0xffff8
    b4fa:	705f 7469 6863      	0x68637469705f
    b500:	665f 6c69 6574      	0x65746c69665f
    b506:	3d64                	lbu	s1,31(a0)
    b508:	6425                	lui	s0,0x9
    b50a:	0a0d                	addi	s4,s4,3
    b50c:	0000                	unimp
    b50e:	0000                	unimp
    b510:	7661                	lui	a2,0xffff8
    b512:	725f 6c6f 5f6c      	0x5f6c6c6f725f
    b518:	6966                	flw	fs2,88(sp)
    b51a:	746c                	flw	fa1,108(s0)
    b51c:	6465                	lui	s0,0x19
    b51e:	253d                	jal	bb4c <dmp_memory+0x2d4>
    b520:	0d64                	addi	s1,sp,668
    b522:	000a                	c.slli	zero,0x2
    b524:	6179                	addi	sp,sp,464
    b526:	756f5f77          	0x756f5f77
    b52a:	6574                	flw	fa3,76(a0)
    b52c:	3d72                	lhu	a2,62(a0)
    b52e:	6625                	lui	a2,0x9
    b530:	0a0d                	addi	s4,s4,3
    b532:	0000                	unimp
    b534:	6f72                	flw	ft10,28(sp)
    b536:	6c6c                	flw	fa1,92(s0)
    b538:	6f5f 7475 7265      	0x726574756f5f
    b53e:	253d                	jal	bb6c <dmp_memory+0x2f4>
    b540:	0d66                	slli	s10,s10,0x19
    b542:	000a                	c.slli	zero,0x2
    b544:	6970                	flw	fa2,84(a0)
    b546:	6374                	flw	fa3,68(a4)
    b548:	5f68                	lw	a0,124(a4)
    b54a:	6574756f          	jal	a0,533a0 <_data_lma+0x46b00>
    b54e:	3d72                	lhu	a2,62(a0)
    b550:	6625                	lui	a2,0x9
    b552:	0a0d                	addi	s4,s4,3
    b554:	0000                	unimp
    b556:	0000                	unimp
    b558:	5750                	lw	a2,44(a4)
    b55a:	314d                	jal	b1fc <__truncdfsf2+0x60>
    b55c:	253a                	lhu	a4,10(a0)
    b55e:	0d64                	addi	s1,sp,668
    b560:	000a                	c.slli	zero,0x2
    b562:	0000                	unimp
    b564:	5750                	lw	a2,44(a4)
    b566:	324d                	jal	af08 <__fixunssfsi+0x2>
    b568:	253a                	lhu	a4,10(a0)
    b56a:	0d64                	addi	s1,sp,668
    b56c:	000a                	c.slli	zero,0x2
    b56e:	0000                	unimp
    b570:	5750                	lw	a2,44(a4)
    b572:	334d                	jal	b314 <__clzsi2+0xe>
    b574:	253a                	lhu	a4,10(a0)
    b576:	0d64                	addi	s1,sp,668
    b578:	000a                	c.slli	zero,0x2
    b57a:	0000                	unimp
    b57c:	5750                	lw	a2,44(a4)
    b57e:	344d                	jal	b020 <__floatsisf+0xc4>
    b580:	253a                	lhu	a4,10(a0)
    b582:	0d64                	addi	s1,sp,668
    b584:	000a                	c.slli	zero,0x2
    b586:	0000                	unimp
    b588:	6c66                	flw	fs8,88(sp)
    b58a:	6769                	lui	a4,0x1a
    b58c:	7468                	flw	fa0,108(s0)
    b58e:	6d5f 646f 3a65      	0x3a65646f6d5f
    b594:	0d535047          	0xd535047
    b598:	0000                	unimp
    b59a:	0000                	unimp
    b59c:	6c66                	flw	fs8,88(sp)
    b59e:	6769                	lui	a4,0x1a
    b5a0:	7468                	flw	fa0,108(s0)
    b5a2:	6d5f 646f 3a65      	0x3a65646f6d5f
    b5a8:	62617453          	0x62617453
    b5ac:	656c                	flw	fa1,76(a0)
    b5ae:	000d                	c.nop	3
    b5b0:	6c66                	flw	fs8,88(sp)
    b5b2:	6769                	lui	a4,0x1a
    b5b4:	7468                	flw	fa0,108(s0)
    b5b6:	6d5f 646f 3a65      	0x3a65646f6d5f
    b5bc:	7246                	flw	ft4,112(sp)
    b5be:	6565                	lui	a0,0x19
    b5c0:	000d                	c.nop	3
    b5c2:	0000                	unimp
    b5c4:	6854                	flw	fa3,20(s0)
    b5c6:	6f72                	flw	ft10,28(sp)
    b5c8:	7474                	flw	fa3,108(s0)
    b5ca:	656c                	flw	fa1,76(a0)
    b5cc:	5520                	lw	s0,104(a0)
    b5ce:	6c6e                	flw	fs8,216(sp)
    b5d0:	656b636f          	jal	t1,c1c26 <_data_lma+0xb5386>
    b5d4:	0d64                	addi	s1,sp,668
    b5d6:	0000                	unimp
    b5d8:	6854                	flw	fa3,20(s0)
    b5da:	6f72                	flw	ft10,28(sp)
    b5dc:	7474                	flw	fa3,108(s0)
    b5de:	656c                	flw	fa1,76(a0)
    b5e0:	4c20                	lw	s0,88(s0)
    b5e2:	656b636f          	jal	t1,c1c38 <_data_lma+0xb5398>
    b5e6:	0d64                	addi	s1,sp,668
    b5e8:	0000                	unimp
    b5ea:	0000                	unimp
    b5ec:	746e6f43          	0x746e6f43
    b5f0:	6f72                	flw	ft10,28(sp)
    b5f2:	5f6c                	lw	a1,124(a4)
    b5f4:	6f6d                	lui	t5,0x1b
    b5f6:	6564                	flw	fs1,76(a0)
    b5f8:	503a                	0x503a
    b5fa:	4449                	li	s0,18
    b5fc:	0a0d                	addi	s4,s4,3
    b5fe:	0000                	unimp
    b600:	746e6f43          	0x746e6f43
    b604:	6f72                	flw	ft10,28(sp)
    b606:	5f6c                	lw	a1,124(a4)
    b608:	6f6d                	lui	t5,0x1b
    b60a:	6564                	flw	fs1,76(a0)
    b60c:	523a                	lw	tp,172(sp)
    b60e:	5741                	li	a4,-16
    b610:	0a0d                	addi	s4,s4,3
    b612:	0000                	unimp
    b614:	0000                	unimp
    b616:	0000                	unimp
    b618:	fbe76c8b          	0xfbe76c8b
    b61c:	f1a9                	bnez	a1,b55e <memcpy+0x1be>
    b61e:	3fa2                	lhu	s0,58(a5)
    b620:	0000                	unimp
    b622:	0000                	unimp
    b624:	0000                	unimp
    b626:	3fe0                	lbu	s0,31(a5)
    b628:	0000                	unimp
    b62a:	0000                	unimp
    b62c:	1800                	addi	s0,sp,48
    b62e:	4095                	li	ra,5
    b630:	0000                	unimp
    b632:	40a0                	lw	s0,64(s1)
    b634:	4000                	lw	s0,0(s0)
    b636:	459c                	lw	a5,8(a1)
    b638:	4000                	lw	s0,0(s0)
    b63a:	c59c                	sw	a5,8(a1)
    b63c:	ff00                	fsw	fs0,56(a4)
    b63e:	477f                	0x477f
    b640:	ff00                	fsw	fs0,56(a4)
    b642:	c77f                	0xc77f
    b644:	d70a                	sw	sp,172(sp)
    b646:	999a3c23          	0x999a3c23
    b64a:	4059                	c.li	zero,22
    b64c:	8000                	lbu	s0,0(sp)
    b64e:	8000453b          	0x8000453b
    b652:	5c29c53b          	0x5c29c53b
    b656:	c28f3fcf          	fnmadd.d	ft11,ft10,fs0,fs8,rup
    b65a:	3cf5                	jal	b156 <__extendsfdf2+0x66>
    b65c:	0000                	unimp
    b65e:	4040                	lw	s0,4(s0)
    b660:	cccd                	beqz	s1,b71a <memcpy+0x37a>
    b662:	3dcc                	lbu	a1,29(a1)
    b664:	51ec                	lw	a1,100(a1)
    b666:	4038                	lw	a4,64(s0)
    b668:	8f5c                	0x8f5c
    b66a:	4062                	0x4062
    b66c:	0000                	unimp
    b66e:	3f80                	lbu	s0,25(a5)
    b670:	3d75c28f          	0x3d75c28f
    b674:	851f 404b 28f6      	0x28f6404b851f
    b67a:	403c                	lw	a5,64(s0)
    b67c:	e148                	fsw	fa0,4(a0)
    b67e:	405a                	0x405a
    b680:	0000                	unimp
    b682:	4248                	lw	a0,4(a2)
    b684:	0a3d                	addi	s4,s4,15
    b686:	00003e57          	0x3e57
    b68a:	44b4                	lw	a3,72(s1)
    b68c:	4f4d                	li	t5,19
    b68e:	4f54                	lw	a3,28(a4)
    b690:	2052                	lhu	a2,4(s0)
    b692:	4e55                	li	t3,21
    b694:	4f4c                	lw	a1,28(a4)
    b696:	44454b43          	0x44454b43
    b69a:	2121                	jal	baa2 <dmp_memory+0x22a>
    b69c:	2121                	jal	baa4 <dmp_memory+0x22c>
    b69e:	0000                	unimp
    b6a0:	4f4d                	li	t5,19
    b6a2:	4f54                	lw	a3,28(a4)
    b6a4:	2052                	lhu	a2,4(s0)
    b6a6:	21214b4f          	fnmadd.s	fs6,ft2,fs2,ft4,rmm
    b6aa:	2121                	jal	bab2 <dmp_memory+0x23a>
    b6ac:	0000                	unimp
    b6ae:	0000                	unimp
    b6b0:	6175                	addi	sp,sp,368
    b6b2:	7472                	flw	fs0,60(sp)
    b6b4:	0000                	unimp
    b6b6:	0000                	unimp
    b6b8:	74666f53          	0x74666f53
    b6bc:	0000                	unimp
    b6be:	0000                	unimp
    b6c0:	746e6f63          	bltu	t3,t1,be1e <dmp_memory+0x5a6>
    b6c4:	6f72                	flw	ft10,28(sp)
    b6c6:	006c                	addi	a1,sp,12
    b6c8:	6d69                	lui	s10,0x1a
    b6ca:	0075                	c.nop	29
    b6cc:	74737953          	0x74737953
    b6d0:	6d65                	lui	s10,0x19
    b6d2:	3a6b6c43          	fmadd.d	fs8,fs6,ft6,ft7,unknown
    b6d6:	6425                	lui	s0,0x9
    b6d8:	0a0d                	addi	s4,s4,3
    b6da:	0000                	unimp
    b6dc:	3156                	lhu	a3,36(a0)
    b6de:	2e30                	lbu	a2,26(a2)
    b6e0:	2e34                	lbu	a3,26(a2)
    b6e2:	0036                	c.slli	zero,0xd
    b6e4:	7246                	flw	ft4,112(sp)
    b6e6:	6565                	lui	a0,0x19
    b6e8:	5452                	lw	s0,52(sp)
    b6ea:	4b20534f          	fnmadd.d	ft6,ft0,fs2,fs1,unknown
    b6ee:	7265                	lui	tp,0xffff9
    b6f0:	656e                	flw	fa0,216(sp)
    b6f2:	206c                	lbu	a1,6(s0)
    b6f4:	6556                	flw	fa0,84(sp)
    b6f6:	7372                	flw	ft6,60(sp)
    b6f8:	6f69                	lui	t5,0x1a
    b6fa:	3a6e                	lhu	a1,54(a2)
    b6fc:	7325                	lui	t1,0xfffe9
    b6fe:	0a0d                	addi	s4,s4,3
    b700:	0000                	unimp
    b702:	0000                	unimp
    b704:	756f6873          	csrrsi	a6,0x756,30
    b708:	646c                	flw	fa1,76(s0)
    b70a:	276e                	lhu	a1,14(a4)
    b70c:	2074                	lbu	a3,6(s0)
    b70e:	7572                	flw	fa0,60(sp)
    b710:	206e                	lhu	a1,6(s0)
    b712:	7461                	lui	s0,0xffff8
    b714:	6820                	flw	fs0,80(s0)
    b716:	7265                	lui	tp,0xffff9
    b718:	2165                	jal	bbc0 <dmp_memory+0x348>
    b71a:	0021                	c.nop	8
    b71c:	2aa8                	lbu	a0,18(a3)
    b71e:	0000                	unimp
    b720:	2ab2                	lhu	a2,18(a3)
    b722:	0000                	unimp
    b724:	2ab8                	lbu	a4,18(a3)
    b726:	0000                	unimp
    b728:	2abe                	lhu	a5,18(a3)
    b72a:	0000                	unimp
    b72c:	2ac2                	lhu	s0,20(a3)
    b72e:	0000                	unimp
    b730:	2ac6                	lhu	s1,20(a3)
	...

0000b734 <hw>:
    b734:	00d0 0400 0076 0154 fdf7 0100 0000 3080     ....v.T........0
    b744:	0000 c000 6666 6666 a666 404c 706d 2075     ....fffff.L@mpu 
    b754:	6d64 2070 6e69 7469 4f20 214b 000d 0000     dmp init OK!....
    b764:	0000 4303 0000 4283 3333 4203 3333 4183     ...C...B33.B33.A
    b774:	6e55 7573 7070 726f 6574 2064 6f73 7466     Unsupported soft
    b784:	6177 6572 7020 6f72 7564 7463 7220 7665     ware product rev
    b794:	2520 2e64 000a 0000 7250 646f 6375 2074      %d.....Product 
    b7a4:	4449 7220 6165 2064 7361 3020 6920 646e     ID read as 0 ind
    b7b4:	6369 7461 7365 6420 7665 6369 2065 7369     icates device is
    b7c4:	6520 7469 6568 2072 6e69 6f63 706d 7461      either incompat
    b7d4:	6269 656c 6f20 2072 6e61 4d20 5550 3033     ible or an MPU30
    b7e4:	3035 002e 6148 666c 7320 6e65 6973 6974     50..Half sensiti
    b7f4:	6976 7974 7020 7261 2074 6f66 6e75 2e64     vity part found.
    b804:	0000 0000 0000 41c8 147b 3eae 5a1d 3f84     .......A{..>.Z.?
    b814:	0000 3780 51ec 3e38 999a 3e99 3333 3f73     ...7.Q8>...>33s?
    b824:	e354 3f85 5c29 3e0f 0000 4120 0000 42d2     T..?)\.>.. A...B

0000b834 <reg>:
    b834:	1975 0c1a 236a 1c1b 201f 7472 3b43 3841     u...j#... rtC;A8
    b844:	3a39 6c6b 6f37 2406 6e6d 0070               9:kl7o.$mnp.

0000b850 <test>:
    b850:	0083 0000 0800 0000 0100 1800 0032 0005     ............2...
    b860:	0000 4120 0000 42d2 5c29 3e0f 999a 3e99     .. A...B)\.>...>
    b870:	3333 3f73 51ec 3e38                         33s?.Q8>

0000b878 <dmp_memory>:
    b878:	0000 0070 0000 2400 0000 0200 0300 0000     ..p....$........
    b888:	6500 5400 efff 0000 80fa 0b00 8212 0100     .e.T............
    b898:	0c03 c330 8c0e e98c d514 0240 7113 8e0f     ..0.......@..q..
    b8a8:	8338 83f8 0030 83f8 8e25 83f8 0030 83f8     8...0...%...0...
    b8b8:	ffff ffff fe0f d6a9 0024 0004 821a a179     ........$.....y.
    b8c8:	0000 3c00 ffff 0000 1000 0000 8338 a26f     ...<........8.o.
    b8d8:	3e00 3003 0040 0000 ca02 09e3 803e 0000     .>.0@.......>...
    b8e8:	0020 0000 0000 0000 0040 0000 0060 0000      .......@...`...
    b8f8:	0c00 0000 0c00 6e18 0000 9206 160a dfc0     .......n........
    b908:	ffff 5602 8cfd 77d3 e1ff 96c4 c5e0 aabe     ...V...w........
    b918:	0000 0000 ffff 2b0b 0000 5716 0000 5903     .......+...W...Y
    b928:	0040 0000 0000 fa1d 0200 1d6c 0000 0000     @.........l.....
    b938:	ff3f ebdf 3e00 b6b3 0d00 7822 0000 3c2f     ?....>...."x../<
    b948:	0000 0000 1900 b542 0000 a239 0000 65b3     ......B...9....e
    b958:	0ed9 c99f cf1d 344c 0030 0000 0050 0000     ......L40...P...
    b968:	b63b e87a 6400 0000 c800 0000 0000 0000     ;.z..d..........
    b978:	0010 0000 0010 92fa 0010 5e22 0d00 9f22     .........."^..".
    b988:	0100 0000 3200 0000 46ff 0000 d463 0000     .....2...F..c...
    b998:	0010 0000 d604 0000 cc04 0000 cc04 0000     ................
    b9a8:	0000 7210 0000 4000 0000 0000 0000 0000     ...r...@........
    b9b8:	0600 0200 0500 0700 0000 0000 6400 0000     .............d..
    b9c8:	0000 0000 0000 0500 0500 6400 2000 0000     ...........d. ..
	...
    b9e0:	0000 0040 0000 0003 0000 3200 98f8 0000     ..@........2....
    b9f0:	65ff 0000 0f83 0000 9bff 00fc 0000 0000     .e..............
	...
    ba24:	0000 0010 0040 0000 0000 0600 0000 6ab2     ....@..........j
    ba34:	0200 0000 0100 83fb 6800 0000 d900 00fc     .........h......
    ba44:	f17c 83ff 0000 0000 6500 0000 6400 e803     |........e...d..
    ba54:	6400 2800 0000 2500 0000 0000 a016 0000     .d.(...%........
    ba64:	0000 0010 0000 0010 2f00 0000 0000 f401     ........./......
    ba74:	0000 0010 2800 0000 ffff 8145 ffff 72fa     .....(....E....r
	...
    ba8c:	4400 0500 0500 c6ba 4700 a278 0000 0100     .D.......Gx.....
    ba9c:	0000 0000 0000 0006 0000 1400 0000 4d25     ..............%M
    baac:	2f00 6d70 0000 ae05 0c00 d002 0000 0000     ./pm............
	...
    bac8:	1b00 0000 0000 0000 0000 0000 0000 0000     ................
    bad8:	6400 0000 0800 0000 0000 0000 0000 0000     .d..............
	...
    bb38:	1b00 0000 0000 0000 0000 0000 0e00 0e00     ................
    bb48:	0000 c70a 0400 0000 0000 3200 ffff 9cff     ...........2....
    bb58:	0000 2b0b 0000 0200 0000 0100 0000 6400     ...+...........d
    bb68:	e5ff 0000 0000 0000 0000 0000 0000 0000     ................
    bb78:	0000 0100 0000 0000 0100 0000 0000 0000     ................
    bb88:	0100 0080 0100 0080 0100 0080 2400 d326     .............$&.
	...
    bba0:	0600 1000 9600 3c00 0000 0000 0000 0000     .......<........
	...
    bbb8:	0a0c 684e cfcd 0977 1650 5967 19c6 82ce     ..Nh..w.P.gY....
	...
    bbe0:	d717 0084 0003 0000 0000 0000 0000 0000     ................
    bbf0:	93c7 9d8f 1b1e 191c 0000 0000 0000 0000     ................
	...
    bc10:	0302 8518 0000 0040 0000 0300 0000 0300     ......@.........
	...
    bc28:	0040 0000 0000 0000 0000 0000 0000 0000     @...............
	...
    bc5c:	7d67 7edf 9072 552e f64c 88e6 0000 0000     g}.~r..UL.......
	...
    bc78:	dcd8 b8b4 d8b0 abb9 f8f3 b3fa bbb7 9e8e     ................
    bc88:	f1ae f532 f11b b8b4 80b0 f197 dfa9 dfdf     ..2.............
    bc98:	dfaa dfdf aaf2 cdc5 a9c7 c90c 972c a9f1     ............,...
    bca8:	2689 6646 89b2 a999 552d b07d 8ab0 96a8     .&Ff....-U}.....
    bcb8:	5636 f176 a3ba b2b4 c080 a8b8 1197 83b2     6Vv.............
    bcc8:	ba98 f0a3 0824 1044 1864 b9b2 98b4 f183     ....$.D.d.......
    bcd8:	29a3 7d55 b5ba a3b1 9383 00f0 5028 b2f5     .)U}........(P..
    bce8:	aab6 9383 5428 f17c a3b9 9382 ba61 daa2     ....(T|.....a...
    bcf8:	dfde 81db b99a f5ae 6860 f170 bada dfa2     ........`hp.....
    bd08:	bad9 faa2 a3b9 9282 31db a2ba bad9 f8a2     .........1......
    bd18:	85df d0a4 bbc1 83ad c5c2 b8c7 dfa2 dfdf     ................
    bd28:	a0ba dfdf d8df f1d8 aab8 8db3 98b4 350d     ...............5
    bd38:	b25d bab6 8caf 1996 9f8f 0ea7 1e16 9ab4     ]...............
    bd48:	aab8 2c87 7c54 a4ba 8ab0 91b6 5632 b276     ...,T|......2Vv.
    bd58:	9484 c8a4 cd08 b8d8 b0b4 99f1 a882 552d     ..............-U
    bd68:	987d 0ea8 1e16 2ca2 7c54 a492 2cf0 7850     }......,T|...,Px
    bd78:	84f1 98a8 cdc4 d8fc db0d fca8 f32d bad9     ............-...
    bd88:	f8a6 bada dea6 bad8 b6b2 9686 d0a6 c8f3     ................
    bd98:	da41 c8a6 d8f8 b4b0 82b8 92a8 2cf5 8854     A............,T.
    bda8:	f198 d935 18f4 f1d8 d0a2 f9f8 84a8 c7d9     ..5.............
    bdb8:	f8df 83f8 dac5 69df 83df d8c1 01f4 f114     .......i........
    bdc8:	82a8 a84e f384 d111 f582 92d9 9728 f188     ..N.........(...
    bdd8:	f409 1c1c 84d8 f3a8 f9c0 d9d1 8297 29f1     ...............)
    bde8:	0df4 f3d8 f9f9 d9d1 f482 03c2 ded8 1adf     ................
    bdf8:	f1d8 faa2 a8f9 9884 c7d9 f8df f8f8 c783     ................
    be08:	dfda df69 83f8 d8c3 01f4 f114 a898 2e82     ..i.............
    be18:	84a8 11f3 82d1 d9f5 5092 8897 09f1 1cf4     .........P......
    be28:	84d8 f3a8 f8c0 d1f9 97d9 f182 f449 d80d     ............I...
    be38:	f9f3 d1f9 82d9 c4f4 d803 dfde f1d8 88ad     ................
    be48:	cc98 09a8 d9f9 9282 f5a8 f17c 3a88 94cf     ..........|..:..
    be58:	6e4a db98 3169 adda def2 d8f9 9587 f2a8     Jn..i1..........
    be68:	d121 a5da f4f9 d917 aef1 d08e c3c0 82ae     !...............
    be78:	84c6 a8c3 9585 a5c8 f288 f1c0 01f4 f10e     ................
    be88:	9e8e c6a8 563e 54f5 88f1 f472 1501 98f1     ....>V.T..r.....
    be98:	8545 f56e 9e8e 8804 42f1 5a98 9e8e 8806     E.n......B.Z....
    bea8:	f469 1c01 98f1 111e d008 04f5 1ef1 0297     i...............
    beb8:	9802 2536 f9db 85d9 f3a5 dac1 a585 dff3     ..6%............
    bec8:	85d8 a895 09f3 a5da d8fa 9282 f5a8 f178     ..............x.
    bed8:	1a88 9f84 8826 2198 f4da f31d 87d8 399f     ....&..!.......9
    bee8:	afd1 dfd9 fbdf f4f9 f30c fad8 f8d0 f9da     ................
    bef8:	d0f9 d9df d8f9 0bf4 f3d8 9f87 d139 d9af     ............9...
    bf08:	dfdf 1df4 d8f3 fcfa 69a8 f9f9 d0af deda     .........i......
    bf18:	d9fa 8ff8 a89f ccf1 98f3 45db afd9 d0df     ...........E....
    bf28:	d8f8 8ff1 a89f f3ca 0988 afda cb8f d8f8     ................
    bf38:	adf2 8d97 d90c dfa5 baf9 f3a6 f4fa f212     ................
    bf48:	95d8 d10d bad9 f3a6 dafa f2a5 bac1 f3a6     ................
    bf58:	d8df baf1 b6b2 9686 d0a6 f3ca da49 cba6     ............I...
    bf68:	d8f8 b4b0 d8b8 84ad c0f2 f1df cb8f a8c3     ................
    bf78:	b6b2 9686 c1c8 c3cb b0f3 88b4 a898 db21     ..............!.
    bf88:	8d71 719d 9585 d921 f2ad d8fa 9785 28a8     q..q..!........(
    bf98:	f4d9 d808 8df2 da29 05f4 f2d9 a485 f2c2     ......).........
    bfa8:	a8d8 948d d101 f4d9 f211 87d8 d821 0af4     ............!...
    bfb8:	f2d8 9884 c8a8 d101 f4d9 d811 a4f3 bbc8     ................
    bfc8:	d0af def2 f8f8 f8f8 f8f8 f8f8 f1d8 f6b8     ................
    bfd8:	b9b5 8ab0 a395 3cde d9a3 d8f8 a35c f8d9     .......<....\...
    bfe8:	7cd8 d9a3 d8f8 f9f8 a5d1 dfd9 fada b1d8     .|..............
    bff8:	3085 d9f7 d8de 30f8 daad d8de b4f2 998c     .0.....0........
    c008:	2da3 7d55 83a0 dfdf b5df a091 29f6 fbd9     .-U}.........)..
    c018:	a0d8 29fc fad9 a0d8 51d0 f8d9 fcd8 d951     ...).....Q....Q.
    c028:	d8f9 d979 d8fb d0a0 79fc fad9 a1d8 f9f9     ..y......y......
    c038:	f9f9 a0f9 dfda dfdf a1d8 f8f8 f8f8 acf8     ................
    c048:	f8de dead 9383 2cac 7c54 a8f1 dfdf f6df     .......,T|......
    c058:	2c9d a0da d9df dbfa f82d a8d8 da50 d0a0     .,......-...P...
    c068:	d9de f8d0 f8f8 55db d8f8 78a8 a0da dfd0     .......U...x....
    c078:	d0d9 f8fa f8f8 dbf8 f87d 9cd8 8ca8 30f5     ........}......0
    c088:	38db d0d9 dfde d0a0 dfde a8d8 db48 d958     .8..........H.X.
    c098:	d0df a0de d0df d8de 68a8 70db dfd9 a0df     .........h.p....
    c0a8:	dfdf f1d8 88a8 2c90 7c54 a898 5cd0 d138     .......,T|...\8.
    c0b8:	f2da 8cae f9df b0d8 a887 c1c1 88b1 c6a8     ................
    c0c8:	f9f9 36da a8d8 daf9 d836 f9a8 36da a8d8     ...6....6....6..
    c0d8:	daf9 d836 f9a8 36da f7d8 9d8d f8ad da18     ..6....6........
    c0e8:	aef2 d8df adf7 30fa a4d9 f9de f2d8 deae     .......0........
    c0f8:	f9fa a783 c3d9 c7c5 88f1 a79b ad7a def7     ............z...
    c108:	a4df 84f8 0894 97a7 00f3 f2ae 1998 88a4     ................
    c118:	a3c6 8894 32f6 f2df 9383 09db f2d9 dfaa     .....2..........
    c128:	d8d8 f8ae d1f9 f3da dea4 f1a7 9b88 d87a     ..............z.
    c138:	84f3 ae94 f919 aada dff1 a8d8 c081 c5c3     ................
    c148:	a3c7 8392 28f6 dead f8d9 a3d8 ad50 f8d9     .....(......P...
    c158:	a3d8 ad78 f8d9 f8d8 d1f9 daa1 c3de c7c5     ..x.............
    c168:	a1d8 9481 18f8 b0f2 ac89 c5c3 f1c7 b8d8     ................
    c178:	b0b4 8697 31a8 069b 0799 97ab 8828 f09b     .....1......(...
    c188:	200c 4014 b4b0 f0b8 8aa8 289a 7850 9bb7     . .@.......(Px..
    c198:	29a8 7951 7024 4459 3869 4864 f131 abbb     .)Qy$pYDi8dH1...
    c1a8:	0088 542c f07c 8bb3 a8b8 2804 7850 b0f1     ..,T|......(Px..
    c1b8:	b488 2697 59a8 bb98 b3ab 028b 4626 b066     ...&.Y......&Ff.
    c1c8:	f0b8 9c8a 29a8 7951 298b 7951 248a 5970     .....)Qy.)Qy.$pY
    c1d8:	208b 7158 448a 3869 398b 6840 648a 3148     . Xq.Di8.9@h.dH1
    c1e8:	308b 6049 f188 00ac 542c f07c a88c 2804     .0I`....,T|....(
    c1f8:	7850 88f1 2697 59a8 ac98 028c 4626 f066     Px...&.Y....&Ff.
    c208:	9c89 29a8 7951 7024 4459 3869 4864 a931     ...)Qy$pYDi8dH1.
    c218:	0988 5920 ab70 3811 6940 19a8 4831 8c60     .. Yp..8@i..1H`.
    c228:	3ca8 5c41 7c20 f100 9887 8619 6ea8 7e76     .<A\ |.......nv~
    c238:	99a9 2d88 7d55 b1d8 b9b5 dfa3 dfdf d0ae     ...-U}..........
    c248:	aadf ded0 abf2 f9f8 b0d9 c487 f1aa dfdf     ................
    c258:	afbb dfdf d8b9 f1b1 97a3 608e b0df f284     ...........`....
    c268:	f8c8 d9f9 d8de 8593 4af1 83b1 08a3 83b5     .........J......
    c278:	089a b710 109f f1d8 bab0 b0ae c28a b6b2     ................
    c288:	9e8e fbf1 f4d9 d81d d9f9 f10c f8d8 adf8     ................
    c298:	d961 fbae f4d8 f10c f8d8 adf8 d919 fbae     a...............
    c2a8:	d8df 16f4 d8f1 adf8 618d f4d9 acf4 9cf5     .........a......
    c2b8:	8d9c 2bdf b6ba faae f4f8 d80b aef1 f8d0     ...+............
    c2c8:	51ad aeda f8fa d8f1 b1b9 a3b6 9c83 b908     .Q..............
    c2d8:	83b1 b59a c0aa 30fd b783 109f 8bb5 f293     .......0........
    c2e8:	0202 abd1 deda f1d8 80b0 abba c3c0 84b2     ................
    c2f8:	c3c1 b1d8 f3b9 a38b b691 b409 abd9 b0de     ................
    c308:	9c87 a3b9 f1dd 8bb3 8b8b 8b8b 87b0 a3a3     ................
    c318:	a3a3 8bb2 9bb6 a3f2 a3a3 a3a3 a3a3 a3a3     ................
    c328:	f1a3 87b0 9ab5 f3a3 a39b dca3 acba b9df     ................
    c338:	a3a3 a3a3 a3a3 a3a3 a3a3 a3a3 a3a3 a3a3     ................
    c348:	d8d8 bbd8 b7b3 aaf1 daf9 d9ff 9a80 28aa     ...............(
    c358:	80b4 a798 b720 8797 66a8 f088 5179 90f1     .... ....f..yQ..
    c368:	872c a70c 9781 9362 71f0 6071 9485 2901     ,.....b..qq`...)
    c378:	7951 a590 28f1 6c4c 0c87 1895 7885 83a3     Qy...(Ll.....x..
    c388:	2890 6c4c 6c88 f3d8 82a2 f200 a810 1992     .(Ll.l..........
    c398:	a280 d9f2 d826 88f1 4da8 48d9 96d8 39a8     ....&....M.H...9
    c3a8:	d980 d83c 8095 39a8 86a6 d998 da2c a787     ..<....9....,...
    c3b8:	d82c 89a8 1995 80a9 38d9 a8d8 3989 80a9     ,........8...9..
    c3c8:	3cda a8d8 a82e 9039 0cd9 a8d8 3195 d998     .<....9......1..
    c3d8:	d80c 09a8 ffd9 01d8 ffda 95d8 a939 26da     ............9..&
    c3e8:	d8ff a890 890d a899 8010 2198 2eda 89d8     ...........!....
    c3f8:	a899 8031 2eda a8d8 9686 8031 2eda a8d8     ..1.......1.....
    c408:	3187 da80 d82e 82a8 f392 8041 d9f1 d82e     .1........A.....
    c418:	82a8 19f3 f180 2ed9 82d8 f3ac a2c0 2280     ..............."
    c428:	a6f1 a72e a92e 9822 29a8 acda ffde a2d8     ......"..)......
    c438:	2af2 a9f1 822e a892 31f2 a680 f196 00d9     .*.......1......
    c448:	8cac 0c9c ac30 d0de ffde 8cd8 ac9c 10d0     ....0...........
    c458:	deac 9280 f2a2 824c f1a8 f2ca f135 8896     ......L.....5...
    c468:	d9a6 d800 fff1 0000 0000 4348 0000 4680     ..........HC...F
    c478:	0000 4640 0000 4600 0000 45c0 0000 4580     ..@F...F...E...E
    c488:	0000 4540 0000 4500 0000 44c0 706d 5f75     ..@E...E...Dmpu_
    c498:	6d64 5f70 6e69 7469 6520 7272 6320 646f     dmp_init err cod
    c4a8:	3a65 6425 0a0d 0000 6143 696c 7262 7461     e:%d....Calibrat
    c4b8:	6974 6e6f 6156 756c 3a65 6425 000a 0000     tionValue:%d....
    c4c8:	7953 7473 6d65 495f 696e 2074 4b4f 0d21     System_Init OK!.
    c4d8:	0000 0000 2e2e 462f 6572 5265 4f54 2f53     ....../FreeRTOS/
    c4e8:	6f70 7472 6261 656c 4d2f 6d65 614d 676e     portable/MemMang
    c4f8:	682f 6165 5f70 2e34 0063 0000 7265 2072     /heap_4.c...err 
    c508:	7461 6c20 6e69 2065 6425 6f20 2066 6966     at line %d of fi
    c518:	656c 2220 7325 2e22 0d20 200a 0000 0000     le "%s". .. ....
    c528:	2e2e 462f 6572 5265 4f54 2f53 6f70 7472     ../FreeRTOS/port
    c538:	6261 656c 472f 4343 522f 5349 2d43 2f56     able/GCC/RISC-V/
    c548:	6f70 7472 632e 0000 2e2e 462f 6572 5265     port.c..../FreeR
    c558:	4f54 2f53 7571 7565 2e65 0063 2e2e 462f     TOS/queue.c.../F
    c568:	6572 5265 4f54 2f53 6174 6b73 2e73 0063     reeRTOS/tasks.c.
    c578:	4449 454c 0000 0000 6b34 0000 6b34 0000     IDLE....4k..4k..
    c588:	6b78 0000 6b84 0000 6bc8 0000 6b34 0000     xk...k...k..4k..
    c598:	6b34 0000 6b78 0000 6b84 0000 6d54 5172     4k..xk...k..TmrQ
    c5a8:	0000 0000 2e2e 462f 6572 5265 4f54 2f53     ....../FreeRTOS/
    c5b8:	6974 656d 7372 632e 0000 0000 6d54 2072     timers.c....Tmr 
    c5c8:	7653 0063 7361 6e69 0066 0000 0fdb 3fc9     Svc.asinf......?
    c5d8:	bd2e b33b f2ca 7149 ef08 3811 7f04 3a4f     ..;...Iq...8..O:
    c5e8:	1146 3d24 0aa8 3e4e b090 3ea6 aaab 3e2a     F.$=..N>...>..*>
    c5f8:	c62e 3d9d 3361 3f30 572d 4001 d139 4019     ...=a30?-W.@9..@
    c608:	0000 3f00 bd2e 333b 0fdb 3f49 0fdb 4049     ...?..;3..I?..I@
    c618:	0fdb c049 0000 8000 0fdb bfc9 cbe4 4016     ..I............@
    c628:	cbe4 c016 0fdb bf49 bd2e 33bb 0000 0000     ......I....3....
    c638:	0000 0000 0000 7ff8 0000 4000 0000 3fc0     ...........@...?
    c648:	0000 bf80 69d7 3c85 da59 3d4b 6b35 3d88     .....i.<Y.K=5k.=
    c658:	2e6e 3dba 4925 3e12 aaab 3eaa a221 bd15     n..=%I.>...>!...
    c668:	f16b 3d6e 8795 3d9d 8e38 3de3 cccd 3e4c     k.n=...=8..=..L>

0000c678 <atanhi>:
    c678:	6338 3eed 0fda 3f49 985e 3f7b 0fda 3fc9     8c.>..I?^.{?...?

0000c688 <atanlo>:
    c688:	3769 31ac 2168 3322 0fb4 3314 2168 33a2     i7.1h!"3...3h!.3
    c698:	6e28 6c75 296c 0000 ccfc ffff cbee ffff     (null)..........
    c6a8:	cbee ffff cbec ffff cbf4 ffff cbf4 ffff     ................
    c6b8:	cbba ffff cbec ffff cbf4 ffff cbba ffff     ................
    c6c8:	cbf4 ffff cbec ffff cce8 ffff cce8 ffff     ................
    c6d8:	cce8 ffff cbba ffff df06 ffff de2c ffff     ............,...
    c6e8:	df00 ffff de34 ffff df00 ffff ddfa ffff     ....4...........
    c6f8:	df00 ffff de34 ffff de2c ffff de2c ffff     ....4...,...,...
    c708:	ddfa ffff de34 ffff de3a ffff de3a ffff     ....4...:...:...
    c718:	de3a ffff ddfa ffff ddec ffff ddec ffff     :...............
    c728:	dec0 ffff df9c ffff dec0 ffff ddba ffff     ................
    c738:	dec0 ffff df9c ffff ddec ffff ddec ffff     ................
    c748:	ddba ffff df9c ffff ddfa ffff ddfa ffff     ................
    c758:	ddfa ffff ddba ffff e270 ffff e1be ffff     ........p.......
    c768:	e1be ffff e1bc ffff e1c2 ffff e1c2 ffff     ................
    c778:	e192 ffff e1bc ffff e1c2 ffff e192 ffff     ................
    c788:	e1c2 ffff e1bc ffff e25e ffff e25e ffff     ........^...^...
    c798:	e25e ffff e192 ffff                         ^.......

0000c7a0 <__clz_tab>:
    c7a0:	0100 0202 0303 0303 0404 0404 0404 0404     ................
    c7b0:	0505 0505 0505 0505 0505 0505 0505 0505     ................
    c7c0:	0606 0606 0606 0606 0606 0606 0606 0606     ................
    c7d0:	0606 0606 0606 0606 0606 0606 0606 0606     ................
    c7e0:	0707 0707 0707 0707 0707 0707 0707 0707     ................
    c7f0:	0707 0707 0707 0707 0707 0707 0707 0707     ................
    c800:	0707 0707 0707 0707 0707 0707 0707 0707     ................
    c810:	0707 0707 0707 0707 0707 0707 0707 0707     ................
    c820:	0808 0808 0808 0808 0808 0808 0808 0808     ................
    c830:	0808 0808 0808 0808 0808 0808 0808 0808     ................
    c840:	0808 0808 0808 0808 0808 0808 0808 0808     ................
    c850:	0808 0808 0808 0808 0808 0808 0808 0808     ................
    c860:	0808 0808 0808 0808 0808 0808 0808 0808     ................
    c870:	0808 0808 0808 0808 0808 0808 0808 0808     ................
    c880:	0808 0808 0808 0808 0808 0808 0808 0808     ................
    c890:	0808 0808 0808 0808 0808 0808 0808 0808     ................
