Archive member included to satisfy reference by file (symbol)

c:/mounriver/mounriver_studio/toolchain/risc-v embedded gcc/bin/../lib/gcc/riscv-none-embed/8.2.0/../../../../riscv-none-embed/lib/rv32imacxw/ilp32\libm.a(lib_a-wf_asin.o)
                              ./General_Files/eMPL/inv_mpu.o (asinf)
c:/mounriver/mounriver_studio/toolchain/risc-v embedded gcc/bin/../lib/gcc/riscv-none-embed/8.2.0/../../../../riscv-none-embed/lib/rv32imacxw/ilp32\libm.a(lib_a-wf_atan2.o)
                              ./General_Files/eMPL/inv_mpu.o (atan2f)
c:/mounriver/mounriver_studio/toolchain/risc-v embedded gcc/bin/../lib/gcc/riscv-none-embed/8.2.0/../../../../riscv-none-embed/lib/rv32imacxw/ilp32\libm.a(lib_a-ef_asin.o)
                              c:/mounriver/mounriver_studio/toolchain/risc-v embedded gcc/bin/../lib/gcc/riscv-none-embed/8.2.0/../../../../riscv-none-embed/lib/rv32imacxw/ilp32\libm.a(lib_a-wf_asin.o) (__ieee754_asinf)
c:/mounriver/mounriver_studio/toolchain/risc-v embedded gcc/bin/../lib/gcc/riscv-none-embed/8.2.0/../../../../riscv-none-embed/lib/rv32imacxw/ilp32\libm.a(lib_a-ef_atan2.o)
                              c:/mounriver/mounriver_studio/toolchain/risc-v embedded gcc/bin/../lib/gcc/riscv-none-embed/8.2.0/../../../../riscv-none-embed/lib/rv32imacxw/ilp32\libm.a(lib_a-wf_atan2.o) (__ieee754_atan2f)
c:/mounriver/mounriver_studio/toolchain/risc-v embedded gcc/bin/../lib/gcc/riscv-none-embed/8.2.0/../../../../riscv-none-embed/lib/rv32imacxw/ilp32\libm.a(lib_a-ef_sqrt.o)
                              c:/mounriver/mounriver_studio/toolchain/risc-v embedded gcc/bin/../lib/gcc/riscv-none-embed/8.2.0/../../../../riscv-none-embed/lib/rv32imacxw/ilp32\libm.a(lib_a-ef_asin.o) (__ieee754_sqrtf)
c:/mounriver/mounriver_studio/toolchain/risc-v embedded gcc/bin/../lib/gcc/riscv-none-embed/8.2.0/../../../../riscv-none-embed/lib/rv32imacxw/ilp32\libm.a(lib_a-s_lib_ver.o)
                              c:/mounriver/mounriver_studio/toolchain/risc-v embedded gcc/bin/../lib/gcc/riscv-none-embed/8.2.0/../../../../riscv-none-embed/lib/rv32imacxw/ilp32\libm.a(lib_a-wf_asin.o) (__fdlib_version)
c:/mounriver/mounriver_studio/toolchain/risc-v embedded gcc/bin/../lib/gcc/riscv-none-embed/8.2.0/../../../../riscv-none-embed/lib/rv32imacxw/ilp32\libm.a(lib_a-s_matherr.o)
                              c:/mounriver/mounriver_studio/toolchain/risc-v embedded gcc/bin/../lib/gcc/riscv-none-embed/8.2.0/../../../../riscv-none-embed/lib/rv32imacxw/ilp32\libm.a(lib_a-wf_asin.o) (matherr)
c:/mounriver/mounriver_studio/toolchain/risc-v embedded gcc/bin/../lib/gcc/riscv-none-embed/8.2.0/../../../../riscv-none-embed/lib/rv32imacxw/ilp32\libm.a(lib_a-s_nan.o)
                              c:/mounriver/mounriver_studio/toolchain/risc-v embedded gcc/bin/../lib/gcc/riscv-none-embed/8.2.0/../../../../riscv-none-embed/lib/rv32imacxw/ilp32\libm.a(lib_a-wf_asin.o) (nan)
c:/mounriver/mounriver_studio/toolchain/risc-v embedded gcc/bin/../lib/gcc/riscv-none-embed/8.2.0/../../../../riscv-none-embed/lib/rv32imacxw/ilp32\libm.a(lib_a-sf_atan.o)
                              c:/mounriver/mounriver_studio/toolchain/risc-v embedded gcc/bin/../lib/gcc/riscv-none-embed/8.2.0/../../../../riscv-none-embed/lib/rv32imacxw/ilp32\libm.a(lib_a-ef_atan2.o) (atanf)
c:/mounriver/mounriver_studio/toolchain/risc-v embedded gcc/bin/../lib/gcc/riscv-none-embed/8.2.0/../../../../riscv-none-embed/lib/rv32imacxw/ilp32\libm.a(lib_a-sf_fabs.o)
                              c:/mounriver/mounriver_studio/toolchain/risc-v embedded gcc/bin/../lib/gcc/riscv-none-embed/8.2.0/../../../../riscv-none-embed/lib/rv32imacxw/ilp32\libm.a(lib_a-wf_asin.o) (fabsf)
c:/mounriver/mounriver_studio/toolchain/risc-v embedded gcc/bin/../lib/gcc/riscv-none-embed/8.2.0/../../../../riscv-none-embed/lib/rv32imacxw/ilp32\libprintfloat.a(printfloat.o)
                              ./User/RTOS_apps/Print_status.o (printf)
c:/mounriver/mounriver_studio/toolchain/risc-v embedded gcc/bin/../lib/gcc/riscv-none-embed/8.2.0/rv32imacxw/ilp32\libgcc.a(_divdi3.o)
                              ./General_Files/eMPL/inv_mpu.o (__divdi3)
c:/mounriver/mounriver_studio/toolchain/risc-v embedded gcc/bin/../lib/gcc/riscv-none-embed/8.2.0/rv32imacxw/ilp32\libgcc.a(_udivdi3.o)
                              c:/mounriver/mounriver_studio/toolchain/risc-v embedded gcc/bin/../lib/gcc/riscv-none-embed/8.2.0/../../../../riscv-none-embed/lib/rv32imacxw/ilp32\libprintfloat.a(printfloat.o) (__udivdi3)
c:/mounriver/mounriver_studio/toolchain/risc-v embedded gcc/bin/../lib/gcc/riscv-none-embed/8.2.0/rv32imacxw/ilp32\libgcc.a(_umoddi3.o)
                              c:/mounriver/mounriver_studio/toolchain/risc-v embedded gcc/bin/../lib/gcc/riscv-none-embed/8.2.0/../../../../riscv-none-embed/lib/rv32imacxw/ilp32\libprintfloat.a(printfloat.o) (__umoddi3)
c:/mounriver/mounriver_studio/toolchain/risc-v embedded gcc/bin/../lib/gcc/riscv-none-embed/8.2.0/rv32imacxw/ilp32\libgcc.a(adddf3.o)
                              ./User/RTOS_apps/control_handle.o (__adddf3)
c:/mounriver/mounriver_studio/toolchain/risc-v embedded gcc/bin/../lib/gcc/riscv-none-embed/8.2.0/rv32imacxw/ilp32\libgcc.a(divdf3.o)
                              ./General_Files/drivers/BMP280.o (__divdf3)
c:/mounriver/mounriver_studio/toolchain/risc-v embedded gcc/bin/../lib/gcc/riscv-none-embed/8.2.0/rv32imacxw/ilp32\libgcc.a(eqdf2.o)
                              ./General_Files/drivers/BMP280.o (__eqdf2)
c:/mounriver/mounriver_studio/toolchain/risc-v embedded gcc/bin/../lib/gcc/riscv-none-embed/8.2.0/rv32imacxw/ilp32\libgcc.a(ledf2.o)
                              c:/mounriver/mounriver_studio/toolchain/risc-v embedded gcc/bin/../lib/gcc/riscv-none-embed/8.2.0/../../../../riscv-none-embed/lib/rv32imacxw/ilp32\libprintfloat.a(printfloat.o) (__ltdf2)
c:/mounriver/mounriver_studio/toolchain/risc-v embedded gcc/bin/../lib/gcc/riscv-none-embed/8.2.0/rv32imacxw/ilp32\libgcc.a(muldf3.o)
                              ./User/RTOS_apps/control_handle.o (__muldf3)
c:/mounriver/mounriver_studio/toolchain/risc-v embedded gcc/bin/../lib/gcc/riscv-none-embed/8.2.0/rv32imacxw/ilp32\libgcc.a(subdf3.o)
                              ./General_Files/drivers/BMP280.o (__subdf3)
c:/mounriver/mounriver_studio/toolchain/risc-v embedded gcc/bin/../lib/gcc/riscv-none-embed/8.2.0/rv32imacxw/ilp32\libgcc.a(fixdfsi.o)
                              ./General_Files/drivers/BMP280.o (__fixdfsi)
c:/mounriver/mounriver_studio/toolchain/risc-v embedded gcc/bin/../lib/gcc/riscv-none-embed/8.2.0/rv32imacxw/ilp32\libgcc.a(fixunsdfsi.o)
                              ./User/RTOS_apps/control_handle.o (__fixunsdfsi)
c:/mounriver/mounriver_studio/toolchain/risc-v embedded gcc/bin/../lib/gcc/riscv-none-embed/8.2.0/rv32imacxw/ilp32\libgcc.a(floatsidf.o)
                              ./User/RTOS_apps/control_handle.o (__floatsidf)
c:/mounriver/mounriver_studio/toolchain/risc-v embedded gcc/bin/../lib/gcc/riscv-none-embed/8.2.0/rv32imacxw/ilp32\libgcc.a(floatunsidf.o)
                              ./General_Files/drivers/BMP280.o (__floatunsidf)
c:/mounriver/mounriver_studio/toolchain/risc-v embedded gcc/bin/../lib/gcc/riscv-none-embed/8.2.0/rv32imacxw/ilp32\libgcc.a(fixdfdi.o)
                              c:/mounriver/mounriver_studio/toolchain/risc-v embedded gcc/bin/../lib/gcc/riscv-none-embed/8.2.0/../../../../riscv-none-embed/lib/rv32imacxw/ilp32\libprintfloat.a(printfloat.o) (__fixdfdi)
c:/mounriver/mounriver_studio/toolchain/risc-v embedded gcc/bin/../lib/gcc/riscv-none-embed/8.2.0/rv32imacxw/ilp32\libgcc.a(floatdidf.o)
                              c:/mounriver/mounriver_studio/toolchain/risc-v embedded gcc/bin/../lib/gcc/riscv-none-embed/8.2.0/../../../../riscv-none-embed/lib/rv32imacxw/ilp32\libprintfloat.a(printfloat.o) (__floatdidf)
c:/mounriver/mounriver_studio/toolchain/risc-v embedded gcc/bin/../lib/gcc/riscv-none-embed/8.2.0/rv32imacxw/ilp32\libgcc.a(addsf3.o)
                              ./User/RTOS_apps/control_handle.o (__addsf3)
c:/mounriver/mounriver_studio/toolchain/risc-v embedded gcc/bin/../lib/gcc/riscv-none-embed/8.2.0/rv32imacxw/ilp32\libgcc.a(divsf3.o)
                              ./User/RTOS_apps/control_handle.o (__divsf3)
c:/mounriver/mounriver_studio/toolchain/risc-v embedded gcc/bin/../lib/gcc/riscv-none-embed/8.2.0/rv32imacxw/ilp32\libgcc.a(eqsf2.o)
                              ./General_Files/drivers/bsp_filter.o (__eqsf2)
c:/mounriver/mounriver_studio/toolchain/risc-v embedded gcc/bin/../lib/gcc/riscv-none-embed/8.2.0/rv32imacxw/ilp32\libgcc.a(gesf2.o)
                              ./General_Files/apps/src/pid.o (__gesf2)
c:/mounriver/mounriver_studio/toolchain/risc-v embedded gcc/bin/../lib/gcc/riscv-none-embed/8.2.0/rv32imacxw/ilp32\libgcc.a(lesf2.o)
                              ./General_Files/apps/src/pid.o (__lesf2)
c:/mounriver/mounriver_studio/toolchain/risc-v embedded gcc/bin/../lib/gcc/riscv-none-embed/8.2.0/rv32imacxw/ilp32\libgcc.a(mulsf3.o)
                              ./User/RTOS_apps/soft_stast.o (__mulsf3)
c:/mounriver/mounriver_studio/toolchain/risc-v embedded gcc/bin/../lib/gcc/riscv-none-embed/8.2.0/rv32imacxw/ilp32\libgcc.a(subsf3.o)
                              ./User/RTOS_apps/control_handle.o (__subsf3)
c:/mounriver/mounriver_studio/toolchain/risc-v embedded gcc/bin/../lib/gcc/riscv-none-embed/8.2.0/rv32imacxw/ilp32\libgcc.a(unordsf2.o)
                              c:/mounriver/mounriver_studio/toolchain/risc-v embedded gcc/bin/../lib/gcc/riscv-none-embed/8.2.0/../../../../riscv-none-embed/lib/rv32imacxw/ilp32\libm.a(lib_a-wf_asin.o) (__unordsf2)
c:/mounriver/mounriver_studio/toolchain/risc-v embedded gcc/bin/../lib/gcc/riscv-none-embed/8.2.0/rv32imacxw/ilp32\libgcc.a(fixsfsi.o)
                              ./User/RTOS_apps/IMU_handle.o (__fixsfsi)
c:/mounriver/mounriver_studio/toolchain/risc-v embedded gcc/bin/../lib/gcc/riscv-none-embed/8.2.0/rv32imacxw/ilp32\libgcc.a(fixunssfsi.o)
                              ./User/RTOS_apps/control_handle.o (__fixunssfsi)
c:/mounriver/mounriver_studio/toolchain/risc-v embedded gcc/bin/../lib/gcc/riscv-none-embed/8.2.0/rv32imacxw/ilp32\libgcc.a(floatsisf.o)
                              ./User/RTOS_apps/IMU_handle.o (__floatsisf)
c:/mounriver/mounriver_studio/toolchain/risc-v embedded gcc/bin/../lib/gcc/riscv-none-embed/8.2.0/rv32imacxw/ilp32\libgcc.a(floatunsisf.o)
                              ./General_Files/eMPL/inv_mpu_dmp_motion_driver.o (__floatunsisf)
c:/mounriver/mounriver_studio/toolchain/risc-v embedded gcc/bin/../lib/gcc/riscv-none-embed/8.2.0/rv32imacxw/ilp32\libgcc.a(extendsfdf2.o)
                              ./User/RTOS_apps/Print_status.o (__extendsfdf2)
c:/mounriver/mounriver_studio/toolchain/risc-v embedded gcc/bin/../lib/gcc/riscv-none-embed/8.2.0/rv32imacxw/ilp32\libgcc.a(truncdfsf2.o)
                              ./User/RTOS_apps/control_handle.o (__truncdfsf2)
c:/mounriver/mounriver_studio/toolchain/risc-v embedded gcc/bin/../lib/gcc/riscv-none-embed/8.2.0/rv32imacxw/ilp32\libgcc.a(save-restore.o)
                              ./User/RTOS_apps/control_handle.o (__riscv_save_12)
c:/mounriver/mounriver_studio/toolchain/risc-v embedded gcc/bin/../lib/gcc/riscv-none-embed/8.2.0/rv32imacxw/ilp32\libgcc.a(_clz.o)
                              c:/mounriver/mounriver_studio/toolchain/risc-v embedded gcc/bin/../lib/gcc/riscv-none-embed/8.2.0/rv32imacxw/ilp32\libgcc.a(_divdi3.o) (__clz_tab)
c:/mounriver/mounriver_studio/toolchain/risc-v embedded gcc/bin/../lib/gcc/riscv-none-embed/8.2.0/rv32imacxw/ilp32\libgcc.a(_clzsi2.o)
                              c:/mounriver/mounriver_studio/toolchain/risc-v embedded gcc/bin/../lib/gcc/riscv-none-embed/8.2.0/rv32imacxw/ilp32\libgcc.a(adddf3.o) (__clzsi2)
c:/mounriver/mounriver_studio/toolchain/risc-v embedded gcc/bin/../lib/gcc/riscv-none-embed/8.2.0/../../../../riscv-none-embed/lib/rv32imacxw/ilp32\libg_nano.a(lib_a-errno.o)
                              c:/mounriver/mounriver_studio/toolchain/risc-v embedded gcc/bin/../lib/gcc/riscv-none-embed/8.2.0/../../../../riscv-none-embed/lib/rv32imacxw/ilp32\libm.a(lib_a-wf_asin.o) (__errno)
c:/mounriver/mounriver_studio/toolchain/risc-v embedded gcc/bin/../lib/gcc/riscv-none-embed/8.2.0/../../../../riscv-none-embed/lib/rv32imacxw/ilp32\libg_nano.a(lib_a-impure.o)
                              c:/mounriver/mounriver_studio/toolchain/risc-v embedded gcc/bin/../lib/gcc/riscv-none-embed/8.2.0/../../../../riscv-none-embed/lib/rv32imacxw/ilp32\libg_nano.a(lib_a-errno.o) (_impure_ptr)
c:/mounriver/mounriver_studio/toolchain/risc-v embedded gcc/bin/../lib/gcc/riscv-none-embed/8.2.0/../../../../riscv-none-embed/lib/rv32imacxw/ilp32\libg_nano.a(lib_a-memcmp.o)
                              ./General_Files/eMPL/inv_mpu.o (memcmp)
c:/mounriver/mounriver_studio/toolchain/risc-v embedded gcc/bin/../lib/gcc/riscv-none-embed/8.2.0/../../../../riscv-none-embed/lib/rv32imacxw/ilp32\libg_nano.a(lib_a-memcpy.o)
                              ./General_Files/eMPL/inv_mpu_dmp_motion_driver.o (memcpy)
c:/mounriver/mounriver_studio/toolchain/risc-v embedded gcc/bin/../lib/gcc/riscv-none-embed/8.2.0/../../../../riscv-none-embed/lib/rv32imacxw/ilp32\libg_nano.a(lib_a-memset.o)
                              ./General_Files/eMPL/inv_mpu.o (memset)
c:/mounriver/mounriver_studio/toolchain/risc-v embedded gcc/bin/../lib/gcc/riscv-none-embed/8.2.0/../../../../riscv-none-embed/lib/rv32imacxw/ilp32\libg_nano.a(lib_a-strlen.o)
                              ./FreeRTOS/tasks.o (strlen)

Discarded input sections

 .text          0x0000000000000000        0x0 ./User/RTOS_apps/IMU_handle.o
 .data          0x0000000000000000        0x0 ./User/RTOS_apps/IMU_handle.o
 .bss           0x0000000000000000        0x0 ./User/RTOS_apps/IMU_handle.o
 .text          0x0000000000000000        0x0 ./User/RTOS_apps/Print_status.o
 .data          0x0000000000000000        0x0 ./User/RTOS_apps/Print_status.o
 .bss           0x0000000000000000        0x0 ./User/RTOS_apps/Print_status.o
 .text.Graph_print
                0x0000000000000000       0x60 ./User/RTOS_apps/Print_status.o
 .rodata.Graph_print.str1.4
                0x0000000000000000        0xc ./User/RTOS_apps/Print_status.o
 .text          0x0000000000000000        0x0 ./User/RTOS_apps/control_handle.o
 .data          0x0000000000000000        0x0 ./User/RTOS_apps/control_handle.o
 .bss           0x0000000000000000        0x0 ./User/RTOS_apps/control_handle.o
 .text          0x0000000000000000        0x0 ./User/RTOS_apps/soft_stast.o
 .data          0x0000000000000000        0x0 ./User/RTOS_apps/soft_stast.o
 .bss           0x0000000000000000        0x0 ./User/RTOS_apps/soft_stast.o
 .text          0x0000000000000000        0x0 ./User/RTOS_tasks.o
 .data          0x0000000000000000        0x0 ./User/RTOS_tasks.o
 .bss           0x0000000000000000        0x0 ./User/RTOS_tasks.o
 .text.test_task
                0x0000000000000000       0x24 ./User/RTOS_tasks.o
 .rodata.test_task.str1.4
                0x0000000000000000        0xc ./User/RTOS_tasks.o
 .sbss.TESTTask_Handler
                0x0000000000000000        0x4 ./User/RTOS_tasks.o
 .text          0x0000000000000000        0x0 ./User/ch32v30x_it.o
 .data          0x0000000000000000        0x0 ./User/ch32v30x_it.o
 .bss           0x0000000000000000        0x0 ./User/ch32v30x_it.o
 .text          0x0000000000000000        0x0 ./User/main.o
 .data          0x0000000000000000        0x0 ./User/main.o
 .bss           0x0000000000000000        0x0 ./User/main.o
 .text          0x0000000000000000        0x0 ./User/system_ch32v30x.o
 .data          0x0000000000000000        0x0 ./User/system_ch32v30x.o
 .bss           0x0000000000000000        0x0 ./User/system_ch32v30x.o
 .text          0x0000000000000000        0x0 ./Startup/startup_ch32v30x_D8C.o
 .data          0x0000000000000000        0x0 ./Startup/startup_ch32v30x_D8C.o
 .bss           0x0000000000000000        0x0 ./Startup/startup_ch32v30x_D8C.o
 .text          0x0000000000000000        0x0 ./Peripheral/src/ch32v30x_adc.o
 .data          0x0000000000000000        0x0 ./Peripheral/src/ch32v30x_adc.o
 .bss           0x0000000000000000        0x0 ./Peripheral/src/ch32v30x_adc.o
 .text.ADC_StructInit
                0x0000000000000000       0x1a ./Peripheral/src/ch32v30x_adc.o
 .text.ADC_ITConfig
                0x0000000000000000       0x16 ./Peripheral/src/ch32v30x_adc.o
 .text.ADC_GetSoftwareStartConvStatus
                0x0000000000000000        0x8 ./Peripheral/src/ch32v30x_adc.o
 .text.ADC_DiscModeChannelCountConfig
                0x0000000000000000       0x12 ./Peripheral/src/ch32v30x_adc.o
 .text.ADC_DiscModeCmd
                0x0000000000000000       0x1a ./Peripheral/src/ch32v30x_adc.o
 .text.ADC_ExternalTrigConvCmd
                0x0000000000000000       0x18 ./Peripheral/src/ch32v30x_adc.o
 .text.ADC_GetConversionValue
                0x0000000000000000        0x8 ./Peripheral/src/ch32v30x_adc.o
 .text.ADC_GetDualModeConversionValue
                0x0000000000000000        0xa ./Peripheral/src/ch32v30x_adc.o
 .text.ADC_AutoInjectedConvCmd
                0x0000000000000000       0x12 ./Peripheral/src/ch32v30x_adc.o
 .text.ADC_InjectedDiscModeCmd
                0x0000000000000000       0x14 ./Peripheral/src/ch32v30x_adc.o
 .text.ADC_ExternalTrigInjectedConvConfig
                0x0000000000000000        0xe ./Peripheral/src/ch32v30x_adc.o
 .text.ADC_ExternalTrigInjectedConvCmd
                0x0000000000000000       0x14 ./Peripheral/src/ch32v30x_adc.o
 .text.ADC_SoftwareStartInjectedConvCmd
                0x0000000000000000       0x18 ./Peripheral/src/ch32v30x_adc.o
 .text.ADC_GetSoftwareStartInjectedConvCmdStatus
                0x0000000000000000        0x8 ./Peripheral/src/ch32v30x_adc.o
 .text.ADC_InjectedChannelConfig
                0x0000000000000000       0x7a ./Peripheral/src/ch32v30x_adc.o
 .text.ADC_InjectedSequencerLengthConfig
                0x0000000000000000       0x14 ./Peripheral/src/ch32v30x_adc.o
 .text.ADC_SetInjectedOffset
                0x0000000000000000       0x14 ./Peripheral/src/ch32v30x_adc.o
 .text.ADC_GetInjectedConversionValue
                0x0000000000000000       0x1c ./Peripheral/src/ch32v30x_adc.o
 .text.ADC_AnalogWatchdogCmd
                0x0000000000000000       0x12 ./Peripheral/src/ch32v30x_adc.o
 .text.ADC_AnalogWatchdogThresholdsConfig
                0x0000000000000000        0x6 ./Peripheral/src/ch32v30x_adc.o
 .text.ADC_AnalogWatchdogSingleChannelConfig
                0x0000000000000000        0xa ./Peripheral/src/ch32v30x_adc.o
 .text.ADC_TempSensorVrefintCmd
                0x0000000000000000       0x20 ./Peripheral/src/ch32v30x_adc.o
 .text.ADC_GetFlagStatus
                0x0000000000000000        0xa ./Peripheral/src/ch32v30x_adc.o
 .text.ADC_ClearFlag
                0x0000000000000000        0x8 ./Peripheral/src/ch32v30x_adc.o
 .text.ADC_GetITStatus
                0x0000000000000000       0x1c ./Peripheral/src/ch32v30x_adc.o
 .text.ADC_ClearITPendingBit
                0x0000000000000000        0xa ./Peripheral/src/ch32v30x_adc.o
 .text.TempSensor_Volt_To_Temper
                0x0000000000000000       0x28 ./Peripheral/src/ch32v30x_adc.o
 .text          0x0000000000000000        0x0 ./Peripheral/src/ch32v30x_bkp.o
 .data          0x0000000000000000        0x0 ./Peripheral/src/ch32v30x_bkp.o
 .bss           0x0000000000000000        0x0 ./Peripheral/src/ch32v30x_bkp.o
 .text.BKP_DeInit
                0x0000000000000000       0x24 ./Peripheral/src/ch32v30x_bkp.o
 .text.BKP_TamperPinLevelConfig
                0x0000000000000000       0x20 ./Peripheral/src/ch32v30x_bkp.o
 .text.BKP_TamperPinCmd
                0x0000000000000000       0x20 ./Peripheral/src/ch32v30x_bkp.o
 .text.BKP_ITConfig
                0x0000000000000000       0x20 ./Peripheral/src/ch32v30x_bkp.o
 .text.BKP_RTCOutputConfig
                0x0000000000000000       0x18 ./Peripheral/src/ch32v30x_bkp.o
 .text.BKP_SetRTCCalibrationValue
                0x0000000000000000       0x18 ./Peripheral/src/ch32v30x_bkp.o
 .text.BKP_WriteBackupRegister
                0x0000000000000000       0x1c ./Peripheral/src/ch32v30x_bkp.o
 .text.BKP_ReadBackupRegister
                0x0000000000000000       0x1c ./Peripheral/src/ch32v30x_bkp.o
 .text.BKP_GetFlagStatus
                0x0000000000000000        0xe ./Peripheral/src/ch32v30x_bkp.o
 .text.BKP_ClearFlag
                0x0000000000000000       0x12 ./Peripheral/src/ch32v30x_bkp.o
 .text.BKP_GetITStatus
                0x0000000000000000        0xe ./Peripheral/src/ch32v30x_bkp.o
 .text.BKP_ClearITPendingBit
                0x0000000000000000       0x12 ./Peripheral/src/ch32v30x_bkp.o
 .debug_info    0x0000000000000000     0x10ce ./Peripheral/src/ch32v30x_bkp.o
 .debug_abbrev  0x0000000000000000      0x2cc ./Peripheral/src/ch32v30x_bkp.o
 .debug_loc     0x0000000000000000       0xd8 ./Peripheral/src/ch32v30x_bkp.o
 .debug_aranges
                0x0000000000000000       0x78 ./Peripheral/src/ch32v30x_bkp.o
 .debug_ranges  0x0000000000000000       0x68 ./Peripheral/src/ch32v30x_bkp.o
 .debug_line    0x0000000000000000      0x670 ./Peripheral/src/ch32v30x_bkp.o
 .debug_str     0x0000000000000000      0xac7 ./Peripheral/src/ch32v30x_bkp.o
 .comment       0x0000000000000000       0x34 ./Peripheral/src/ch32v30x_bkp.o
 .debug_frame   0x0000000000000000       0xec ./Peripheral/src/ch32v30x_bkp.o
 .text          0x0000000000000000        0x0 ./Peripheral/src/ch32v30x_can.o
 .data          0x0000000000000000        0x0 ./Peripheral/src/ch32v30x_can.o
 .bss           0x0000000000000000        0x0 ./Peripheral/src/ch32v30x_can.o
 .text.CAN_DeInit
                0x0000000000000000       0x4c ./Peripheral/src/ch32v30x_can.o
 .text.CAN_Init
                0x0000000000000000       0xe8 ./Peripheral/src/ch32v30x_can.o
 .text.CAN_FilterInit
                0x0000000000000000       0xee ./Peripheral/src/ch32v30x_can.o
 .text.CAN_StructInit
                0x0000000000000000       0x24 ./Peripheral/src/ch32v30x_can.o
 .text.CAN_SlaveStartBank
                0x0000000000000000       0x38 ./Peripheral/src/ch32v30x_can.o
 .text.CAN_DBGFreeze
                0x0000000000000000       0x14 ./Peripheral/src/ch32v30x_can.o
 .text.CAN_TTComModeCmd
                0x0000000000000000       0x58 ./Peripheral/src/ch32v30x_can.o
 .text.CAN_Transmit
                0x0000000000000000       0xbc ./Peripheral/src/ch32v30x_can.o
 .text.CAN_TransmitStatus
                0x0000000000000000       0x62 ./Peripheral/src/ch32v30x_can.o
 .text.CAN_CancelTransmit
                0x0000000000000000       0x2a ./Peripheral/src/ch32v30x_can.o
 .text.CAN_Receive
                0x0000000000000000       0x8c ./Peripheral/src/ch32v30x_can.o
 .text.CAN_FIFORelease
                0x0000000000000000       0x16 ./Peripheral/src/ch32v30x_can.o
 .text.CAN_MessagePending
                0x0000000000000000       0x16 ./Peripheral/src/ch32v30x_can.o
 .text.CAN_OperatingModeRequest
                0x0000000000000000       0x72 ./Peripheral/src/ch32v30x_can.o
 .text.CAN_Sleep
                0x0000000000000000       0x16 ./Peripheral/src/ch32v30x_can.o
 .text.CAN_WakeUp
                0x0000000000000000       0x1e ./Peripheral/src/ch32v30x_can.o
 .text.CAN_GetLastErrorCode
                0x0000000000000000        0x8 ./Peripheral/src/ch32v30x_can.o
 .text.CAN_GetReceiveErrorCounter
                0x0000000000000000        0x6 ./Peripheral/src/ch32v30x_can.o
 .text.CAN_GetLSBTransmitErrorCounter
                0x0000000000000000        0xa ./Peripheral/src/ch32v30x_can.o
 .text.CAN_ITConfig
                0x0000000000000000       0x12 ./Peripheral/src/ch32v30x_can.o
 .text.CAN_GetFlagStatus
                0x0000000000000000       0x56 ./Peripheral/src/ch32v30x_can.o
 .text.CAN_ClearFlag
                0x0000000000000000       0x40 ./Peripheral/src/ch32v30x_can.o
 .text.CAN_GetITStatus
                0x0000000000000000       0xd0 ./Peripheral/src/ch32v30x_can.o
 .text.CAN_ClearITPendingBit
                0x0000000000000000       0x94 ./Peripheral/src/ch32v30x_can.o
 .debug_info    0x0000000000000000     0x1807 ./Peripheral/src/ch32v30x_can.o
 .debug_abbrev  0x0000000000000000      0x3eb ./Peripheral/src/ch32v30x_can.o
 .debug_loc     0x0000000000000000      0x999 ./Peripheral/src/ch32v30x_can.o
 .debug_aranges
                0x0000000000000000       0xd8 ./Peripheral/src/ch32v30x_can.o
 .debug_ranges  0x0000000000000000       0xf8 ./Peripheral/src/ch32v30x_can.o
 .debug_line    0x0000000000000000     0x1a33 ./Peripheral/src/ch32v30x_can.o
 .debug_str     0x0000000000000000      0xbdd ./Peripheral/src/ch32v30x_can.o
 .comment       0x0000000000000000       0x34 ./Peripheral/src/ch32v30x_can.o
 .debug_frame   0x0000000000000000      0x19c ./Peripheral/src/ch32v30x_can.o
 .text          0x0000000000000000        0x0 ./Peripheral/src/ch32v30x_crc.o
 .data          0x0000000000000000        0x0 ./Peripheral/src/ch32v30x_crc.o
 .bss           0x0000000000000000        0x0 ./Peripheral/src/ch32v30x_crc.o
 .text.CRC_ResetDR
                0x0000000000000000        0xa ./Peripheral/src/ch32v30x_crc.o
 .text.CRC_CalcCRC
                0x0000000000000000        0xa ./Peripheral/src/ch32v30x_crc.o
 .text.CRC_CalcBlockCRC
                0x0000000000000000       0x20 ./Peripheral/src/ch32v30x_crc.o
 .text.CRC_GetCRC
                0x0000000000000000        0x8 ./Peripheral/src/ch32v30x_crc.o
 .text.CRC_SetIDRegister
                0x0000000000000000        0x8 ./Peripheral/src/ch32v30x_crc.o
 .text.CRC_GetIDRegister
                0x0000000000000000        0x8 ./Peripheral/src/ch32v30x_crc.o
 .debug_info    0x0000000000000000      0xab3 ./Peripheral/src/ch32v30x_crc.o
 .debug_abbrev  0x0000000000000000      0x25f ./Peripheral/src/ch32v30x_crc.o
 .debug_loc     0x0000000000000000       0x75 ./Peripheral/src/ch32v30x_crc.o
 .debug_aranges
                0x0000000000000000       0x48 ./Peripheral/src/ch32v30x_crc.o
 .debug_ranges  0x0000000000000000       0x38 ./Peripheral/src/ch32v30x_crc.o
 .debug_line    0x0000000000000000      0x3d1 ./Peripheral/src/ch32v30x_crc.o
 .debug_str     0x0000000000000000      0x69d ./Peripheral/src/ch32v30x_crc.o
 .comment       0x0000000000000000       0x34 ./Peripheral/src/ch32v30x_crc.o
 .debug_frame   0x0000000000000000       0x70 ./Peripheral/src/ch32v30x_crc.o
 .text          0x0000000000000000        0x0 ./Peripheral/src/ch32v30x_dac.o
 .data          0x0000000000000000        0x0 ./Peripheral/src/ch32v30x_dac.o
 .bss           0x0000000000000000        0x0 ./Peripheral/src/ch32v30x_dac.o
 .text.DAC_DeInit
                0x0000000000000000       0x2c ./Peripheral/src/ch32v30x_dac.o
 .text.DAC_Init
                0x0000000000000000       0x30 ./Peripheral/src/ch32v30x_dac.o
 .text.DAC_StructInit
                0x0000000000000000       0x12 ./Peripheral/src/ch32v30x_dac.o
 .text.DAC_Cmd  0x0000000000000000       0x2c ./Peripheral/src/ch32v30x_dac.o
 .text.DAC_DMACmd
                0x0000000000000000       0x2c ./Peripheral/src/ch32v30x_dac.o
 .text.DAC_SoftwareTriggerCmd
                0x0000000000000000       0x22 ./Peripheral/src/ch32v30x_dac.o
 .text.DAC_DualSoftwareTriggerCmd
                0x0000000000000000       0x18 ./Peripheral/src/ch32v30x_dac.o
 .text.DAC_WaveGenerationCmd
                0x0000000000000000       0x1e ./Peripheral/src/ch32v30x_dac.o
 .text.DAC_SetChannel1Data
                0x0000000000000000       0x1e ./Peripheral/src/ch32v30x_dac.o
 .text.DAC_SetChannel2Data
                0x0000000000000000       0x1e ./Peripheral/src/ch32v30x_dac.o
 .text.DAC_SetDualChannelData
                0x0000000000000000       0x1c ./Peripheral/src/ch32v30x_dac.o
 .text.DAC_GetDataOutputValue
                0x0000000000000000       0x26 ./Peripheral/src/ch32v30x_dac.o
 .debug_info    0x0000000000000000      0xdbd ./Peripheral/src/ch32v30x_dac.o
 .debug_abbrev  0x0000000000000000      0x2fe ./Peripheral/src/ch32v30x_dac.o
 .debug_loc     0x0000000000000000      0x238 ./Peripheral/src/ch32v30x_dac.o
 .debug_aranges
                0x0000000000000000       0x78 ./Peripheral/src/ch32v30x_dac.o
 .debug_ranges  0x0000000000000000       0x68 ./Peripheral/src/ch32v30x_dac.o
 .debug_line    0x0000000000000000      0x7f0 ./Peripheral/src/ch32v30x_dac.o
 .debug_str     0x0000000000000000      0x821 ./Peripheral/src/ch32v30x_dac.o
 .comment       0x0000000000000000       0x34 ./Peripheral/src/ch32v30x_dac.o
 .debug_frame   0x0000000000000000       0xf4 ./Peripheral/src/ch32v30x_dac.o
 .text          0x0000000000000000        0x0 ./Peripheral/src/ch32v30x_dbgmcu.o
 .data          0x0000000000000000        0x0 ./Peripheral/src/ch32v30x_dbgmcu.o
 .bss           0x0000000000000000        0x0 ./Peripheral/src/ch32v30x_dbgmcu.o
 .text.DBGMCU_GetREVID
                0x0000000000000000        0xa ./Peripheral/src/ch32v30x_dbgmcu.o
 .text.DBGMCU_GetDEVID
                0x0000000000000000        0xa ./Peripheral/src/ch32v30x_dbgmcu.o
 .text.__get_DEBUG_CR
                0x0000000000000000        0x6 ./Peripheral/src/ch32v30x_dbgmcu.o
 .text.__set_DEBUG_CR
                0x0000000000000000        0x6 ./Peripheral/src/ch32v30x_dbgmcu.o
 .text.DBGMCU_Config
                0x0000000000000000       0x14 ./Peripheral/src/ch32v30x_dbgmcu.o
 .text          0x0000000000000000        0x0 ./Peripheral/src/ch32v30x_dma.o
 .data          0x0000000000000000        0x0 ./Peripheral/src/ch32v30x_dma.o
 .bss           0x0000000000000000        0x0 ./Peripheral/src/ch32v30x_dma.o
 .text.DMA_StructInit
                0x0000000000000000       0x2e ./Peripheral/src/ch32v30x_dma.o
 .text.DMA_ITConfig
                0x0000000000000000       0x12 ./Peripheral/src/ch32v30x_dma.o
 .text.DMA_SetCurrDataCounter
                0x0000000000000000        0x4 ./Peripheral/src/ch32v30x_dma.o
 .text.DMA_GetCurrDataCounter
                0x0000000000000000        0x8 ./Peripheral/src/ch32v30x_dma.o
 .text.DMA_GetFlagStatus
                0x0000000000000000       0x32 ./Peripheral/src/ch32v30x_dma.o
 .text.DMA_ClearFlag
                0x0000000000000000       0x2c ./Peripheral/src/ch32v30x_dma.o
 .text.DMA_GetITStatus
                0x0000000000000000       0x18 ./Peripheral/src/ch32v30x_dma.o
 .text.DMA_ClearITPendingBit
                0x0000000000000000       0x18 ./Peripheral/src/ch32v30x_dma.o
 .text          0x0000000000000000        0x0 ./Peripheral/src/ch32v30x_dvp.o
 .data          0x0000000000000000        0x0 ./Peripheral/src/ch32v30x_dvp.o
 .bss           0x0000000000000000        0x0 ./Peripheral/src/ch32v30x_dvp.o
 .text.DVP_INTCfg
                0x0000000000000000       0x16 ./Peripheral/src/ch32v30x_dvp.o
 .text.DVP_Mode
                0x0000000000000000       0x32 ./Peripheral/src/ch32v30x_dvp.o
 .text.DVP_Cfg  0x0000000000000000       0x62 ./Peripheral/src/ch32v30x_dvp.o
 .debug_info    0x0000000000000000      0xbc5 ./Peripheral/src/ch32v30x_dvp.o
 .debug_abbrev  0x0000000000000000      0x241 ./Peripheral/src/ch32v30x_dvp.o
 .debug_loc     0x0000000000000000       0x74 ./Peripheral/src/ch32v30x_dvp.o
 .debug_aranges
                0x0000000000000000       0x30 ./Peripheral/src/ch32v30x_dvp.o
 .debug_ranges  0x0000000000000000       0x20 ./Peripheral/src/ch32v30x_dvp.o
 .debug_line    0x0000000000000000      0x444 ./Peripheral/src/ch32v30x_dvp.o
 .debug_str     0x0000000000000000      0x75e ./Peripheral/src/ch32v30x_dvp.o
 .comment       0x0000000000000000       0x34 ./Peripheral/src/ch32v30x_dvp.o
 .debug_frame   0x0000000000000000       0x40 ./Peripheral/src/ch32v30x_dvp.o
 .text          0x0000000000000000        0x0 ./Peripheral/src/ch32v30x_eth.o
 .data          0x0000000000000000        0x0 ./Peripheral/src/ch32v30x_eth.o
 .bss           0x0000000000000000        0x0 ./Peripheral/src/ch32v30x_eth.o
 .text.ETH_DeInit
                0x0000000000000000       0x28 ./Peripheral/src/ch32v30x_eth.o
 .text.ETH_StructInit
                0x0000000000000000       0xd8 ./Peripheral/src/ch32v30x_eth.o
 .text.ETH_HandleTxPkt
                0x0000000000000000       0x8c ./Peripheral/src/ch32v30x_eth.o
 .text.ETH_HandleRxPkt
                0x0000000000000000       0x9e ./Peripheral/src/ch32v30x_eth.o
 .text.ETH_GetRxPktSize
                0x0000000000000000       0x32 ./Peripheral/src/ch32v30x_eth.o
 .text.ETH_DropRxPkt
                0x0000000000000000       0x3c ./Peripheral/src/ch32v30x_eth.o
 .text.ETH_ReadPHYRegister
                0x0000000000000000       0x58 ./Peripheral/src/ch32v30x_eth.o
 .text.ETH_WritePHYRegister
                0x0000000000000000       0x52 ./Peripheral/src/ch32v30x_eth.o
 .text.ETH_PHYLoopBackCmd
                0x0000000000000000       0x40 ./Peripheral/src/ch32v30x_eth.o
 .text.ETH_MACTransmissionCmd
                0x0000000000000000       0x14 ./Peripheral/src/ch32v30x_eth.o
 .text.ETH_MACReceptionCmd
                0x0000000000000000       0x14 ./Peripheral/src/ch32v30x_eth.o
 .text.ETH_GetFlowControlBusyStatus
                0x0000000000000000        0xa ./Peripheral/src/ch32v30x_eth.o
 .text.ETH_InitiatePauseControlFrame
                0x0000000000000000        0xe ./Peripheral/src/ch32v30x_eth.o
 .text.ETH_BackPressureActivationCmd
                0x0000000000000000       0x14 ./Peripheral/src/ch32v30x_eth.o
 .text.ETH_GetMACFlagStatus
                0x0000000000000000        0xe ./Peripheral/src/ch32v30x_eth.o
 .text.ETH_GetMACITStatus
                0x0000000000000000       0x18 ./Peripheral/src/ch32v30x_eth.o
 .text.ETH_MACITConfig
                0x0000000000000000       0x1e ./Peripheral/src/ch32v30x_eth.o
 .text.ETH_MACAddressConfig
                0x0000000000000000       0x32 ./Peripheral/src/ch32v30x_eth.o
 .text.ETH_GetMACAddress
                0x0000000000000000       0x32 ./Peripheral/src/ch32v30x_eth.o
 .text.ETH_MACAddressPerfectFilterCmd
                0x0000000000000000       0x1e ./Peripheral/src/ch32v30x_eth.o
 .text.ETH_MACAddressFilterConfig
                0x0000000000000000       0x28 ./Peripheral/src/ch32v30x_eth.o
 .text.ETH_MACAddressMaskBytesFilterConfig
                0x0000000000000000       0x1e ./Peripheral/src/ch32v30x_eth.o
 .text.ETH_DMATxDescChainInit
                0x0000000000000000       0x46 ./Peripheral/src/ch32v30x_eth.o
 .text.ETH_DMATxDescRingInit
                0x0000000000000000       0x44 ./Peripheral/src/ch32v30x_eth.o
 .text.ETH_GetDMATxDescFlagStatus
                0x0000000000000000        0xa ./Peripheral/src/ch32v30x_eth.o
 .text.ETH_GetDMATxDescCollisionCount
                0x0000000000000000        0x8 ./Peripheral/src/ch32v30x_eth.o
 .text.ETH_SetDMATxDescOwnBit
                0x0000000000000000        0xc ./Peripheral/src/ch32v30x_eth.o
 .text.ETH_DMATxDescTransmitITConfig
                0x0000000000000000       0x18 ./Peripheral/src/ch32v30x_eth.o
 .text.ETH_DMATxDescFrameSegmentConfig
                0x0000000000000000        0x8 ./Peripheral/src/ch32v30x_eth.o
 .text.ETH_DMATxDescChecksumInsertionConfig
                0x0000000000000000        0x8 ./Peripheral/src/ch32v30x_eth.o
 .text.ETH_DMATxDescCRCCmd
                0x0000000000000000       0x18 ./Peripheral/src/ch32v30x_eth.o
 .text.ETH_DMATxDescEndOfRingCmd
                0x0000000000000000       0x18 ./Peripheral/src/ch32v30x_eth.o
 .text.ETH_DMATxDescSecondAddressChainedCmd
                0x0000000000000000       0x18 ./Peripheral/src/ch32v30x_eth.o
 .text.ETH_DMATxDescShortFramePaddingCmd
                0x0000000000000000       0x18 ./Peripheral/src/ch32v30x_eth.o
 .text.ETH_DMATxDescTimeStampCmd
                0x0000000000000000       0x18 ./Peripheral/src/ch32v30x_eth.o
 .text.ETH_DMATxDescBufferSizeConfig
                0x0000000000000000        0xc ./Peripheral/src/ch32v30x_eth.o
 .text.ETH_DMARxDescChainInit
                0x0000000000000000       0x50 ./Peripheral/src/ch32v30x_eth.o
 .text.ETH_DMARxDescRingInit
                0x0000000000000000       0x52 ./Peripheral/src/ch32v30x_eth.o
 .text.ETH_GetDMARxDescFlagStatus
                0x0000000000000000        0xa ./Peripheral/src/ch32v30x_eth.o
 .text.ETH_SetDMARxDescOwnBit
                0x0000000000000000        0xc ./Peripheral/src/ch32v30x_eth.o
 .text.ETH_GetDMARxDescFrameLength
                0x0000000000000000        0x8 ./Peripheral/src/ch32v30x_eth.o
 .text.ETH_DMARxDescReceiveITConfig
                0x0000000000000000       0x14 ./Peripheral/src/ch32v30x_eth.o
 .text.ETH_DMARxDescEndOfRingCmd
                0x0000000000000000       0x14 ./Peripheral/src/ch32v30x_eth.o
 .text.ETH_DMARxDescSecondAddressChainedCmd
                0x0000000000000000       0x14 ./Peripheral/src/ch32v30x_eth.o
 .text.ETH_GetDMARxDescBufferSize
                0x0000000000000000        0xe ./Peripheral/src/ch32v30x_eth.o
 .text.ETH_SoftwareReset
                0x0000000000000000        0xe ./Peripheral/src/ch32v30x_eth.o
 .text.ETH_GetSoftwareResetStatus
                0x0000000000000000        0xa ./Peripheral/src/ch32v30x_eth.o
 .text.ETH_GetlinkStaus
                0x0000000000000000        0xa ./Peripheral/src/ch32v30x_eth.o
 .text.ETH_GetDMAFlagStatus
                0x0000000000000000        0xe ./Peripheral/src/ch32v30x_eth.o
 .text.ETH_DMAClearFlag
                0x0000000000000000        0x8 ./Peripheral/src/ch32v30x_eth.o
 .text.ETH_GetDMAITStatus
                0x0000000000000000       0x18 ./Peripheral/src/ch32v30x_eth.o
 .text.ETH_DMAClearITPendingBit
                0x0000000000000000        0x8 ./Peripheral/src/ch32v30x_eth.o
 .text.ETH_GetTransmitProcessState
                0x0000000000000000        0xa ./Peripheral/src/ch32v30x_eth.o
 .text.ETH_GetReceiveProcessState
                0x0000000000000000        0xc ./Peripheral/src/ch32v30x_eth.o
 .text.ETH_FlushTransmitFIFO
                0x0000000000000000       0x10 ./Peripheral/src/ch32v30x_eth.o
 .text.ETH_Start
                0x0000000000000000       0x40 ./Peripheral/src/ch32v30x_eth.o
 .text.ETH_GetFlushTransmitFIFOStatus
                0x0000000000000000        0xc ./Peripheral/src/ch32v30x_eth.o
 .text.ETH_DMATransmissionCmd
                0x0000000000000000       0x20 ./Peripheral/src/ch32v30x_eth.o
 .text.ETH_DMAReceptionCmd
                0x0000000000000000       0x14 ./Peripheral/src/ch32v30x_eth.o
 .text.ETH_DMAITConfig
                0x0000000000000000       0x1e ./Peripheral/src/ch32v30x_eth.o
 .text.ETH_GetDMAOverflowStatus
                0x0000000000000000        0xe ./Peripheral/src/ch32v30x_eth.o
 .text.ETH_GetRxOverflowMissedFrameCounter
                0x0000000000000000        0xe ./Peripheral/src/ch32v30x_eth.o
 .text.ETH_GetBufferUnavailableMissedFrameCounter
                0x0000000000000000        0xc ./Peripheral/src/ch32v30x_eth.o
 .text.ETH_GetCurrentTxDescStartAddress
                0x0000000000000000        0x8 ./Peripheral/src/ch32v30x_eth.o
 .text.ETH_GetCurrentRxDescStartAddress
                0x0000000000000000        0x8 ./Peripheral/src/ch32v30x_eth.o
 .text.ETH_GetCurrentTxBufferAddress
                0x0000000000000000        0xc ./Peripheral/src/ch32v30x_eth.o
 .text.ETH_GetCurrentRxBufferAddress
                0x0000000000000000        0x8 ./Peripheral/src/ch32v30x_eth.o
 .text.ETH_ResumeDMATransmission
                0x0000000000000000        0xa ./Peripheral/src/ch32v30x_eth.o
 .text.ETH_ResumeDMAReception
                0x0000000000000000        0xa ./Peripheral/src/ch32v30x_eth.o
 .text.ETH_ResetWakeUpFrameFilterRegisterPointer
                0x0000000000000000       0x10 ./Peripheral/src/ch32v30x_eth.o
 .text.ETH_SetWakeUpFrameFilterRegister
                0x0000000000000000       0x14 ./Peripheral/src/ch32v30x_eth.o
 .text.ETH_GlobalUnicastWakeUpCmd
                0x0000000000000000       0x16 ./Peripheral/src/ch32v30x_eth.o
 .text.ETH_GetPMTFlagStatus
                0x0000000000000000        0xe ./Peripheral/src/ch32v30x_eth.o
 .text.ETH_WakeUpFrameDetectionCmd
                0x0000000000000000       0x14 ./Peripheral/src/ch32v30x_eth.o
 .text.ETH_MagicPacketDetectionCmd
                0x0000000000000000       0x14 ./Peripheral/src/ch32v30x_eth.o
 .text.ETH_PowerDownCmd
                0x0000000000000000       0x14 ./Peripheral/src/ch32v30x_eth.o
 .text.ETH_MMCCounterFreezeCmd
                0x0000000000000000       0x18 ./Peripheral/src/ch32v30x_eth.o
 .text.ETH_MMCResetOnReadCmd
                0x0000000000000000       0x18 ./Peripheral/src/ch32v30x_eth.o
 .text.ETH_MMCCounterRolloverCmd
                0x0000000000000000       0x18 ./Peripheral/src/ch32v30x_eth.o
 .text.ETH_MMCCountersReset
                0x0000000000000000       0x12 ./Peripheral/src/ch32v30x_eth.o
 .text.ETH_MMCITConfig
                0x0000000000000000       0x5c ./Peripheral/src/ch32v30x_eth.o
 .text.ETH_GetMMCITStatus
                0x0000000000000000       0x3a ./Peripheral/src/ch32v30x_eth.o
 .text.ETH_GetMMCRegister
                0x0000000000000000        0xa ./Peripheral/src/ch32v30x_eth.o
 .text.ETH_EnablePTPTimeStampAddend
                0x0000000000000000       0x12 ./Peripheral/src/ch32v30x_eth.o
 .text.ETH_EnablePTPTimeStampInterruptTrigger
                0x0000000000000000       0x12 ./Peripheral/src/ch32v30x_eth.o
 .text.ETH_EnablePTPTimeStampUpdate
                0x0000000000000000       0x12 ./Peripheral/src/ch32v30x_eth.o
 .text.ETH_InitializePTPTimeStamp
                0x0000000000000000       0x12 ./Peripheral/src/ch32v30x_eth.o
 .text.ETH_PTPUpdateMethodConfig
                0x0000000000000000       0x18 ./Peripheral/src/ch32v30x_eth.o
 .text.ETH_PTPTimeStampCmd
                0x0000000000000000       0x18 ./Peripheral/src/ch32v30x_eth.o
 .text.ETH_GetPTPFlagStatus
                0x0000000000000000       0x10 ./Peripheral/src/ch32v30x_eth.o
 .text.ETH_SetPTPSubSecondIncrement
                0x0000000000000000        0xa ./Peripheral/src/ch32v30x_eth.o
 .text.ETH_SetPTPTimeStampUpdate
                0x0000000000000000       0x10 ./Peripheral/src/ch32v30x_eth.o
 .text.ETH_SetPTPTimeStampAddend
                0x0000000000000000        0xa ./Peripheral/src/ch32v30x_eth.o
 .text.ETH_SetPTPTargetTime
                0x0000000000000000        0xe ./Peripheral/src/ch32v30x_eth.o
 .text.ETH_GetPTPRegister
                0x0000000000000000        0xa ./Peripheral/src/ch32v30x_eth.o
 .text.ETH_DMAPTPTxDescChainInit
                0x0000000000000000       0x66 ./Peripheral/src/ch32v30x_eth.o
 .text.ETH_DMAPTPRxDescChainInit
                0x0000000000000000       0x70 ./Peripheral/src/ch32v30x_eth.o
 .text.ETH_HandlePTPTxPkt
                0x0000000000000000       0xe6 ./Peripheral/src/ch32v30x_eth.o
 .text.ETH_HandlePTPRxPkt
                0x0000000000000000       0xd0 ./Peripheral/src/ch32v30x_eth.o
 .text.RGMII_TXC_Delay
                0x0000000000000000       0x26 ./Peripheral/src/ch32v30x_eth.o
 .sbss.DMAPTPRxDescToGet
                0x0000000000000000        0x4 ./Peripheral/src/ch32v30x_eth.o
 .sbss.DMAPTPTxDescToSet
                0x0000000000000000        0x4 ./Peripheral/src/ch32v30x_eth.o
 .sbss.DMARxDescToGet
                0x0000000000000000        0x4 ./Peripheral/src/ch32v30x_eth.o
 .sbss.DMATxDescToSet
                0x0000000000000000        0x4 ./Peripheral/src/ch32v30x_eth.o
 .debug_info    0x0000000000000000     0x26f0 ./Peripheral/src/ch32v30x_eth.o
 .debug_abbrev  0x0000000000000000      0x47b ./Peripheral/src/ch32v30x_eth.o
 .debug_loc     0x0000000000000000      0xef1 ./Peripheral/src/ch32v30x_eth.o
 .debug_aranges
                0x0000000000000000      0x300 ./Peripheral/src/ch32v30x_eth.o
 .debug_ranges  0x0000000000000000      0x368 ./Peripheral/src/ch32v30x_eth.o
 .debug_line    0x0000000000000000     0x3224 ./Peripheral/src/ch32v30x_eth.o
 .debug_str     0x0000000000000000     0x191f ./Peripheral/src/ch32v30x_eth.o
 .comment       0x0000000000000000       0x34 ./Peripheral/src/ch32v30x_eth.o
 .debug_frame   0x0000000000000000      0x6a4 ./Peripheral/src/ch32v30x_eth.o
 .text          0x0000000000000000        0x0 ./Peripheral/src/ch32v30x_exti.o
 .data          0x0000000000000000        0x0 ./Peripheral/src/ch32v30x_exti.o
 .bss           0x0000000000000000        0x0 ./Peripheral/src/ch32v30x_exti.o
 .text.EXTI_DeInit
                0x0000000000000000       0x22 ./Peripheral/src/ch32v30x_exti.o
 .text.EXTI_Init
                0x0000000000000000       0x6a ./Peripheral/src/ch32v30x_exti.o
 .text.EXTI_StructInit
                0x0000000000000000       0x12 ./Peripheral/src/ch32v30x_exti.o
 .text.EXTI_GenerateSWInterrupt
                0x0000000000000000       0x10 ./Peripheral/src/ch32v30x_exti.o
 .text.EXTI_GetFlagStatus
                0x0000000000000000       0x12 ./Peripheral/src/ch32v30x_exti.o
 .text.EXTI_ClearFlag
                0x0000000000000000        0xa ./Peripheral/src/ch32v30x_exti.o
 .text.EXTI_GetITStatus
                0x0000000000000000       0x1e ./Peripheral/src/ch32v30x_exti.o
 .text.EXTI_ClearITPendingBit
                0x0000000000000000        0xa ./Peripheral/src/ch32v30x_exti.o
 .debug_info    0x0000000000000000      0xc0d ./Peripheral/src/ch32v30x_exti.o
 .debug_abbrev  0x0000000000000000      0x2da ./Peripheral/src/ch32v30x_exti.o
 .debug_loc     0x0000000000000000      0x181 ./Peripheral/src/ch32v30x_exti.o
 .debug_aranges
                0x0000000000000000       0x50 ./Peripheral/src/ch32v30x_exti.o
 .debug_ranges  0x0000000000000000       0x40 ./Peripheral/src/ch32v30x_exti.o
 .debug_line    0x0000000000000000      0x5dc ./Peripheral/src/ch32v30x_exti.o
 .debug_str     0x0000000000000000      0x7af ./Peripheral/src/ch32v30x_exti.o
 .comment       0x0000000000000000       0x34 ./Peripheral/src/ch32v30x_exti.o
 .debug_frame   0x0000000000000000       0x90 ./Peripheral/src/ch32v30x_exti.o
 .text          0x0000000000000000        0x0 ./Peripheral/src/ch32v30x_flash.o
 .data          0x0000000000000000        0x0 ./Peripheral/src/ch32v30x_flash.o
 .bss           0x0000000000000000        0x0 ./Peripheral/src/ch32v30x_flash.o
 .text.ROM_ERASE
                0x0000000000000000       0xbe ./Peripheral/src/ch32v30x_flash.o
 .text.FLASH_Unlock
                0x0000000000000000       0x1a ./Peripheral/src/ch32v30x_flash.o
 .text.FLASH_UnlockBank1
                0x0000000000000000       0x18 ./Peripheral/src/ch32v30x_flash.o
 .text.FLASH_Lock
                0x0000000000000000        0xe ./Peripheral/src/ch32v30x_flash.o
 .text.FLASH_LockBank1
                0x0000000000000000       0x18 ./Peripheral/src/ch32v30x_flash.o
 .text.FLASH_GetUserOptionByte
                0x0000000000000000        0xa ./Peripheral/src/ch32v30x_flash.o
 .text.FLASH_GetWriteProtectionOptionByte
                0x0000000000000000        0x8 ./Peripheral/src/ch32v30x_flash.o
 .text.FLASH_GetReadOutProtectionStatus
                0x0000000000000000        0xc ./Peripheral/src/ch32v30x_flash.o
 .text.FLASH_ITConfig
                0x0000000000000000       0x1e ./Peripheral/src/ch32v30x_flash.o
 .text.FLASH_GetFlagStatus
                0x0000000000000000       0x1e ./Peripheral/src/ch32v30x_flash.o
 .text.FLASH_ClearFlag
                0x0000000000000000        0x8 ./Peripheral/src/ch32v30x_flash.o
 .text.FLASH_GetStatus
                0x0000000000000000       0x18 ./Peripheral/src/ch32v30x_flash.o
 .text.FLASH_GetBank1Status
                0x0000000000000000       0x18 ./Peripheral/src/ch32v30x_flash.o
 .text.FLASH_WaitForLastOperation
                0x0000000000000000       0x34 ./Peripheral/src/ch32v30x_flash.o
 .text.FLASH_ErasePage
                0x0000000000000000       0x4c ./Peripheral/src/ch32v30x_flash.o
 .text.FLASH_EraseAllPages
                0x0000000000000000       0x48 ./Peripheral/src/ch32v30x_flash.o
 .text.FLASH_EraseAllBank1Pages
                0x0000000000000000       0x18 ./Peripheral/src/ch32v30x_flash.o
 .text.FLASH_EraseOptionBytes
                0x0000000000000000       0xe6 ./Peripheral/src/ch32v30x_flash.o
 .text.FLASH_ProgramWord
                0x0000000000000000       0x68 ./Peripheral/src/ch32v30x_flash.o
 .text.FLASH_ProgramHalfWord
                0x0000000000000000       0x48 ./Peripheral/src/ch32v30x_flash.o
 .text.FLASH_ProgramOptionByteData
                0x0000000000000000      0x11a ./Peripheral/src/ch32v30x_flash.o
 .text.FLASH_EnableWriteProtection
                0x0000000000000000      0x106 ./Peripheral/src/ch32v30x_flash.o
 .text.FLASH_ReadOutProtection
                0x0000000000000000       0xf4 ./Peripheral/src/ch32v30x_flash.o
 .text.FLASH_UserOptionByteConfig
                0x0000000000000000      0x108 ./Peripheral/src/ch32v30x_flash.o
 .text.FLASH_WaitForLastBank1Operation
                0x0000000000000000       0x18 ./Peripheral/src/ch32v30x_flash.o
 .text.FLASH_Unlock_Fast
                0x0000000000000000       0x1e ./Peripheral/src/ch32v30x_flash.o
 .text.FLASH_Lock_Fast
                0x0000000000000000        0xe ./Peripheral/src/ch32v30x_flash.o
 .text.FLASH_ErasePage_Fast
                0x0000000000000000       0x4c ./Peripheral/src/ch32v30x_flash.o
 .text.FLASH_EraseBlock_32K_Fast
                0x0000000000000000       0x30 ./Peripheral/src/ch32v30x_flash.o
 .text.FLASH_EraseBlock_64K_Fast
                0x0000000000000000       0x30 ./Peripheral/src/ch32v30x_flash.o
 .text.FLASH_ProgramPage_Fast
                0x0000000000000000       0x64 ./Peripheral/src/ch32v30x_flash.o
 .text.FLASH_Access_Clock_Cfg
                0x0000000000000000       0x18 ./Peripheral/src/ch32v30x_flash.o
 .text.FLASH_Enhance_Mode
                0x0000000000000000       0x2e ./Peripheral/src/ch32v30x_flash.o
 .text.FLASH_ROM_ERASE
                0x0000000000000000      0x1c6 ./Peripheral/src/ch32v30x_flash.o
 .text.FLASH_ROM_WRITE
                0x0000000000000000       0xce ./Peripheral/src/ch32v30x_flash.o
 .debug_info    0x0000000000000000     0x15c7 ./Peripheral/src/ch32v30x_flash.o
 .debug_abbrev  0x0000000000000000      0x468 ./Peripheral/src/ch32v30x_flash.o
 .debug_loc     0x0000000000000000      0xc1c ./Peripheral/src/ch32v30x_flash.o
 .debug_aranges
                0x0000000000000000      0x110 ./Peripheral/src/ch32v30x_flash.o
 .debug_ranges  0x0000000000000000      0x100 ./Peripheral/src/ch32v30x_flash.o
 .debug_line    0x0000000000000000     0x2595 ./Peripheral/src/ch32v30x_flash.o
 .debug_str     0x0000000000000000      0xb44 ./Peripheral/src/ch32v30x_flash.o
 .comment       0x0000000000000000       0x34 ./Peripheral/src/ch32v30x_flash.o
 .debug_frame   0x0000000000000000      0x374 ./Peripheral/src/ch32v30x_flash.o
 .text          0x0000000000000000        0x0 ./Peripheral/src/ch32v30x_fsmc.o
 .data          0x0000000000000000        0x0 ./Peripheral/src/ch32v30x_fsmc.o
 .bss           0x0000000000000000        0x0 ./Peripheral/src/ch32v30x_fsmc.o
 .text.FSMC_NORSRAMDeInit
                0x0000000000000000       0x3c ./Peripheral/src/ch32v30x_fsmc.o
 .text.FSMC_NANDDeInit
                0x0000000000000000       0x26 ./Peripheral/src/ch32v30x_fsmc.o
 .text.FSMC_NORSRAMInit
                0x0000000000000000       0xae ./Peripheral/src/ch32v30x_fsmc.o
 .text.FSMC_NANDInit
                0x0000000000000000       0x84 ./Peripheral/src/ch32v30x_fsmc.o
 .text.FSMC_NORSRAMStructInit
                0x0000000000000000       0x5c ./Peripheral/src/ch32v30x_fsmc.o
 .text.FSMC_NANDStructInit
                0x0000000000000000       0x36 ./Peripheral/src/ch32v30x_fsmc.o
 .text.FSMC_NORSRAMCmd
                0x0000000000000000       0x1e ./Peripheral/src/ch32v30x_fsmc.o
 .text.FSMC_NANDCmd
                0x0000000000000000       0x2c ./Peripheral/src/ch32v30x_fsmc.o
 .text.FSMC_NANDECCCmd
                0x0000000000000000       0x2e ./Peripheral/src/ch32v30x_fsmc.o
 .text.FSMC_GetECC
                0x0000000000000000       0x12 ./Peripheral/src/ch32v30x_fsmc.o
 .text.FSMC_GetFlagStatus
                0x0000000000000000       0x18 ./Peripheral/src/ch32v30x_fsmc.o
 .debug_info    0x0000000000000000      0xf08 ./Peripheral/src/ch32v30x_fsmc.o
 .debug_abbrev  0x0000000000000000      0x2d9 ./Peripheral/src/ch32v30x_fsmc.o
 .debug_loc     0x0000000000000000      0x2ae ./Peripheral/src/ch32v30x_fsmc.o
 .debug_aranges
                0x0000000000000000       0x70 ./Peripheral/src/ch32v30x_fsmc.o
 .debug_ranges  0x0000000000000000       0x60 ./Peripheral/src/ch32v30x_fsmc.o
 .debug_line    0x0000000000000000      0xc1c ./Peripheral/src/ch32v30x_fsmc.o
 .debug_str     0x0000000000000000      0xa82 ./Peripheral/src/ch32v30x_fsmc.o
 .comment       0x0000000000000000       0x34 ./Peripheral/src/ch32v30x_fsmc.o
 .debug_frame   0x0000000000000000       0xc0 ./Peripheral/src/ch32v30x_fsmc.o
 .text          0x0000000000000000        0x0 ./Peripheral/src/ch32v30x_gpio.o
 .data          0x0000000000000000        0x0 ./Peripheral/src/ch32v30x_gpio.o
 .bss           0x0000000000000000        0x0 ./Peripheral/src/ch32v30x_gpio.o
 .text.GPIO_DeInit
                0x0000000000000000       0xa4 ./Peripheral/src/ch32v30x_gpio.o
 .text.GPIO_AFIODeInit
                0x0000000000000000       0x28 ./Peripheral/src/ch32v30x_gpio.o
 .text.GPIO_StructInit
                0x0000000000000000        0xe ./Peripheral/src/ch32v30x_gpio.o
 .text.GPIO_ReadInputData
                0x0000000000000000        0x8 ./Peripheral/src/ch32v30x_gpio.o
 .text.GPIO_ReadOutputDataBit
                0x0000000000000000        0xa ./Peripheral/src/ch32v30x_gpio.o
 .text.GPIO_ReadOutputData
                0x0000000000000000        0x8 ./Peripheral/src/ch32v30x_gpio.o
 .text.GPIO_ResetBits
                0x0000000000000000        0x4 ./Peripheral/src/ch32v30x_gpio.o
 .text.GPIO_Write
                0x0000000000000000        0x4 ./Peripheral/src/ch32v30x_gpio.o
 .text.GPIO_PinLockConfig
                0x0000000000000000       0x10 ./Peripheral/src/ch32v30x_gpio.o
 .text.GPIO_EventOutputConfig
                0x0000000000000000       0x18 ./Peripheral/src/ch32v30x_gpio.o
 .text.GPIO_EventOutputCmd
                0x0000000000000000       0x16 ./Peripheral/src/ch32v30x_gpio.o
 .text.GPIO_EXTILineConfig
                0x0000000000000000       0x2c ./Peripheral/src/ch32v30x_gpio.o
 .text.GPIO_ETH_MediaInterfaceConfig
                0x0000000000000000       0x24 ./Peripheral/src/ch32v30x_gpio.o
 .text.GPIO_IPD_Unused
                0x0000000000000000      0x140 ./Peripheral/src/ch32v30x_gpio.o
 .text          0x0000000000000000        0x0 ./Peripheral/src/ch32v30x_i2c.o
 .data          0x0000000000000000        0x0 ./Peripheral/src/ch32v30x_i2c.o
 .bss           0x0000000000000000        0x0 ./Peripheral/src/ch32v30x_i2c.o
 .text.I2C_DeInit
                0x0000000000000000       0x4c ./Peripheral/src/ch32v30x_i2c.o
 .text.I2C_StructInit
                0x0000000000000000       0x18 ./Peripheral/src/ch32v30x_i2c.o
 .text.I2C_DMACmd
                0x0000000000000000       0x1e ./Peripheral/src/ch32v30x_i2c.o
 .text.I2C_DMALastTransferCmd
                0x0000000000000000       0x16 ./Peripheral/src/ch32v30x_i2c.o
 .text.I2C_OwnAddress2Config
                0x0000000000000000       0x14 ./Peripheral/src/ch32v30x_i2c.o
 .text.I2C_DualAddressCmd
                0x0000000000000000       0x18 ./Peripheral/src/ch32v30x_i2c.o
 .text.I2C_GeneralCallCmd
                0x0000000000000000       0x1a ./Peripheral/src/ch32v30x_i2c.o
 .text.I2C_ITConfig
                0x0000000000000000       0x12 ./Peripheral/src/ch32v30x_i2c.o
 .text.I2C_ReadRegister
                0x0000000000000000       0x14 ./Peripheral/src/ch32v30x_i2c.o
 .text.I2C_SoftwareResetCmd
                0x0000000000000000       0x12 ./Peripheral/src/ch32v30x_i2c.o
 .text.I2C_NACKPositionConfig
                0x0000000000000000       0x22 ./Peripheral/src/ch32v30x_i2c.o
 .text.I2C_SMBusAlertConfig
                0x0000000000000000       0x1a ./Peripheral/src/ch32v30x_i2c.o
 .text.I2C_TransmitPEC
                0x0000000000000000       0x16 ./Peripheral/src/ch32v30x_i2c.o
 .text.I2C_PECPositionConfig
                0x0000000000000000       0x18 ./Peripheral/src/ch32v30x_i2c.o
 .text.I2C_CalculatePEC
                0x0000000000000000       0x1a ./Peripheral/src/ch32v30x_i2c.o
 .text.I2C_GetPEC
                0x0000000000000000        0x6 ./Peripheral/src/ch32v30x_i2c.o
 .text.I2C_ARPCmd
                0x0000000000000000       0x18 ./Peripheral/src/ch32v30x_i2c.o
 .text.I2C_StretchClockCmd
                0x0000000000000000       0x1a ./Peripheral/src/ch32v30x_i2c.o
 .text.I2C_FastModeDutyCycleConfig
                0x0000000000000000       0x1a ./Peripheral/src/ch32v30x_i2c.o
 .text.I2C_GetLastEvent
                0x0000000000000000        0xe ./Peripheral/src/ch32v30x_i2c.o
 .text.I2C_ClearFlag
                0x0000000000000000        0xc ./Peripheral/src/ch32v30x_i2c.o
 .text.I2C_GetITStatus
                0x0000000000000000       0x20 ./Peripheral/src/ch32v30x_i2c.o
 .text.I2C_ClearITPendingBit
                0x0000000000000000        0xc ./Peripheral/src/ch32v30x_i2c.o
 .text          0x0000000000000000        0x0 ./Peripheral/src/ch32v30x_iwdg.o
 .data          0x0000000000000000        0x0 ./Peripheral/src/ch32v30x_iwdg.o
 .bss           0x0000000000000000        0x0 ./Peripheral/src/ch32v30x_iwdg.o
 .text.IWDG_WriteAccessCmd
                0x0000000000000000        0x8 ./Peripheral/src/ch32v30x_iwdg.o
 .text.IWDG_SetPrescaler
                0x0000000000000000        0x8 ./Peripheral/src/ch32v30x_iwdg.o
 .text.IWDG_SetReload
                0x0000000000000000        0x8 ./Peripheral/src/ch32v30x_iwdg.o
 .text.IWDG_ReloadCounter
                0x0000000000000000        0xe ./Peripheral/src/ch32v30x_iwdg.o
 .text.IWDG_Enable
                0x0000000000000000       0x18 ./Peripheral/src/ch32v30x_iwdg.o
 .text.IWDG_GetFlagStatus
                0x0000000000000000        0xe ./Peripheral/src/ch32v30x_iwdg.o
 .debug_info    0x0000000000000000      0xb74 ./Peripheral/src/ch32v30x_iwdg.o
 .debug_abbrev  0x0000000000000000      0x282 ./Peripheral/src/ch32v30x_iwdg.o
 .debug_loc     0x0000000000000000       0x68 ./Peripheral/src/ch32v30x_iwdg.o
 .debug_aranges
                0x0000000000000000       0x48 ./Peripheral/src/ch32v30x_iwdg.o
 .debug_ranges  0x0000000000000000       0x38 ./Peripheral/src/ch32v30x_iwdg.o
 .debug_line    0x0000000000000000      0x3fb ./Peripheral/src/ch32v30x_iwdg.o
 .debug_str     0x0000000000000000      0x726 ./Peripheral/src/ch32v30x_iwdg.o
 .comment       0x0000000000000000       0x34 ./Peripheral/src/ch32v30x_iwdg.o
 .debug_frame   0x0000000000000000       0x70 ./Peripheral/src/ch32v30x_iwdg.o
 .text          0x0000000000000000        0x0 ./Peripheral/src/ch32v30x_misc.o
 .data          0x0000000000000000        0x0 ./Peripheral/src/ch32v30x_misc.o
 .bss           0x0000000000000000        0x0 ./Peripheral/src/ch32v30x_misc.o
 .text          0x0000000000000000        0x0 ./Peripheral/src/ch32v30x_opa.o
 .data          0x0000000000000000        0x0 ./Peripheral/src/ch32v30x_opa.o
 .bss           0x0000000000000000        0x0 ./Peripheral/src/ch32v30x_opa.o
 .text.OPA_DeInit
                0x0000000000000000        0xa ./Peripheral/src/ch32v30x_opa.o
 .text.OPA_Init
                0x0000000000000000       0x36 ./Peripheral/src/ch32v30x_opa.o
 .text.OPA_StructInit
                0x0000000000000000       0x12 ./Peripheral/src/ch32v30x_opa.o
 .text.OPA_Cmd  0x0000000000000000       0x2c ./Peripheral/src/ch32v30x_opa.o
 .debug_info    0x0000000000000000      0xb28 ./Peripheral/src/ch32v30x_opa.o
 .debug_abbrev  0x0000000000000000      0x252 ./Peripheral/src/ch32v30x_opa.o
 .debug_loc     0x0000000000000000       0x56 ./Peripheral/src/ch32v30x_opa.o
 .debug_aranges
                0x0000000000000000       0x38 ./Peripheral/src/ch32v30x_opa.o
 .debug_ranges  0x0000000000000000       0x28 ./Peripheral/src/ch32v30x_opa.o
 .debug_line    0x0000000000000000      0x464 ./Peripheral/src/ch32v30x_opa.o
 .debug_str     0x0000000000000000      0x6dd ./Peripheral/src/ch32v30x_opa.o
 .comment       0x0000000000000000       0x34 ./Peripheral/src/ch32v30x_opa.o
 .debug_frame   0x0000000000000000       0x50 ./Peripheral/src/ch32v30x_opa.o
 .text          0x0000000000000000        0x0 ./Peripheral/src/ch32v30x_pwr.o
 .data          0x0000000000000000        0x0 ./Peripheral/src/ch32v30x_pwr.o
 .bss           0x0000000000000000        0x0 ./Peripheral/src/ch32v30x_pwr.o
 .text.PWR_DeInit
                0x0000000000000000       0x2c ./Peripheral/src/ch32v30x_pwr.o
 .text.PWR_BackupAccessCmd
                0x0000000000000000       0x16 ./Peripheral/src/ch32v30x_pwr.o
 .text.PWR_PVDCmd
                0x0000000000000000       0x14 ./Peripheral/src/ch32v30x_pwr.o
 .text.PWR_PVDLevelConfig
                0x0000000000000000       0x10 ./Peripheral/src/ch32v30x_pwr.o
 .text.PWR_WakeUpPinCmd
                0x0000000000000000       0x16 ./Peripheral/src/ch32v30x_pwr.o
 .text.PWR_EnterSTOPMode
                0x0000000000000000       0x7c ./Peripheral/src/ch32v30x_pwr.o
 .text.PWR_EnterSTANDBYMode
                0x0000000000000000       0x34 ./Peripheral/src/ch32v30x_pwr.o
 .text.PWR_GetFlagStatus
                0x0000000000000000        0xe ./Peripheral/src/ch32v30x_pwr.o
 .text.PWR_ClearFlag
                0x0000000000000000        0xe ./Peripheral/src/ch32v30x_pwr.o
 .text.PWR_EnterSTANDBYMode_RAM
                0x0000000000000000       0x30 ./Peripheral/src/ch32v30x_pwr.o
 .text.PWR_EnterSTANDBYMode_RAM_LV
                0x0000000000000000       0x30 ./Peripheral/src/ch32v30x_pwr.o
 .text.PWR_EnterSTANDBYMode_RAM_VBAT_EN
                0x0000000000000000       0x30 ./Peripheral/src/ch32v30x_pwr.o
 .text.PWR_EnterSTANDBYMode_RAM_LV_VBAT_EN
                0x0000000000000000       0x30 ./Peripheral/src/ch32v30x_pwr.o
 .text.PWR_EnterSTOPMode_RAM_LV
                0x0000000000000000       0x82 ./Peripheral/src/ch32v30x_pwr.o
 .debug_info    0x0000000000000000     0x101d ./Peripheral/src/ch32v30x_pwr.o
 .debug_abbrev  0x0000000000000000      0x3aa ./Peripheral/src/ch32v30x_pwr.o
 .debug_loc     0x0000000000000000      0x278 ./Peripheral/src/ch32v30x_pwr.o
 .debug_aranges
                0x0000000000000000       0x88 ./Peripheral/src/ch32v30x_pwr.o
 .debug_ranges  0x0000000000000000       0xf8 ./Peripheral/src/ch32v30x_pwr.o
 .debug_line    0x0000000000000000      0xac7 ./Peripheral/src/ch32v30x_pwr.o
 .debug_str     0x0000000000000000      0x879 ./Peripheral/src/ch32v30x_pwr.o
 .comment       0x0000000000000000       0x34 ./Peripheral/src/ch32v30x_pwr.o
 .debug_frame   0x0000000000000000       0xfc ./Peripheral/src/ch32v30x_pwr.o
 .text          0x0000000000000000        0x0 ./Peripheral/src/ch32v30x_rcc.o
 .data          0x0000000000000000        0x0 ./Peripheral/src/ch32v30x_rcc.o
 .bss           0x0000000000000000        0x0 ./Peripheral/src/ch32v30x_rcc.o
 .text.RCC_DeInit
                0x0000000000000000       0x52 ./Peripheral/src/ch32v30x_rcc.o
 .text.RCC_HSEConfig
                0x0000000000000000       0x3c ./Peripheral/src/ch32v30x_rcc.o
 .text.RCC_AdjustHSICalibrationValue
                0x0000000000000000       0x12 ./Peripheral/src/ch32v30x_rcc.o
 .text.RCC_HSICmd
                0x0000000000000000       0x14 ./Peripheral/src/ch32v30x_rcc.o
 .text.RCC_PLLConfig
                0x0000000000000000       0x2e ./Peripheral/src/ch32v30x_rcc.o
 .text.RCC_PLLCmd
                0x0000000000000000       0x24 ./Peripheral/src/ch32v30x_rcc.o
 .text.RCC_SYSCLKConfig
                0x0000000000000000        0xe ./Peripheral/src/ch32v30x_rcc.o
 .text.RCC_GetSYSCLKSource
                0x0000000000000000        0xa ./Peripheral/src/ch32v30x_rcc.o
 .text.RCC_HCLKConfig
                0x0000000000000000       0x10 ./Peripheral/src/ch32v30x_rcc.o
 .text.RCC_PCLK1Config
                0x0000000000000000       0x10 ./Peripheral/src/ch32v30x_rcc.o
 .text.RCC_PCLK2Config
                0x0000000000000000       0x16 ./Peripheral/src/ch32v30x_rcc.o
 .text.RCC_ITConfig
                0x0000000000000000       0x16 ./Peripheral/src/ch32v30x_rcc.o
 .text.RCC_LSEConfig
                0x0000000000000000       0x28 ./Peripheral/src/ch32v30x_rcc.o
 .text.RCC_LSICmd
                0x0000000000000000       0x14 ./Peripheral/src/ch32v30x_rcc.o
 .text.RCC_RTCCLKConfig
                0x0000000000000000        0xc ./Peripheral/src/ch32v30x_rcc.o
 .text.RCC_RTCCLKCmd
                0x0000000000000000       0x20 ./Peripheral/src/ch32v30x_rcc.o
 .text.RCC_APB1PeriphResetCmd
                0x0000000000000000       0x1e ./Peripheral/src/ch32v30x_rcc.o
 .text.RCC_BackupResetCmd
                0x0000000000000000       0x20 ./Peripheral/src/ch32v30x_rcc.o
 .text.RCC_ClockSecuritySystemCmd
                0x0000000000000000       0x24 ./Peripheral/src/ch32v30x_rcc.o
 .text.RCC_MCOConfig
                0x0000000000000000        0x8 ./Peripheral/src/ch32v30x_rcc.o
 .text.RCC_GetFlagStatus
                0x0000000000000000       0x2e ./Peripheral/src/ch32v30x_rcc.o
 .text.RCC_WaitForHSEStartUp
                0x0000000000000000       0x42 ./Peripheral/src/ch32v30x_rcc.o
 .text.RCC_ClearFlag
                0x0000000000000000       0x10 ./Peripheral/src/ch32v30x_rcc.o
 .text.RCC_GetITStatus
                0x0000000000000000        0xe ./Peripheral/src/ch32v30x_rcc.o
 .text.RCC_ClearITPendingBit
                0x0000000000000000        0x8 ./Peripheral/src/ch32v30x_rcc.o
 .text.RCC_PREDIV1Config
                0x0000000000000000       0x14 ./Peripheral/src/ch32v30x_rcc.o
 .text.RCC_PREDIV2Config
                0x0000000000000000       0x10 ./Peripheral/src/ch32v30x_rcc.o
 .text.RCC_PLL2Config
                0x0000000000000000       0x14 ./Peripheral/src/ch32v30x_rcc.o
 .text.RCC_PLL2Cmd
                0x0000000000000000       0x24 ./Peripheral/src/ch32v30x_rcc.o
 .text.RCC_PLL3Config
                0x0000000000000000       0x12 ./Peripheral/src/ch32v30x_rcc.o
 .text.RCC_PLL3Cmd
                0x0000000000000000       0x24 ./Peripheral/src/ch32v30x_rcc.o
 .text.RCC_USBFSCLKConfig
                0x0000000000000000       0x1a ./Peripheral/src/ch32v30x_rcc.o
 .text.RCC_I2S2CLKConfig
                0x0000000000000000       0x18 ./Peripheral/src/ch32v30x_rcc.o
 .text.RCC_I2S3CLKConfig
                0x0000000000000000       0x1a ./Peripheral/src/ch32v30x_rcc.o
 .text.RCC_AHBPeriphResetCmd
                0x0000000000000000       0x1e ./Peripheral/src/ch32v30x_rcc.o
 .text.RCC_ADCCLKADJcmd
                0x0000000000000000       0x18 ./Peripheral/src/ch32v30x_rcc.o
 .text.RCC_RNGCLKConfig
                0x0000000000000000       0x1a ./Peripheral/src/ch32v30x_rcc.o
 .text.RCC_ETH1GCLKConfig
                0x0000000000000000       0x1a ./Peripheral/src/ch32v30x_rcc.o
 .text.RCC_ETH1G_125Mcmd
                0x0000000000000000       0x24 ./Peripheral/src/ch32v30x_rcc.o
 .text.RCC_USBHSConfig
                0x0000000000000000       0x1a ./Peripheral/src/ch32v30x_rcc.o
 .text.RCC_USBHSPLLCLKConfig
                0x0000000000000000       0x1a ./Peripheral/src/ch32v30x_rcc.o
 .text.RCC_USBHSPLLCKREFCLKConfig
                0x0000000000000000       0x1a ./Peripheral/src/ch32v30x_rcc.o
 .text.RCC_USBHSPHYPLLALIVEcmd
                0x0000000000000000       0x24 ./Peripheral/src/ch32v30x_rcc.o
 .text.RCC_USBCLK48MConfig
                0x0000000000000000       0x16 ./Peripheral/src/ch32v30x_rcc.o
 .text          0x0000000000000000        0x0 ./Peripheral/src/ch32v30x_rng.o
 .data          0x0000000000000000        0x0 ./Peripheral/src/ch32v30x_rng.o
 .bss           0x0000000000000000        0x0 ./Peripheral/src/ch32v30x_rng.o
 .text.RNG_Cmd  0x0000000000000000       0x18 ./Peripheral/src/ch32v30x_rng.o
 .text.RNG_GetRandomNumber
                0x0000000000000000        0xa ./Peripheral/src/ch32v30x_rng.o
 .text.RNG_ITConfig
                0x0000000000000000       0x18 ./Peripheral/src/ch32v30x_rng.o
 .text.RNG_GetFlagStatus
                0x0000000000000000       0x12 ./Peripheral/src/ch32v30x_rng.o
 .text.RNG_ClearFlag
                0x0000000000000000       0x10 ./Peripheral/src/ch32v30x_rng.o
 .text.RNG_GetITStatus
                0x0000000000000000       0x18 ./Peripheral/src/ch32v30x_rng.o
 .text.RNG_ClearITPendingBit
                0x0000000000000000       0x12 ./Peripheral/src/ch32v30x_rng.o
 .debug_info    0x0000000000000000      0xb02 ./Peripheral/src/ch32v30x_rng.o
 .debug_abbrev  0x0000000000000000      0x2c8 ./Peripheral/src/ch32v30x_rng.o
 .debug_loc     0x0000000000000000       0xa8 ./Peripheral/src/ch32v30x_rng.o
 .debug_aranges
                0x0000000000000000       0x48 ./Peripheral/src/ch32v30x_rng.o
 .debug_ranges  0x0000000000000000       0x38 ./Peripheral/src/ch32v30x_rng.o
 .debug_line    0x0000000000000000      0x431 ./Peripheral/src/ch32v30x_rng.o
 .debug_str     0x0000000000000000      0x6ae ./Peripheral/src/ch32v30x_rng.o
 .comment       0x0000000000000000       0x34 ./Peripheral/src/ch32v30x_rng.o
 .debug_frame   0x0000000000000000       0x8c ./Peripheral/src/ch32v30x_rng.o
 .text          0x0000000000000000        0x0 ./Peripheral/src/ch32v30x_rtc.o
 .data          0x0000000000000000        0x0 ./Peripheral/src/ch32v30x_rtc.o
 .bss           0x0000000000000000        0x0 ./Peripheral/src/ch32v30x_rtc.o
 .text.RTC_ITConfig
                0x0000000000000000       0x1a ./Peripheral/src/ch32v30x_rtc.o
 .text.RTC_EnterConfigMode
                0x0000000000000000       0x12 ./Peripheral/src/ch32v30x_rtc.o
 .text.RTC_ExitConfigMode
                0x0000000000000000       0x18 ./Peripheral/src/ch32v30x_rtc.o
 .text.RTC_GetCounter
                0x0000000000000000       0x5a ./Peripheral/src/ch32v30x_rtc.o
 .text.RTC_SetCounter
                0x0000000000000000       0x3c ./Peripheral/src/ch32v30x_rtc.o
 .text.RTC_SetPrescaler
                0x0000000000000000       0x3e ./Peripheral/src/ch32v30x_rtc.o
 .text.RTC_SetAlarm
                0x0000000000000000       0x3c ./Peripheral/src/ch32v30x_rtc.o
 .text.RTC_GetDivider
                0x0000000000000000       0x60 ./Peripheral/src/ch32v30x_rtc.o
 .text.RTC_WaitForLastTask
                0x0000000000000000       0x10 ./Peripheral/src/ch32v30x_rtc.o
 .text.RTC_WaitForSynchro
                0x0000000000000000       0x24 ./Peripheral/src/ch32v30x_rtc.o
 .text.RTC_GetFlagStatus
                0x0000000000000000       0x12 ./Peripheral/src/ch32v30x_rtc.o
 .text.RTC_ClearFlag
                0x0000000000000000       0x14 ./Peripheral/src/ch32v30x_rtc.o
 .text.RTC_GetITStatus
                0x0000000000000000       0x20 ./Peripheral/src/ch32v30x_rtc.o
 .text.RTC_ClearITPendingBit
                0x0000000000000000       0x18 ./Peripheral/src/ch32v30x_rtc.o
 .debug_info    0x0000000000000000      0xdd4 ./Peripheral/src/ch32v30x_rtc.o
 .debug_abbrev  0x0000000000000000      0x30b ./Peripheral/src/ch32v30x_rtc.o
 .debug_loc     0x0000000000000000      0x377 ./Peripheral/src/ch32v30x_rtc.o
 .debug_aranges
                0x0000000000000000       0x80 ./Peripheral/src/ch32v30x_rtc.o
 .debug_ranges  0x0000000000000000       0x70 ./Peripheral/src/ch32v30x_rtc.o
 .debug_line    0x0000000000000000      0x9ab ./Peripheral/src/ch32v30x_rtc.o
 .debug_str     0x0000000000000000      0x828 ./Peripheral/src/ch32v30x_rtc.o
 .comment       0x0000000000000000       0x34 ./Peripheral/src/ch32v30x_rtc.o
 .debug_frame   0x0000000000000000      0x12c ./Peripheral/src/ch32v30x_rtc.o
 .text          0x0000000000000000        0x0 ./Peripheral/src/ch32v30x_sdio.o
 .data          0x0000000000000000        0x0 ./Peripheral/src/ch32v30x_sdio.o
 .bss           0x0000000000000000        0x0 ./Peripheral/src/ch32v30x_sdio.o
 .text.SDIO_DeInit
                0x0000000000000000       0x30 ./Peripheral/src/ch32v30x_sdio.o
 .text.SDIO_Init
                0x0000000000000000       0x2a ./Peripheral/src/ch32v30x_sdio.o
 .text.SDIO_StructInit
                0x0000000000000000       0x1a ./Peripheral/src/ch32v30x_sdio.o
 .text.SDIO_ClockCmd
                0x0000000000000000       0x16 ./Peripheral/src/ch32v30x_sdio.o
 .text.SDIO_SetPowerState
                0x0000000000000000       0x12 ./Peripheral/src/ch32v30x_sdio.o
 .text.SDIO_GetPowerState
                0x0000000000000000        0xa ./Peripheral/src/ch32v30x_sdio.o
 .text.SDIO_ITConfig
                0x0000000000000000       0x1e ./Peripheral/src/ch32v30x_sdio.o
 .text.SDIO_DMACmd
                0x0000000000000000       0x14 ./Peripheral/src/ch32v30x_sdio.o
 .text.SDIO_SendCommand
                0x0000000000000000       0x22 ./Peripheral/src/ch32v30x_sdio.o
 .text.SDIO_CmdStructInit
                0x0000000000000000       0x16 ./Peripheral/src/ch32v30x_sdio.o
 .text.SDIO_GetCommandResponse
                0x0000000000000000        0xc ./Peripheral/src/ch32v30x_sdio.o
 .text.SDIO_GetResponse
                0x0000000000000000       0x16 ./Peripheral/src/ch32v30x_sdio.o
 .text.SDIO_DataConfig
                0x0000000000000000       0x26 ./Peripheral/src/ch32v30x_sdio.o
 .text.SDIO_DataStructInit
                0x0000000000000000       0x1a ./Peripheral/src/ch32v30x_sdio.o
 .text.SDIO_GetDataCounter
                0x0000000000000000        0x8 ./Peripheral/src/ch32v30x_sdio.o
 .text.SDIO_ReadData
                0x0000000000000000        0xa ./Peripheral/src/ch32v30x_sdio.o
 .text.SDIO_WriteData
                0x0000000000000000        0xa ./Peripheral/src/ch32v30x_sdio.o
 .text.SDIO_GetFIFOCount
                0x0000000000000000        0x8 ./Peripheral/src/ch32v30x_sdio.o
 .text.SDIO_StartSDIOReadWait
                0x0000000000000000       0x16 ./Peripheral/src/ch32v30x_sdio.o
 .text.SDIO_StopSDIOReadWait
                0x0000000000000000       0x16 ./Peripheral/src/ch32v30x_sdio.o
 .text.SDIO_SetSDIOReadWaitMode
                0x0000000000000000       0x16 ./Peripheral/src/ch32v30x_sdio.o
 .text.SDIO_SetSDIOOperation
                0x0000000000000000       0x1e ./Peripheral/src/ch32v30x_sdio.o
 .text.SDIO_SendSDIOSuspendCmd
                0x0000000000000000       0x1e ./Peripheral/src/ch32v30x_sdio.o
 .text.SDIO_CommandCompletionCmd
                0x0000000000000000       0x20 ./Peripheral/src/ch32v30x_sdio.o
 .text.SDIO_CEATAITCmd
                0x0000000000000000       0x20 ./Peripheral/src/ch32v30x_sdio.o
 .text.SDIO_SendCEATACmd
                0x0000000000000000       0x20 ./Peripheral/src/ch32v30x_sdio.o
 .text.SDIO_GetFlagStatus
                0x0000000000000000        0xe ./Peripheral/src/ch32v30x_sdio.o
 .text.SDIO_ClearFlag
                0x0000000000000000        0x8 ./Peripheral/src/ch32v30x_sdio.o
 .text.SDIO_GetITStatus
                0x0000000000000000       0x18 ./Peripheral/src/ch32v30x_sdio.o
 .text.SDIO_ClearITPendingBit
                0x0000000000000000        0x8 ./Peripheral/src/ch32v30x_sdio.o
 .debug_info    0x0000000000000000     0x10d1 ./Peripheral/src/ch32v30x_sdio.o
 .debug_abbrev  0x0000000000000000      0x385 ./Peripheral/src/ch32v30x_sdio.o
 .debug_loc     0x0000000000000000      0x1bb ./Peripheral/src/ch32v30x_sdio.o
 .debug_aranges
                0x0000000000000000       0xf8 ./Peripheral/src/ch32v30x_sdio.o
 .debug_ranges  0x0000000000000000       0xe8 ./Peripheral/src/ch32v30x_sdio.o
 .debug_line    0x0000000000000000      0xca1 ./Peripheral/src/ch32v30x_sdio.o
 .debug_str     0x0000000000000000      0xa80 ./Peripheral/src/ch32v30x_sdio.o
 .comment       0x0000000000000000       0x34 ./Peripheral/src/ch32v30x_sdio.o
 .debug_frame   0x0000000000000000      0x204 ./Peripheral/src/ch32v30x_sdio.o
 .text          0x0000000000000000        0x0 ./Peripheral/src/ch32v30x_spi.o
 .data          0x0000000000000000        0x0 ./Peripheral/src/ch32v30x_spi.o
 .bss           0x0000000000000000        0x0 ./Peripheral/src/ch32v30x_spi.o
 .text.SPI_I2S_DeInit
                0x0000000000000000       0x70 ./Peripheral/src/ch32v30x_spi.o
 .text.SPI_Init
                0x0000000000000000       0x3e ./Peripheral/src/ch32v30x_spi.o
 .text.I2S_Init
                0x0000000000000000       0xc6 ./Peripheral/src/ch32v30x_spi.o
 .text.SPI_StructInit
                0x0000000000000000       0x22 ./Peripheral/src/ch32v30x_spi.o
 .text.I2S_StructInit
                0x0000000000000000       0x12 ./Peripheral/src/ch32v30x_spi.o
 .text.SPI_Cmd  0x0000000000000000       0x1a ./Peripheral/src/ch32v30x_spi.o
 .text.I2S_Cmd  0x0000000000000000       0x1a ./Peripheral/src/ch32v30x_spi.o
 .text.SPI_I2S_ITConfig
                0x0000000000000000       0x1e ./Peripheral/src/ch32v30x_spi.o
 .text.SPI_I2S_DMACmd
                0x0000000000000000       0x12 ./Peripheral/src/ch32v30x_spi.o
 .text.SPI_I2S_SendData
                0x0000000000000000        0x4 ./Peripheral/src/ch32v30x_spi.o
 .text.SPI_I2S_ReceiveData
                0x0000000000000000        0x4 ./Peripheral/src/ch32v30x_spi.o
 .text.SPI_NSSInternalSoftwareConfig
                0x0000000000000000       0x24 ./Peripheral/src/ch32v30x_spi.o
 .text.SPI_SSOutputCmd
                0x0000000000000000       0x18 ./Peripheral/src/ch32v30x_spi.o
 .text.SPI_DataSizeConfig
                0x0000000000000000       0x14 ./Peripheral/src/ch32v30x_spi.o
 .text.SPI_TransmitCRC
                0x0000000000000000        0xa ./Peripheral/src/ch32v30x_spi.o
 .text.SPI_CalculateCRC
                0x0000000000000000       0x16 ./Peripheral/src/ch32v30x_spi.o
 .text.SPI_GetCRC
                0x0000000000000000       0x12 ./Peripheral/src/ch32v30x_spi.o
 .text.SPI_GetCRCPolynomial
                0x0000000000000000        0x4 ./Peripheral/src/ch32v30x_spi.o
 .text.SPI_BiDirectionalLineConfig
                0x0000000000000000       0x1a ./Peripheral/src/ch32v30x_spi.o
 .text.SPI_I2S_GetFlagStatus
                0x0000000000000000        0xa ./Peripheral/src/ch32v30x_spi.o
 .text.SPI_I2S_ClearFlag
                0x0000000000000000        0xc ./Peripheral/src/ch32v30x_spi.o
 .text.SPI_I2S_GetITStatus
                0x0000000000000000       0x28 ./Peripheral/src/ch32v30x_spi.o
 .text.SPI_I2S_ClearITPendingBit
                0x0000000000000000       0x14 ./Peripheral/src/ch32v30x_spi.o
 .debug_info    0x0000000000000000     0x12cd ./Peripheral/src/ch32v30x_spi.o
 .debug_abbrev  0x0000000000000000      0x312 ./Peripheral/src/ch32v30x_spi.o
 .debug_loc     0x0000000000000000      0x598 ./Peripheral/src/ch32v30x_spi.o
 .debug_aranges
                0x0000000000000000       0xd0 ./Peripheral/src/ch32v30x_spi.o
 .debug_ranges  0x0000000000000000       0xc0 ./Peripheral/src/ch32v30x_spi.o
 .debug_line    0x0000000000000000      0xd36 ./Peripheral/src/ch32v30x_spi.o
 .debug_str     0x0000000000000000      0xab1 ./Peripheral/src/ch32v30x_spi.o
 .comment       0x0000000000000000       0x34 ./Peripheral/src/ch32v30x_spi.o
 .debug_frame   0x0000000000000000      0x1a8 ./Peripheral/src/ch32v30x_spi.o
 .text          0x0000000000000000        0x0 ./Peripheral/src/ch32v30x_tim.o
 .data          0x0000000000000000        0x0 ./Peripheral/src/ch32v30x_tim.o
 .bss           0x0000000000000000        0x0 ./Peripheral/src/ch32v30x_tim.o
 .text.TI1_Config
                0x0000000000000000       0x82 ./Peripheral/src/ch32v30x_tim.o
 .text.TI2_Config
                0x0000000000000000       0x9a ./Peripheral/src/ch32v30x_tim.o
 .text.TIM_DeInit
                0x0000000000000000      0x138 ./Peripheral/src/ch32v30x_tim.o
 .text.TIM_BDTRConfig
                0x0000000000000000       0x20 ./Peripheral/src/ch32v30x_tim.o
 .text.TIM_TimeBaseStructInit
                0x0000000000000000       0x16 ./Peripheral/src/ch32v30x_tim.o
 .text.TIM_OCStructInit
                0x0000000000000000       0x22 ./Peripheral/src/ch32v30x_tim.o
 .text.TIM_ICStructInit
                0x0000000000000000       0x16 ./Peripheral/src/ch32v30x_tim.o
 .text.TIM_BDTRStructInit
                0x0000000000000000       0x1e ./Peripheral/src/ch32v30x_tim.o
 .text.TIM_ITConfig
                0x0000000000000000       0x12 ./Peripheral/src/ch32v30x_tim.o
 .text.TIM_GenerateEvent
                0x0000000000000000        0x4 ./Peripheral/src/ch32v30x_tim.o
 .text.TIM_DMAConfig
                0x0000000000000000        0x8 ./Peripheral/src/ch32v30x_tim.o
 .text.TIM_DMACmd
                0x0000000000000000       0x18 ./Peripheral/src/ch32v30x_tim.o
 .text.TIM_InternalClockConfig
                0x0000000000000000       0x10 ./Peripheral/src/ch32v30x_tim.o
 .text.TIM_ITRxExternalClockConfig
                0x0000000000000000       0x18 ./Peripheral/src/ch32v30x_tim.o
 .text.TIM_TIxExternalClockConfig
                0x0000000000000000       0x48 ./Peripheral/src/ch32v30x_tim.o
 .text.TIM_ETRConfig
                0x0000000000000000       0x16 ./Peripheral/src/ch32v30x_tim.o
 .text.TIM_ETRClockMode1Config
                0x0000000000000000       0x2a ./Peripheral/src/ch32v30x_tim.o
 .text.TIM_ETRClockMode2Config
                0x0000000000000000       0x22 ./Peripheral/src/ch32v30x_tim.o
 .text.TIM_PrescalerConfig
                0x0000000000000000        0x6 ./Peripheral/src/ch32v30x_tim.o
 .text.TIM_CounterModeConfig
                0x0000000000000000       0x10 ./Peripheral/src/ch32v30x_tim.o
 .text.TIM_SelectInputTrigger
                0x0000000000000000       0x10 ./Peripheral/src/ch32v30x_tim.o
 .text.TIM_EncoderInterfaceConfig
                0x0000000000000000       0x3c ./Peripheral/src/ch32v30x_tim.o
 .text.TIM_ForcedOC1Config
                0x0000000000000000       0x10 ./Peripheral/src/ch32v30x_tim.o
 .text.TIM_ForcedOC2Config
                0x0000000000000000       0x14 ./Peripheral/src/ch32v30x_tim.o
 .text.TIM_ForcedOC3Config
                0x0000000000000000       0x10 ./Peripheral/src/ch32v30x_tim.o
 .text.TIM_ForcedOC4Config
                0x0000000000000000       0x14 ./Peripheral/src/ch32v30x_tim.o
 .text.TIM_SelectCOM
                0x0000000000000000       0x18 ./Peripheral/src/ch32v30x_tim.o
 .text.TIM_SelectCCDMA
                0x0000000000000000       0x18 ./Peripheral/src/ch32v30x_tim.o
 .text.TIM_CCPreloadControl
                0x0000000000000000       0x18 ./Peripheral/src/ch32v30x_tim.o
 .text.TIM_OC1FastConfig
                0x0000000000000000        0xe ./Peripheral/src/ch32v30x_tim.o
 .text.TIM_OC2FastConfig
                0x0000000000000000       0x16 ./Peripheral/src/ch32v30x_tim.o
 .text.TIM_OC3FastConfig
                0x0000000000000000        0xe ./Peripheral/src/ch32v30x_tim.o
 .text.TIM_OC4FastConfig
                0x0000000000000000       0x16 ./Peripheral/src/ch32v30x_tim.o
 .text.TIM_ClearOC1Ref
                0x0000000000000000       0x10 ./Peripheral/src/ch32v30x_tim.o
 .text.TIM_ClearOC2Ref
                0x0000000000000000       0x12 ./Peripheral/src/ch32v30x_tim.o
 .text.TIM_ClearOC3Ref
                0x0000000000000000       0x10 ./Peripheral/src/ch32v30x_tim.o
 .text.TIM_ClearOC4Ref
                0x0000000000000000       0x12 ./Peripheral/src/ch32v30x_tim.o
 .text.TIM_OC1PolarityConfig
                0x0000000000000000        0xe ./Peripheral/src/ch32v30x_tim.o
 .text.TIM_OC1NPolarityConfig
                0x0000000000000000        0xe ./Peripheral/src/ch32v30x_tim.o
 .text.TIM_OC2PolarityConfig
                0x0000000000000000       0x16 ./Peripheral/src/ch32v30x_tim.o
 .text.TIM_OC2NPolarityConfig
                0x0000000000000000       0x16 ./Peripheral/src/ch32v30x_tim.o
 .text.TIM_OC3PolarityConfig
                0x0000000000000000       0x16 ./Peripheral/src/ch32v30x_tim.o
 .text.TIM_OC3NPolarityConfig
                0x0000000000000000       0x16 ./Peripheral/src/ch32v30x_tim.o
 .text.TIM_OC4PolarityConfig
                0x0000000000000000       0x14 ./Peripheral/src/ch32v30x_tim.o
 .text.TIM_CCxCmd
                0x0000000000000000       0x20 ./Peripheral/src/ch32v30x_tim.o
 .text.TIM_CCxNCmd
                0x0000000000000000       0x20 ./Peripheral/src/ch32v30x_tim.o
 .text.TIM_SelectOCxM
                0x0000000000000000       0x4c ./Peripheral/src/ch32v30x_tim.o
 .text.TIM_UpdateDisableConfig
                0x0000000000000000       0x18 ./Peripheral/src/ch32v30x_tim.o
 .text.TIM_UpdateRequestConfig
                0x0000000000000000       0x18 ./Peripheral/src/ch32v30x_tim.o
 .text.TIM_SelectHallSensor
                0x0000000000000000       0x1a ./Peripheral/src/ch32v30x_tim.o
 .text.TIM_SelectOnePulseMode
                0x0000000000000000       0x16 ./Peripheral/src/ch32v30x_tim.o
 .text.TIM_SelectOutputTrigger
                0x0000000000000000       0x18 ./Peripheral/src/ch32v30x_tim.o
 .text.TIM_SelectSlaveMode
                0x0000000000000000       0x16 ./Peripheral/src/ch32v30x_tim.o
 .text.TIM_SelectMasterSlaveMode
                0x0000000000000000       0x18 ./Peripheral/src/ch32v30x_tim.o
 .text.TIM_SetCounter
                0x0000000000000000        0x4 ./Peripheral/src/ch32v30x_tim.o
 .text.TIM_SetAutoreload
                0x0000000000000000        0x4 ./Peripheral/src/ch32v30x_tim.o
 .text.TIM_SetIC1Prescaler
                0x0000000000000000       0x16 ./Peripheral/src/ch32v30x_tim.o
 .text.TIM_SetIC2Prescaler
                0x0000000000000000       0x1a ./Peripheral/src/ch32v30x_tim.o
 .text.TIM_PWMIConfig
                0x0000000000000000       0x92 ./Peripheral/src/ch32v30x_tim.o
 .text.TIM_SetIC3Prescaler
                0x0000000000000000       0x16 ./Peripheral/src/ch32v30x_tim.o
 .text.TIM_SetIC4Prescaler
                0x0000000000000000       0x1a ./Peripheral/src/ch32v30x_tim.o
 .text.TIM_ICInit
                0x0000000000000000      0x1ba ./Peripheral/src/ch32v30x_tim.o
 .text.TIM_SetClockDivision
                0x0000000000000000       0x18 ./Peripheral/src/ch32v30x_tim.o
 .text.TIM_GetCounter
                0x0000000000000000        0x4 ./Peripheral/src/ch32v30x_tim.o
 .text.TIM_GetPrescaler
                0x0000000000000000        0x4 ./Peripheral/src/ch32v30x_tim.o
 .text.TIM_GetFlagStatus
                0x0000000000000000        0xa ./Peripheral/src/ch32v30x_tim.o
 .text.TIM_GetITStatus
                0x0000000000000000       0x18 ./Peripheral/src/ch32v30x_tim.o
 .text.TIM_ClearITPendingBit
                0x0000000000000000        0xc ./Peripheral/src/ch32v30x_tim.o
 .text          0x0000000000000000        0x0 ./Peripheral/src/ch32v30x_usart.o
 .data          0x0000000000000000        0x0 ./Peripheral/src/ch32v30x_usart.o
 .bss           0x0000000000000000        0x0 ./Peripheral/src/ch32v30x_usart.o
 .text.USART_DeInit
                0x0000000000000000      0x112 ./Peripheral/src/ch32v30x_usart.o
 .text.USART_StructInit
                0x0000000000000000       0x18 ./Peripheral/src/ch32v30x_usart.o
 .text.USART_ClockInit
                0x0000000000000000       0x1e ./Peripheral/src/ch32v30x_usart.o
 .text.USART_ClockStructInit
                0x0000000000000000       0x12 ./Peripheral/src/ch32v30x_usart.o
 .text.USART_DMACmd
                0x0000000000000000       0x12 ./Peripheral/src/ch32v30x_usart.o
 .text.USART_SetAddress
                0x0000000000000000       0x16 ./Peripheral/src/ch32v30x_usart.o
 .text.USART_WakeUpConfig
                0x0000000000000000       0x14 ./Peripheral/src/ch32v30x_usart.o
 .text.USART_ReceiverWakeUpCmd
                0x0000000000000000       0x18 ./Peripheral/src/ch32v30x_usart.o
 .text.USART_LINBreakDetectLengthConfig
                0x0000000000000000       0x18 ./Peripheral/src/ch32v30x_usart.o
 .text.USART_LINCmd
                0x0000000000000000       0x16 ./Peripheral/src/ch32v30x_usart.o
 .text.USART_SendBreak
                0x0000000000000000        0xa ./Peripheral/src/ch32v30x_usart.o
 .text.USART_SetGuardTime
                0x0000000000000000       0x12 ./Peripheral/src/ch32v30x_usart.o
 .text.USART_SetPrescaler
                0x0000000000000000       0x18 ./Peripheral/src/ch32v30x_usart.o
 .text.USART_SmartCardCmd
                0x0000000000000000       0x1a ./Peripheral/src/ch32v30x_usart.o
 .text.USART_SmartCardNACKCmd
                0x0000000000000000       0x18 ./Peripheral/src/ch32v30x_usart.o
 .text.USART_HalfDuplexCmd
                0x0000000000000000       0x18 ./Peripheral/src/ch32v30x_usart.o
 .text.USART_IrDAConfig
                0x0000000000000000       0x16 ./Peripheral/src/ch32v30x_usart.o
 .text.USART_IrDACmd
                0x0000000000000000       0x18 ./Peripheral/src/ch32v30x_usart.o
 .text.USART_ClearITPendingBit
                0x0000000000000000       0x14 ./Peripheral/src/ch32v30x_usart.o
 .text          0x0000000000000000        0x0 ./Peripheral/src/ch32v30x_wwdg.o
 .data          0x0000000000000000        0x0 ./Peripheral/src/ch32v30x_wwdg.o
 .bss           0x0000000000000000        0x0 ./Peripheral/src/ch32v30x_wwdg.o
 .text.WWDG_DeInit
                0x0000000000000000       0x2e ./Peripheral/src/ch32v30x_wwdg.o
 .text.WWDG_SetPrescaler
                0x0000000000000000       0x14 ./Peripheral/src/ch32v30x_wwdg.o
 .text.WWDG_SetWindowValue
                0x0000000000000000       0x26 ./Peripheral/src/ch32v30x_wwdg.o
 .text.WWDG_EnableIT
                0x0000000000000000       0x12 ./Peripheral/src/ch32v30x_wwdg.o
 .text.WWDG_SetCounter
                0x0000000000000000        0xe ./Peripheral/src/ch32v30x_wwdg.o
 .text.WWDG_Enable
                0x0000000000000000        0xe ./Peripheral/src/ch32v30x_wwdg.o
 .text.WWDG_GetFlagStatus
                0x0000000000000000        0xa ./Peripheral/src/ch32v30x_wwdg.o
 .text.WWDG_ClearFlag
                0x0000000000000000        0xa ./Peripheral/src/ch32v30x_wwdg.o
 .debug_info    0x0000000000000000      0xb28 ./Peripheral/src/ch32v30x_wwdg.o
 .debug_abbrev  0x0000000000000000      0x29d ./Peripheral/src/ch32v30x_wwdg.o
 .debug_loc     0x0000000000000000       0xae ./Peripheral/src/ch32v30x_wwdg.o
 .debug_aranges
                0x0000000000000000       0x58 ./Peripheral/src/ch32v30x_wwdg.o
 .debug_ranges  0x0000000000000000       0x48 ./Peripheral/src/ch32v30x_wwdg.o
 .debug_line    0x0000000000000000      0x49f ./Peripheral/src/ch32v30x_wwdg.o
 .debug_str     0x0000000000000000      0x6d4 ./Peripheral/src/ch32v30x_wwdg.o
 .comment       0x0000000000000000       0x34 ./Peripheral/src/ch32v30x_wwdg.o
 .debug_frame   0x0000000000000000       0xa4 ./Peripheral/src/ch32v30x_wwdg.o
 .text          0x0000000000000000        0x0 ./General_Files/eMPL/inv_mpu.o
 .data          0x0000000000000000        0x0 ./General_Files/eMPL/inv_mpu.o
 .bss           0x0000000000000000        0x0 ./General_Files/eMPL/inv_mpu.o
 .text.mpu_reg_dump
                0x0000000000000000       0x64 ./General_Files/eMPL/inv_mpu.o
 .text.mpu_read_reg
                0x0000000000000000       0x4a ./General_Files/eMPL/inv_mpu.o
 .text.mpu_get_gyro_reg
                0x0000000000000000       0x5e ./General_Files/eMPL/inv_mpu.o
 .text.mpu_get_accel_reg
                0x0000000000000000       0x5c ./General_Files/eMPL/inv_mpu.o
 .text.mpu_get_temperature
                0x0000000000000000       0xae ./General_Files/eMPL/inv_mpu.o
 .text.mpu_set_accel_bias
                0x0000000000000000       0xf0 ./General_Files/eMPL/inv_mpu.o
 .text.mpu_get_compass_sample_rate
                0x0000000000000000        0x8 ./General_Files/eMPL/inv_mpu.o
 .text.mpu_set_compass_sample_rate
                0x0000000000000000        0x4 ./General_Files/eMPL/inv_mpu.o
 .text.mpu_get_fifo_config
                0x0000000000000000        0xe ./General_Files/eMPL/inv_mpu.o
 .text.mpu_get_power_state
                0x0000000000000000       0x12 ./General_Files/eMPL/inv_mpu.o
 .text.mpu_get_int_status
                0x0000000000000000       0x46 ./General_Files/eMPL/inv_mpu.o
 .text.mpu_read_fifo
                0x0000000000000000      0x1b8 ./General_Files/eMPL/inv_mpu.o
 .text.mpu_set_int_level
                0x0000000000000000        0xc ./General_Files/eMPL/inv_mpu.o
 .text.mpu_get_dmp_state
                0x0000000000000000        0xe ./General_Files/eMPL/inv_mpu.o
 .text.setup_compass
                0x0000000000000000        0x4 ./General_Files/eMPL/inv_mpu.o
 .text.mpu_get_compass_reg
                0x0000000000000000        0x4 ./General_Files/eMPL/inv_mpu.o
 .text.mpu_get_compass_fsr
                0x0000000000000000        0x4 ./General_Files/eMPL/inv_mpu.o
 .text.mpu_lp_motion_interrupt
                0x0000000000000000      0x202 ./General_Files/eMPL/inv_mpu.o
 .text.MPU6050_DMP_Write
                0x0000000000000000       0x1a ./General_Files/eMPL/inv_mpu.o
 .text.MPU6050_DMP_Read
                0x0000000000000000       0x1a ./General_Files/eMPL/inv_mpu.o
 .rodata.mpu_get_temperature.cst4
                0x0000000000000000        0x8 ./General_Files/eMPL/inv_mpu.o
 .rodata.mpu_reg_dump.str1.4
                0x0000000000000000        0xd ./General_Files/eMPL/inv_mpu.o
 .text          0x0000000000000000        0x0 ./General_Files/eMPL/inv_mpu_dmp_motion_driver.o
 .data          0x0000000000000000        0x0 ./General_Files/eMPL/inv_mpu_dmp_motion_driver.o
 .bss           0x0000000000000000        0x0 ./General_Files/eMPL/inv_mpu_dmp_motion_driver.o
 .text.dmp_get_fifo_rate
                0x0000000000000000        0xe ./General_Files/eMPL/inv_mpu_dmp_motion_driver.o
 .text.dmp_get_pedometer_step_count
                0x0000000000000000       0x48 ./General_Files/eMPL/inv_mpu_dmp_motion_driver.o
 .text.dmp_set_pedometer_step_count
                0x0000000000000000       0x3e ./General_Files/eMPL/inv_mpu_dmp_motion_driver.o
 .text.dmp_get_pedometer_walk_time
                0x0000000000000000       0x4e ./General_Files/eMPL/inv_mpu_dmp_motion_driver.o
 .text.dmp_set_pedometer_walk_time
                0x0000000000000000       0x44 ./General_Files/eMPL/inv_mpu_dmp_motion_driver.o
 .text.dmp_get_enabled_features
                0x0000000000000000        0xe ./General_Files/eMPL/inv_mpu_dmp_motion_driver.o
 .text.dmp_set_interrupt_mode
                0x0000000000000000       0x62 ./General_Files/eMPL/inv_mpu_dmp_motion_driver.o
 .text.dmp_register_tap_cb
                0x0000000000000000        0xc ./General_Files/eMPL/inv_mpu_dmp_motion_driver.o
 .text.dmp_register_android_orient_cb
                0x0000000000000000        0xc ./General_Files/eMPL/inv_mpu_dmp_motion_driver.o
 .text          0x0000000000000000        0x0 ./General_Files/drivers/BMP280.o
 .data          0x0000000000000000        0x0 ./General_Files/drivers/BMP280.o
 .bss           0x0000000000000000        0x0 ./General_Files/drivers/BMP280.o
 .text.BMP280_GetStatus
                0x0000000000000000       0x24 ./General_Files/drivers/BMP280.o
 .text.BMP280_ReadID
                0x0000000000000000       0x1c ./General_Files/drivers/BMP280.o
 .text.bmp280_compensate_T_double
                0x0000000000000000      0x164 ./General_Files/drivers/BMP280.o
 .text.bmp280_compensate_P_double
                0x0000000000000000      0x304 ./General_Files/drivers/BMP280.o
 .text.BMP280_Get_Pressure
                0x0000000000000000       0x4e ./General_Files/drivers/BMP280.o
 .text.BMP280_Get_Temperature
                0x0000000000000000       0x4e ./General_Files/drivers/BMP280.o
 .rodata.bmp280_compensate_P_double.cst8
                0x0000000000000000       0x60 ./General_Files/drivers/BMP280.o
 .rodata.bmp280_compensate_T_double.cst8
                0x0000000000000000       0x28 ./General_Files/drivers/BMP280.o
 .sbss.t_fine   0x0000000000000000        0x4 ./General_Files/drivers/BMP280.o
 .text          0x0000000000000000        0x0 ./General_Files/drivers/MPU6050.o
 .data          0x0000000000000000        0x0 ./General_Files/drivers/MPU6050.o
 .bss           0x0000000000000000        0x0 ./General_Files/drivers/MPU6050.o
 .text.MPU6050_Get_Temp
                0x0000000000000000       0x58 ./General_Files/drivers/MPU6050.o
 .rodata.MPU6050_Get_Temp.cst8
                0x0000000000000000       0x10 ./General_Files/drivers/MPU6050.o
 .text          0x0000000000000000        0x0 ./General_Files/drivers/MyI2C.o
 .data          0x0000000000000000        0x0 ./General_Files/drivers/MyI2C.o
 .bss           0x0000000000000000        0x0 ./General_Files/drivers/MyI2C.o
 .text.MyI2C_SendAck
                0x0000000000000000       0x2c ./General_Files/drivers/MyI2C.o
 .text          0x0000000000000000        0x0 ./General_Files/drivers/ST7789.o
 .data          0x0000000000000000        0x0 ./General_Files/drivers/ST7789.o
 .bss           0x0000000000000000        0x0 ./General_Files/drivers/ST7789.o
 .text.I8080_Write_Byte
                0x0000000000000000       0x8c ./General_Files/drivers/ST7789.o
 .text.I8080_Write_Byte16
                0x0000000000000000       0x30 ./General_Files/drivers/ST7789.o
 .text.ST7789_SetWindows
                0x0000000000000000       0x7e ./General_Files/drivers/ST7789.o
 .text.GT30L32S4W_SendADDR
                0x0000000000000000       0xda ./General_Files/drivers/ST7789.o
 .text.GT30L32S4W_Read_Byte.constprop.2
                0x0000000000000000       0x74 ./General_Files/drivers/ST7789.o
 .text.GT30L32S4W_ReadData
                0x0000000000000000      0x498 ./General_Files/drivers/ST7789.o
 .text.ST7789_FillColor
                0x0000000000000000       0x3e ./General_Files/drivers/ST7789.o
 .text.ST7789_Init
                0x0000000000000000      0x4ce ./General_Files/drivers/ST7789.o
 .text.ST7789_DrawPic
                0x0000000000000000       0x42 ./General_Files/drivers/ST7789.o
 .text.ST7789_DrawDot
                0x0000000000000000       0x4c ./General_Files/drivers/ST7789.o
 .text.ST7789_DrawLine
                0x0000000000000000       0xf2 ./General_Files/drivers/ST7789.o
 .text.ST7789_DrawRectangle
                0x0000000000000000       0x7a ./General_Files/drivers/ST7789.o
 .text.ST7789_DrawCircle
                0x0000000000000000      0x1da ./General_Files/drivers/ST7789.o
 .text.ST7789_ShowCHN
                0x0000000000000000      0x26a ./General_Files/drivers/ST7789.o
 .text.ST7789_ShowChar
                0x0000000000000000      0x276 ./General_Files/drivers/ST7789.o
 .text.ST7789_ShowNum
                0x0000000000000000       0xd8 ./General_Files/drivers/ST7789.o
 .text.ST7789_ShowNumf
                0x0000000000000000      0x144 ./General_Files/drivers/ST7789.o
 .text.ST7789_ShowString
                0x0000000000000000       0xde ./General_Files/drivers/ST7789.o
 .rodata.ST7789_ShowNumf.cst4
                0x0000000000000000        0x4 ./General_Files/drivers/ST7789.o
 .debug_info    0x0000000000000000     0x3084 ./General_Files/drivers/ST7789.o
 .debug_abbrev  0x0000000000000000      0x524 ./General_Files/drivers/ST7789.o
 .debug_loc     0x0000000000000000     0x1b57 ./General_Files/drivers/ST7789.o
 .debug_aranges
                0x0000000000000000       0xa8 ./General_Files/drivers/ST7789.o
 .debug_ranges  0x0000000000000000      0x200 ./General_Files/drivers/ST7789.o
 .debug_line    0x0000000000000000     0x29bd ./General_Files/drivers/ST7789.o
 .debug_str     0x0000000000000000      0xdcb ./General_Files/drivers/ST7789.o
 .comment       0x0000000000000000       0x34 ./General_Files/drivers/ST7789.o
 .debug_frame   0x0000000000000000      0x3b8 ./General_Files/drivers/ST7789.o
 .text          0x0000000000000000        0x0 ./General_Files/drivers/adc.o
 .data          0x0000000000000000        0x0 ./General_Files/drivers/adc.o
 .bss           0x0000000000000000        0x0 ./General_Files/drivers/adc.o
 .text.Get_ADC_Val
                0x0000000000000000       0x52 ./General_Files/drivers/adc.o
 .text.Get_ConversionVal
                0x0000000000000000       0x2e ./General_Files/drivers/adc.o
 .text.Get_bat_votage
                0x0000000000000000        0xa ./General_Files/drivers/adc.o
 .text          0x0000000000000000        0x0 ./General_Files/drivers/bsp_filter.o
 .data          0x0000000000000000        0x0 ./General_Files/drivers/bsp_filter.o
 .bss           0x0000000000000000        0x0 ./General_Files/drivers/bsp_filter.o
 .text          0x0000000000000000        0x0 ./General_Files/drivers/gpio.o
 .data          0x0000000000000000        0x0 ./General_Files/drivers/gpio.o
 .bss           0x0000000000000000        0x0 ./General_Files/drivers/gpio.o
 .text          0x0000000000000000        0x0 ./General_Files/drivers/mtf01.o
 .data          0x0000000000000000        0x0 ./General_Files/drivers/mtf01.o
 .bss           0x0000000000000000        0x0 ./General_Files/drivers/mtf01.o
 .text.micolink_check_sum
                0x0000000000000000       0x54 ./General_Files/drivers/mtf01.o
 .text.micolink_parse_char
                0x0000000000000000       0xae ./General_Files/drivers/mtf01.o
 .rodata.micolink_parse_char
                0x0000000000000000       0x20 ./General_Files/drivers/mtf01.o
 .text.micolink_decode
                0x0000000000000000       0x22 ./General_Files/drivers/mtf01.o
 .bss.msg.2003  0x0000000000000000       0x49 ./General_Files/drivers/mtf01.o
 .debug_info    0x0000000000000000      0xc3c ./General_Files/drivers/mtf01.o
 .debug_abbrev  0x0000000000000000      0x2a5 ./General_Files/drivers/mtf01.o
 .debug_loc     0x0000000000000000      0x11a ./General_Files/drivers/mtf01.o
 .debug_aranges
                0x0000000000000000       0x30 ./General_Files/drivers/mtf01.o
 .debug_ranges  0x0000000000000000       0x40 ./General_Files/drivers/mtf01.o
 .debug_line    0x0000000000000000      0x503 ./General_Files/drivers/mtf01.o
 .debug_str     0x0000000000000000      0x72d ./General_Files/drivers/mtf01.o
 .comment       0x0000000000000000       0x34 ./General_Files/drivers/mtf01.o
 .debug_frame   0x0000000000000000       0x70 ./General_Files/drivers/mtf01.o
 .text          0x0000000000000000        0x0 ./General_Files/drivers/pwm.o
 .data          0x0000000000000000        0x0 ./General_Files/drivers/pwm.o
 .bss           0x0000000000000000        0x0 ./General_Files/drivers/pwm.o
 .text          0x0000000000000000        0x0 ./General_Files/drivers/tim.o
 .data          0x0000000000000000        0x0 ./General_Files/drivers/tim.o
 .bss           0x0000000000000000        0x0 ./General_Files/drivers/tim.o
 .text.TIM3_Interrupt_Init
                0x0000000000000000       0x30 ./General_Files/drivers/tim.o
 .text.TIM3_Init
                0x0000000000000000       0x76 ./General_Files/drivers/tim.o
 .text.TIM4_Interrupt_Init
                0x0000000000000000       0x30 ./General_Files/drivers/tim.o
 .text.TIM4_Init
                0x0000000000000000       0x76 ./General_Files/drivers/tim.o
 .text          0x0000000000000000        0x0 ./General_Files/drivers/uart.o
 .data          0x0000000000000000        0x0 ./General_Files/drivers/uart.o
 .bss           0x0000000000000000        0x0 ./General_Files/drivers/uart.o
 .text          0x0000000000000000        0x0 ./General_Files/apps/src/CRC.o
 .data          0x0000000000000000        0x0 ./General_Files/apps/src/CRC.o
 .bss           0x0000000000000000        0x0 ./General_Files/apps/src/CRC.o
 .text          0x0000000000000000        0x0 ./General_Files/apps/src/CRSF.o
 .data          0x0000000000000000        0x0 ./General_Files/apps/src/CRSF.o
 .bss           0x0000000000000000        0x0 ./General_Files/apps/src/CRSF.o
 .text.onPacketLinkStatistics
                0x0000000000000000        0x2 ./General_Files/apps/src/CRSF.o
 .text          0x0000000000000000        0x0 ./General_Files/apps/src/pid.o
 .data          0x0000000000000000        0x0 ./General_Files/apps/src/pid.o
 .bss           0x0000000000000000        0x0 ./General_Files/apps/src/pid.o
 .text          0x0000000000000000        0x0 ./General_Files/system.o
 .data          0x0000000000000000        0x0 ./General_Files/system.o
 .bss           0x0000000000000000        0x0 ./General_Files/system.o
 .text.System_Loop
                0x0000000000000000        0x2 ./General_Files/system.o
 .text          0x0000000000000000        0x0 ./FreeRTOS/portable/MemMang/heap_4.o
 .data          0x0000000000000000        0x0 ./FreeRTOS/portable/MemMang/heap_4.o
 .bss           0x0000000000000000        0x0 ./FreeRTOS/portable/MemMang/heap_4.o
 .text.xPortGetFreeHeapSize
                0x0000000000000000        0xa ./FreeRTOS/portable/MemMang/heap_4.o
 .text.vPortInitialiseBlocks
                0x0000000000000000        0x2 ./FreeRTOS/portable/MemMang/heap_4.o
 .text.vPortGetHeapStats
                0x0000000000000000       0x9a ./FreeRTOS/portable/MemMang/heap_4.o
 .text          0x0000000000000000        0x0 ./FreeRTOS/portable/GCC/RISC-V/port.o
 .data          0x0000000000000000        0x0 ./FreeRTOS/portable/GCC/RISC-V/port.o
 .bss           0x0000000000000000        0x0 ./FreeRTOS/portable/GCC/RISC-V/port.o
 .text.vPortEndScheduler
                0x0000000000000000        0x2 ./FreeRTOS/portable/GCC/RISC-V/port.o
 .text.xPortSetInterruptMask
                0x0000000000000000        0xc ./FreeRTOS/portable/GCC/RISC-V/port.o
 .text.vPortClearInterruptMask
                0x0000000000000000        0x6 ./FreeRTOS/portable/GCC/RISC-V/port.o
 .data          0x0000000000000000        0x0 ./FreeRTOS/portable/GCC/RISC-V/portASM.o
 .bss           0x0000000000000000        0x0 ./FreeRTOS/portable/GCC/RISC-V/portASM.o
 .text          0x0000000000000000        0x0 ./FreeRTOS/croutine.o
 .data          0x0000000000000000        0x0 ./FreeRTOS/croutine.o
 .bss           0x0000000000000000        0x0 ./FreeRTOS/croutine.o
 .debug_info    0x0000000000000000      0x936 ./FreeRTOS/croutine.o
 .debug_abbrev  0x0000000000000000      0x1b1 ./FreeRTOS/croutine.o
 .debug_aranges
                0x0000000000000000       0x18 ./FreeRTOS/croutine.o
 .debug_line    0x0000000000000000      0x1d6 ./FreeRTOS/croutine.o
 .debug_str     0x0000000000000000      0x599 ./FreeRTOS/croutine.o
 .comment       0x0000000000000000       0x34 ./FreeRTOS/croutine.o
 .text          0x0000000000000000        0x0 ./FreeRTOS/event_groups.o
 .data          0x0000000000000000        0x0 ./FreeRTOS/event_groups.o
 .bss           0x0000000000000000        0x0 ./FreeRTOS/event_groups.o
 .text.xEventGroupCreate
                0x0000000000000000       0x2e ./FreeRTOS/event_groups.o
 .text.xEventGroupWaitBits
                0x0000000000000000      0x18e ./FreeRTOS/event_groups.o
 .text.xEventGroupClearBits
                0x0000000000000000       0x92 ./FreeRTOS/event_groups.o
 .text.xEventGroupGetBitsFromISR
                0x0000000000000000       0x26 ./FreeRTOS/event_groups.o
 .text.xEventGroupSetBits
                0x0000000000000000       0xe4 ./FreeRTOS/event_groups.o
 .text.xEventGroupSync
                0x0000000000000000      0x154 ./FreeRTOS/event_groups.o
 .text.vEventGroupDelete
                0x0000000000000000       0x9a ./FreeRTOS/event_groups.o
 .text.vEventGroupSetBitsCallback
                0x0000000000000000       0x18 ./FreeRTOS/event_groups.o
 .text.vEventGroupClearBitsCallback
                0x0000000000000000       0x18 ./FreeRTOS/event_groups.o
 .rodata.xEventGroupWaitBits.str1.4
                0x0000000000000000       0x3d ./FreeRTOS/event_groups.o
 .debug_info    0x0000000000000000     0x19d5 ./FreeRTOS/event_groups.o
 .debug_abbrev  0x0000000000000000      0x410 ./FreeRTOS/event_groups.o
 .debug_loc     0x0000000000000000      0xbc7 ./FreeRTOS/event_groups.o
 .debug_aranges
                0x0000000000000000       0x60 ./FreeRTOS/event_groups.o
 .debug_ranges  0x0000000000000000       0xa0 ./FreeRTOS/event_groups.o
 .debug_line    0x0000000000000000     0x1058 ./FreeRTOS/event_groups.o
 .debug_str     0x0000000000000000     0x1022 ./FreeRTOS/event_groups.o
 .comment       0x0000000000000000       0x34 ./FreeRTOS/event_groups.o
 .debug_frame   0x0000000000000000      0x15c ./FreeRTOS/event_groups.o
 .text          0x0000000000000000        0x0 ./FreeRTOS/list.o
 .data          0x0000000000000000        0x0 ./FreeRTOS/list.o
 .bss           0x0000000000000000        0x0 ./FreeRTOS/list.o
 .text.vListInsertEnd
                0x0000000000000000       0x18 ./FreeRTOS/list.o
 .text          0x0000000000000000        0x0 ./FreeRTOS/queue.o
 .data          0x0000000000000000        0x0 ./FreeRTOS/queue.o
 .bss           0x0000000000000000        0x0 ./FreeRTOS/queue.o
 .text.prvCopyDataToQueue
                0x0000000000000000       0x86 ./FreeRTOS/queue.o
 .text.xQueueGetMutexHolder
                0x0000000000000000       0x5c ./FreeRTOS/queue.o
 .text.xQueueGetMutexHolderFromISR
                0x0000000000000000       0x3e ./FreeRTOS/queue.o
 .text.xQueueCreateCountingSemaphore
                0x0000000000000000       0x50 ./FreeRTOS/queue.o
 .text.xQueueGenericSend
                0x0000000000000000      0x218 ./FreeRTOS/queue.o
 .text.xQueueCreateMutex
                0x0000000000000000       0x3e ./FreeRTOS/queue.o
 .text.xQueueGiveMutexRecursive
                0x0000000000000000       0x6a ./FreeRTOS/queue.o
 .text.xQueueGenericSendFromISR
                0x0000000000000000      0x150 ./FreeRTOS/queue.o
 .text.xQueueGiveFromISR
                0x0000000000000000      0x128 ./FreeRTOS/queue.o
 .text.xQueueSemaphoreTake
                0x0000000000000000      0x242 ./FreeRTOS/queue.o
 .text.xQueueTakeMutexRecursive
                0x0000000000000000       0x6e ./FreeRTOS/queue.o
 .text.xQueuePeek
                0x0000000000000000      0x1cc ./FreeRTOS/queue.o
 .text.xQueueReceiveFromISR
                0x0000000000000000      0x114 ./FreeRTOS/queue.o
 .text.xQueuePeekFromISR
                0x0000000000000000       0xc8 ./FreeRTOS/queue.o
 .text.uxQueueMessagesWaiting
                0x0000000000000000       0x58 ./FreeRTOS/queue.o
 .text.uxQueueSpacesAvailable
                0x0000000000000000       0x5a ./FreeRTOS/queue.o
 .text.uxQueueMessagesWaitingFromISR
                0x0000000000000000       0x38 ./FreeRTOS/queue.o
 .text.xQueueIsQueueEmptyFromISR
                0x0000000000000000       0x3c ./FreeRTOS/queue.o
 .text.xQueueIsQueueFullFromISR
                0x0000000000000000       0x40 ./FreeRTOS/queue.o
 .text.pcQueueGetName
                0x0000000000000000       0x5e ./FreeRTOS/queue.o
 .text.vQueueUnregisterQueue
                0x0000000000000000       0x62 ./FreeRTOS/queue.o
 .text.vQueueDelete
                0x0000000000000000       0x50 ./FreeRTOS/queue.o
 .text          0x0000000000000000        0x0 ./FreeRTOS/stream_buffer.o
 .data          0x0000000000000000        0x0 ./FreeRTOS/stream_buffer.o
 .bss           0x0000000000000000        0x0 ./FreeRTOS/stream_buffer.o
 .text.prvBytesInBuffer
                0x0000000000000000       0x14 ./FreeRTOS/stream_buffer.o
 .text.prvInitialiseNewStreamBuffer
                0x0000000000000000       0x74 ./FreeRTOS/stream_buffer.o
 .text.prvWriteBytesToBuffer.part.1
                0x0000000000000000       0xbc ./FreeRTOS/stream_buffer.o
 .text.prvWriteMessageToBuffer
                0x0000000000000000       0x58 ./FreeRTOS/stream_buffer.o
 .text.prvReadBytesFromBuffer.part.2
                0x0000000000000000       0xb6 ./FreeRTOS/stream_buffer.o
 .text.prvReadMessageFromBuffer
                0x0000000000000000       0x58 ./FreeRTOS/stream_buffer.o
 .text.xStreamBufferGenericCreate
                0x0000000000000000       0xde ./FreeRTOS/stream_buffer.o
 .text.vStreamBufferDelete
                0x0000000000000000       0x58 ./FreeRTOS/stream_buffer.o
 .text.xStreamBufferReset
                0x0000000000000000       0x70 ./FreeRTOS/stream_buffer.o
 .text.xStreamBufferSetTriggerLevel
                0x0000000000000000       0x46 ./FreeRTOS/stream_buffer.o
 .text.xStreamBufferSpacesAvailable
                0x0000000000000000       0x50 ./FreeRTOS/stream_buffer.o
 .text.xStreamBufferBytesAvailable
                0x0000000000000000       0x42 ./FreeRTOS/stream_buffer.o
 .text.xStreamBufferSend
                0x0000000000000000      0x1bc ./FreeRTOS/stream_buffer.o
 .text.xStreamBufferSendFromISR
                0x0000000000000000       0xe0 ./FreeRTOS/stream_buffer.o
 .text.xStreamBufferReceive
                0x0000000000000000      0x144 ./FreeRTOS/stream_buffer.o
 .text.xStreamBufferNextMessageLengthBytes
                0x0000000000000000       0x94 ./FreeRTOS/stream_buffer.o
 .text.xStreamBufferReceiveFromISR
                0x0000000000000000       0xcc ./FreeRTOS/stream_buffer.o
 .text.xStreamBufferIsEmpty
                0x0000000000000000       0x3e ./FreeRTOS/stream_buffer.o
 .text.xStreamBufferIsFull
                0x0000000000000000       0x50 ./FreeRTOS/stream_buffer.o
 .text.xStreamBufferSendCompletedFromISR
                0x0000000000000000       0x78 ./FreeRTOS/stream_buffer.o
 .text.xStreamBufferReceiveCompletedFromISR
                0x0000000000000000       0x78 ./FreeRTOS/stream_buffer.o
 .rodata.prvInitialiseNewStreamBuffer.str1.4
                0x0000000000000000       0x3d ./FreeRTOS/stream_buffer.o
 .debug_info    0x0000000000000000     0x21cd ./FreeRTOS/stream_buffer.o
 .debug_abbrev  0x0000000000000000      0x411 ./FreeRTOS/stream_buffer.o
 .debug_loc     0x0000000000000000     0x1853 ./FreeRTOS/stream_buffer.o
 .debug_aranges
                0x0000000000000000       0xc0 ./FreeRTOS/stream_buffer.o
 .debug_ranges  0x0000000000000000       0xe8 ./FreeRTOS/stream_buffer.o
 .debug_line    0x0000000000000000     0x1e4d ./FreeRTOS/stream_buffer.o
 .debug_str     0x0000000000000000      0xc67 ./FreeRTOS/stream_buffer.o
 .comment       0x0000000000000000       0x34 ./FreeRTOS/stream_buffer.o
 .debug_frame   0x0000000000000000      0x32c ./FreeRTOS/stream_buffer.o
 .text          0x0000000000000000        0x0 ./FreeRTOS/tasks.o
 .data          0x0000000000000000        0x0 ./FreeRTOS/tasks.o
 .bss           0x0000000000000000        0x0 ./FreeRTOS/tasks.o
 .text.prvSearchForNameWithinSingleList
                0x0000000000000000       0x5a ./FreeRTOS/tasks.o
 .text.prvTaskIsTaskSuspended
                0x0000000000000000       0x58 ./FreeRTOS/tasks.o
 .text.vTaskDelete
                0x0000000000000000       0xfe ./FreeRTOS/tasks.o
 .text.eTaskGetState
                0x0000000000000000       0xa6 ./FreeRTOS/tasks.o
 .text.uxTaskPriorityGet
                0x0000000000000000       0x38 ./FreeRTOS/tasks.o
 .text.uxTaskPriorityGetFromISR
                0x0000000000000000       0x30 ./FreeRTOS/tasks.o
 .text.vTaskPrioritySet
                0x0000000000000000      0x110 ./FreeRTOS/tasks.o
 .text.vTaskResume
                0x0000000000000000       0xc6 ./FreeRTOS/tasks.o
 .text.xTaskResumeFromISR
                0x0000000000000000       0xe6 ./FreeRTOS/tasks.o
 .text.vTaskEndScheduler
                0x0000000000000000       0x2a ./FreeRTOS/tasks.o
 .text.xTaskGetTickCountFromISR
                0x0000000000000000        0xa ./FreeRTOS/tasks.o
 .text.uxTaskGetNumberOfTasks
                0x0000000000000000        0xa ./FreeRTOS/tasks.o
 .text.pcTaskGetName
                0x0000000000000000       0x44 ./FreeRTOS/tasks.o
 .text.xTaskDelayUntil
                0x0000000000000000       0xf2 ./FreeRTOS/tasks.o
 .text.xTaskGetHandle
                0x0000000000000000       0xd8 ./FreeRTOS/tasks.o
 .text.xTaskCatchUpTicks
                0x0000000000000000       0x6a ./FreeRTOS/tasks.o
 .text.xTaskAbortDelay
                0x0000000000000000       0xe6 ./FreeRTOS/tasks.o
 .text.vTaskSuspend
                0x0000000000000000      0x102 ./FreeRTOS/tasks.o
 .text.vTaskPlaceOnUnorderedEventList
                0x0000000000000000       0xb4 ./FreeRTOS/tasks.o
 .text.vTaskRemoveFromUnorderedEventList
                0x0000000000000000      0x10a ./FreeRTOS/tasks.o
 .text.vTaskSetTimeOutState
                0x0000000000000000       0x68 ./FreeRTOS/tasks.o
 .text.xTaskGetCurrentTaskHandle
                0x0000000000000000        0xa ./FreeRTOS/tasks.o
 .text.xTaskPriorityInherit
                0x0000000000000000       0xba ./FreeRTOS/tasks.o
 .text.xTaskPriorityDisinherit
                0x0000000000000000       0xde ./FreeRTOS/tasks.o
 .text.vTaskPriorityDisinheritAfterTimeout
                0x0000000000000000       0xfa ./FreeRTOS/tasks.o
 .text.uxTaskResetEventItemValue
                0x0000000000000000       0x1a ./FreeRTOS/tasks.o
 .text.pvTaskIncrementMutexHeldCount
                0x0000000000000000       0x1c ./FreeRTOS/tasks.o
 .text.ulTaskGenericNotifyTake
                0x0000000000000000       0xb8 ./FreeRTOS/tasks.o
 .text.xTaskGenericNotifyWait
                0x0000000000000000       0xe2 ./FreeRTOS/tasks.o
 .text.xTaskGenericNotify
                0x0000000000000000      0x1b0 ./FreeRTOS/tasks.o
 .rodata.xTaskGenericNotify
                0x0000000000000000       0x14 ./FreeRTOS/tasks.o
 .text.xTaskGenericNotifyFromISR
                0x0000000000000000      0x1ec ./FreeRTOS/tasks.o
 .rodata.xTaskGenericNotifyFromISR
                0x0000000000000000       0x14 ./FreeRTOS/tasks.o
 .text.vTaskGenericNotifyGiveFromISR
                0x0000000000000000      0x174 ./FreeRTOS/tasks.o
 .text.xTaskGenericNotifyStateClear
                0x0000000000000000       0x72 ./FreeRTOS/tasks.o
 .text.ulTaskGenericNotifyValueClear
                0x0000000000000000       0x4e ./FreeRTOS/tasks.o
 .text          0x0000000000000000        0x0 ./FreeRTOS/timers.o
 .data          0x0000000000000000        0x0 ./FreeRTOS/timers.o
 .bss           0x0000000000000000        0x0 ./FreeRTOS/timers.o
 .text.xTimerCreate
                0x0000000000000000       0x8c ./FreeRTOS/timers.o
 .text.xTimerGenericCommand
                0x0000000000000000       0x92 ./FreeRTOS/timers.o
 .text.xTimerGetTimerDaemonTaskHandle
                0x0000000000000000       0x3c ./FreeRTOS/timers.o
 .text.xTimerGetPeriod
                0x0000000000000000       0x36 ./FreeRTOS/timers.o
 .text.vTimerSetReloadMode
                0x0000000000000000       0x68 ./FreeRTOS/timers.o
 .text.uxTimerGetReloadMode
                0x0000000000000000       0x5e ./FreeRTOS/timers.o
 .text.xTimerGetExpiryTime
                0x0000000000000000       0x36 ./FreeRTOS/timers.o
 .text.pcTimerGetName
                0x0000000000000000       0x36 ./FreeRTOS/timers.o
 .text.xTimerIsTimerActive
                0x0000000000000000       0x5c ./FreeRTOS/timers.o
 .text.pvTimerGetTimerID
                0x0000000000000000       0x58 ./FreeRTOS/timers.o
 .text.vTimerSetTimerID
                0x0000000000000000       0x58 ./FreeRTOS/timers.o
 .text.xTimerPendFunctionCallFromISR
                0x0000000000000000       0x36 ./FreeRTOS/timers.o
 .text.xTimerPendFunctionCall
                0x0000000000000000       0x62 ./FreeRTOS/timers.o
 .text          0x0000000000000000        0x0 ./Debug/debug.o
 .data          0x0000000000000000        0x0 ./Debug/debug.o
 .bss           0x0000000000000000        0x0 ./Debug/debug.o
 .text.SDI_Printf_Enable
                0x0000000000000000       0x2a ./Debug/debug.o
 .text._sbrk    0x0000000000000000       0x2e ./Debug/debug.o
 .sdata.curbrk.5265
                0x0000000000000000        0x4 ./Debug/debug.o
 .text          0x0000000000000000        0x0 ./Core/core_riscv.o
 .data          0x0000000000000000        0x0 ./Core/core_riscv.o
 .bss           0x0000000000000000        0x0 ./Core/core_riscv.o
 .text.__get_FFLAGS
                0x0000000000000000        0x6 ./Core/core_riscv.o
 .text.__set_FFLAGS
                0x0000000000000000        0x6 ./Core/core_riscv.o
 .text.__get_FRM
                0x0000000000000000        0x6 ./Core/core_riscv.o
 .text.__set_FRM
                0x0000000000000000        0x6 ./Core/core_riscv.o
 .text.__get_FCSR
                0x0000000000000000        0x6 ./Core/core_riscv.o
 .text.__set_FCSR
                0x0000000000000000        0x6 ./Core/core_riscv.o
 .text.__get_MSTATUS
                0x0000000000000000        0x6 ./Core/core_riscv.o
 .text.__set_MSTATUS
                0x0000000000000000        0x6 ./Core/core_riscv.o
 .text.__get_MISA
                0x0000000000000000        0x6 ./Core/core_riscv.o
 .text.__set_MISA
                0x0000000000000000        0x6 ./Core/core_riscv.o
 .text.__get_MTVEC
                0x0000000000000000        0x6 ./Core/core_riscv.o
 .text.__set_MTVEC
                0x0000000000000000        0x6 ./Core/core_riscv.o
 .text.__get_MSCRATCH
                0x0000000000000000        0x6 ./Core/core_riscv.o
 .text.__set_MSCRATCH
                0x0000000000000000        0x6 ./Core/core_riscv.o
 .text.__get_MEPC
                0x0000000000000000        0x6 ./Core/core_riscv.o
 .text.__set_MEPC
                0x0000000000000000        0x6 ./Core/core_riscv.o
 .text.__get_MCAUSE
                0x0000000000000000        0x6 ./Core/core_riscv.o
 .text.__set_MCAUSE
                0x0000000000000000        0x6 ./Core/core_riscv.o
 .text.__get_MTVAL
                0x0000000000000000        0x6 ./Core/core_riscv.o
 .text.__set_MTVAL
                0x0000000000000000        0x6 ./Core/core_riscv.o
 .text.__get_MVENDORID
                0x0000000000000000        0x6 ./Core/core_riscv.o
 .text.__get_MARCHID
                0x0000000000000000        0x6 ./Core/core_riscv.o
 .text.__get_MIMPID
                0x0000000000000000        0x6 ./Core/core_riscv.o
 .text.__get_MHARTID
                0x0000000000000000        0x6 ./Core/core_riscv.o
 .text.__get_SP
                0x0000000000000000        0x4 ./Core/core_riscv.o
 .debug_info    0x0000000000000000      0x46d ./Core/core_riscv.o
 .debug_abbrev  0x0000000000000000      0x10d ./Core/core_riscv.o
 .debug_aranges
                0x0000000000000000       0xe0 ./Core/core_riscv.o
 .debug_ranges  0x0000000000000000       0xd0 ./Core/core_riscv.o
 .debug_line    0x0000000000000000      0x564 ./Core/core_riscv.o
 .debug_str     0x0000000000000000      0x302 ./Core/core_riscv.o
 .comment       0x0000000000000000       0x34 ./Core/core_riscv.o
 .debug_frame   0x0000000000000000      0x1a0 ./Core/core_riscv.o
 .text          0x0000000000000000        0x0 c:/mounriver/mounriver_studio/toolchain/risc-v embedded gcc/bin/../lib/gcc/riscv-none-embed/8.2.0/../../../../riscv-none-embed/lib/rv32imacxw/ilp32\libm.a(lib_a-wf_asin.o)
 .data          0x0000000000000000        0x0 c:/mounriver/mounriver_studio/toolchain/risc-v embedded gcc/bin/../lib/gcc/riscv-none-embed/8.2.0/../../../../riscv-none-embed/lib/rv32imacxw/ilp32\libm.a(lib_a-wf_asin.o)
 .bss           0x0000000000000000        0x0 c:/mounriver/mounriver_studio/toolchain/risc-v embedded gcc/bin/../lib/gcc/riscv-none-embed/8.2.0/../../../../riscv-none-embed/lib/rv32imacxw/ilp32\libm.a(lib_a-wf_asin.o)
 .text          0x0000000000000000        0x0 c:/mounriver/mounriver_studio/toolchain/risc-v embedded gcc/bin/../lib/gcc/riscv-none-embed/8.2.0/../../../../riscv-none-embed/lib/rv32imacxw/ilp32\libm.a(lib_a-wf_atan2.o)
 .data          0x0000000000000000        0x0 c:/mounriver/mounriver_studio/toolchain/risc-v embedded gcc/bin/../lib/gcc/riscv-none-embed/8.2.0/../../../../riscv-none-embed/lib/rv32imacxw/ilp32\libm.a(lib_a-wf_atan2.o)
 .bss           0x0000000000000000        0x0 c:/mounriver/mounriver_studio/toolchain/risc-v embedded gcc/bin/../lib/gcc/riscv-none-embed/8.2.0/../../../../riscv-none-embed/lib/rv32imacxw/ilp32\libm.a(lib_a-wf_atan2.o)
 .text          0x0000000000000000        0x0 c:/mounriver/mounriver_studio/toolchain/risc-v embedded gcc/bin/../lib/gcc/riscv-none-embed/8.2.0/../../../../riscv-none-embed/lib/rv32imacxw/ilp32\libm.a(lib_a-ef_asin.o)
 .data          0x0000000000000000        0x0 c:/mounriver/mounriver_studio/toolchain/risc-v embedded gcc/bin/../lib/gcc/riscv-none-embed/8.2.0/../../../../riscv-none-embed/lib/rv32imacxw/ilp32\libm.a(lib_a-ef_asin.o)
 .bss           0x0000000000000000        0x0 c:/mounriver/mounriver_studio/toolchain/risc-v embedded gcc/bin/../lib/gcc/riscv-none-embed/8.2.0/../../../../riscv-none-embed/lib/rv32imacxw/ilp32\libm.a(lib_a-ef_asin.o)
 .text          0x0000000000000000        0x0 c:/mounriver/mounriver_studio/toolchain/risc-v embedded gcc/bin/../lib/gcc/riscv-none-embed/8.2.0/../../../../riscv-none-embed/lib/rv32imacxw/ilp32\libm.a(lib_a-ef_atan2.o)
 .data          0x0000000000000000        0x0 c:/mounriver/mounriver_studio/toolchain/risc-v embedded gcc/bin/../lib/gcc/riscv-none-embed/8.2.0/../../../../riscv-none-embed/lib/rv32imacxw/ilp32\libm.a(lib_a-ef_atan2.o)
 .bss           0x0000000000000000        0x0 c:/mounriver/mounriver_studio/toolchain/risc-v embedded gcc/bin/../lib/gcc/riscv-none-embed/8.2.0/../../../../riscv-none-embed/lib/rv32imacxw/ilp32\libm.a(lib_a-ef_atan2.o)
 .text          0x0000000000000000        0x0 c:/mounriver/mounriver_studio/toolchain/risc-v embedded gcc/bin/../lib/gcc/riscv-none-embed/8.2.0/../../../../riscv-none-embed/lib/rv32imacxw/ilp32\libm.a(lib_a-ef_sqrt.o)
 .data          0x0000000000000000        0x0 c:/mounriver/mounriver_studio/toolchain/risc-v embedded gcc/bin/../lib/gcc/riscv-none-embed/8.2.0/../../../../riscv-none-embed/lib/rv32imacxw/ilp32\libm.a(lib_a-ef_sqrt.o)
 .bss           0x0000000000000000        0x0 c:/mounriver/mounriver_studio/toolchain/risc-v embedded gcc/bin/../lib/gcc/riscv-none-embed/8.2.0/../../../../riscv-none-embed/lib/rv32imacxw/ilp32\libm.a(lib_a-ef_sqrt.o)
 .text          0x0000000000000000        0x0 c:/mounriver/mounriver_studio/toolchain/risc-v embedded gcc/bin/../lib/gcc/riscv-none-embed/8.2.0/../../../../riscv-none-embed/lib/rv32imacxw/ilp32\libm.a(lib_a-s_lib_ver.o)
 .data          0x0000000000000000        0x0 c:/mounriver/mounriver_studio/toolchain/risc-v embedded gcc/bin/../lib/gcc/riscv-none-embed/8.2.0/../../../../riscv-none-embed/lib/rv32imacxw/ilp32\libm.a(lib_a-s_lib_ver.o)
 .bss           0x0000000000000000        0x0 c:/mounriver/mounriver_studio/toolchain/risc-v embedded gcc/bin/../lib/gcc/riscv-none-embed/8.2.0/../../../../riscv-none-embed/lib/rv32imacxw/ilp32\libm.a(lib_a-s_lib_ver.o)
 .text          0x0000000000000000        0x0 c:/mounriver/mounriver_studio/toolchain/risc-v embedded gcc/bin/../lib/gcc/riscv-none-embed/8.2.0/../../../../riscv-none-embed/lib/rv32imacxw/ilp32\libm.a(lib_a-s_matherr.o)
 .data          0x0000000000000000        0x0 c:/mounriver/mounriver_studio/toolchain/risc-v embedded gcc/bin/../lib/gcc/riscv-none-embed/8.2.0/../../../../riscv-none-embed/lib/rv32imacxw/ilp32\libm.a(lib_a-s_matherr.o)
 .bss           0x0000000000000000        0x0 c:/mounriver/mounriver_studio/toolchain/risc-v embedded gcc/bin/../lib/gcc/riscv-none-embed/8.2.0/../../../../riscv-none-embed/lib/rv32imacxw/ilp32\libm.a(lib_a-s_matherr.o)
 .text          0x0000000000000000        0x0 c:/mounriver/mounriver_studio/toolchain/risc-v embedded gcc/bin/../lib/gcc/riscv-none-embed/8.2.0/../../../../riscv-none-embed/lib/rv32imacxw/ilp32\libm.a(lib_a-s_nan.o)
 .data          0x0000000000000000        0x0 c:/mounriver/mounriver_studio/toolchain/risc-v embedded gcc/bin/../lib/gcc/riscv-none-embed/8.2.0/../../../../riscv-none-embed/lib/rv32imacxw/ilp32\libm.a(lib_a-s_nan.o)
 .bss           0x0000000000000000        0x0 c:/mounriver/mounriver_studio/toolchain/risc-v embedded gcc/bin/../lib/gcc/riscv-none-embed/8.2.0/../../../../riscv-none-embed/lib/rv32imacxw/ilp32\libm.a(lib_a-s_nan.o)
 .text          0x0000000000000000        0x0 c:/mounriver/mounriver_studio/toolchain/risc-v embedded gcc/bin/../lib/gcc/riscv-none-embed/8.2.0/../../../../riscv-none-embed/lib/rv32imacxw/ilp32\libm.a(lib_a-sf_atan.o)
 .data          0x0000000000000000        0x0 c:/mounriver/mounriver_studio/toolchain/risc-v embedded gcc/bin/../lib/gcc/riscv-none-embed/8.2.0/../../../../riscv-none-embed/lib/rv32imacxw/ilp32\libm.a(lib_a-sf_atan.o)
 .bss           0x0000000000000000        0x0 c:/mounriver/mounriver_studio/toolchain/risc-v embedded gcc/bin/../lib/gcc/riscv-none-embed/8.2.0/../../../../riscv-none-embed/lib/rv32imacxw/ilp32\libm.a(lib_a-sf_atan.o)
 .text          0x0000000000000000        0x0 c:/mounriver/mounriver_studio/toolchain/risc-v embedded gcc/bin/../lib/gcc/riscv-none-embed/8.2.0/../../../../riscv-none-embed/lib/rv32imacxw/ilp32\libm.a(lib_a-sf_fabs.o)
 .data          0x0000000000000000        0x0 c:/mounriver/mounriver_studio/toolchain/risc-v embedded gcc/bin/../lib/gcc/riscv-none-embed/8.2.0/../../../../riscv-none-embed/lib/rv32imacxw/ilp32\libm.a(lib_a-sf_fabs.o)
 .bss           0x0000000000000000        0x0 c:/mounriver/mounriver_studio/toolchain/risc-v embedded gcc/bin/../lib/gcc/riscv-none-embed/8.2.0/../../../../riscv-none-embed/lib/rv32imacxw/ilp32\libm.a(lib_a-sf_fabs.o)
 .text          0x0000000000000000        0x0 c:/mounriver/mounriver_studio/toolchain/risc-v embedded gcc/bin/../lib/gcc/riscv-none-embed/8.2.0/../../../../riscv-none-embed/lib/rv32imacxw/ilp32\libprintfloat.a(printfloat.o)
 .data          0x0000000000000000        0x0 c:/mounriver/mounriver_studio/toolchain/risc-v embedded gcc/bin/../lib/gcc/riscv-none-embed/8.2.0/../../../../riscv-none-embed/lib/rv32imacxw/ilp32\libprintfloat.a(printfloat.o)
 .bss           0x0000000000000000        0x0 c:/mounriver/mounriver_studio/toolchain/risc-v embedded gcc/bin/../lib/gcc/riscv-none-embed/8.2.0/../../../../riscv-none-embed/lib/rv32imacxw/ilp32\libprintfloat.a(printfloat.o)
 .text.putchar  0x0000000000000000       0x1c c:/mounriver/mounriver_studio/toolchain/risc-v embedded gcc/bin/../lib/gcc/riscv-none-embed/8.2.0/../../../../riscv-none-embed/lib/rv32imacxw/ilp32\libprintfloat.a(printfloat.o)
 .text.sprintf  0x0000000000000000       0x2c c:/mounriver/mounriver_studio/toolchain/risc-v embedded gcc/bin/../lib/gcc/riscv-none-embed/8.2.0/../../../../riscv-none-embed/lib/rv32imacxw/ilp32\libprintfloat.a(printfloat.o)
 .text.snprintf
                0x0000000000000000       0x2e c:/mounriver/mounriver_studio/toolchain/risc-v embedded gcc/bin/../lib/gcc/riscv-none-embed/8.2.0/../../../../riscv-none-embed/lib/rv32imacxw/ilp32\libprintfloat.a(printfloat.o)
 .text          0x0000000000000000        0x0 c:/mounriver/mounriver_studio/toolchain/risc-v embedded gcc/bin/../lib/gcc/riscv-none-embed/8.2.0/rv32imacxw/ilp32\libgcc.a(_divdi3.o)
 .data          0x0000000000000000        0x0 c:/mounriver/mounriver_studio/toolchain/risc-v embedded gcc/bin/../lib/gcc/riscv-none-embed/8.2.0/rv32imacxw/ilp32\libgcc.a(_divdi3.o)
 .bss           0x0000000000000000        0x0 c:/mounriver/mounriver_studio/toolchain/risc-v embedded gcc/bin/../lib/gcc/riscv-none-embed/8.2.0/rv32imacxw/ilp32\libgcc.a(_divdi3.o)
 .eh_frame      0x0000000000000000       0x28 c:/mounriver/mounriver_studio/toolchain/risc-v embedded gcc/bin/../lib/gcc/riscv-none-embed/8.2.0/rv32imacxw/ilp32\libgcc.a(_divdi3.o)
 .text          0x0000000000000000        0x0 c:/mounriver/mounriver_studio/toolchain/risc-v embedded gcc/bin/../lib/gcc/riscv-none-embed/8.2.0/rv32imacxw/ilp32\libgcc.a(_udivdi3.o)
 .data          0x0000000000000000        0x0 c:/mounriver/mounriver_studio/toolchain/risc-v embedded gcc/bin/../lib/gcc/riscv-none-embed/8.2.0/rv32imacxw/ilp32\libgcc.a(_udivdi3.o)
 .bss           0x0000000000000000        0x0 c:/mounriver/mounriver_studio/toolchain/risc-v embedded gcc/bin/../lib/gcc/riscv-none-embed/8.2.0/rv32imacxw/ilp32\libgcc.a(_udivdi3.o)
 .eh_frame      0x0000000000000000       0x28 c:/mounriver/mounriver_studio/toolchain/risc-v embedded gcc/bin/../lib/gcc/riscv-none-embed/8.2.0/rv32imacxw/ilp32\libgcc.a(_udivdi3.o)
 .text          0x0000000000000000        0x0 c:/mounriver/mounriver_studio/toolchain/risc-v embedded gcc/bin/../lib/gcc/riscv-none-embed/8.2.0/rv32imacxw/ilp32\libgcc.a(_umoddi3.o)
 .data          0x0000000000000000        0x0 c:/mounriver/mounriver_studio/toolchain/risc-v embedded gcc/bin/../lib/gcc/riscv-none-embed/8.2.0/rv32imacxw/ilp32\libgcc.a(_umoddi3.o)
 .bss           0x0000000000000000        0x0 c:/mounriver/mounriver_studio/toolchain/risc-v embedded gcc/bin/../lib/gcc/riscv-none-embed/8.2.0/rv32imacxw/ilp32\libgcc.a(_umoddi3.o)
 .eh_frame      0x0000000000000000       0x28 c:/mounriver/mounriver_studio/toolchain/risc-v embedded gcc/bin/../lib/gcc/riscv-none-embed/8.2.0/rv32imacxw/ilp32\libgcc.a(_umoddi3.o)
 .text          0x0000000000000000        0x0 c:/mounriver/mounriver_studio/toolchain/risc-v embedded gcc/bin/../lib/gcc/riscv-none-embed/8.2.0/rv32imacxw/ilp32\libgcc.a(adddf3.o)
 .data          0x0000000000000000        0x0 c:/mounriver/mounriver_studio/toolchain/risc-v embedded gcc/bin/../lib/gcc/riscv-none-embed/8.2.0/rv32imacxw/ilp32\libgcc.a(adddf3.o)
 .bss           0x0000000000000000        0x0 c:/mounriver/mounriver_studio/toolchain/risc-v embedded gcc/bin/../lib/gcc/riscv-none-embed/8.2.0/rv32imacxw/ilp32\libgcc.a(adddf3.o)
 .text          0x0000000000000000        0x0 c:/mounriver/mounriver_studio/toolchain/risc-v embedded gcc/bin/../lib/gcc/riscv-none-embed/8.2.0/rv32imacxw/ilp32\libgcc.a(divdf3.o)
 .data          0x0000000000000000        0x0 c:/mounriver/mounriver_studio/toolchain/risc-v embedded gcc/bin/../lib/gcc/riscv-none-embed/8.2.0/rv32imacxw/ilp32\libgcc.a(divdf3.o)
 .bss           0x0000000000000000        0x0 c:/mounriver/mounriver_studio/toolchain/risc-v embedded gcc/bin/../lib/gcc/riscv-none-embed/8.2.0/rv32imacxw/ilp32\libgcc.a(divdf3.o)
 .text.__divdf3
                0x0000000000000000      0x5c4 c:/mounriver/mounriver_studio/toolchain/risc-v embedded gcc/bin/../lib/gcc/riscv-none-embed/8.2.0/rv32imacxw/ilp32\libgcc.a(divdf3.o)
 .rodata.__divdf3
                0x0000000000000000       0x40 c:/mounriver/mounriver_studio/toolchain/risc-v embedded gcc/bin/../lib/gcc/riscv-none-embed/8.2.0/rv32imacxw/ilp32\libgcc.a(divdf3.o)
 .debug_frame   0x0000000000000000       0x50 c:/mounriver/mounriver_studio/toolchain/risc-v embedded gcc/bin/../lib/gcc/riscv-none-embed/8.2.0/rv32imacxw/ilp32\libgcc.a(divdf3.o)
 .text          0x0000000000000000        0x0 c:/mounriver/mounriver_studio/toolchain/risc-v embedded gcc/bin/../lib/gcc/riscv-none-embed/8.2.0/rv32imacxw/ilp32\libgcc.a(eqdf2.o)
 .data          0x0000000000000000        0x0 c:/mounriver/mounriver_studio/toolchain/risc-v embedded gcc/bin/../lib/gcc/riscv-none-embed/8.2.0/rv32imacxw/ilp32\libgcc.a(eqdf2.o)
 .bss           0x0000000000000000        0x0 c:/mounriver/mounriver_studio/toolchain/risc-v embedded gcc/bin/../lib/gcc/riscv-none-embed/8.2.0/rv32imacxw/ilp32\libgcc.a(eqdf2.o)
 .text.__eqdf2  0x0000000000000000       0x6a c:/mounriver/mounriver_studio/toolchain/risc-v embedded gcc/bin/../lib/gcc/riscv-none-embed/8.2.0/rv32imacxw/ilp32\libgcc.a(eqdf2.o)
 .debug_frame   0x0000000000000000       0x20 c:/mounriver/mounriver_studio/toolchain/risc-v embedded gcc/bin/../lib/gcc/riscv-none-embed/8.2.0/rv32imacxw/ilp32\libgcc.a(eqdf2.o)
 .text          0x0000000000000000        0x0 c:/mounriver/mounriver_studio/toolchain/risc-v embedded gcc/bin/../lib/gcc/riscv-none-embed/8.2.0/rv32imacxw/ilp32\libgcc.a(ledf2.o)
 .data          0x0000000000000000        0x0 c:/mounriver/mounriver_studio/toolchain/risc-v embedded gcc/bin/../lib/gcc/riscv-none-embed/8.2.0/rv32imacxw/ilp32\libgcc.a(ledf2.o)
 .bss           0x0000000000000000        0x0 c:/mounriver/mounriver_studio/toolchain/risc-v embedded gcc/bin/../lib/gcc/riscv-none-embed/8.2.0/rv32imacxw/ilp32\libgcc.a(ledf2.o)
 .text          0x0000000000000000        0x0 c:/mounriver/mounriver_studio/toolchain/risc-v embedded gcc/bin/../lib/gcc/riscv-none-embed/8.2.0/rv32imacxw/ilp32\libgcc.a(muldf3.o)
 .data          0x0000000000000000        0x0 c:/mounriver/mounriver_studio/toolchain/risc-v embedded gcc/bin/../lib/gcc/riscv-none-embed/8.2.0/rv32imacxw/ilp32\libgcc.a(muldf3.o)
 .bss           0x0000000000000000        0x0 c:/mounriver/mounriver_studio/toolchain/risc-v embedded gcc/bin/../lib/gcc/riscv-none-embed/8.2.0/rv32imacxw/ilp32\libgcc.a(muldf3.o)
 .text          0x0000000000000000        0x0 c:/mounriver/mounriver_studio/toolchain/risc-v embedded gcc/bin/../lib/gcc/riscv-none-embed/8.2.0/rv32imacxw/ilp32\libgcc.a(subdf3.o)
 .data          0x0000000000000000        0x0 c:/mounriver/mounriver_studio/toolchain/risc-v embedded gcc/bin/../lib/gcc/riscv-none-embed/8.2.0/rv32imacxw/ilp32\libgcc.a(subdf3.o)
 .bss           0x0000000000000000        0x0 c:/mounriver/mounriver_studio/toolchain/risc-v embedded gcc/bin/../lib/gcc/riscv-none-embed/8.2.0/rv32imacxw/ilp32\libgcc.a(subdf3.o)
 .text          0x0000000000000000        0x0 c:/mounriver/mounriver_studio/toolchain/risc-v embedded gcc/bin/../lib/gcc/riscv-none-embed/8.2.0/rv32imacxw/ilp32\libgcc.a(fixdfsi.o)
 .data          0x0000000000000000        0x0 c:/mounriver/mounriver_studio/toolchain/risc-v embedded gcc/bin/../lib/gcc/riscv-none-embed/8.2.0/rv32imacxw/ilp32\libgcc.a(fixdfsi.o)
 .bss           0x0000000000000000        0x0 c:/mounriver/mounriver_studio/toolchain/risc-v embedded gcc/bin/../lib/gcc/riscv-none-embed/8.2.0/rv32imacxw/ilp32\libgcc.a(fixdfsi.o)
 .text.__fixdfsi
                0x0000000000000000       0x68 c:/mounriver/mounriver_studio/toolchain/risc-v embedded gcc/bin/../lib/gcc/riscv-none-embed/8.2.0/rv32imacxw/ilp32\libgcc.a(fixdfsi.o)
 .debug_frame   0x0000000000000000       0x20 c:/mounriver/mounriver_studio/toolchain/risc-v embedded gcc/bin/../lib/gcc/riscv-none-embed/8.2.0/rv32imacxw/ilp32\libgcc.a(fixdfsi.o)
 .text          0x0000000000000000        0x0 c:/mounriver/mounriver_studio/toolchain/risc-v embedded gcc/bin/../lib/gcc/riscv-none-embed/8.2.0/rv32imacxw/ilp32\libgcc.a(fixunsdfsi.o)
 .data          0x0000000000000000        0x0 c:/mounriver/mounriver_studio/toolchain/risc-v embedded gcc/bin/../lib/gcc/riscv-none-embed/8.2.0/rv32imacxw/ilp32\libgcc.a(fixunsdfsi.o)
 .bss           0x0000000000000000        0x0 c:/mounriver/mounriver_studio/toolchain/risc-v embedded gcc/bin/../lib/gcc/riscv-none-embed/8.2.0/rv32imacxw/ilp32\libgcc.a(fixunsdfsi.o)
 .text          0x0000000000000000        0x0 c:/mounriver/mounriver_studio/toolchain/risc-v embedded gcc/bin/../lib/gcc/riscv-none-embed/8.2.0/rv32imacxw/ilp32\libgcc.a(floatsidf.o)
 .data          0x0000000000000000        0x0 c:/mounriver/mounriver_studio/toolchain/risc-v embedded gcc/bin/../lib/gcc/riscv-none-embed/8.2.0/rv32imacxw/ilp32\libgcc.a(floatsidf.o)
 .bss           0x0000000000000000        0x0 c:/mounriver/mounriver_studio/toolchain/risc-v embedded gcc/bin/../lib/gcc/riscv-none-embed/8.2.0/rv32imacxw/ilp32\libgcc.a(floatsidf.o)
 .text          0x0000000000000000        0x0 c:/mounriver/mounriver_studio/toolchain/risc-v embedded gcc/bin/../lib/gcc/riscv-none-embed/8.2.0/rv32imacxw/ilp32\libgcc.a(floatunsidf.o)
 .data          0x0000000000000000        0x0 c:/mounriver/mounriver_studio/toolchain/risc-v embedded gcc/bin/../lib/gcc/riscv-none-embed/8.2.0/rv32imacxw/ilp32\libgcc.a(floatunsidf.o)
 .bss           0x0000000000000000        0x0 c:/mounriver/mounriver_studio/toolchain/risc-v embedded gcc/bin/../lib/gcc/riscv-none-embed/8.2.0/rv32imacxw/ilp32\libgcc.a(floatunsidf.o)
 .text.__floatunsidf
                0x0000000000000000       0x6c c:/mounriver/mounriver_studio/toolchain/risc-v embedded gcc/bin/../lib/gcc/riscv-none-embed/8.2.0/rv32imacxw/ilp32\libgcc.a(floatunsidf.o)
 .debug_frame   0x0000000000000000       0x38 c:/mounriver/mounriver_studio/toolchain/risc-v embedded gcc/bin/../lib/gcc/riscv-none-embed/8.2.0/rv32imacxw/ilp32\libgcc.a(floatunsidf.o)
 .text          0x0000000000000000        0x0 c:/mounriver/mounriver_studio/toolchain/risc-v embedded gcc/bin/../lib/gcc/riscv-none-embed/8.2.0/rv32imacxw/ilp32\libgcc.a(fixdfdi.o)
 .data          0x0000000000000000        0x0 c:/mounriver/mounriver_studio/toolchain/risc-v embedded gcc/bin/../lib/gcc/riscv-none-embed/8.2.0/rv32imacxw/ilp32\libgcc.a(fixdfdi.o)
 .bss           0x0000000000000000        0x0 c:/mounriver/mounriver_studio/toolchain/risc-v embedded gcc/bin/../lib/gcc/riscv-none-embed/8.2.0/rv32imacxw/ilp32\libgcc.a(fixdfdi.o)
 .text          0x0000000000000000        0x0 c:/mounriver/mounriver_studio/toolchain/risc-v embedded gcc/bin/../lib/gcc/riscv-none-embed/8.2.0/rv32imacxw/ilp32\libgcc.a(floatdidf.o)
 .data          0x0000000000000000        0x0 c:/mounriver/mounriver_studio/toolchain/risc-v embedded gcc/bin/../lib/gcc/riscv-none-embed/8.2.0/rv32imacxw/ilp32\libgcc.a(floatdidf.o)
 .bss           0x0000000000000000        0x0 c:/mounriver/mounriver_studio/toolchain/risc-v embedded gcc/bin/../lib/gcc/riscv-none-embed/8.2.0/rv32imacxw/ilp32\libgcc.a(floatdidf.o)
 .text          0x0000000000000000        0x0 c:/mounriver/mounriver_studio/toolchain/risc-v embedded gcc/bin/../lib/gcc/riscv-none-embed/8.2.0/rv32imacxw/ilp32\libgcc.a(addsf3.o)
 .data          0x0000000000000000        0x0 c:/mounriver/mounriver_studio/toolchain/risc-v embedded gcc/bin/../lib/gcc/riscv-none-embed/8.2.0/rv32imacxw/ilp32\libgcc.a(addsf3.o)
 .bss           0x0000000000000000        0x0 c:/mounriver/mounriver_studio/toolchain/risc-v embedded gcc/bin/../lib/gcc/riscv-none-embed/8.2.0/rv32imacxw/ilp32\libgcc.a(addsf3.o)
 .text          0x0000000000000000        0x0 c:/mounriver/mounriver_studio/toolchain/risc-v embedded gcc/bin/../lib/gcc/riscv-none-embed/8.2.0/rv32imacxw/ilp32\libgcc.a(divsf3.o)
 .data          0x0000000000000000        0x0 c:/mounriver/mounriver_studio/toolchain/risc-v embedded gcc/bin/../lib/gcc/riscv-none-embed/8.2.0/rv32imacxw/ilp32\libgcc.a(divsf3.o)
 .bss           0x0000000000000000        0x0 c:/mounriver/mounriver_studio/toolchain/risc-v embedded gcc/bin/../lib/gcc/riscv-none-embed/8.2.0/rv32imacxw/ilp32\libgcc.a(divsf3.o)
 .text          0x0000000000000000        0x0 c:/mounriver/mounriver_studio/toolchain/risc-v embedded gcc/bin/../lib/gcc/riscv-none-embed/8.2.0/rv32imacxw/ilp32\libgcc.a(eqsf2.o)
 .data          0x0000000000000000        0x0 c:/mounriver/mounriver_studio/toolchain/risc-v embedded gcc/bin/../lib/gcc/riscv-none-embed/8.2.0/rv32imacxw/ilp32\libgcc.a(eqsf2.o)
 .bss           0x0000000000000000        0x0 c:/mounriver/mounriver_studio/toolchain/risc-v embedded gcc/bin/../lib/gcc/riscv-none-embed/8.2.0/rv32imacxw/ilp32\libgcc.a(eqsf2.o)
 .text          0x0000000000000000        0x0 c:/mounriver/mounriver_studio/toolchain/risc-v embedded gcc/bin/../lib/gcc/riscv-none-embed/8.2.0/rv32imacxw/ilp32\libgcc.a(gesf2.o)
 .data          0x0000000000000000        0x0 c:/mounriver/mounriver_studio/toolchain/risc-v embedded gcc/bin/../lib/gcc/riscv-none-embed/8.2.0/rv32imacxw/ilp32\libgcc.a(gesf2.o)
 .bss           0x0000000000000000        0x0 c:/mounriver/mounriver_studio/toolchain/risc-v embedded gcc/bin/../lib/gcc/riscv-none-embed/8.2.0/rv32imacxw/ilp32\libgcc.a(gesf2.o)
 .text          0x0000000000000000        0x0 c:/mounriver/mounriver_studio/toolchain/risc-v embedded gcc/bin/../lib/gcc/riscv-none-embed/8.2.0/rv32imacxw/ilp32\libgcc.a(lesf2.o)
 .data          0x0000000000000000        0x0 c:/mounriver/mounriver_studio/toolchain/risc-v embedded gcc/bin/../lib/gcc/riscv-none-embed/8.2.0/rv32imacxw/ilp32\libgcc.a(lesf2.o)
 .bss           0x0000000000000000        0x0 c:/mounriver/mounriver_studio/toolchain/risc-v embedded gcc/bin/../lib/gcc/riscv-none-embed/8.2.0/rv32imacxw/ilp32\libgcc.a(lesf2.o)
 .text          0x0000000000000000        0x0 c:/mounriver/mounriver_studio/toolchain/risc-v embedded gcc/bin/../lib/gcc/riscv-none-embed/8.2.0/rv32imacxw/ilp32\libgcc.a(mulsf3.o)
 .data          0x0000000000000000        0x0 c:/mounriver/mounriver_studio/toolchain/risc-v embedded gcc/bin/../lib/gcc/riscv-none-embed/8.2.0/rv32imacxw/ilp32\libgcc.a(mulsf3.o)
 .bss           0x0000000000000000        0x0 c:/mounriver/mounriver_studio/toolchain/risc-v embedded gcc/bin/../lib/gcc/riscv-none-embed/8.2.0/rv32imacxw/ilp32\libgcc.a(mulsf3.o)
 .text          0x0000000000000000        0x0 c:/mounriver/mounriver_studio/toolchain/risc-v embedded gcc/bin/../lib/gcc/riscv-none-embed/8.2.0/rv32imacxw/ilp32\libgcc.a(subsf3.o)
 .data          0x0000000000000000        0x0 c:/mounriver/mounriver_studio/toolchain/risc-v embedded gcc/bin/../lib/gcc/riscv-none-embed/8.2.0/rv32imacxw/ilp32\libgcc.a(subsf3.o)
 .bss           0x0000000000000000        0x0 c:/mounriver/mounriver_studio/toolchain/risc-v embedded gcc/bin/../lib/gcc/riscv-none-embed/8.2.0/rv32imacxw/ilp32\libgcc.a(subsf3.o)
 .text          0x0000000000000000        0x0 c:/mounriver/mounriver_studio/toolchain/risc-v embedded gcc/bin/../lib/gcc/riscv-none-embed/8.2.0/rv32imacxw/ilp32\libgcc.a(unordsf2.o)
 .data          0x0000000000000000        0x0 c:/mounriver/mounriver_studio/toolchain/risc-v embedded gcc/bin/../lib/gcc/riscv-none-embed/8.2.0/rv32imacxw/ilp32\libgcc.a(unordsf2.o)
 .bss           0x0000000000000000        0x0 c:/mounriver/mounriver_studio/toolchain/risc-v embedded gcc/bin/../lib/gcc/riscv-none-embed/8.2.0/rv32imacxw/ilp32\libgcc.a(unordsf2.o)
 .text          0x0000000000000000        0x0 c:/mounriver/mounriver_studio/toolchain/risc-v embedded gcc/bin/../lib/gcc/riscv-none-embed/8.2.0/rv32imacxw/ilp32\libgcc.a(fixsfsi.o)
 .data          0x0000000000000000        0x0 c:/mounriver/mounriver_studio/toolchain/risc-v embedded gcc/bin/../lib/gcc/riscv-none-embed/8.2.0/rv32imacxw/ilp32\libgcc.a(fixsfsi.o)
 .bss           0x0000000000000000        0x0 c:/mounriver/mounriver_studio/toolchain/risc-v embedded gcc/bin/../lib/gcc/riscv-none-embed/8.2.0/rv32imacxw/ilp32\libgcc.a(fixsfsi.o)
 .text          0x0000000000000000        0x0 c:/mounriver/mounriver_studio/toolchain/risc-v embedded gcc/bin/../lib/gcc/riscv-none-embed/8.2.0/rv32imacxw/ilp32\libgcc.a(fixunssfsi.o)
 .data          0x0000000000000000        0x0 c:/mounriver/mounriver_studio/toolchain/risc-v embedded gcc/bin/../lib/gcc/riscv-none-embed/8.2.0/rv32imacxw/ilp32\libgcc.a(fixunssfsi.o)
 .bss           0x0000000000000000        0x0 c:/mounriver/mounriver_studio/toolchain/risc-v embedded gcc/bin/../lib/gcc/riscv-none-embed/8.2.0/rv32imacxw/ilp32\libgcc.a(fixunssfsi.o)
 .text          0x0000000000000000        0x0 c:/mounriver/mounriver_studio/toolchain/risc-v embedded gcc/bin/../lib/gcc/riscv-none-embed/8.2.0/rv32imacxw/ilp32\libgcc.a(floatsisf.o)
 .data          0x0000000000000000        0x0 c:/mounriver/mounriver_studio/toolchain/risc-v embedded gcc/bin/../lib/gcc/riscv-none-embed/8.2.0/rv32imacxw/ilp32\libgcc.a(floatsisf.o)
 .bss           0x0000000000000000        0x0 c:/mounriver/mounriver_studio/toolchain/risc-v embedded gcc/bin/../lib/gcc/riscv-none-embed/8.2.0/rv32imacxw/ilp32\libgcc.a(floatsisf.o)
 .text          0x0000000000000000        0x0 c:/mounriver/mounriver_studio/toolchain/risc-v embedded gcc/bin/../lib/gcc/riscv-none-embed/8.2.0/rv32imacxw/ilp32\libgcc.a(floatunsisf.o)
 .data          0x0000000000000000        0x0 c:/mounriver/mounriver_studio/toolchain/risc-v embedded gcc/bin/../lib/gcc/riscv-none-embed/8.2.0/rv32imacxw/ilp32\libgcc.a(floatunsisf.o)
 .bss           0x0000000000000000        0x0 c:/mounriver/mounriver_studio/toolchain/risc-v embedded gcc/bin/../lib/gcc/riscv-none-embed/8.2.0/rv32imacxw/ilp32\libgcc.a(floatunsisf.o)
 .text          0x0000000000000000        0x0 c:/mounriver/mounriver_studio/toolchain/risc-v embedded gcc/bin/../lib/gcc/riscv-none-embed/8.2.0/rv32imacxw/ilp32\libgcc.a(extendsfdf2.o)
 .data          0x0000000000000000        0x0 c:/mounriver/mounriver_studio/toolchain/risc-v embedded gcc/bin/../lib/gcc/riscv-none-embed/8.2.0/rv32imacxw/ilp32\libgcc.a(extendsfdf2.o)
 .bss           0x0000000000000000        0x0 c:/mounriver/mounriver_studio/toolchain/risc-v embedded gcc/bin/../lib/gcc/riscv-none-embed/8.2.0/rv32imacxw/ilp32\libgcc.a(extendsfdf2.o)
 .text          0x0000000000000000        0x0 c:/mounriver/mounriver_studio/toolchain/risc-v embedded gcc/bin/../lib/gcc/riscv-none-embed/8.2.0/rv32imacxw/ilp32\libgcc.a(truncdfsf2.o)
 .data          0x0000000000000000        0x0 c:/mounriver/mounriver_studio/toolchain/risc-v embedded gcc/bin/../lib/gcc/riscv-none-embed/8.2.0/rv32imacxw/ilp32\libgcc.a(truncdfsf2.o)
 .bss           0x0000000000000000        0x0 c:/mounriver/mounriver_studio/toolchain/risc-v embedded gcc/bin/../lib/gcc/riscv-none-embed/8.2.0/rv32imacxw/ilp32\libgcc.a(truncdfsf2.o)
 .data          0x0000000000000000        0x0 c:/mounriver/mounriver_studio/toolchain/risc-v embedded gcc/bin/../lib/gcc/riscv-none-embed/8.2.0/rv32imacxw/ilp32\libgcc.a(save-restore.o)
 .bss           0x0000000000000000        0x0 c:/mounriver/mounriver_studio/toolchain/risc-v embedded gcc/bin/../lib/gcc/riscv-none-embed/8.2.0/rv32imacxw/ilp32\libgcc.a(save-restore.o)
 .eh_frame      0x0000000000000000       0xf8 c:/mounriver/mounriver_studio/toolchain/risc-v embedded gcc/bin/../lib/gcc/riscv-none-embed/8.2.0/rv32imacxw/ilp32\libgcc.a(save-restore.o)
 .text          0x0000000000000000        0x0 c:/mounriver/mounriver_studio/toolchain/risc-v embedded gcc/bin/../lib/gcc/riscv-none-embed/8.2.0/rv32imacxw/ilp32\libgcc.a(_clz.o)
 .data          0x0000000000000000        0x0 c:/mounriver/mounriver_studio/toolchain/risc-v embedded gcc/bin/../lib/gcc/riscv-none-embed/8.2.0/rv32imacxw/ilp32\libgcc.a(_clz.o)
 .bss           0x0000000000000000        0x0 c:/mounriver/mounriver_studio/toolchain/risc-v embedded gcc/bin/../lib/gcc/riscv-none-embed/8.2.0/rv32imacxw/ilp32\libgcc.a(_clz.o)
 .text          0x0000000000000000        0x0 c:/mounriver/mounriver_studio/toolchain/risc-v embedded gcc/bin/../lib/gcc/riscv-none-embed/8.2.0/rv32imacxw/ilp32\libgcc.a(_clzsi2.o)
 .data          0x0000000000000000        0x0 c:/mounriver/mounriver_studio/toolchain/risc-v embedded gcc/bin/../lib/gcc/riscv-none-embed/8.2.0/rv32imacxw/ilp32\libgcc.a(_clzsi2.o)
 .bss           0x0000000000000000        0x0 c:/mounriver/mounriver_studio/toolchain/risc-v embedded gcc/bin/../lib/gcc/riscv-none-embed/8.2.0/rv32imacxw/ilp32\libgcc.a(_clzsi2.o)
 .text          0x0000000000000000        0x0 c:/mounriver/mounriver_studio/toolchain/risc-v embedded gcc/bin/../lib/gcc/riscv-none-embed/8.2.0/../../../../riscv-none-embed/lib/rv32imacxw/ilp32\libg_nano.a(lib_a-errno.o)
 .data          0x0000000000000000        0x0 c:/mounriver/mounriver_studio/toolchain/risc-v embedded gcc/bin/../lib/gcc/riscv-none-embed/8.2.0/../../../../riscv-none-embed/lib/rv32imacxw/ilp32\libg_nano.a(lib_a-errno.o)
 .bss           0x0000000000000000        0x0 c:/mounriver/mounriver_studio/toolchain/risc-v embedded gcc/bin/../lib/gcc/riscv-none-embed/8.2.0/../../../../riscv-none-embed/lib/rv32imacxw/ilp32\libg_nano.a(lib_a-errno.o)
 .text          0x0000000000000000        0x0 c:/mounriver/mounriver_studio/toolchain/risc-v embedded gcc/bin/../lib/gcc/riscv-none-embed/8.2.0/../../../../riscv-none-embed/lib/rv32imacxw/ilp32\libg_nano.a(lib_a-impure.o)
 .data          0x0000000000000000        0x0 c:/mounriver/mounriver_studio/toolchain/risc-v embedded gcc/bin/../lib/gcc/riscv-none-embed/8.2.0/../../../../riscv-none-embed/lib/rv32imacxw/ilp32\libg_nano.a(lib_a-impure.o)
 .bss           0x0000000000000000        0x0 c:/mounriver/mounriver_studio/toolchain/risc-v embedded gcc/bin/../lib/gcc/riscv-none-embed/8.2.0/../../../../riscv-none-embed/lib/rv32imacxw/ilp32\libg_nano.a(lib_a-impure.o)
 .sdata2._global_impure_ptr
                0x0000000000000000        0x4 c:/mounriver/mounriver_studio/toolchain/risc-v embedded gcc/bin/../lib/gcc/riscv-none-embed/8.2.0/../../../../riscv-none-embed/lib/rv32imacxw/ilp32\libg_nano.a(lib_a-impure.o)
 .text          0x0000000000000000        0x0 c:/mounriver/mounriver_studio/toolchain/risc-v embedded gcc/bin/../lib/gcc/riscv-none-embed/8.2.0/../../../../riscv-none-embed/lib/rv32imacxw/ilp32\libg_nano.a(lib_a-memcmp.o)
 .data          0x0000000000000000        0x0 c:/mounriver/mounriver_studio/toolchain/risc-v embedded gcc/bin/../lib/gcc/riscv-none-embed/8.2.0/../../../../riscv-none-embed/lib/rv32imacxw/ilp32\libg_nano.a(lib_a-memcmp.o)
 .bss           0x0000000000000000        0x0 c:/mounriver/mounriver_studio/toolchain/risc-v embedded gcc/bin/../lib/gcc/riscv-none-embed/8.2.0/../../../../riscv-none-embed/lib/rv32imacxw/ilp32\libg_nano.a(lib_a-memcmp.o)
 .text          0x0000000000000000        0x0 c:/mounriver/mounriver_studio/toolchain/risc-v embedded gcc/bin/../lib/gcc/riscv-none-embed/8.2.0/../../../../riscv-none-embed/lib/rv32imacxw/ilp32\libg_nano.a(lib_a-memcpy.o)
 .data          0x0000000000000000        0x0 c:/mounriver/mounriver_studio/toolchain/risc-v embedded gcc/bin/../lib/gcc/riscv-none-embed/8.2.0/../../../../riscv-none-embed/lib/rv32imacxw/ilp32\libg_nano.a(lib_a-memcpy.o)
 .bss           0x0000000000000000        0x0 c:/mounriver/mounriver_studio/toolchain/risc-v embedded gcc/bin/../lib/gcc/riscv-none-embed/8.2.0/../../../../riscv-none-embed/lib/rv32imacxw/ilp32\libg_nano.a(lib_a-memcpy.o)
 .data          0x0000000000000000        0x0 c:/mounriver/mounriver_studio/toolchain/risc-v embedded gcc/bin/../lib/gcc/riscv-none-embed/8.2.0/../../../../riscv-none-embed/lib/rv32imacxw/ilp32\libg_nano.a(lib_a-memset.o)
 .bss           0x0000000000000000        0x0 c:/mounriver/mounriver_studio/toolchain/risc-v embedded gcc/bin/../lib/gcc/riscv-none-embed/8.2.0/../../../../riscv-none-embed/lib/rv32imacxw/ilp32\libg_nano.a(lib_a-memset.o)
 .text          0x0000000000000000        0x0 c:/mounriver/mounriver_studio/toolchain/risc-v embedded gcc/bin/../lib/gcc/riscv-none-embed/8.2.0/../../../../riscv-none-embed/lib/rv32imacxw/ilp32\libg_nano.a(lib_a-strlen.o)
 .data          0x0000000000000000        0x0 c:/mounriver/mounriver_studio/toolchain/risc-v embedded gcc/bin/../lib/gcc/riscv-none-embed/8.2.0/../../../../riscv-none-embed/lib/rv32imacxw/ilp32\libg_nano.a(lib_a-strlen.o)
 .bss           0x0000000000000000        0x0 c:/mounriver/mounriver_studio/toolchain/risc-v embedded gcc/bin/../lib/gcc/riscv-none-embed/8.2.0/../../../../riscv-none-embed/lib/rv32imacxw/ilp32\libg_nano.a(lib_a-strlen.o)
 .text.strlen   0x0000000000000000       0x12 c:/mounriver/mounriver_studio/toolchain/risc-v embedded gcc/bin/../lib/gcc/riscv-none-embed/8.2.0/../../../../riscv-none-embed/lib/rv32imacxw/ilp32\libg_nano.a(lib_a-strlen.o)
 .debug_frame   0x0000000000000000       0x20 c:/mounriver/mounriver_studio/toolchain/risc-v embedded gcc/bin/../lib/gcc/riscv-none-embed/8.2.0/../../../../riscv-none-embed/lib/rv32imacxw/ilp32\libg_nano.a(lib_a-strlen.o)

Memory Configuration

Name             Origin             Length             Attributes
FLASH            0x0000000000000000 0x0000000000020000 xr
RAM              0x0000000020000000 0x0000000000008000 xrw
*default*        0x0000000000000000 0xffffffffffffffff

Linker script and memory map

LOAD ./User/RTOS_apps/IMU_handle.o
LOAD ./User/RTOS_apps/Print_status.o
LOAD ./User/RTOS_apps/control_handle.o
LOAD ./User/RTOS_apps/soft_stast.o
LOAD ./User/RTOS_tasks.o
LOAD ./User/ch32v30x_it.o
LOAD ./User/main.o
LOAD ./User/system_ch32v30x.o
LOAD ./Startup/startup_ch32v30x_D8C.o
LOAD ./Peripheral/src/ch32v30x_adc.o
LOAD ./Peripheral/src/ch32v30x_bkp.o
LOAD ./Peripheral/src/ch32v30x_can.o
LOAD ./Peripheral/src/ch32v30x_crc.o
LOAD ./Peripheral/src/ch32v30x_dac.o
LOAD ./Peripheral/src/ch32v30x_dbgmcu.o
LOAD ./Peripheral/src/ch32v30x_dma.o
LOAD ./Peripheral/src/ch32v30x_dvp.o
LOAD ./Peripheral/src/ch32v30x_eth.o
LOAD ./Peripheral/src/ch32v30x_exti.o
LOAD ./Peripheral/src/ch32v30x_flash.o
LOAD ./Peripheral/src/ch32v30x_fsmc.o
LOAD ./Peripheral/src/ch32v30x_gpio.o
LOAD ./Peripheral/src/ch32v30x_i2c.o
LOAD ./Peripheral/src/ch32v30x_iwdg.o
LOAD ./Peripheral/src/ch32v30x_misc.o
LOAD ./Peripheral/src/ch32v30x_opa.o
LOAD ./Peripheral/src/ch32v30x_pwr.o
LOAD ./Peripheral/src/ch32v30x_rcc.o
LOAD ./Peripheral/src/ch32v30x_rng.o
LOAD ./Peripheral/src/ch32v30x_rtc.o
LOAD ./Peripheral/src/ch32v30x_sdio.o
LOAD ./Peripheral/src/ch32v30x_spi.o
LOAD ./Peripheral/src/ch32v30x_tim.o
LOAD ./Peripheral/src/ch32v30x_usart.o
LOAD ./Peripheral/src/ch32v30x_wwdg.o
LOAD ./General_Files/eMPL/inv_mpu.o
LOAD ./General_Files/eMPL/inv_mpu_dmp_motion_driver.o
LOAD ./General_Files/drivers/BMP280.o
LOAD ./General_Files/drivers/MPU6050.o
LOAD ./General_Files/drivers/MyI2C.o
LOAD ./General_Files/drivers/ST7789.o
LOAD ./General_Files/drivers/adc.o
LOAD ./General_Files/drivers/bsp_filter.o
LOAD ./General_Files/drivers/gpio.o
LOAD ./General_Files/drivers/mtf01.o
LOAD ./General_Files/drivers/pwm.o
LOAD ./General_Files/drivers/tim.o
LOAD ./General_Files/drivers/uart.o
LOAD ./General_Files/apps/src/CRC.o
LOAD ./General_Files/apps/src/CRSF.o
LOAD ./General_Files/apps/src/pid.o
LOAD ./General_Files/system.o
LOAD ./FreeRTOS/portable/MemMang/heap_4.o
LOAD ./FreeRTOS/portable/GCC/RISC-V/port.o
LOAD ./FreeRTOS/portable/GCC/RISC-V/portASM.o
LOAD ./FreeRTOS/croutine.o
LOAD ./FreeRTOS/event_groups.o
LOAD ./FreeRTOS/list.o
LOAD ./FreeRTOS/queue.o
LOAD ./FreeRTOS/stream_buffer.o
LOAD ./FreeRTOS/tasks.o
LOAD ./FreeRTOS/timers.o
LOAD ./Debug/debug.o
LOAD ./Core/core_riscv.o
LOAD c:/mounriver/mounriver_studio/toolchain/risc-v embedded gcc/bin/../lib/gcc/riscv-none-embed/8.2.0/../../../../riscv-none-embed/lib/rv32imacxw/ilp32\libm.a
LOAD c:/mounriver/mounriver_studio/toolchain/risc-v embedded gcc/bin/../lib/gcc/riscv-none-embed/8.2.0/../../../../riscv-none-embed/lib/rv32imacxw/ilp32\libprintfloat.a
LOAD c:/mounriver/mounriver_studio/toolchain/risc-v embedded gcc/bin/../lib/gcc/riscv-none-embed/8.2.0/rv32imacxw/ilp32\libgcc.a
LOAD c:/mounriver/mounriver_studio/toolchain/risc-v embedded gcc/bin/../lib/gcc/riscv-none-embed/8.2.0/../../../../riscv-none-embed/lib/rv32imacxw/ilp32\libg_nano.a
LOAD c:/mounriver/mounriver_studio/toolchain/risc-v embedded gcc/bin/../lib/gcc/riscv-none-embed/8.2.0/../../../../riscv-none-embed/lib/rv32imacxw/ilp32\libc_nano.a
LOAD c:/mounriver/mounriver_studio/toolchain/risc-v embedded gcc/bin/../lib/gcc/riscv-none-embed/8.2.0/rv32imacxw/ilp32\libgcc.a
START GROUP
LOAD c:/mounriver/mounriver_studio/toolchain/risc-v embedded gcc/bin/../lib/gcc/riscv-none-embed/8.2.0/rv32imacxw/ilp32\libgcc.a
LOAD c:/mounriver/mounriver_studio/toolchain/risc-v embedded gcc/bin/../lib/gcc/riscv-none-embed/8.2.0/../../../../riscv-none-embed/lib/rv32imacxw/ilp32\libc_nano.a
LOAD c:/mounriver/mounriver_studio/toolchain/risc-v embedded gcc/bin/../lib/gcc/riscv-none-embed/8.2.0/../../../../riscv-none-embed/lib/rv32imacxw/ilp32\libnosys.a
END GROUP
START GROUP
LOAD c:/mounriver/mounriver_studio/toolchain/risc-v embedded gcc/bin/../lib/gcc/riscv-none-embed/8.2.0/rv32imacxw/ilp32\libgcc.a
LOAD c:/mounriver/mounriver_studio/toolchain/risc-v embedded gcc/bin/../lib/gcc/riscv-none-embed/8.2.0/../../../../riscv-none-embed/lib/rv32imacxw/ilp32\libc_nano.a
LOAD c:/mounriver/mounriver_studio/toolchain/risc-v embedded gcc/bin/../lib/gcc/riscv-none-embed/8.2.0/../../../../riscv-none-embed/lib/rv32imacxw/ilp32\libnosys.a
END GROUP
                0x0000000000000800                __stack_size = 0x800
                [!provide]                        PROVIDE (_stack_size = __stack_size)

.init           0x0000000000000000        0x4
                0x0000000000000000                _sinit = .
                0x0000000000000000                . = ALIGN (0x4)
 *(SORT_NONE(.init))
 .init          0x0000000000000000        0x4 ./Startup/startup_ch32v30x_D8C.o
                0x0000000000000000                _start
                0x0000000000000004                . = ALIGN (0x4)
                0x0000000000000004                _einit = .

.vector         0x0000000000000004      0x1bc
 *(.vector)
 .vector        0x0000000000000004      0x1a0 ./Startup/startup_ch32v30x_D8C.o
                0x00000000000001c0                . = ALIGN (0x40)
 *fill*         0x00000000000001a4       0x1c 

.text           0x0000000000000200     0xc6d0
                0x0000000000000200                . = ALIGN (0x4)
 *(.text)
 .text          0x0000000000000200      0x2e6 ./FreeRTOS/portable/GCC/RISC-V/portASM.o
                0x0000000000000200                SW_Handler
                0x0000000000000300                xPortStartFirstTask
                0x0000000000000400                pxPortInitialiseStack
 .text          0x00000000000004e6       0x60 c:/mounriver/mounriver_studio/toolchain/risc-v embedded gcc/bin/../lib/gcc/riscv-none-embed/8.2.0/rv32imacxw/ilp32\libgcc.a(save-restore.o)
                0x00000000000004e6                __riscv_save_12
                0x00000000000004ee                __riscv_save_9
                0x00000000000004ee                __riscv_save_11
                0x00000000000004ee                __riscv_save_10
                0x00000000000004ee                __riscv_save_8
                0x00000000000004fc                __riscv_save_4
                0x00000000000004fc                __riscv_save_6
                0x00000000000004fc                __riscv_save_5
                0x00000000000004fc                __riscv_save_7
                0x0000000000000516                __riscv_save_3
                0x0000000000000516                __riscv_save_2
                0x0000000000000516                __riscv_save_1
                0x0000000000000516                __riscv_save_0
                0x0000000000000522                __riscv_restore_12
                0x0000000000000526                __riscv_restore_11
                0x0000000000000526                __riscv_restore_9
                0x0000000000000526                __riscv_restore_10
                0x0000000000000526                __riscv_restore_8
                0x0000000000000530                __riscv_restore_5
                0x0000000000000530                __riscv_restore_7
                0x0000000000000530                __riscv_restore_6
                0x0000000000000530                __riscv_restore_4
                0x000000000000053a                __riscv_restore_3
                0x000000000000053a                __riscv_restore_0
                0x000000000000053a                __riscv_restore_2
                0x000000000000053a                __riscv_restore_1
 .text          0x0000000000000546       0xa8 c:/mounriver/mounriver_studio/toolchain/risc-v embedded gcc/bin/../lib/gcc/riscv-none-embed/8.2.0/../../../../riscv-none-embed/lib/rv32imacxw/ilp32\libg_nano.a(lib_a-memset.o)
                0x0000000000000546                memset
 *(.text.*)
 .text.load_filter_data
                0x00000000000005ee       0x6a ./User/RTOS_apps/IMU_handle.o
                0x00000000000005ee                load_filter_data
 .text.calc_IMU_filter
                0x0000000000000658       0x5e ./User/RTOS_apps/IMU_handle.o
                0x0000000000000658                calc_IMU_filter
 .text.IMU_task
                0x00000000000006b6       0x28 ./User/RTOS_apps/IMU_handle.o
                0x00000000000006b6                IMU_task
 .text.String_print
                0x00000000000006de      0x1b0 ./User/RTOS_apps/Print_status.o
                0x00000000000006de                String_print
 .text.Print_status_task
                0x000000000000088e        0xe ./User/RTOS_apps/Print_status.o
                0x000000000000088e                Print_status_task
 .text.PIDSTRUCT_Init
                0x000000000000089c      0x1fa ./User/RTOS_apps/control_handle.o
                0x000000000000089c                PIDSTRUCT_Init
 .text.ELRS_Convert_angle
                0x0000000000000a96       0x3e ./User/RTOS_apps/control_handle.o
                0x0000000000000a96                ELRS_Convert_angle
 .text.ELRS_Convert_throttle
                0x0000000000000ad4       0x48 ./User/RTOS_apps/control_handle.o
                0x0000000000000ad4                ELRS_Convert_throttle
 .text.ELRS_Convert_lock
                0x0000000000000b1c       0x16 ./User/RTOS_apps/control_handle.o
                0x0000000000000b1c                ELRS_Convert_lock
 .text.ELRS_Convert_flight_mode
                0x0000000000000b32       0x2c ./User/RTOS_apps/control_handle.o
                0x0000000000000b32                ELRS_Convert_flight_mode
 .text.Roll_outerloop_ctr
                0x0000000000000b5e       0x36 ./User/RTOS_apps/control_handle.o
                0x0000000000000b5e                Roll_outerloop_ctr
 .text.Roll_innerloop_ctr
                0x0000000000000b94       0x36 ./User/RTOS_apps/control_handle.o
                0x0000000000000b94                Roll_innerloop_ctr
 .text.Yaw_outerloop_ctr
                0x0000000000000bca       0x36 ./User/RTOS_apps/control_handle.o
                0x0000000000000bca                Yaw_outerloop_ctr
 .text.Yaw_innerloop_ctr
                0x0000000000000c00       0x3a ./User/RTOS_apps/control_handle.o
                0x0000000000000c00                Yaw_innerloop_ctr
 .text.Pitch_outerloop_ctr
                0x0000000000000c3a       0x38 ./User/RTOS_apps/control_handle.o
                0x0000000000000c3a                Pitch_outerloop_ctr
 .text.Pitch_innerloop_ctr
                0x0000000000000c72       0x38 ./User/RTOS_apps/control_handle.o
                0x0000000000000c72                Pitch_innerloop_ctr
 .text.Check_control_mode
                0x0000000000000caa       0x20 ./User/RTOS_apps/control_handle.o
                0x0000000000000caa                Check_control_mode
 .text.Update_ELRS
                0x0000000000000cca       0x38 ./User/RTOS_apps/control_handle.o
                0x0000000000000cca                Update_ELRS
 .text.Flight_control
                0x0000000000000d02      0x18e ./User/RTOS_apps/control_handle.o
                0x0000000000000d02                Flight_control
 .text.control_para_init
                0x0000000000000e90       0x38 ./User/RTOS_apps/control_handle.o
                0x0000000000000e90                control_para_init
 .text.Stop_motor
                0x0000000000000ec8       0x30 ./User/RTOS_apps/control_handle.o
                0x0000000000000ec8                Stop_motor
 .text.control_handle_task
                0x0000000000000ef8       0x9c ./User/RTOS_apps/control_handle.o
                0x0000000000000ef8                control_handle_task
 .text.Motor_sort_start
                0x0000000000000f94       0xf4 ./User/RTOS_apps/soft_stast.o
                0x0000000000000f94                Motor_sort_start
 .text.RTOS_init
                0x0000000000001088       0x9c ./User/RTOS_tasks.o
                0x0000000000001088                RTOS_init
 .text.NMI_Handler
                0x0000000000001124        0x4 ./User/ch32v30x_it.o
                0x0000000000001124                NMI_Handler
 .text.HardFault_Handler
                0x0000000000001128        0x2 ./User/ch32v30x_it.o
                0x0000000000001128                HardFault_Handler
 .text.GPIO_Toggle_INIT
                0x000000000000112a       0x34 ./User/main.o
                0x000000000000112a                GPIO_Toggle_INIT
 .text.startup.main
                0x000000000000115e       0x76 ./User/main.o
                0x000000000000115e                main
 .text.SystemInit
                0x00000000000011d4       0xfa ./User/system_ch32v30x.o
                0x00000000000011d4                SystemInit
 .text.SystemCoreClockUpdate
                0x00000000000012ce      0x12a ./User/system_ch32v30x.o
                0x00000000000012ce                SystemCoreClockUpdate
 .text.vector_handler
                0x00000000000013f8        0x2 ./Startup/startup_ch32v30x_D8C.o
                0x00000000000013f8                EXTI2_IRQHandler
                0x00000000000013f8                TIM8_TRG_COM_IRQHandler
                0x00000000000013f8                TIM8_CC_IRQHandler
                0x00000000000013f8                UART8_IRQHandler
                0x00000000000013f8                TIM1_CC_IRQHandler
                0x00000000000013f8                TIM6_IRQHandler
                0x00000000000013f8                PVD_IRQHandler
                0x00000000000013f8                SDIO_IRQHandler
                0x00000000000013f8                TIM9_BRK_IRQHandler
                0x00000000000013f8                DMA2_Channel8_IRQHandler
                0x00000000000013f8                CAN2_RX1_IRQHandler
                0x00000000000013f8                EXTI3_IRQHandler
                0x00000000000013f8                USBHS_IRQHandler
                0x00000000000013f8                DMA2_Channel9_IRQHandler
                0x00000000000013f8                TIM10_CC_IRQHandler
                0x00000000000013f8                USBFS_IRQHandler
                0x00000000000013f8                EXTI0_IRQHandler
                0x00000000000013f8                I2C2_EV_IRQHandler
                0x00000000000013f8                TIM10_TRG_COM_IRQHandler
                0x00000000000013f8                CAN2_SCE_IRQHandler
                0x00000000000013f8                ADC1_2_IRQHandler
                0x00000000000013f8                Break_Point_Handler
                0x00000000000013f8                SPI1_IRQHandler
                0x00000000000013f8                TAMPER_IRQHandler
                0x00000000000013f8                CAN2_RX0_IRQHandler
                0x00000000000013f8                TIM8_UP_IRQHandler
                0x00000000000013f8                Ecall_M_Mode_Handler
                0x00000000000013f8                DMA2_Channel2_IRQHandler
                0x00000000000013f8                DMA1_Channel4_IRQHandler
                0x00000000000013f8                TIM9_UP_IRQHandler
                0x00000000000013f8                USART3_IRQHandler
                0x00000000000013f8                RTC_IRQHandler
                0x00000000000013f8                DMA1_Channel7_IRQHandler
                0x00000000000013f8                CAN1_RX1_IRQHandler
                0x00000000000013f8                DVP_IRQHandler
                0x00000000000013f8                UART5_IRQHandler
                0x00000000000013f8                DMA2_Channel1_IRQHandler
                0x00000000000013f8                I2C1_EV_IRQHandler
                0x00000000000013f8                DMA1_Channel6_IRQHandler
                0x00000000000013f8                UART4_IRQHandler
                0x00000000000013f8                DMA2_Channel4_IRQHandler
                0x00000000000013f8                RCC_IRQHandler
                0x00000000000013f8                TIM1_TRG_COM_IRQHandler
                0x00000000000013f8                DMA1_Channel1_IRQHandler
                0x00000000000013f8                DMA2_Channel7_IRQHandler
                0x00000000000013f8                EXTI15_10_IRQHandler
                0x00000000000013f8                TIM7_IRQHandler
                0x00000000000013f8                CAN2_TX_IRQHandler
                0x00000000000013f8                TIM5_IRQHandler
                0x00000000000013f8                EXTI9_5_IRQHandler
                0x00000000000013f8                ETH_WKUP_IRQHandler
                0x00000000000013f8                SPI2_IRQHandler
                0x00000000000013f8                TIM10_BRK_IRQHandler
                0x00000000000013f8                TIM9_CC_IRQHandler
                0x00000000000013f8                DMA2_Channel5_IRQHandler
                0x00000000000013f8                DMA1_Channel5_IRQHandler
                0x00000000000013f8                EXTI4_IRQHandler
                0x00000000000013f8                USB_LP_CAN1_RX0_IRQHandler
                0x00000000000013f8                RNG_IRQHandler
                0x00000000000013f8                USB_HP_CAN1_TX_IRQHandler
                0x00000000000013f8                DMA1_Channel3_IRQHandler
                0x00000000000013f8                ETH_IRQHandler
                0x00000000000013f8                TIM1_UP_IRQHandler
                0x00000000000013f8                WWDG_IRQHandler
                0x00000000000013f8                USBHSWakeup_IRQHandler
                0x00000000000013f8                DMA2_Channel11_IRQHandler
                0x00000000000013f8                Ecall_U_Mode_Handler
                0x00000000000013f8                DMA2_Channel6_IRQHandler
                0x00000000000013f8                TIM2_IRQHandler
                0x00000000000013f8                TIM1_BRK_IRQHandler
                0x00000000000013f8                DMA2_Channel10_IRQHandler
                0x00000000000013f8                EXTI1_IRQHandler
                0x00000000000013f8                RTCAlarm_IRQHandler
                0x00000000000013f8                TIM10_UP_IRQHandler
                0x00000000000013f8                TIM9_TRG_COM_IRQHandler
                0x00000000000013f8                UART7_IRQHandler
                0x00000000000013f8                UART6_IRQHandler
                0x00000000000013f8                I2C2_ER_IRQHandler
                0x00000000000013f8                DMA1_Channel2_IRQHandler
                0x00000000000013f8                TIM8_BRK_IRQHandler
                0x00000000000013f8                CAN1_SCE_IRQHandler
                0x00000000000013f8                FLASH_IRQHandler
                0x00000000000013f8                USART1_IRQHandler
                0x00000000000013f8                SPI3_IRQHandler
                0x00000000000013f8                I2C1_ER_IRQHandler
                0x00000000000013f8                USBWakeUp_IRQHandler
                0x00000000000013f8                DMA2_Channel3_IRQHandler
 .text.handle_reset
                0x00000000000013fa       0x92 ./Startup/startup_ch32v30x_D8C.o
                0x00000000000013fa                handle_reset
 .text.ADC_DeInit
                0x000000000000148c       0x46 ./Peripheral/src/ch32v30x_adc.o
                0x000000000000148c                ADC_DeInit
 .text.ADC_Init
                0x00000000000014d2       0x56 ./Peripheral/src/ch32v30x_adc.o
                0x00000000000014d2                ADC_Init
 .text.ADC_Cmd  0x0000000000001528       0x10 ./Peripheral/src/ch32v30x_adc.o
                0x0000000000001528                ADC_Cmd
 .text.ADC_DMACmd
                0x0000000000001538       0x12 ./Peripheral/src/ch32v30x_adc.o
                0x0000000000001538                ADC_DMACmd
 .text.ADC_ResetCalibration
                0x000000000000154a        0xa ./Peripheral/src/ch32v30x_adc.o
                0x000000000000154a                ADC_ResetCalibration
 .text.ADC_GetResetCalibrationStatus
                0x0000000000001554        0x8 ./Peripheral/src/ch32v30x_adc.o
                0x0000000000001554                ADC_GetResetCalibrationStatus
 .text.ADC_StartCalibration
                0x000000000000155c        0xa ./Peripheral/src/ch32v30x_adc.o
                0x000000000000155c                ADC_StartCalibration
 .text.ADC_GetCalibrationStatus
                0x0000000000001566        0x8 ./Peripheral/src/ch32v30x_adc.o
                0x0000000000001566                ADC_GetCalibrationStatus
 .text.ADC_SoftwareStartConvCmd
                0x000000000000156e       0x18 ./Peripheral/src/ch32v30x_adc.o
                0x000000000000156e                ADC_SoftwareStartConvCmd
 .text.ADC_RegularChannelConfig
                0x0000000000001586       0xb8 ./Peripheral/src/ch32v30x_adc.o
                0x0000000000001586                ADC_RegularChannelConfig
 .text.ADC_BufferCmd
                0x000000000000163e       0x18 ./Peripheral/src/ch32v30x_adc.o
                0x000000000000163e                ADC_BufferCmd
 .text.Get_CalibrationValue
                0x0000000000001656      0x130 ./Peripheral/src/ch32v30x_adc.o
                0x0000000000001656                Get_CalibrationValue
 .text.DBGMCU_GetCHIPID
                0x0000000000001786        0xa ./Peripheral/src/ch32v30x_dbgmcu.o
                0x0000000000001786                DBGMCU_GetCHIPID
 .text.DMA_DeInit
                0x0000000000001790      0x16c ./Peripheral/src/ch32v30x_dma.o
                0x0000000000001790                DMA_DeInit
 .text.DMA_Init
                0x00000000000018fc       0x38 ./Peripheral/src/ch32v30x_dma.o
                0x00000000000018fc                DMA_Init
 .text.DMA_Cmd  0x0000000000001934       0x14 ./Peripheral/src/ch32v30x_dma.o
                0x0000000000001934                DMA_Cmd
 .text.GPIO_Init
                0x0000000000001948       0xc0 ./Peripheral/src/ch32v30x_gpio.o
                0x0000000000001948                GPIO_Init
 .text.GPIO_ReadInputDataBit
                0x0000000000001a08        0xa ./Peripheral/src/ch32v30x_gpio.o
                0x0000000000001a08                GPIO_ReadInputDataBit
 .text.GPIO_SetBits
                0x0000000000001a12        0x4 ./Peripheral/src/ch32v30x_gpio.o
                0x0000000000001a12                GPIO_SetBits
 .text.GPIO_WriteBit
                0x0000000000001a16        0xa ./Peripheral/src/ch32v30x_gpio.o
                0x0000000000001a16                GPIO_WriteBit
 .text.GPIO_PinRemapConfig
                0x0000000000001a20       0xd6 ./Peripheral/src/ch32v30x_gpio.o
                0x0000000000001a20                GPIO_PinRemapConfig
 .text.I2C_Init
                0x0000000000001af6       0xfe ./Peripheral/src/ch32v30x_i2c.o
                0x0000000000001af6                I2C_Init
 .text.I2C_Cmd  0x0000000000001bf4       0x18 ./Peripheral/src/ch32v30x_i2c.o
                0x0000000000001bf4                I2C_Cmd
 .text.I2C_GenerateSTART
                0x0000000000001c0c       0x1a ./Peripheral/src/ch32v30x_i2c.o
                0x0000000000001c0c                I2C_GenerateSTART
 .text.I2C_GenerateSTOP
                0x0000000000001c26       0x1a ./Peripheral/src/ch32v30x_i2c.o
                0x0000000000001c26                I2C_GenerateSTOP
 .text.I2C_AcknowledgeConfig
                0x0000000000001c40       0x1a ./Peripheral/src/ch32v30x_i2c.o
                0x0000000000001c40                I2C_AcknowledgeConfig
 .text.I2C_SendData
                0x0000000000001c5a        0x4 ./Peripheral/src/ch32v30x_i2c.o
                0x0000000000001c5a                I2C_SendData
 .text.I2C_ReceiveData
                0x0000000000001c5e        0x8 ./Peripheral/src/ch32v30x_i2c.o
                0x0000000000001c5e                I2C_ReceiveData
 .text.I2C_Send7bitAddress
                0x0000000000001c66       0x12 ./Peripheral/src/ch32v30x_i2c.o
                0x0000000000001c66                I2C_Send7bitAddress
 .text.I2C_CheckEvent
                0x0000000000001c78       0x16 ./Peripheral/src/ch32v30x_i2c.o
                0x0000000000001c78                I2C_CheckEvent
 .text.I2C_GetFlagStatus
                0x0000000000001c8e       0x32 ./Peripheral/src/ch32v30x_i2c.o
                0x0000000000001c8e                I2C_GetFlagStatus
 .text.NVIC_PriorityGroupConfig
                0x0000000000001cc0        0xa ./Peripheral/src/ch32v30x_misc.o
                0x0000000000001cc0                NVIC_PriorityGroupConfig
 .text.NVIC_Init
                0x0000000000001cca       0x52 ./Peripheral/src/ch32v30x_misc.o
                0x0000000000001cca                NVIC_Init
 .text.RCC_ADCCLKConfig
                0x0000000000001d1c       0x12 ./Peripheral/src/ch32v30x_rcc.o
                0x0000000000001d1c                RCC_ADCCLKConfig
 .text.RCC_GetClocksFreq
                0x0000000000001d2e      0x176 ./Peripheral/src/ch32v30x_rcc.o
                0x0000000000001d2e                RCC_GetClocksFreq
 .text.RCC_AHBPeriphClockCmd
                0x0000000000001ea4       0x1e ./Peripheral/src/ch32v30x_rcc.o
                0x0000000000001ea4                RCC_AHBPeriphClockCmd
 .text.RCC_APB2PeriphClockCmd
                0x0000000000001ec2       0x1e ./Peripheral/src/ch32v30x_rcc.o
                0x0000000000001ec2                RCC_APB2PeriphClockCmd
 .text.RCC_APB1PeriphClockCmd
                0x0000000000001ee0       0x1e ./Peripheral/src/ch32v30x_rcc.o
                0x0000000000001ee0                RCC_APB1PeriphClockCmd
 .text.RCC_APB2PeriphResetCmd
                0x0000000000001efe       0x1e ./Peripheral/src/ch32v30x_rcc.o
                0x0000000000001efe                RCC_APB2PeriphResetCmd
 .text.TIM_TimeBaseInit
                0x0000000000001f1c       0xaa ./Peripheral/src/ch32v30x_tim.o
                0x0000000000001f1c                TIM_TimeBaseInit
 .text.TIM_OC1Init
                0x0000000000001fc6       0x82 ./Peripheral/src/ch32v30x_tim.o
                0x0000000000001fc6                TIM_OC1Init
 .text.TIM_OC2Init
                0x0000000000002048       0xae ./Peripheral/src/ch32v30x_tim.o
                0x0000000000002048                TIM_OC2Init
 .text.TIM_OC3Init
                0x00000000000020f6       0xac ./Peripheral/src/ch32v30x_tim.o
                0x00000000000020f6                TIM_OC3Init
 .text.TIM_OC4Init
                0x00000000000021a2       0x88 ./Peripheral/src/ch32v30x_tim.o
                0x00000000000021a2                TIM_OC4Init
 .text.TIM_Cmd  0x000000000000222a       0x18 ./Peripheral/src/ch32v30x_tim.o
                0x000000000000222a                TIM_Cmd
 .text.TIM_CtrlPWMOutputs
                0x0000000000002242       0x16 ./Peripheral/src/ch32v30x_tim.o
                0x0000000000002242                TIM_CtrlPWMOutputs
 .text.TIM_ARRPreloadConfig
                0x0000000000002258       0x1a ./Peripheral/src/ch32v30x_tim.o
                0x0000000000002258                TIM_ARRPreloadConfig
 .text.TIM_OC1PreloadConfig
                0x0000000000002272        0xe ./Peripheral/src/ch32v30x_tim.o
                0x0000000000002272                TIM_OC1PreloadConfig
 .text.TIM_OC2PreloadConfig
                0x0000000000002280       0x16 ./Peripheral/src/ch32v30x_tim.o
                0x0000000000002280                TIM_OC2PreloadConfig
 .text.TIM_OC3PreloadConfig
                0x0000000000002296        0xe ./Peripheral/src/ch32v30x_tim.o
                0x0000000000002296                TIM_OC3PreloadConfig
 .text.TIM_OC4PreloadConfig
                0x00000000000022a4       0x16 ./Peripheral/src/ch32v30x_tim.o
                0x00000000000022a4                TIM_OC4PreloadConfig
 .text.TIM_SetCompare1
                0x00000000000022ba        0x4 ./Peripheral/src/ch32v30x_tim.o
                0x00000000000022ba                TIM_SetCompare1
 .text.TIM_SetCompare2
                0x00000000000022be        0x4 ./Peripheral/src/ch32v30x_tim.o
                0x00000000000022be                TIM_SetCompare2
 .text.TIM_SetCompare3
                0x00000000000022c2        0x4 ./Peripheral/src/ch32v30x_tim.o
                0x00000000000022c2                TIM_SetCompare3
 .text.TIM_SetCompare4
                0x00000000000022c6        0x6 ./Peripheral/src/ch32v30x_tim.o
                0x00000000000022c6                TIM_SetCompare4
 .text.TIM_GetCapture1
                0x00000000000022cc        0x4 ./Peripheral/src/ch32v30x_tim.o
                0x00000000000022cc                TIM_GetCapture1
 .text.TIM_GetCapture2
                0x00000000000022d0        0x4 ./Peripheral/src/ch32v30x_tim.o
                0x00000000000022d0                TIM_GetCapture2
 .text.TIM_GetCapture3
                0x00000000000022d4        0x4 ./Peripheral/src/ch32v30x_tim.o
                0x00000000000022d4                TIM_GetCapture3
 .text.TIM_GetCapture4
                0x00000000000022d8        0x6 ./Peripheral/src/ch32v30x_tim.o
                0x00000000000022d8                TIM_GetCapture4
 .text.TIM_ClearFlag
                0x00000000000022de        0xc ./Peripheral/src/ch32v30x_tim.o
                0x00000000000022de                TIM_ClearFlag
 .text.USART_Init
                0x00000000000022ea       0x90 ./Peripheral/src/ch32v30x_usart.o
                0x00000000000022ea                USART_Init
 .text.USART_Cmd
                0x000000000000237a       0x16 ./Peripheral/src/ch32v30x_usart.o
                0x000000000000237a                USART_Cmd
 .text.USART_ITConfig
                0x0000000000002390       0x36 ./Peripheral/src/ch32v30x_usart.o
                0x0000000000002390                USART_ITConfig
 .text.USART_SendData
                0x00000000000023c6        0x8 ./Peripheral/src/ch32v30x_usart.o
                0x00000000000023c6                USART_SendData
 .text.USART_ReceiveData
                0x00000000000023ce        0x8 ./Peripheral/src/ch32v30x_usart.o
                0x00000000000023ce                USART_ReceiveData
 .text.USART_GetFlagStatus
                0x00000000000023d6        0xa ./Peripheral/src/ch32v30x_usart.o
                0x00000000000023d6                USART_GetFlagStatus
 .text.USART_ClearFlag
                0x00000000000023e0        0xc ./Peripheral/src/ch32v30x_usart.o
                0x00000000000023e0                USART_ClearFlag
 .text.USART_GetITStatus
                0x00000000000023ec       0x3c ./Peripheral/src/ch32v30x_usart.o
                0x00000000000023ec                USART_GetITStatus
 .text.get_st_biases
                0x0000000000002428      0x37e ./General_Files/eMPL/inv_mpu.o
 .text.set_int_enable
                0x00000000000027a6       0x58 ./General_Files/eMPL/inv_mpu.o
 .text.mpu_reset_fifo
                0x00000000000027fe      0x138 ./General_Files/eMPL/inv_mpu.o
                0x00000000000027fe                mpu_reset_fifo
 .text.mpu_get_gyro_fsr
                0x0000000000002936       0x3e ./General_Files/eMPL/inv_mpu.o
                0x0000000000002936                mpu_get_gyro_fsr
 .text.mpu_set_gyro_fsr
                0x0000000000002974       0x7c ./General_Files/eMPL/inv_mpu.o
                0x0000000000002974                mpu_set_gyro_fsr
 .text.mpu_get_accel_fsr
                0x00000000000029f0       0x46 ./General_Files/eMPL/inv_mpu.o
                0x00000000000029f0                mpu_get_accel_fsr
 .text.mpu_set_accel_fsr
                0x0000000000002a36       0x74 ./General_Files/eMPL/inv_mpu.o
                0x0000000000002a36                mpu_set_accel_fsr
 .text.mpu_get_lpf
                0x0000000000002aaa       0x4a ./General_Files/eMPL/inv_mpu.o
                0x0000000000002aaa                mpu_get_lpf
 .text.mpu_set_lpf
                0x0000000000002af4       0x7e ./General_Files/eMPL/inv_mpu.o
                0x0000000000002af4                mpu_set_lpf
 .text.mpu_get_sample_rate
                0x0000000000002b72       0x1a ./General_Files/eMPL/inv_mpu.o
                0x0000000000002b72                mpu_get_sample_rate
 .text.mpu_get_gyro_sens
                0x0000000000002b8c       0x4c ./General_Files/eMPL/inv_mpu.o
                0x0000000000002b8c                mpu_get_gyro_sens
 .text.mpu_get_accel_sens
                0x0000000000002bd8       0x4e ./General_Files/eMPL/inv_mpu.o
                0x0000000000002bd8                mpu_get_accel_sens
 .text.mpu_configure_fifo
                0x0000000000002c26       0x58 ./General_Files/eMPL/inv_mpu.o
                0x0000000000002c26                mpu_configure_fifo
 .text.mpu_read_fifo_stream
                0x0000000000002c7e       0x98 ./General_Files/eMPL/inv_mpu.o
                0x0000000000002c7e                mpu_read_fifo_stream
 .text.mpu_set_bypass
                0x0000000000002d16       0xca ./General_Files/eMPL/inv_mpu.o
                0x0000000000002d16                mpu_set_bypass
 .text.mpu_set_int_latched
                0x0000000000002de0       0x5c ./General_Files/eMPL/inv_mpu.o
                0x0000000000002de0                mpu_set_int_latched
 .text.mpu_lp_accel_mode
                0x0000000000002e3c       0xa8 ./General_Files/eMPL/inv_mpu.o
                0x0000000000002e3c                mpu_lp_accel_mode
 .text.mpu_set_sample_rate
                0x0000000000002ee4       0x9a ./General_Files/eMPL/inv_mpu.o
                0x0000000000002ee4                mpu_set_sample_rate
 .text.mpu_set_sensors
                0x0000000000002f7e       0xb8 ./General_Files/eMPL/inv_mpu.o
                0x0000000000002f7e                mpu_set_sensors
 .text.mpu_init
                0x0000000000003036      0x130 ./General_Files/eMPL/inv_mpu.o
                0x0000000000003036                mpu_init
 .text.mpu_write_mem
                0x0000000000003166       0x62 ./General_Files/eMPL/inv_mpu.o
                0x0000000000003166                mpu_write_mem
 .text.mpu_read_mem
                0x00000000000031c8       0x62 ./General_Files/eMPL/inv_mpu.o
                0x00000000000031c8                mpu_read_mem
 .text.mpu_load_firmware
                0x000000000000322a       0xa8 ./General_Files/eMPL/inv_mpu.o
                0x000000000000322a                mpu_load_firmware
 .text.mpu_set_dmp_state
                0x00000000000032d2       0x80 ./General_Files/eMPL/inv_mpu.o
                0x00000000000032d2                mpu_set_dmp_state
 .text.mpu_run_self_test
                0x0000000000003352      0x352 ./General_Files/eMPL/inv_mpu.o
                0x0000000000003352                mpu_run_self_test
 .text.mget_ms  0x00000000000036a4        0x2 ./General_Files/eMPL/inv_mpu.o
                0x00000000000036a4                mget_ms
 .text.run_self_test
                0x00000000000036a6       0x88 ./General_Files/eMPL/inv_mpu.o
                0x00000000000036a6                run_self_test
 .text.inv_row_2_scale
                0x000000000000372e       0x30 ./General_Files/eMPL/inv_mpu.o
                0x000000000000372e                inv_row_2_scale
 .text.inv_orientation_matrix_to_scalar
                0x000000000000375e       0x2c ./General_Files/eMPL/inv_mpu.o
                0x000000000000375e                inv_orientation_matrix_to_scalar
 .text.mpu_dmp_init
                0x000000000000378a       0xa2 ./General_Files/eMPL/inv_mpu.o
                0x000000000000378a                mpu_dmp_init
 .text.mpu_dmp_get_data
                0x000000000000382c      0x1bc ./General_Files/eMPL/inv_mpu.o
                0x000000000000382c                mpu_dmp_get_data
 .text.dmp_enable_gyro_cal.part.0
                0x00000000000039e8       0x32 ./General_Files/eMPL/inv_mpu_dmp_motion_driver.o
 .text.dmp_load_motion_driver_firmware
                0x0000000000003a1a       0x20 ./General_Files/eMPL/inv_mpu_dmp_motion_driver.o
                0x0000000000003a1a                dmp_load_motion_driver_firmware
 .text.dmp_set_orientation
                0x0000000000003a3a       0xfa ./General_Files/eMPL/inv_mpu_dmp_motion_driver.o
                0x0000000000003a3a                dmp_set_orientation
 .text.dmp_set_gyro_bias
                0x0000000000003b34       0xf8 ./General_Files/eMPL/inv_mpu_dmp_motion_driver.o
                0x0000000000003b34                dmp_set_gyro_bias
 .text.dmp_set_accel_bias
                0x0000000000003c2c       0xfc ./General_Files/eMPL/inv_mpu_dmp_motion_driver.o
                0x0000000000003c2c                dmp_set_accel_bias
 .text.dmp_set_fifo_rate
                0x0000000000003d28       0x56 ./General_Files/eMPL/inv_mpu_dmp_motion_driver.o
                0x0000000000003d28                dmp_set_fifo_rate
 .text.dmp_set_tap_thresh
                0x0000000000003d7e      0x18a ./General_Files/eMPL/inv_mpu_dmp_motion_driver.o
                0x0000000000003d7e                dmp_set_tap_thresh
 .text.dmp_set_tap_axes
                0x0000000000003f08       0x46 ./General_Files/eMPL/inv_mpu_dmp_motion_driver.o
                0x0000000000003f08                dmp_set_tap_axes
 .text.dmp_set_tap_count
                0x0000000000003f4e       0x2e ./General_Files/eMPL/inv_mpu_dmp_motion_driver.o
                0x0000000000003f4e                dmp_set_tap_count
 .text.dmp_set_tap_time
                0x0000000000003f7c       0x28 ./General_Files/eMPL/inv_mpu_dmp_motion_driver.o
                0x0000000000003f7c                dmp_set_tap_time
 .text.dmp_set_tap_time_multi
                0x0000000000003fa4       0x28 ./General_Files/eMPL/inv_mpu_dmp_motion_driver.o
                0x0000000000003fa4                dmp_set_tap_time_multi
 .text.dmp_set_shake_reject_thresh
                0x0000000000003fcc       0x3e ./General_Files/eMPL/inv_mpu_dmp_motion_driver.o
                0x0000000000003fcc                dmp_set_shake_reject_thresh
 .text.dmp_set_shake_reject_time
                0x000000000000400a       0x28 ./General_Files/eMPL/inv_mpu_dmp_motion_driver.o
                0x000000000000400a                dmp_set_shake_reject_time
 .text.dmp_set_shake_reject_timeout
                0x0000000000004032       0x28 ./General_Files/eMPL/inv_mpu_dmp_motion_driver.o
                0x0000000000004032                dmp_set_shake_reject_timeout
 .text.dmp_enable_gyro_cal
                0x000000000000405a       0x2e ./General_Files/eMPL/inv_mpu_dmp_motion_driver.o
                0x000000000000405a                dmp_enable_gyro_cal
 .text.dmp_enable_lp_quat
                0x0000000000004088       0x34 ./General_Files/eMPL/inv_mpu_dmp_motion_driver.o
                0x0000000000004088                dmp_enable_lp_quat
 .text.dmp_enable_6x_lp_quat
                0x00000000000040bc       0x34 ./General_Files/eMPL/inv_mpu_dmp_motion_driver.o
                0x00000000000040bc                dmp_enable_6x_lp_quat
 .text.dmp_enable_feature
                0x00000000000040f0      0x1d6 ./General_Files/eMPL/inv_mpu_dmp_motion_driver.o
                0x00000000000040f0                dmp_enable_feature
 .text.dmp_read_fifo
                0x00000000000042c6      0x1c4 ./General_Files/eMPL/inv_mpu_dmp_motion_driver.o
                0x00000000000042c6                dmp_read_fifo
 .text.BMP280_Read_Byte
                0x000000000000448a       0x44 ./General_Files/drivers/BMP280.o
                0x000000000000448a                BMP280_Read_Byte
 .text.BMP280_Write_Byte
                0x00000000000044ce       0x3a ./General_Files/drivers/BMP280.o
                0x00000000000044ce                BMP280_Write_Byte
 .text.BMP280_Set_TemOversamp
                0x0000000000004508       0x22 ./General_Files/drivers/BMP280.o
                0x0000000000004508                BMP280_Set_TemOversamp
 .text.BMP280_Set_Standby_FILTER
                0x000000000000452a       0x22 ./General_Files/drivers/BMP280.o
                0x000000000000452a                BMP280_Set_Standby_FILTER
 .text.Bmp_Init
                0x000000000000454c      0x174 ./General_Files/drivers/BMP280.o
                0x000000000000454c                Bmp_Init
 .text.MPU6050_I2C_Mem_Write
                0x00000000000046c0       0xcc ./General_Files/drivers/MPU6050.o
                0x00000000000046c0                MPU6050_I2C_Mem_Write
 .text.MPU6050_WriteByte
                0x000000000000478c       0x1e ./General_Files/drivers/MPU6050.o
 .text.MPU6050_Init
                0x00000000000047aa      0x116 ./General_Files/drivers/MPU6050.o
                0x00000000000047aa                MPU6050_Init
 .text.MPU6050_I2C_Mem_Read
                0x00000000000048c0      0x12e ./General_Files/drivers/MPU6050.o
                0x00000000000048c0                MPU6050_I2C_Mem_Read
 .text.MPU6050_Get_Data
                0x00000000000049ee       0x3c ./General_Files/drivers/MPU6050.o
                0x00000000000049ee                MPU6050_Get_Data
 .text.MPU6050_MPU_DMP_GetData
                0x0000000000004a2a       0x50 ./General_Files/drivers/MPU6050.o
                0x0000000000004a2a                MPU6050_MPU_DMP_GetData
 .text.MyI2C_W_SCL
                0x0000000000004a7a       0x20 ./General_Files/drivers/MyI2C.o
                0x0000000000004a7a                MyI2C_W_SCL
 .text.MyI2C_W_SDA
                0x0000000000004a9a       0x20 ./General_Files/drivers/MyI2C.o
                0x0000000000004a9a                MyI2C_W_SDA
 .text.MyI2C_R_SDA
                0x0000000000004aba       0x22 ./General_Files/drivers/MyI2C.o
                0x0000000000004aba                MyI2C_R_SDA
 .text.MyI2C_Init
                0x0000000000004adc       0x3c ./General_Files/drivers/MyI2C.o
                0x0000000000004adc                MyI2C_Init
 .text.MyI2C_Start
                0x0000000000004b18       0x20 ./General_Files/drivers/MyI2C.o
                0x0000000000004b18                MyI2C_Start
 .text.MyI2C_Stop
                0x0000000000004b38       0x1a ./General_Files/drivers/MyI2C.o
                0x0000000000004b38                MyI2C_Stop
 .text.MyI2C_SendByte
                0x0000000000004b52       0x30 ./General_Files/drivers/MyI2C.o
                0x0000000000004b52                MyI2C_SendByte
 .text.MyI2C_ReceiveByte
                0x0000000000004b82       0x40 ./General_Files/drivers/MyI2C.o
                0x0000000000004b82                MyI2C_ReceiveByte
 .text.MyI2C_ReceiveAck
                0x0000000000004bc2       0x22 ./General_Files/drivers/MyI2C.o
                0x0000000000004bc2                MyI2C_ReceiveAck
 .text.ADC_Function_Init
                0x0000000000004be4       0xd0 ./General_Files/drivers/adc.o
                0x0000000000004be4                ADC_Function_Init
 .text.DMA_Tx_Init
                0x0000000000004cb4       0x60 ./General_Files/drivers/adc.o
                0x0000000000004cb4                DMA_Tx_Init
 .text.BAT_ADC_Init
                0x0000000000004d14       0x60 ./General_Files/drivers/adc.o
                0x0000000000004d14                BAT_ADC_Init
 .text.FilterSample
                0x0000000000004d74       0x52 ./General_Files/drivers/bsp_filter.o
                0x0000000000004d74                FilterSample
 .text.FilterAverage
                0x0000000000004dc6       0x2c ./General_Files/drivers/bsp_filter.o
                0x0000000000004dc6                FilterAverage
 .text.LED_Init
                0x0000000000004df2       0x44 ./General_Files/drivers/gpio.o
                0x0000000000004df2                LED_Init
 .text.TIM9_PWMOut_Init
                0x0000000000004e36       0xfc ./General_Files/drivers/pwm.o
                0x0000000000004e36                TIM9_PWMOut_Init
 .text.PWM_Init
                0x0000000000004f32       0x4e ./General_Files/drivers/pwm.o
                0x0000000000004f32                PWM_Init
 .text.Motor_ctr
                0x0000000000004f80       0xc8 ./General_Files/drivers/pwm.o
                0x0000000000004f80                Motor_ctr
 .text.Motor_ctr_SOFT_START
                0x0000000000005048       0x94 ./General_Files/drivers/pwm.o
                0x0000000000005048                Motor_ctr_SOFT_START
 .text.TIM3_IRQHandler
                0x00000000000050dc       0x12 ./General_Files/drivers/tim.o
                0x00000000000050dc                TIM3_IRQHandler
 .text.TIM4_IRQHandler
                0x00000000000050ee       0x12 ./General_Files/drivers/tim.o
                0x00000000000050ee                TIM4_IRQHandler
 .text.USARTx_CFG
                0x0000000000005100       0xac ./General_Files/drivers/uart.o
                0x0000000000005100                USARTx_CFG
 .text.UART_RxCpltCallback
                0x00000000000051ac       0x50 ./General_Files/drivers/uart.o
                0x00000000000051ac                UART_RxCpltCallback
 .text.USART2_IRQHandler
                0x00000000000051fc       0x34 ./General_Files/drivers/uart.o
                0x00000000000051fc                USART2_IRQHandler
 .text.Crc_init
                0x0000000000005230       0x34 ./General_Files/apps/src/CRC.o
                0x0000000000005230                Crc_init
 .text.Calc     0x0000000000005264       0x1e ./General_Files/apps/src/CRC.o
                0x0000000000005264                Calc
 .text.ShiftRxBuffer
                0x0000000000005282       0x38 ./General_Files/apps/src/CRSF.o
                0x0000000000005282                ShiftRxBuffer
 .text.PacketChannelsPacked
                0x00000000000052ba      0x112 ./General_Files/apps/src/CRSF.o
                0x00000000000052ba                PacketChannelsPacked
 .text.PacketLinkStatistics
                0x00000000000053cc       0x2e ./General_Files/apps/src/CRSF.o
                0x00000000000053cc                PacketLinkStatistics
 .text.ProcessPacketIn
                0x00000000000053fa       0x38 ./General_Files/apps/src/CRSF.o
                0x00000000000053fa                ProcessPacketIn
 .text.HandleByteReceived
                0x0000000000005432       0x66 ./General_Files/apps/src/CRSF.o
                0x0000000000005432                HandleByteReceived
 .text.pid_reset
                0x0000000000005498       0x1c ./General_Files/apps/src/pid.o
                0x0000000000005498                pid_reset
 .text.pid_init
                0x00000000000054b4       0x1a ./General_Files/apps/src/pid.o
                0x00000000000054b4                pid_init
 .text.pid_clc  0x00000000000054ce       0x1e ./General_Files/apps/src/pid.o
                0x00000000000054ce                pid_clc
 .text.pid_calc
                0x00000000000054ec       0xe4 ./General_Files/apps/src/pid.o
                0x00000000000054ec                pid_calc
 .text.System_Init
                0x00000000000055d0       0x32 ./General_Files/system.o
                0x00000000000055d0                System_Init
 .text.prvInsertBlockIntoFreeList
                0x0000000000005602       0x4c ./FreeRTOS/portable/MemMang/heap_4.o
 .text.pvPortMalloc
                0x000000000000564e      0x18c ./FreeRTOS/portable/MemMang/heap_4.o
                0x000000000000564e                pvPortMalloc
 .text.vPortFree
                0x00000000000057da       0xa8 ./FreeRTOS/portable/MemMang/heap_4.o
                0x00000000000057da                vPortFree
 .text.xPortGetMinimumEverFreeHeapSize
                0x0000000000005882        0xa ./FreeRTOS/portable/MemMang/heap_4.o
                0x0000000000005882                xPortGetMinimumEverFreeHeapSize
 .text.vPortSetupTimerInterrupt
                0x000000000000588c       0x3a ./FreeRTOS/portable/GCC/RISC-V/port.o
                0x000000000000588c                vPortSetupTimerInterrupt
 .text.xPortStartScheduler
                0x00000000000058c6       0x90 ./FreeRTOS/portable/GCC/RISC-V/port.o
                0x00000000000058c6                xPortStartScheduler
 .text.SysTick_Handler
                0x0000000000005956       0x38 ./FreeRTOS/portable/GCC/RISC-V/port.o
                0x0000000000005956                SysTick_Handler
 .text.vPortEnterCritical
                0x000000000000598e       0x16 ./FreeRTOS/portable/GCC/RISC-V/port.o
                0x000000000000598e                vPortEnterCritical
 .text.vPortExitCritical
                0x00000000000059a4       0x42 ./FreeRTOS/portable/GCC/RISC-V/port.o
                0x00000000000059a4                vPortExitCritical
 .text.vListInitialise
                0x00000000000059e6       0x14 ./FreeRTOS/list.o
                0x00000000000059e6                vListInitialise
 .text.vListInitialiseItem
                0x00000000000059fa        0x6 ./FreeRTOS/list.o
                0x00000000000059fa                vListInitialiseItem
 .text.vListInsert
                0x0000000000005a00       0x2e ./FreeRTOS/list.o
                0x0000000000005a00                vListInsert
 .text.uxListRemove
                0x0000000000005a2e       0x20 ./FreeRTOS/list.o
                0x0000000000005a2e                uxListRemove
 .text.prvIsQueueEmpty
                0x0000000000005a4e       0x1e ./FreeRTOS/queue.o
 .text.prvCopyDataFromQueue
                0x0000000000005a6c       0x28 ./FreeRTOS/queue.o
 .text.prvUnlockQueue
                0x0000000000005a94       0x76 ./FreeRTOS/queue.o
 .text.xQueueGenericReset
                0x0000000000005b0a       0xc4 ./FreeRTOS/queue.o
                0x0000000000005b0a                xQueueGenericReset
 .text.xQueueGenericCreate
                0x0000000000005bce       0x6e ./FreeRTOS/queue.o
                0x0000000000005bce                xQueueGenericCreate
 .text.xQueueReceive
                0x0000000000005c3c      0x160 ./FreeRTOS/queue.o
                0x0000000000005c3c                xQueueReceive
 .text.vQueueAddToRegistry
                0x0000000000005d9c       0x6c ./FreeRTOS/queue.o
                0x0000000000005d9c                vQueueAddToRegistry
 .text.vQueueWaitForMessageRestricted
                0x0000000000005e08       0x5c ./FreeRTOS/queue.o
                0x0000000000005e08                vQueueWaitForMessageRestricted
 .text.prvResetNextTaskUnblockTime
                0x0000000000005e64       0x24 ./FreeRTOS/tasks.o
 .text.prvAddCurrentTaskToDelayedList
                0x0000000000005e88       0xa6 ./FreeRTOS/tasks.o
 .text.prvIdleTask
                0x0000000000005f2e       0x52 ./FreeRTOS/tasks.o
 .text.xTaskCreate
                0x0000000000005f80      0x228 ./FreeRTOS/tasks.o
                0x0000000000005f80                xTaskCreate
 .text.vTaskStartScheduler
                0x00000000000061a8       0x92 ./FreeRTOS/tasks.o
                0x00000000000061a8                vTaskStartScheduler
 .text.vTaskSuspendAll
                0x000000000000623a       0x10 ./FreeRTOS/tasks.o
                0x000000000000623a                vTaskSuspendAll
 .text.xTaskGetTickCount
                0x000000000000624a        0xa ./FreeRTOS/tasks.o
                0x000000000000624a                xTaskGetTickCount
 .text.xTaskIncrementTick
                0x0000000000006254      0x1ac ./FreeRTOS/tasks.o
                0x0000000000006254                xTaskIncrementTick
 .text.xTaskResumeAll
                0x0000000000006400      0x168 ./FreeRTOS/tasks.o
                0x0000000000006400                xTaskResumeAll
 .text.vTaskDelay
                0x0000000000006568       0x66 ./FreeRTOS/tasks.o
                0x0000000000006568                vTaskDelay
 .text.vTaskSwitchContext
                0x00000000000065ce       0x9a ./FreeRTOS/tasks.o
                0x00000000000065ce                vTaskSwitchContext
 .text.vTaskPlaceOnEventList
                0x0000000000006668       0x48 ./FreeRTOS/tasks.o
                0x0000000000006668                vTaskPlaceOnEventList
 .text.vTaskPlaceOnEventListRestricted
                0x00000000000066b0       0x76 ./FreeRTOS/tasks.o
                0x00000000000066b0                vTaskPlaceOnEventListRestricted
 .text.xTaskRemoveFromEventList
                0x0000000000006726       0xec ./FreeRTOS/tasks.o
                0x0000000000006726                xTaskRemoveFromEventList
 .text.vTaskInternalSetTimeOutState
                0x0000000000006812       0x16 ./FreeRTOS/tasks.o
                0x0000000000006812                vTaskInternalSetTimeOutState
 .text.xTaskCheckForTimeOut
                0x0000000000006828       0xca ./FreeRTOS/tasks.o
                0x0000000000006828                xTaskCheckForTimeOut
 .text.vTaskMissedYield
                0x00000000000068f2        0xc ./FreeRTOS/tasks.o
                0x00000000000068f2                vTaskMissedYield
 .text.xTaskGetSchedulerState
                0x00000000000068fe       0x1c ./FreeRTOS/tasks.o
                0x00000000000068fe                xTaskGetSchedulerState
 .text.prvCheckForValidListAndQueue
                0x000000000000691a       0x66 ./FreeRTOS/timers.o
 .text.prvInsertTimerInActiveList
                0x0000000000006980       0x46 ./FreeRTOS/timers.o
 .text.prvReloadTimer
                0x00000000000069c6       0x2a ./FreeRTOS/timers.o
 .text.prvProcessExpiredTimer
                0x00000000000069f0       0x46 ./FreeRTOS/timers.o
 .text.prvSwitchTimerLists
                0x0000000000006a36       0x30 ./FreeRTOS/timers.o
 .text.prvTimerTask
                0x0000000000006a66      0x198 ./FreeRTOS/timers.o
 .text.xTimerCreateTimerTask
                0x0000000000006bfe       0x60 ./FreeRTOS/timers.o
                0x0000000000006bfe                xTimerCreateTimerTask
 .text.Delay_Init
                0x0000000000006c5e       0x2e ./Debug/debug.o
                0x0000000000006c5e                Delay_Init
 .text.Delay_Us
                0x0000000000006c8c       0x3a ./Debug/debug.o
                0x0000000000006c8c                Delay_Us
 .text.Delay_Ms
                0x0000000000006cc6       0x3a ./Debug/debug.o
                0x0000000000006cc6                Delay_Ms
 .text.USART_Printf_Init
                0x0000000000006d00       0x5a ./Debug/debug.o
                0x0000000000006d00                USART_Printf_Init
 .text._write   0x0000000000006d5a       0x3e ./Debug/debug.o
                0x0000000000006d5a                _write
 .text.asinf    0x0000000000006d98       0xbe c:/mounriver/mounriver_studio/toolchain/risc-v embedded gcc/bin/../lib/gcc/riscv-none-embed/8.2.0/../../../../riscv-none-embed/lib/rv32imacxw/ilp32\libm.a(lib_a-wf_asin.o)
                0x0000000000006d98                asinf
 .text.atan2f   0x0000000000006e56        0x2 c:/mounriver/mounriver_studio/toolchain/risc-v embedded gcc/bin/../lib/gcc/riscv-none-embed/8.2.0/../../../../riscv-none-embed/lib/rv32imacxw/ilp32\libm.a(lib_a-wf_atan2.o)
                0x0000000000006e56                atan2f
 .text.__ieee754_asinf
                0x0000000000006e58      0x370 c:/mounriver/mounriver_studio/toolchain/risc-v embedded gcc/bin/../lib/gcc/riscv-none-embed/8.2.0/../../../../riscv-none-embed/lib/rv32imacxw/ilp32\libm.a(lib_a-ef_asin.o)
                0x0000000000006e58                __ieee754_asinf
 .text.__ieee754_atan2f
                0x00000000000071c8      0x192 c:/mounriver/mounriver_studio/toolchain/risc-v embedded gcc/bin/../lib/gcc/riscv-none-embed/8.2.0/../../../../riscv-none-embed/lib/rv32imacxw/ilp32\libm.a(lib_a-ef_atan2.o)
                0x00000000000071c8                __ieee754_atan2f
 .text.__ieee754_sqrtf
                0x000000000000735a       0xdc c:/mounriver/mounriver_studio/toolchain/risc-v embedded gcc/bin/../lib/gcc/riscv-none-embed/8.2.0/../../../../riscv-none-embed/lib/rv32imacxw/ilp32\libm.a(lib_a-ef_sqrt.o)
                0x000000000000735a                __ieee754_sqrtf
 .text.matherr  0x0000000000007436        0x4 c:/mounriver/mounriver_studio/toolchain/risc-v embedded gcc/bin/../lib/gcc/riscv-none-embed/8.2.0/../../../../riscv-none-embed/lib/rv32imacxw/ilp32\libm.a(lib_a-s_matherr.o)
                0x0000000000007436                matherr
 .text.nan      0x000000000000743a        0xe c:/mounriver/mounriver_studio/toolchain/risc-v embedded gcc/bin/../lib/gcc/riscv-none-embed/8.2.0/../../../../riscv-none-embed/lib/rv32imacxw/ilp32\libm.a(lib_a-s_nan.o)
                0x000000000000743a                nan
 .text.atanf    0x0000000000007448      0x288 c:/mounriver/mounriver_studio/toolchain/risc-v embedded gcc/bin/../lib/gcc/riscv-none-embed/8.2.0/../../../../riscv-none-embed/lib/rv32imacxw/ilp32\libm.a(lib_a-sf_atan.o)
                0x0000000000007448                atanf
 .text.fabsf    0x00000000000076d0        0x6 c:/mounriver/mounriver_studio/toolchain/risc-v embedded gcc/bin/../lib/gcc/riscv-none-embed/8.2.0/../../../../riscv-none-embed/lib/rv32imacxw/ilp32\libm.a(lib_a-sf_fabs.o)
                0x00000000000076d0                fabsf
 .text.printchar
                0x00000000000076d6       0x4a c:/mounriver/mounriver_studio/toolchain/risc-v embedded gcc/bin/../lib/gcc/riscv-none-embed/8.2.0/../../../../riscv-none-embed/lib/rv32imacxw/ilp32\libprintfloat.a(printfloat.o)
                0x00000000000076d6                printchar
 .text.prints   0x0000000000007720       0xe0 c:/mounriver/mounriver_studio/toolchain/risc-v embedded gcc/bin/../lib/gcc/riscv-none-embed/8.2.0/../../../../riscv-none-embed/lib/rv32imacxw/ilp32\libprintfloat.a(printfloat.o)
                0x0000000000007720                prints
 .text.printInt
                0x0000000000007800       0xf2 c:/mounriver/mounriver_studio/toolchain/risc-v embedded gcc/bin/../lib/gcc/riscv-none-embed/8.2.0/../../../../riscv-none-embed/lib/rv32imacxw/ilp32\libprintfloat.a(printfloat.o)
                0x0000000000007800                printInt
 .text.printLongLongInt
                0x00000000000078f2      0x122 c:/mounriver/mounriver_studio/toolchain/risc-v embedded gcc/bin/../lib/gcc/riscv-none-embed/8.2.0/../../../../riscv-none-embed/lib/rv32imacxw/ilp32\libprintfloat.a(printfloat.o)
                0x00000000000078f2                printLongLongInt
 .text.printDouble
                0x0000000000007a14      0x100 c:/mounriver/mounriver_studio/toolchain/risc-v embedded gcc/bin/../lib/gcc/riscv-none-embed/8.2.0/../../../../riscv-none-embed/lib/rv32imacxw/ilp32\libprintfloat.a(printfloat.o)
                0x0000000000007a14                printDouble
 .text.print    0x0000000000007b14      0x358 c:/mounriver/mounriver_studio/toolchain/risc-v embedded gcc/bin/../lib/gcc/riscv-none-embed/8.2.0/../../../../riscv-none-embed/lib/rv32imacxw/ilp32\libprintfloat.a(printfloat.o)
                0x0000000000007b14                print
 .text.printf   0x0000000000007e6c       0x24 c:/mounriver/mounriver_studio/toolchain/risc-v embedded gcc/bin/../lib/gcc/riscv-none-embed/8.2.0/../../../../riscv-none-embed/lib/rv32imacxw/ilp32\libprintfloat.a(printfloat.o)
                0x0000000000007e6c                printf
 .text.puts     0x0000000000007e90       0x4a c:/mounriver/mounriver_studio/toolchain/risc-v embedded gcc/bin/../lib/gcc/riscv-none-embed/8.2.0/../../../../riscv-none-embed/lib/rv32imacxw/ilp32\libprintfloat.a(printfloat.o)
                0x0000000000007e90                puts
 .text.__divdi3
                0x0000000000007eda      0x3d4 c:/mounriver/mounriver_studio/toolchain/risc-v embedded gcc/bin/../lib/gcc/riscv-none-embed/8.2.0/rv32imacxw/ilp32\libgcc.a(_divdi3.o)
                0x0000000000007eda                __divdi3
 .text.__udivdi3
                0x00000000000082ae      0x392 c:/mounriver/mounriver_studio/toolchain/risc-v embedded gcc/bin/../lib/gcc/riscv-none-embed/8.2.0/rv32imacxw/ilp32\libgcc.a(_udivdi3.o)
                0x00000000000082ae                __udivdi3
 .text.__umoddi3
                0x0000000000008640      0x38a c:/mounriver/mounriver_studio/toolchain/risc-v embedded gcc/bin/../lib/gcc/riscv-none-embed/8.2.0/rv32imacxw/ilp32\libgcc.a(_umoddi3.o)
                0x0000000000008640                __umoddi3
 .text.__adddf3
                0x00000000000089ca      0x730 c:/mounriver/mounriver_studio/toolchain/risc-v embedded gcc/bin/../lib/gcc/riscv-none-embed/8.2.0/rv32imacxw/ilp32\libgcc.a(adddf3.o)
                0x00000000000089ca                __adddf3
 .text.__ledf2  0x00000000000090fa       0xb6 c:/mounriver/mounriver_studio/toolchain/risc-v embedded gcc/bin/../lib/gcc/riscv-none-embed/8.2.0/rv32imacxw/ilp32\libgcc.a(ledf2.o)
                0x00000000000090fa                __ledf2
                0x00000000000090fa                __ltdf2
 .text.__muldf3
                0x00000000000091b0      0x4b8 c:/mounriver/mounriver_studio/toolchain/risc-v embedded gcc/bin/../lib/gcc/riscv-none-embed/8.2.0/rv32imacxw/ilp32\libgcc.a(muldf3.o)
                0x00000000000091b0                __muldf3
 .text.__subdf3
                0x0000000000009668      0x73e c:/mounriver/mounriver_studio/toolchain/risc-v embedded gcc/bin/../lib/gcc/riscv-none-embed/8.2.0/rv32imacxw/ilp32\libgcc.a(subdf3.o)
                0x0000000000009668                __subdf3
 .text.__fixunsdfsi
                0x0000000000009da6       0x5c c:/mounriver/mounriver_studio/toolchain/risc-v embedded gcc/bin/../lib/gcc/riscv-none-embed/8.2.0/rv32imacxw/ilp32\libgcc.a(fixunsdfsi.o)
                0x0000000000009da6                __fixunsdfsi
 .text.__floatsidf
                0x0000000000009e02       0x72 c:/mounriver/mounriver_studio/toolchain/risc-v embedded gcc/bin/../lib/gcc/riscv-none-embed/8.2.0/rv32imacxw/ilp32\libgcc.a(floatsidf.o)
                0x0000000000009e02                __floatsidf
 .text.__fixdfdi
                0x0000000000009e74       0xbc c:/mounriver/mounriver_studio/toolchain/risc-v embedded gcc/bin/../lib/gcc/riscv-none-embed/8.2.0/rv32imacxw/ilp32\libgcc.a(fixdfdi.o)
                0x0000000000009e74                __fixdfdi
 .text.__floatdidf
                0x0000000000009f30      0x1b6 c:/mounriver/mounriver_studio/toolchain/risc-v embedded gcc/bin/../lib/gcc/riscv-none-embed/8.2.0/rv32imacxw/ilp32\libgcc.a(floatdidf.o)
                0x0000000000009f30                __floatdidf
 .text.__addsf3
                0x000000000000a0e6      0x36a c:/mounriver/mounriver_studio/toolchain/risc-v embedded gcc/bin/../lib/gcc/riscv-none-embed/8.2.0/rv32imacxw/ilp32\libgcc.a(addsf3.o)
                0x000000000000a0e6                __addsf3
 .text.__divsf3
                0x000000000000a450      0x2b2 c:/mounriver/mounriver_studio/toolchain/risc-v embedded gcc/bin/../lib/gcc/riscv-none-embed/8.2.0/rv32imacxw/ilp32\libgcc.a(divsf3.o)
                0x000000000000a450                __divsf3
 .text.__eqsf2  0x000000000000a702       0x5c c:/mounriver/mounriver_studio/toolchain/risc-v embedded gcc/bin/../lib/gcc/riscv-none-embed/8.2.0/rv32imacxw/ilp32\libgcc.a(eqsf2.o)
                0x000000000000a702                __eqsf2
                0x000000000000a702                __nesf2
 .text.__gesf2  0x000000000000a75e       0x86 c:/mounriver/mounriver_studio/toolchain/risc-v embedded gcc/bin/../lib/gcc/riscv-none-embed/8.2.0/rv32imacxw/ilp32\libgcc.a(gesf2.o)
                0x000000000000a75e                __gesf2
                0x000000000000a75e                __gtsf2
 .text.__lesf2  0x000000000000a7e4       0x8c c:/mounriver/mounriver_studio/toolchain/risc-v embedded gcc/bin/../lib/gcc/riscv-none-embed/8.2.0/rv32imacxw/ilp32\libgcc.a(lesf2.o)
                0x000000000000a7e4                __ltsf2
                0x000000000000a7e4                __lesf2
 .text.__mulsf3
                0x000000000000a870      0x294 c:/mounriver/mounriver_studio/toolchain/risc-v embedded gcc/bin/../lib/gcc/riscv-none-embed/8.2.0/rv32imacxw/ilp32\libgcc.a(mulsf3.o)
                0x000000000000a870                __mulsf3
 .text.__subsf3
                0x000000000000ab04      0x388 c:/mounriver/mounriver_studio/toolchain/risc-v embedded gcc/bin/../lib/gcc/riscv-none-embed/8.2.0/rv32imacxw/ilp32\libgcc.a(subsf3.o)
                0x000000000000ab04                __subsf3
 .text.__unordsf2
                0x000000000000ae8c       0x3c c:/mounriver/mounriver_studio/toolchain/risc-v embedded gcc/bin/../lib/gcc/riscv-none-embed/8.2.0/rv32imacxw/ilp32\libgcc.a(unordsf2.o)
                0x000000000000ae8c                __unordsf2
 .text.__fixsfsi
                0x000000000000aec8       0x62 c:/mounriver/mounriver_studio/toolchain/risc-v embedded gcc/bin/../lib/gcc/riscv-none-embed/8.2.0/rv32imacxw/ilp32\libgcc.a(fixsfsi.o)
                0x000000000000aec8                __fixsfsi
 .text.__fixunssfsi
                0x000000000000af2a       0x56 c:/mounriver/mounriver_studio/toolchain/risc-v embedded gcc/bin/../lib/gcc/riscv-none-embed/8.2.0/rv32imacxw/ilp32\libgcc.a(fixunssfsi.o)
                0x000000000000af2a                __fixunssfsi
 .text.__floatsisf
                0x000000000000af80       0xc6 c:/mounriver/mounriver_studio/toolchain/risc-v embedded gcc/bin/../lib/gcc/riscv-none-embed/8.2.0/rv32imacxw/ilp32\libgcc.a(floatsisf.o)
                0x000000000000af80                __floatsisf
 .text.__floatunsisf
                0x000000000000b046       0xce c:/mounriver/mounriver_studio/toolchain/risc-v embedded gcc/bin/../lib/gcc/riscv-none-embed/8.2.0/rv32imacxw/ilp32\libgcc.a(floatunsisf.o)
                0x000000000000b046                __floatunsisf
 .text.__extendsfdf2
                0x000000000000b114       0xac c:/mounriver/mounriver_studio/toolchain/risc-v embedded gcc/bin/../lib/gcc/riscv-none-embed/8.2.0/rv32imacxw/ilp32\libgcc.a(extendsfdf2.o)
                0x000000000000b114                __extendsfdf2
 .text.__truncdfsf2
                0x000000000000b1c0      0x16a c:/mounriver/mounriver_studio/toolchain/risc-v embedded gcc/bin/../lib/gcc/riscv-none-embed/8.2.0/rv32imacxw/ilp32\libgcc.a(truncdfsf2.o)
                0x000000000000b1c0                __truncdfsf2
 .text.__clzsi2
                0x000000000000b32a       0x6e c:/mounriver/mounriver_studio/toolchain/risc-v embedded gcc/bin/../lib/gcc/riscv-none-embed/8.2.0/rv32imacxw/ilp32\libgcc.a(_clzsi2.o)
                0x000000000000b32a                __clzsi2
 .text.__errno  0x000000000000b398        0x8 c:/mounriver/mounriver_studio/toolchain/risc-v embedded gcc/bin/../lib/gcc/riscv-none-embed/8.2.0/../../../../riscv-none-embed/lib/rv32imacxw/ilp32\libg_nano.a(lib_a-errno.o)
                0x000000000000b398                __errno
 .text.memcmp   0x000000000000b3a0       0x24 c:/mounriver/mounriver_studio/toolchain/risc-v embedded gcc/bin/../lib/gcc/riscv-none-embed/8.2.0/../../../../riscv-none-embed/lib/rv32imacxw/ilp32\libg_nano.a(lib_a-memcmp.o)
                0x000000000000b3a0                memcmp
 .text.memcpy   0x000000000000b3c4       0xb2 c:/mounriver/mounriver_studio/toolchain/risc-v embedded gcc/bin/../lib/gcc/riscv-none-embed/8.2.0/../../../../riscv-none-embed/lib/rv32imacxw/ilp32\libg_nano.a(lib_a-memcpy.o)
                0x000000000000b3c4                memcpy
 *(.rodata)
 *fill*         0x000000000000b476        0x2 
 .rodata        0x000000000000b478       0x2f ./General_Files/eMPL/inv_mpu_dmp_motion_driver.o
 *(.rodata*)
 *fill*         0x000000000000b4a7        0x1 
 .rodata.String_print.str1.4
                0x000000000000b4a8      0x18f ./User/RTOS_apps/Print_status.o
 *fill*         0x000000000000b637        0x1 
 .rodata.ELRS_Convert_angle.cst8
                0x000000000000b638        0x8 ./User/RTOS_apps/control_handle.o
 .rodata.ELRS_Convert_throttle.cst8
                0x000000000000b640       0x10 ./User/RTOS_apps/control_handle.o
 .rodata.PIDSTRUCT_Init.cst4
                0x000000000000b650       0x50 ./User/RTOS_apps/control_handle.o
 .rodata.Roll_innerloop_ctr.cst4
                0x000000000000b6a0        0x4 ./User/RTOS_apps/control_handle.o
 .rodata.Motor_sort_start.cst4
                0x000000000000b6a4        0x8 ./User/RTOS_apps/soft_stast.o
 .rodata.Motor_sort_start.str1.4
                0x000000000000b6ac       0x21 ./User/RTOS_apps/soft_stast.o
 *fill*         0x000000000000b6cd        0x3 
 .rodata.RTOS_init.str1.4
                0x000000000000b6d0       0x1c ./User/RTOS_tasks.o
 .rodata.main.str1.4
                0x000000000000b6ec       0x60 ./User/main.o
 .rodata.mpu_get_lpf
                0x000000000000b74c       0x18 ./General_Files/eMPL/inv_mpu.o
 .rodata.hw     0x000000000000b764        0xc ./General_Files/eMPL/inv_mpu.o
                0x000000000000b764                hw
 .rodata.mpu_dmp_get_data.cst4
                0x000000000000b770        0x8 ./General_Files/eMPL/inv_mpu.o
 .rodata.mpu_dmp_get_data.cst8
                0x000000000000b778        0x8 ./General_Files/eMPL/inv_mpu.o
 .rodata.mpu_dmp_init.str1.4
                0x000000000000b780       0x12 ./General_Files/eMPL/inv_mpu.o
 *fill*         0x000000000000b792        0x2 
 .rodata.mpu_get_gyro_sens.cst4
                0x000000000000b794       0x10 ./General_Files/eMPL/inv_mpu.o
 .rodata.mpu_init.str1.4
                0x000000000000b7a4       0x91 ./General_Files/eMPL/inv_mpu.o
 *fill*         0x000000000000b835        0x3 
 .rodata.mpu_run_self_test.cst4
                0x000000000000b838       0x2c ./General_Files/eMPL/inv_mpu.o
                                         0x30 (size before relaxing)
 .rodata.reg    0x000000000000b864       0x1b ./General_Files/eMPL/inv_mpu.o
                0x000000000000b864                reg
 *fill*         0x000000000000b87f        0x1 
 .rodata.test   0x000000000000b880       0x28 ./General_Files/eMPL/inv_mpu.o
                0x000000000000b880                test
 .rodata.dmp_memory
                0x000000000000b8a8      0xbf6 ./General_Files/eMPL/inv_mpu_dmp_motion_driver.o
 *fill*         0x000000000000c49e        0x2 
 .rodata.dmp_set_tap_thresh.cst4
                0x000000000000c4a0       0x24 ./General_Files/eMPL/inv_mpu_dmp_motion_driver.o
 .rodata.MPU6050_Init.str1.4
                0x000000000000c4c4       0x1b ./General_Files/drivers/MPU6050.o
 *fill*         0x000000000000c4df        0x1 
 .rodata.BAT_ADC_Init.str1.4
                0x000000000000c4e0       0x16 ./General_Files/drivers/adc.o
 .rodata.FilterAverage.cst4
                0x000000000000c4f6        0x4 ./General_Files/drivers/bsp_filter.o
 *fill*         0x000000000000c4f6        0x2 
 .rodata.System_Init.str1.4
                0x000000000000c4f8       0x11 ./General_Files/system.o
 *fill*         0x000000000000c509        0x3 
 .rodata.pvPortMalloc.str1.4
                0x000000000000c50c       0x49 ./FreeRTOS/portable/MemMang/heap_4.o
 *fill*         0x000000000000c555        0x3 
 .rodata.xPortStartScheduler.str1.4
                0x000000000000c558       0x27 ./FreeRTOS/portable/GCC/RISC-V/port.o
                                         0x49 (size before relaxing)
 *fill*         0x000000000000c57f        0x1 
 .rodata.xQueueGenericReset.str1.4
                0x000000000000c580       0x14 ./FreeRTOS/queue.o
                                         0x35 (size before relaxing)
 .rodata.prvTaskIsTaskSuspended.str1.4
                0x000000000000c594       0x14 ./FreeRTOS/tasks.o
                                         0x35 (size before relaxing)
 .rodata.vTaskStartScheduler.str1.4
                0x000000000000c5a8        0x5 ./FreeRTOS/tasks.o
 *fill*         0x000000000000c5ad        0x3 
 .rodata.prvTimerTask
                0x000000000000c5b0       0x24 ./FreeRTOS/timers.o
 .rodata.prvCheckForValidListAndQueue.str1.4
                0x000000000000c5d4        0x5 ./FreeRTOS/timers.o
 *fill*         0x000000000000c5d9        0x3 
 .rodata.prvTimerTask.str1.4
                0x000000000000c5dc       0x15 ./FreeRTOS/timers.o
                                         0x39 (size before relaxing)
 *fill*         0x000000000000c5f1        0x3 
 .rodata.xTimerCreateTimerTask.str1.4
                0x000000000000c5f4        0x8 ./FreeRTOS/timers.o
 .rodata.asinf.cst4
                0x000000000000c5fc        0x4 c:/mounriver/mounriver_studio/toolchain/risc-v embedded gcc/bin/../lib/gcc/riscv-none-embed/8.2.0/../../../../riscv-none-embed/lib/rv32imacxw/ilp32\libm.a(lib_a-wf_asin.o)
 .rodata.asinf.str1.4
                0x000000000000c5fc        0x6 c:/mounriver/mounriver_studio/toolchain/risc-v embedded gcc/bin/../lib/gcc/riscv-none-embed/8.2.0/../../../../riscv-none-embed/lib/rv32imacxw/ilp32\libm.a(lib_a-wf_asin.o)
                                          0x9 (size before relaxing)
 *fill*         0x000000000000c602        0x2 
 .rodata.__ieee754_asinf.cst4
                0x000000000000c604       0x40 c:/mounriver/mounriver_studio/toolchain/risc-v embedded gcc/bin/../lib/gcc/riscv-none-embed/8.2.0/../../../../riscv-none-embed/lib/rv32imacxw/ilp32\libm.a(lib_a-ef_asin.o)
                                         0x44 (size before relaxing)
 .rodata.__ieee754_atan2f.cst4
                0x000000000000c644       0x20 c:/mounriver/mounriver_studio/toolchain/risc-v embedded gcc/bin/../lib/gcc/riscv-none-embed/8.2.0/../../../../riscv-none-embed/lib/rv32imacxw/ilp32\libm.a(lib_a-ef_atan2.o)
                                         0x28 (size before relaxing)
 *fill*         0x000000000000c664        0x4 
 .rodata.nan.cst8
                0x000000000000c668        0x8 c:/mounriver/mounriver_studio/toolchain/risc-v embedded gcc/bin/../lib/gcc/riscv-none-embed/8.2.0/../../../../riscv-none-embed/lib/rv32imacxw/ilp32\libm.a(lib_a-s_nan.o)
 .rodata.atanf.cst4
                0x000000000000c670       0x38 c:/mounriver/mounriver_studio/toolchain/risc-v embedded gcc/bin/../lib/gcc/riscv-none-embed/8.2.0/../../../../riscv-none-embed/lib/rv32imacxw/ilp32\libm.a(lib_a-sf_atan.o)
                                         0x48 (size before relaxing)
 .rodata.atanhi
                0x000000000000c6a8       0x10 c:/mounriver/mounriver_studio/toolchain/risc-v embedded gcc/bin/../lib/gcc/riscv-none-embed/8.2.0/../../../../riscv-none-embed/lib/rv32imacxw/ilp32\libm.a(lib_a-sf_atan.o)
 .rodata.atanlo
                0x000000000000c6b8       0x10 c:/mounriver/mounriver_studio/toolchain/risc-v embedded gcc/bin/../lib/gcc/riscv-none-embed/8.2.0/../../../../riscv-none-embed/lib/rv32imacxw/ilp32\libm.a(lib_a-sf_atan.o)
 .rodata.print.str1.4
                0x000000000000c6c8        0x8 c:/mounriver/mounriver_studio/toolchain/risc-v embedded gcc/bin/../lib/gcc/riscv-none-embed/8.2.0/../../../../riscv-none-embed/lib/rv32imacxw/ilp32\libprintfloat.a(printfloat.o)
                                          0x7 (size before relaxing)
 .rodata.__muldf3
                0x000000000000c6d0       0x40 c:/mounriver/mounriver_studio/toolchain/risc-v embedded gcc/bin/../lib/gcc/riscv-none-embed/8.2.0/rv32imacxw/ilp32\libgcc.a(muldf3.o)
 .rodata.__divsf3
                0x000000000000c710       0x80 c:/mounriver/mounriver_studio/toolchain/risc-v embedded gcc/bin/../lib/gcc/riscv-none-embed/8.2.0/rv32imacxw/ilp32\libgcc.a(divsf3.o)
 .rodata.__mulsf3
                0x000000000000c790       0x40 c:/mounriver/mounriver_studio/toolchain/risc-v embedded gcc/bin/../lib/gcc/riscv-none-embed/8.2.0/rv32imacxw/ilp32\libgcc.a(mulsf3.o)
 .rodata.__clz_tab
                0x000000000000c7d0      0x100 c:/mounriver/mounriver_studio/toolchain/risc-v embedded gcc/bin/../lib/gcc/riscv-none-embed/8.2.0/rv32imacxw/ilp32\libgcc.a(_clz.o)
                0x000000000000c7d0                __clz_tab
 *(.gnu.linkonce.t.*)
                0x000000000000c8d0                . = ALIGN (0x4)

.rela.dyn       0x000000000000c8d0        0x0
 .rela.text.String_print
                0x000000000000c8d0        0x0 ./User/RTOS_apps/IMU_handle.o
 .rela.text.Motor_sort_start
                0x000000000000c8d0        0x0 ./User/RTOS_apps/IMU_handle.o
 .rela.text.startup.main
                0x000000000000c8d0        0x0 ./User/RTOS_apps/IMU_handle.o
 .rela.init     0x000000000000c8d0        0x0 ./User/RTOS_apps/IMU_handle.o
 .rela.vector   0x000000000000c8d0        0x0 ./User/RTOS_apps/IMU_handle.o
 .rela.text.handle_reset
                0x000000000000c8d0        0x0 ./User/RTOS_apps/IMU_handle.o
 .rela.text.mpu_init
                0x000000000000c8d0        0x0 ./User/RTOS_apps/IMU_handle.o
 .rela.text.mpu_dmp_init
                0x000000000000c8d0        0x0 ./User/RTOS_apps/IMU_handle.o
 .rela.text.MPU6050_Init
                0x000000000000c8d0        0x0 ./User/RTOS_apps/IMU_handle.o
 .rela.text.BAT_ADC_Init
                0x000000000000c8d0        0x0 ./User/RTOS_apps/IMU_handle.o
 .rela.text.System_Init
                0x000000000000c8d0        0x0 ./User/RTOS_apps/IMU_handle.o
 .rela.text.pvPortMalloc
                0x000000000000c8d0        0x0 ./User/RTOS_apps/IMU_handle.o
 .rela.text.vPortFree
                0x000000000000c8d0        0x0 ./User/RTOS_apps/IMU_handle.o
 .rela.text.xPortStartScheduler
                0x000000000000c8d0        0x0 ./User/RTOS_apps/IMU_handle.o
 .rela.text.vPortExitCritical
                0x000000000000c8d0        0x0 ./User/RTOS_apps/IMU_handle.o
 .rela.sdata2.xISRStackTop
                0x000000000000c8d0        0x0 ./User/RTOS_apps/IMU_handle.o
 .rela.text.xQueueGenericReset
                0x000000000000c8d0        0x0 ./User/RTOS_apps/IMU_handle.o
 .rela.text.xQueueGenericCreate
                0x000000000000c8d0        0x0 ./User/RTOS_apps/IMU_handle.o
 .rela.text.xQueueReceive
                0x000000000000c8d0        0x0 ./User/RTOS_apps/IMU_handle.o
 .rela.text.vQueueAddToRegistry
                0x000000000000c8d0        0x0 ./User/RTOS_apps/IMU_handle.o
 .rela.text.xTaskCreate
                0x000000000000c8d0        0x0 ./User/RTOS_apps/IMU_handle.o
 .rela.text.vTaskStartScheduler
                0x000000000000c8d0        0x0 ./User/RTOS_apps/IMU_handle.o
 .rela.text.xTaskIncrementTick
                0x000000000000c8d0        0x0 ./User/RTOS_apps/IMU_handle.o
 .rela.text.xTaskResumeAll
                0x000000000000c8d0        0x0 ./User/RTOS_apps/IMU_handle.o
 .rela.text.vTaskDelay
                0x000000000000c8d0        0x0 ./User/RTOS_apps/IMU_handle.o
 .rela.text.vTaskSwitchContext
                0x000000000000c8d0        0x0 ./User/RTOS_apps/IMU_handle.o
 .rela.text.vTaskPlaceOnEventList
                0x000000000000c8d0        0x0 ./User/RTOS_apps/IMU_handle.o
 .rela.text.vTaskPlaceOnEventListRestricted
                0x000000000000c8d0        0x0 ./User/RTOS_apps/IMU_handle.o
 .rela.text.xTaskRemoveFromEventList
                0x000000000000c8d0        0x0 ./User/RTOS_apps/IMU_handle.o
 .rela.text.xTaskCheckForTimeOut
                0x000000000000c8d0        0x0 ./User/RTOS_apps/IMU_handle.o
 .rela.text.prvTimerTask
                0x000000000000c8d0        0x0 ./User/RTOS_apps/IMU_handle.o
 .rela.text.xTimerCreateTimerTask
                0x000000000000c8d0        0x0 ./User/RTOS_apps/IMU_handle.o
 .rela.text.prints
                0x000000000000c8d0        0x0 ./User/RTOS_apps/IMU_handle.o
 .rela.text.printInt
                0x000000000000c8d0        0x0 ./User/RTOS_apps/IMU_handle.o
 .rela.text.printLongLongInt
                0x000000000000c8d0        0x0 ./User/RTOS_apps/IMU_handle.o
 .rela.text.printDouble
                0x000000000000c8d0        0x0 ./User/RTOS_apps/IMU_handle.o
 .rela.text.print
                0x000000000000c8d0        0x0 ./User/RTOS_apps/IMU_handle.o
 .rela.text.printf
                0x000000000000c8d0        0x0 ./User/RTOS_apps/IMU_handle.o
 .rela.data.impure_data
                0x000000000000c8d0        0x0 ./User/RTOS_apps/IMU_handle.o

.fini           0x000000000000c8d0        0x0
 *(SORT_NONE(.fini))
                0x000000000000c8d0                . = ALIGN (0x4)
                [!provide]                        PROVIDE (_etext = .)
                [!provide]                        PROVIDE (_eitcm = .)

.preinit_array  0x000000000000c8d0        0x0
                [!provide]                        PROVIDE (__preinit_array_start = .)
 *(.preinit_array)
                [!provide]                        PROVIDE (__preinit_array_end = .)

.init_array     0x000000000000c8d0        0x0
                [!provide]                        PROVIDE (__init_array_start = .)
 *(SORT_BY_INIT_PRIORITY(.init_array.*) SORT_BY_INIT_PRIORITY(.ctors.*))
 *(.init_array EXCLUDE_FILE(*crtend?.o *crtend.o *crtbegin?.o *crtbegin.o) .ctors)
                [!provide]                        PROVIDE (__init_array_end = .)

.fini_array     0x000000000000c8d0        0x0
                [!provide]                        PROVIDE (__fini_array_start = .)
 *(SORT_BY_INIT_PRIORITY(.fini_array.*) SORT_BY_INIT_PRIORITY(.dtors.*))
 *(.fini_array EXCLUDE_FILE(*crtend?.o *crtend.o *crtbegin?.o *crtbegin.o) .dtors)
                [!provide]                        PROVIDE (__fini_array_end = .)

.ctors
 *crtbegin.o(.ctors)
 *crtbegin?.o(.ctors)
 *(EXCLUDE_FILE(*crtend?.o *crtend.o) .ctors)
 *(SORT_BY_NAME(.ctors.*))
 *(.ctors)

.dtors
 *crtbegin.o(.dtors)
 *crtbegin?.o(.dtors)
 *(EXCLUDE_FILE(*crtend?.o *crtend.o) .dtors)
 *(SORT_BY_NAME(.dtors.*))
 *(.dtors)

.dalign         0x0000000020000000        0x0 load address 0x000000000000c8d0
                0x0000000020000000                . = ALIGN (0x4)
                0x0000000020000000                PROVIDE (_data_vma = .)

.dlalign        0x000000000000c8d0        0x0
                0x000000000000c8d0                . = ALIGN (0x4)
                0x000000000000c8d0                PROVIDE (_data_lma = .)

.data           0x0000000020000000      0x108 load address 0x000000000000c8d0
 *(.gnu.linkonce.r.*)
 *(.data .data.*)
 .data.AHBPrescTable
                0x0000000020000000       0x10 ./User/system_ch32v30x.o
                0x0000000020000000                AHBPrescTable
 .data.APBAHBPrescTable
                0x0000000020000010       0x10 ./Peripheral/src/ch32v30x_rcc.o
 .data.gyro_orientation
                0x0000000020000020        0x9 ./General_Files/eMPL/inv_mpu.o
 *fill*         0x0000000020000029        0x3 
 .data.st       0x000000002000002c       0x2c ./General_Files/eMPL/inv_mpu.o
 .data.Motor_pos
                0x0000000020000058       0x10 ./General_Files/drivers/pwm.o
                0x0000000020000058                Motor_pos
 .data.pid_func
                0x0000000020000068       0x10 ./General_Files/apps/src/pid.o
                0x0000000020000068                pid_func
 .data.impure_data
                0x0000000020000078       0x60 c:/mounriver/mounriver_studio/toolchain/risc-v embedded gcc/bin/../lib/gcc/riscv-none-embed/8.2.0/../../../../riscv-none-embed/lib/rv32imacxw/ilp32\libg_nano.a(lib_a-impure.o)
 *(.gnu.linkonce.d.*)
                0x00000000200000d8                . = ALIGN (0x8)
                0x00000000200008d8                PROVIDE (__global_pointer$ = (. + 0x800))
 *(.sdata .sdata.*)
 .sdata.IMU_IO_STATUS
                0x00000000200000d8        0x4 ./User/RTOS_apps/IMU_handle.o
                0x00000000200000d8                IMU_IO_STATUS
 .sdata.Motor_speed_set
                0x00000000200000dc        0x4 ./User/RTOS_apps/soft_stast.o
                0x00000000200000dc                Motor_speed_set
 .sdata.last_RC_lock_state
                0x00000000200000e0        0x4 ./User/RTOS_apps/soft_stast.o
                0x00000000200000e0                last_RC_lock_state
 .sdata.SystemCoreClock
                0x00000000200000e4        0x4 ./User/system_ch32v30x.o
                0x00000000200000e4                SystemCoreClock
 .sdata.ADCPrescTable
                0x00000000200000e8        0x4 ./Peripheral/src/ch32v30x_rcc.o
 .sdata.bmp280  0x00000000200000ec        0x4 ./General_Files/drivers/BMP280.o
                0x00000000200000ec                bmp280
 .sdata.uxCriticalNesting
                0x00000000200000f0        0x4 ./FreeRTOS/portable/GCC/RISC-V/port.o
 .sdata.uxTopUsedPriority
                0x00000000200000f4        0x4 ./FreeRTOS/tasks.o
                0x00000000200000f4                uxTopUsedPriority
 .sdata.__fdlib_version
                0x00000000200000f8        0x4 c:/mounriver/mounriver_studio/toolchain/risc-v embedded gcc/bin/../lib/gcc/riscv-none-embed/8.2.0/../../../../riscv-none-embed/lib/rv32imacxw/ilp32\libm.a(lib_a-s_lib_ver.o)
                0x00000000200000f8                __fdlib_version
 .sdata._impure_ptr
                0x00000000200000fc        0x4 c:/mounriver/mounriver_studio/toolchain/risc-v embedded gcc/bin/../lib/gcc/riscv-none-embed/8.2.0/../../../../riscv-none-embed/lib/rv32imacxw/ilp32\libg_nano.a(lib_a-impure.o)
                0x00000000200000fc                _impure_ptr
 *(.sdata2.*)
 .sdata2.xISRStackTop
                0x0000000020000100        0x4 ./FreeRTOS/portable/GCC/RISC-V/port.o
                0x0000000020000100                xISRStackTop
 *(.gnu.linkonce.s.*)
                0x0000000020000108                . = ALIGN (0x8)
 *fill*         0x0000000020000104        0x4 
 *(.srodata.cst16)
 *(.srodata.cst8)
 *(.srodata.cst4)
 *(.srodata.cst2)
 *(.srodata .srodata.*)
                0x0000000020000108                . = ALIGN (0x4)
                0x0000000020000108                PROVIDE (_edata = .)

.bss            0x0000000020000108     0x4618 load address 0x000000000000c9d8
                0x0000000020000108                . = ALIGN (0x4)
                0x0000000020000108                PROVIDE (_sbss = .)
 *(.sbss*)
 .sbss.Control_task_Handler
                0x0000000020000108        0x4 ./User/RTOS_tasks.o
                0x0000000020000108                Control_task_Handler
 .sbss.IMU_Task_Handler
                0x000000002000010c        0x4 ./User/RTOS_tasks.o
                0x000000002000010c                IMU_Task_Handler
 .sbss.Motor_SoftStart_Handler
                0x0000000020000110        0x4 ./User/RTOS_tasks.o
                0x0000000020000110                Motor_SoftStart_Handler
 .sbss.PrintTask_Handler
                0x0000000020000114        0x4 ./User/RTOS_tasks.o
                0x0000000020000114                PrintTask_Handler
 .sbss.NVIC_Priority_Group
                0x0000000020000118        0x4 ./Peripheral/src/ch32v30x_misc.o
                0x0000000020000118                NVIC_Priority_Group
 .sbss.Calibrattion_Val
                0x000000002000011c        0x2 ./General_Files/drivers/adc.o
                0x000000002000011c                Calibrattion_Val
 *fill*         0x000000002000011e        0x2 
 .sbss.TxBuf    0x0000000020000120        0x2 ./General_Files/drivers/adc.o
                0x0000000020000120                TxBuf
 .sbss.RxBuf_Index
                0x0000000020000122        0x1 ./General_Files/apps/src/CRSF.o
                0x0000000020000122                RxBuf_Index
 *fill*         0x0000000020000123        0x1 
 .sbss.pxEnd    0x0000000020000124        0x4 ./FreeRTOS/portable/MemMang/heap_4.o
 .sbss.xBlockAllocatedBit
                0x0000000020000128        0x4 ./FreeRTOS/portable/MemMang/heap_4.o
 .sbss.xFreeBytesRemaining
                0x000000002000012c        0x4 ./FreeRTOS/portable/MemMang/heap_4.o
 .sbss.xMinimumEverFreeBytesRemaining
                0x0000000020000130        0x4 ./FreeRTOS/portable/MemMang/heap_4.o
 .sbss.xNumberOfSuccessfulAllocations
                0x0000000020000134        0x4 ./FreeRTOS/portable/MemMang/heap_4.o
 .sbss.xNumberOfSuccessfulFrees
                0x0000000020000138        0x4 ./FreeRTOS/portable/MemMang/heap_4.o
 .sbss.xStart   0x000000002000013c        0x8 ./FreeRTOS/portable/MemMang/heap_4.o
 .sbss.pxCurrentTCB
                0x0000000020000144        0x4 ./FreeRTOS/tasks.o
                0x0000000020000144                pxCurrentTCB
 .sbss.pxDelayedTaskList
                0x0000000020000148        0x4 ./FreeRTOS/tasks.o
 .sbss.pxOverflowDelayedTaskList
                0x000000002000014c        0x4 ./FreeRTOS/tasks.o
 .sbss.uxCurrentNumberOfTasks
                0x0000000020000150        0x4 ./FreeRTOS/tasks.o
 .sbss.uxDeletedTasksWaitingCleanUp
                0x0000000020000154        0x4 ./FreeRTOS/tasks.o
 .sbss.uxSchedulerSuspended
                0x0000000020000158        0x4 ./FreeRTOS/tasks.o
 .sbss.uxTaskNumber
                0x000000002000015c        0x4 ./FreeRTOS/tasks.o
 .sbss.uxTopReadyPriority
                0x0000000020000160        0x4 ./FreeRTOS/tasks.o
 .sbss.xIdleTaskHandle
                0x0000000020000164        0x4 ./FreeRTOS/tasks.o
 .sbss.xNextTaskUnblockTime
                0x0000000020000168        0x4 ./FreeRTOS/tasks.o
 .sbss.xNumOfOverflows
                0x000000002000016c        0x4 ./FreeRTOS/tasks.o
 .sbss.xPendedTicks
                0x0000000020000170        0x4 ./FreeRTOS/tasks.o
 .sbss.xSchedulerRunning
                0x0000000020000174        0x4 ./FreeRTOS/tasks.o
 .sbss.xTickCount
                0x0000000020000178        0x4 ./FreeRTOS/tasks.o
 .sbss.xYieldPending
                0x000000002000017c        0x4 ./FreeRTOS/tasks.o
 .sbss.pxCurrentTimerList
                0x0000000020000180        0x4 ./FreeRTOS/timers.o
 .sbss.pxOverflowTimerList
                0x0000000020000184        0x4 ./FreeRTOS/timers.o
 .sbss.xLastTime.6314
                0x0000000020000188        0x4 ./FreeRTOS/timers.o
 .sbss.xTimerQueue
                0x000000002000018c        0x4 ./FreeRTOS/timers.o
 .sbss.xTimerTaskHandle
                0x0000000020000190        0x4 ./FreeRTOS/timers.o
 .sbss.p_ms     0x0000000020000194        0x2 ./Debug/debug.o
 .sbss.p_us     0x0000000020000196        0x1 ./Debug/debug.o
 *(.gnu.linkonce.sb.*)
 *(.bss*)
 *fill*         0x0000000020000197        0x1 
 .bss.MPU6050_para
                0x0000000020000198       0x14 ./User/RTOS_apps/IMU_handle.o
                0x0000000020000198                MPU6050_para
 .bss.MPU6050_para_filted
                0x00000000200001ac       0x14 ./User/RTOS_apps/IMU_handle.o
                0x00000000200001ac                MPU6050_para_filted
 .bss.gyro_filter
                0x00000000200001c0       0x60 ./User/RTOS_apps/IMU_handle.o
                0x00000000200001c0                gyro_filter
 .bss.control   0x0000000020000220      0x208 ./User/RTOS_apps/control_handle.o
                0x0000000020000220                control
 .bss.dmp       0x0000000020000428       0x10 ./General_Files/eMPL/inv_mpu_dmp_motion_driver.o
 .bss.bmp280_inst
                0x0000000020000438       0x18 ./General_Files/drivers/BMP280.o
                0x0000000020000438                bmp280_inst
 .bss._lut      0x0000000020000450      0x100 ./General_Files/apps/src/CRC.o
                0x0000000020000450                _lut
 .bss.CrsfChannels
                0x0000000020000550       0x40 ./General_Files/apps/src/CRSF.o
                0x0000000020000550                CrsfChannels
 .bss.LinkStatistics
                0x0000000020000590        0xa ./General_Files/apps/src/CRSF.o
                0x0000000020000590                LinkStatistics
 *fill*         0x000000002000059a        0x2 
 .bss.RxBuf     0x000000002000059c       0x40 ./General_Files/apps/src/CRSF.o
                0x000000002000059c                RxBuf
 .bss.ucHeap    0x00000000200005dc     0x4000 ./FreeRTOS/portable/MemMang/heap_4.o
 .bss.xQueueRegistry
                0x00000000200045dc       0x40 ./FreeRTOS/queue.o
                0x00000000200045dc                xQueueRegistry
 .bss.pxReadyTasksLists
                0x000000002000461c       0x78 ./FreeRTOS/tasks.o
 .bss.xDelayedTaskList1
                0x0000000020004694       0x14 ./FreeRTOS/tasks.o
 .bss.xDelayedTaskList2
                0x00000000200046a8       0x14 ./FreeRTOS/tasks.o
 .bss.xPendingReadyList
                0x00000000200046bc       0x14 ./FreeRTOS/tasks.o
 .bss.xSuspendedTaskList
                0x00000000200046d0       0x14 ./FreeRTOS/tasks.o
 .bss.xTasksWaitingTermination
                0x00000000200046e4       0x14 ./FreeRTOS/tasks.o
 .bss.xActiveTimerList1
                0x00000000200046f8       0x14 ./FreeRTOS/timers.o
 .bss.xActiveTimerList2
                0x000000002000470c       0x14 ./FreeRTOS/timers.o
 *(.gnu.linkonce.b.*)
 *(COMMON*)
                0x0000000020004720                . = ALIGN (0x4)
                0x0000000020004720                PROVIDE (_ebss = .)
                0x0000000020004720                PROVIDE (_end = _ebss)
                [!provide]                        PROVIDE (end = .)

.stack          0x0000000020007800      0x800
                0x0000000020007800                PROVIDE (_heap_end = .)
                0x0000000020007800                . = ALIGN (0x4)
                [!provide]                        PROVIDE (_susrstack = .)
                0x0000000020008000                . = (. + __stack_size)
 *fill*         0x0000000020007800      0x800 
                0x0000000020008000                PROVIDE (_eusrstack = .)
                0x0000000020008000                __freertos_irq_stack_top = .
OUTPUT(FreeRTOS.elf elf32-littleriscv)

.debug_info     0x0000000000000000    0x31ffa
 .debug_info    0x0000000000000000      0xf91 ./User/RTOS_apps/IMU_handle.o
 .debug_info    0x0000000000000f91     0x123c ./User/RTOS_apps/Print_status.o
 .debug_info    0x00000000000021cd     0x1350 ./User/RTOS_apps/control_handle.o
 .debug_info    0x000000000000351d      0xe85 ./User/RTOS_apps/soft_stast.o
 .debug_info    0x00000000000043a2      0xf33 ./User/RTOS_tasks.o
 .debug_info    0x00000000000052d5      0x962 ./User/ch32v30x_it.o
 .debug_info    0x0000000000005c37      0xc9b ./User/main.o
 .debug_info    0x00000000000068d2      0xb99 ./User/system_ch32v30x.o
 .debug_info    0x000000000000746b       0x22 ./Startup/startup_ch32v30x_D8C.o
 .debug_info    0x000000000000748d     0x16e9 ./Peripheral/src/ch32v30x_adc.o
 .debug_info    0x0000000000008b76      0xa94 ./Peripheral/src/ch32v30x_dbgmcu.o
 .debug_info    0x000000000000960a      0xd16 ./Peripheral/src/ch32v30x_dma.o
 .debug_info    0x000000000000a320     0x11cb ./Peripheral/src/ch32v30x_gpio.o
 .debug_info    0x000000000000b4eb     0x1481 ./Peripheral/src/ch32v30x_i2c.o
 .debug_info    0x000000000000c96c      0xf60 ./Peripheral/src/ch32v30x_misc.o
 .debug_info    0x000000000000d8cc     0x156e ./Peripheral/src/ch32v30x_rcc.o
 .debug_info    0x000000000000ee3a     0x2a16 ./Peripheral/src/ch32v30x_tim.o
 .debug_info    0x0000000000011850     0x13b1 ./Peripheral/src/ch32v30x_usart.o
 .debug_info    0x0000000000012c01     0x42bb ./General_Files/eMPL/inv_mpu.o
 .debug_info    0x0000000000016ebc     0x1b5b ./General_Files/eMPL/inv_mpu_dmp_motion_driver.o
 .debug_info    0x0000000000018a17     0x13dd ./General_Files/drivers/BMP280.o
 .debug_info    0x0000000000019df4     0x1921 ./General_Files/drivers/MPU6050.o
 .debug_info    0x000000000001b715      0xfb7 ./General_Files/drivers/MyI2C.o
 .debug_info    0x000000000001c6cc     0x12e7 ./General_Files/drivers/adc.o
 .debug_info    0x000000000001d9b3      0xdf1 ./General_Files/drivers/bsp_filter.o
 .debug_info    0x000000000001e7a4      0xb5b ./General_Files/drivers/gpio.o
 .debug_info    0x000000000001f2ff     0x16b3 ./General_Files/drivers/pwm.o
 .debug_info    0x00000000000209b2     0x156c ./General_Files/drivers/tim.o
 .debug_info    0x0000000000021f1e     0x1525 ./General_Files/drivers/uart.o
 .debug_info    0x0000000000023443      0x15e ./General_Files/apps/src/CRC.o
 .debug_info    0x00000000000235a1      0xf0e ./General_Files/apps/src/CRSF.o
 .debug_info    0x00000000000244af      0x275 ./General_Files/apps/src/pid.o
 .debug_info    0x0000000000024724      0xef0 ./General_Files/system.o
 .debug_info    0x0000000000025614      0xe5c ./FreeRTOS/portable/MemMang/heap_4.o
 .debug_info    0x0000000000026470     0x1169 ./FreeRTOS/portable/GCC/RISC-V/port.o
 .debug_info    0x00000000000275d9       0x26 ./FreeRTOS/portable/GCC/RISC-V/portASM.o
 .debug_info    0x00000000000275ff      0xb80 ./FreeRTOS/list.o
 .debug_info    0x000000000002817f     0x30e5 ./FreeRTOS/queue.o
 .debug_info    0x000000000002b264     0x3cf5 ./FreeRTOS/tasks.o
 .debug_info    0x000000000002ef59     0x2173 ./FreeRTOS/timers.o
 .debug_info    0x00000000000310cc      0xf2e ./Debug/debug.o

.debug_abbrev   0x0000000000000000     0x78ee
 .debug_abbrev  0x0000000000000000      0x2c7 ./User/RTOS_apps/IMU_handle.o
 .debug_abbrev  0x00000000000002c7      0x2c5 ./User/RTOS_apps/Print_status.o
 .debug_abbrev  0x000000000000058c      0x3db ./User/RTOS_apps/control_handle.o
 .debug_abbrev  0x0000000000000967      0x2c0 ./User/RTOS_apps/soft_stast.o
 .debug_abbrev  0x0000000000000c27      0x291 ./User/RTOS_tasks.o
 .debug_abbrev  0x0000000000000eb8      0x1cf ./User/ch32v30x_it.o
 .debug_abbrev  0x0000000000001087      0x29a ./User/main.o
 .debug_abbrev  0x0000000000001321      0x2c0 ./User/system_ch32v30x.o
 .debug_abbrev  0x00000000000015e1       0x12 ./Startup/startup_ch32v30x_D8C.o
 .debug_abbrev  0x00000000000015f3      0x3a9 ./Peripheral/src/ch32v30x_adc.o
 .debug_abbrev  0x000000000000199c      0x2f7 ./Peripheral/src/ch32v30x_dbgmcu.o
 .debug_abbrev  0x0000000000001c93      0x2fd ./Peripheral/src/ch32v30x_dma.o
 .debug_abbrev  0x0000000000001f90      0x31a ./Peripheral/src/ch32v30x_gpio.o
 .debug_abbrev  0x00000000000022aa      0x3a7 ./Peripheral/src/ch32v30x_i2c.o
 .debug_abbrev  0x0000000000002651      0x2e3 ./Peripheral/src/ch32v30x_misc.o
 .debug_abbrev  0x0000000000002934      0x351 ./Peripheral/src/ch32v30x_rcc.o
 .debug_abbrev  0x0000000000002c85      0x408 ./Peripheral/src/ch32v30x_tim.o
 .debug_abbrev  0x000000000000308d      0x312 ./Peripheral/src/ch32v30x_usart.o
 .debug_abbrev  0x000000000000339f      0x4dd ./General_Files/eMPL/inv_mpu.o
 .debug_abbrev  0x000000000000387c      0x3cb ./General_Files/eMPL/inv_mpu_dmp_motion_driver.o
 .debug_abbrev  0x0000000000003c47      0x36d ./General_Files/drivers/BMP280.o
 .debug_abbrev  0x0000000000003fb4      0x3f5 ./General_Files/drivers/MPU6050.o
 .debug_abbrev  0x00000000000043a9      0x2bc ./General_Files/drivers/MyI2C.o
 .debug_abbrev  0x0000000000004665      0x332 ./General_Files/drivers/adc.o
 .debug_abbrev  0x0000000000004997      0x24f ./General_Files/drivers/bsp_filter.o
 .debug_abbrev  0x0000000000004be6      0x25e ./General_Files/drivers/gpio.o
 .debug_abbrev  0x0000000000004e44      0x2c0 ./General_Files/drivers/pwm.o
 .debug_abbrev  0x0000000000005104      0x2c0 ./General_Files/drivers/tim.o
 .debug_abbrev  0x00000000000053c4      0x2c9 ./General_Files/drivers/uart.o
 .debug_abbrev  0x000000000000568d      0x104 ./General_Files/apps/src/CRC.o
 .debug_abbrev  0x0000000000005791      0x389 ./General_Files/apps/src/CRSF.o
 .debug_abbrev  0x0000000000005b1a      0x122 ./General_Files/apps/src/pid.o
 .debug_abbrev  0x0000000000005c3c      0x25c ./General_Files/system.o
 .debug_abbrev  0x0000000000005e98      0x36c ./FreeRTOS/portable/MemMang/heap_4.o
 .debug_abbrev  0x0000000000006204      0x3ad ./FreeRTOS/portable/GCC/RISC-V/port.o
 .debug_abbrev  0x00000000000065b1       0x14 ./FreeRTOS/portable/GCC/RISC-V/portASM.o
 .debug_abbrev  0x00000000000065c5      0x254 ./FreeRTOS/list.o
 .debug_abbrev  0x0000000000006819      0x461 ./FreeRTOS/queue.o
 .debug_abbrev  0x0000000000006c7a      0x545 ./FreeRTOS/tasks.o
 .debug_abbrev  0x00000000000071bf      0x43a ./FreeRTOS/timers.o
 .debug_abbrev  0x00000000000075f9      0x2f5 ./Debug/debug.o

.debug_loc      0x0000000000000000     0xef7d
 .debug_loc     0x0000000000000000       0x21 ./User/RTOS_apps/IMU_handle.o
 .debug_loc     0x0000000000000021       0x21 ./User/RTOS_apps/Print_status.o
 .debug_loc     0x0000000000000042      0x180 ./User/RTOS_apps/control_handle.o
 .debug_loc     0x00000000000001c2       0x63 ./User/RTOS_apps/soft_stast.o
 .debug_loc     0x0000000000000225       0x21 ./User/RTOS_tasks.o
 .debug_loc     0x0000000000000246      0x163 ./User/system_ch32v30x.o
 .debug_loc     0x00000000000003a9      0xab6 ./Peripheral/src/ch32v30x_adc.o
 .debug_loc     0x0000000000000e5f       0x6e ./Peripheral/src/ch32v30x_dbgmcu.o
 .debug_loc     0x0000000000000ecd      0x19a ./Peripheral/src/ch32v30x_dma.o
 .debug_loc     0x0000000000001067      0x6d6 ./Peripheral/src/ch32v30x_gpio.o
 .debug_loc     0x000000000000173d      0x6cc ./Peripheral/src/ch32v30x_i2c.o
 .debug_loc     0x0000000000001e09       0x47 ./Peripheral/src/ch32v30x_misc.o
 .debug_loc     0x0000000000001e50      0xadb ./Peripheral/src/ch32v30x_rcc.o
 .debug_loc     0x000000000000292b     0x195e ./Peripheral/src/ch32v30x_tim.o
 .debug_loc     0x0000000000004289      0x779 ./Peripheral/src/ch32v30x_usart.o
 .debug_loc     0x0000000000004a02     0x3a33 ./General_Files/eMPL/inv_mpu.o
 .debug_loc     0x0000000000008435      0x9b9 ./General_Files/eMPL/inv_mpu_dmp_motion_driver.o
 .debug_loc     0x0000000000008dee      0x4f0 ./General_Files/drivers/BMP280.o
 .debug_loc     0x00000000000092de      0x204 ./General_Files/drivers/MPU6050.o
 .debug_loc     0x00000000000094e2       0xec ./General_Files/drivers/MyI2C.o
 .debug_loc     0x00000000000095ce       0xbd ./General_Files/drivers/adc.o
 .debug_loc     0x000000000000968b       0xbd ./General_Files/drivers/bsp_filter.o
 .debug_loc     0x0000000000009748      0x1d1 ./General_Files/drivers/pwm.o
 .debug_loc     0x0000000000009919       0x84 ./General_Files/drivers/tim.o
 .debug_loc     0x000000000000999d       0x1e ./General_Files/drivers/uart.o
 .debug_loc     0x00000000000099bb       0xd8 ./General_Files/apps/src/CRC.o
 .debug_loc     0x0000000000009a93      0x131 ./General_Files/apps/src/CRSF.o
 .debug_loc     0x0000000000009bc4       0x6f ./General_Files/apps/src/pid.o
 .debug_loc     0x0000000000009c33      0x330 ./FreeRTOS/portable/MemMang/heap_4.o
 .debug_loc     0x0000000000009f63       0xad ./FreeRTOS/portable/GCC/RISC-V/port.o
 .debug_loc     0x000000000000a010       0x94 ./FreeRTOS/list.o
 .debug_loc     0x000000000000a0a4     0x1b0a ./FreeRTOS/queue.o
 .debug_loc     0x000000000000bbae     0x23fb ./FreeRTOS/tasks.o
 .debug_loc     0x000000000000dfa9      0xe5d ./FreeRTOS/timers.o
 .debug_loc     0x000000000000ee06      0x177 ./Debug/debug.o

.debug_aranges  0x0000000000000000     0x15e0
 .debug_aranges
                0x0000000000000000       0x30 ./User/RTOS_apps/IMU_handle.o
 .debug_aranges
                0x0000000000000030       0x30 ./User/RTOS_apps/Print_status.o
 .debug_aranges
                0x0000000000000060       0xa0 ./User/RTOS_apps/control_handle.o
 .debug_aranges
                0x0000000000000100       0x20 ./User/RTOS_apps/soft_stast.o
 .debug_aranges
                0x0000000000000120       0x28 ./User/RTOS_tasks.o
 .debug_aranges
                0x0000000000000148       0x28 ./User/ch32v30x_it.o
 .debug_aranges
                0x0000000000000170       0x28 ./User/main.o
 .debug_aranges
                0x0000000000000198       0x28 ./User/system_ch32v30x.o
 .debug_aranges
                0x00000000000001c0       0x30 ./Startup/startup_ch32v30x_D8C.o
 .debug_aranges
                0x00000000000001f0      0x150 ./Peripheral/src/ch32v30x_adc.o
 .debug_aranges
                0x0000000000000340       0x48 ./Peripheral/src/ch32v30x_dbgmcu.o
 .debug_aranges
                0x0000000000000388       0x60 ./Peripheral/src/ch32v30x_dma.o
 .debug_aranges
                0x00000000000003e8       0xb0 ./Peripheral/src/ch32v30x_gpio.o
 .debug_aranges
                0x0000000000000498      0x110 ./Peripheral/src/ch32v30x_i2c.o
 .debug_aranges
                0x00000000000005a8       0x28 ./Peripheral/src/ch32v30x_misc.o
 .debug_aranges
                0x00000000000005d0      0x1a8 ./Peripheral/src/ch32v30x_rcc.o
 .debug_aranges
                0x0000000000000778      0x2d0 ./Peripheral/src/ch32v30x_tim.o
 .debug_aranges
                0x0000000000000a48       0xf0 ./Peripheral/src/ch32v30x_usart.o
 .debug_aranges
                0x0000000000000b38      0x1b0 ./General_Files/eMPL/inv_mpu.o
 .debug_aranges
                0x0000000000000ce8       0xf8 ./General_Files/eMPL/inv_mpu_dmp_motion_driver.o
 .debug_aranges
                0x0000000000000de0       0x70 ./General_Files/drivers/BMP280.o
 .debug_aranges
                0x0000000000000e50       0x50 ./General_Files/drivers/MPU6050.o
 .debug_aranges
                0x0000000000000ea0       0x68 ./General_Files/drivers/MyI2C.o
 .debug_aranges
                0x0000000000000f08       0x48 ./General_Files/drivers/adc.o
 .debug_aranges
                0x0000000000000f50       0x28 ./General_Files/drivers/bsp_filter.o
 .debug_aranges
                0x0000000000000f78       0x20 ./General_Files/drivers/gpio.o
 .debug_aranges
                0x0000000000000f98       0x38 ./General_Files/drivers/pwm.o
 .debug_aranges
                0x0000000000000fd0       0x48 ./General_Files/drivers/tim.o
 .debug_aranges
                0x0000000000001018       0x30 ./General_Files/drivers/uart.o
 .debug_aranges
                0x0000000000001048       0x28 ./General_Files/apps/src/CRC.o
 .debug_aranges
                0x0000000000001070       0x48 ./General_Files/apps/src/CRSF.o
 .debug_aranges
                0x00000000000010b8       0x38 ./General_Files/apps/src/pid.o
 .debug_aranges
                0x00000000000010f0       0x28 ./General_Files/system.o
 .debug_aranges
                0x0000000000001118       0x50 ./FreeRTOS/portable/MemMang/heap_4.o
 .debug_aranges
                0x0000000000001168       0x58 ./FreeRTOS/portable/GCC/RISC-V/port.o
 .debug_aranges
                0x00000000000011c0       0x20 ./FreeRTOS/portable/GCC/RISC-V/portASM.o
 .debug_aranges
                0x00000000000011e0       0x40 ./FreeRTOS/list.o
 .debug_aranges
                0x0000000000001220      0x108 ./FreeRTOS/queue.o
 .debug_aranges
                0x0000000000001328      0x1b0 ./FreeRTOS/tasks.o
 .debug_aranges
                0x00000000000014d8       0xb8 ./FreeRTOS/timers.o
 .debug_aranges
                0x0000000000001590       0x50 ./Debug/debug.o

.debug_ranges   0x0000000000000000     0x2120
 .debug_ranges  0x0000000000000000       0x20 ./User/RTOS_apps/IMU_handle.o
 .debug_ranges  0x0000000000000020       0x20 ./User/RTOS_apps/Print_status.o
 .debug_ranges  0x0000000000000040       0xa8 ./User/RTOS_apps/control_handle.o
 .debug_ranges  0x00000000000000e8       0x38 ./User/RTOS_apps/soft_stast.o
 .debug_ranges  0x0000000000000120       0x18 ./User/RTOS_tasks.o
 .debug_ranges  0x0000000000000138       0x18 ./User/ch32v30x_it.o
 .debug_ranges  0x0000000000000150       0x18 ./User/main.o
 .debug_ranges  0x0000000000000168       0x38 ./User/system_ch32v30x.o
 .debug_ranges  0x00000000000001a0       0x28 ./Startup/startup_ch32v30x_D8C.o
 .debug_ranges  0x00000000000001c8      0x140 ./Peripheral/src/ch32v30x_adc.o
 .debug_ranges  0x0000000000000308       0x50 ./Peripheral/src/ch32v30x_dbgmcu.o
 .debug_ranges  0x0000000000000358       0x50 ./Peripheral/src/ch32v30x_dma.o
 .debug_ranges  0x00000000000003a8       0xa0 ./Peripheral/src/ch32v30x_gpio.o
 .debug_ranges  0x0000000000000448      0x100 ./Peripheral/src/ch32v30x_i2c.o
 .debug_ranges  0x0000000000000548       0x48 ./Peripheral/src/ch32v30x_misc.o
 .debug_ranges  0x0000000000000590      0x198 ./Peripheral/src/ch32v30x_rcc.o
 .debug_ranges  0x0000000000000728      0x2f0 ./Peripheral/src/ch32v30x_tim.o
 .debug_ranges  0x0000000000000a18       0xe0 ./Peripheral/src/ch32v30x_usart.o
 .debug_ranges  0x0000000000000af8      0x8b0 ./General_Files/eMPL/inv_mpu.o
 .debug_ranges  0x00000000000013a8      0x118 ./General_Files/eMPL/inv_mpu_dmp_motion_driver.o
 .debug_ranges  0x00000000000014c0       0x60 ./General_Files/drivers/BMP280.o
 .debug_ranges  0x0000000000001520       0x70 ./General_Files/drivers/MPU6050.o
 .debug_ranges  0x0000000000001590       0x58 ./General_Files/drivers/MyI2C.o
 .debug_ranges  0x00000000000015e8       0x38 ./General_Files/drivers/adc.o
 .debug_ranges  0x0000000000001620       0x18 ./General_Files/drivers/bsp_filter.o
 .debug_ranges  0x0000000000001638       0x10 ./General_Files/drivers/gpio.o
 .debug_ranges  0x0000000000001648       0x28 ./General_Files/drivers/pwm.o
 .debug_ranges  0x0000000000001670       0x38 ./General_Files/drivers/tim.o
 .debug_ranges  0x00000000000016a8       0x20 ./General_Files/drivers/uart.o
 .debug_ranges  0x00000000000016c8       0x50 ./General_Files/apps/src/CRC.o
 .debug_ranges  0x0000000000001718       0x90 ./General_Files/apps/src/CRSF.o
 .debug_ranges  0x00000000000017a8       0x28 ./General_Files/apps/src/pid.o
 .debug_ranges  0x00000000000017d0       0x18 ./General_Files/system.o
 .debug_ranges  0x00000000000017e8       0x40 ./FreeRTOS/portable/MemMang/heap_4.o
 .debug_ranges  0x0000000000001828       0x60 ./FreeRTOS/portable/GCC/RISC-V/port.o
 .debug_ranges  0x0000000000001888       0x30 ./FreeRTOS/list.o
 .debug_ranges  0x00000000000018b8      0x2c8 ./FreeRTOS/queue.o
 .debug_ranges  0x0000000000001b80      0x410 ./FreeRTOS/tasks.o
 .debug_ranges  0x0000000000001f90      0x150 ./FreeRTOS/timers.o
 .debug_ranges  0x00000000000020e0       0x40 ./Debug/debug.o

.debug_line     0x0000000000000000    0x266a8
 .debug_line    0x0000000000000000      0x569 ./User/RTOS_apps/IMU_handle.o
 .debug_line    0x0000000000000569      0x670 ./User/RTOS_apps/Print_status.o
 .debug_line    0x0000000000000bd9     0x1202 ./User/RTOS_apps/control_handle.o
 .debug_line    0x0000000000001ddb      0x554 ./User/RTOS_apps/soft_stast.o
 .debug_line    0x000000000000232f      0x471 ./User/RTOS_tasks.o
 .debug_line    0x00000000000027a0      0x22f ./User/ch32v30x_it.o
 .debug_line    0x00000000000029cf      0x538 ./User/main.o
 .debug_line    0x0000000000002f07      0x8d2 ./User/system_ch32v30x.o
 .debug_line    0x00000000000037d9      0x122 ./Startup/startup_ch32v30x_D8C.o
 .debug_line    0x00000000000038fb     0x1873 ./Peripheral/src/ch32v30x_adc.o
 .debug_line    0x000000000000516e      0x394 ./Peripheral/src/ch32v30x_dbgmcu.o
 .debug_line    0x0000000000005502      0x9d7 ./Peripheral/src/ch32v30x_dma.o
 .debug_line    0x0000000000005ed9     0x1024 ./Peripheral/src/ch32v30x_gpio.o
 .debug_line    0x0000000000006efd     0x113f ./Peripheral/src/ch32v30x_i2c.o
 .debug_line    0x000000000000803c      0x3d4 ./Peripheral/src/ch32v30x_misc.o
 .debug_line    0x0000000000008410     0x198f ./Peripheral/src/ch32v30x_rcc.o
 .debug_line    0x0000000000009d9f     0x32fc ./Peripheral/src/ch32v30x_tim.o
 .debug_line    0x000000000000d09b      0xefc ./Peripheral/src/ch32v30x_usart.o
 .debug_line    0x000000000000df97     0x4f3a ./General_Files/eMPL/inv_mpu.o
 .debug_line    0x0000000000012ed1     0x2238 ./General_Files/eMPL/inv_mpu_dmp_motion_driver.o
 .debug_line    0x0000000000015109      0xec9 ./General_Files/drivers/BMP280.o
 .debug_line    0x0000000000015fd2      0xd16 ./General_Files/drivers/MPU6050.o
 .debug_line    0x0000000000016ce8      0x631 ./General_Files/drivers/MyI2C.o
 .debug_line    0x0000000000017319      0x7cd ./General_Files/drivers/adc.o
 .debug_line    0x0000000000017ae6      0x4ea ./General_Files/drivers/bsp_filter.o
 .debug_line    0x0000000000017fd0      0x345 ./General_Files/drivers/gpio.o
 .debug_line    0x0000000000018315      0x78d ./General_Files/drivers/pwm.o
 .debug_line    0x0000000000018aa2      0x698 ./General_Files/drivers/tim.o
 .debug_line    0x000000000001913a      0x6d0 ./General_Files/drivers/uart.o
 .debug_line    0x000000000001980a      0x257 ./General_Files/apps/src/CRC.o
 .debug_line    0x0000000000019a61      0x6c2 ./General_Files/apps/src/CRSF.o
 .debug_line    0x000000000001a123      0x4dd ./General_Files/apps/src/pid.o
 .debug_line    0x000000000001a600      0x3fe ./General_Files/system.o
 .debug_line    0x000000000001a9fe      0xc62 ./FreeRTOS/portable/MemMang/heap_4.o
 .debug_line    0x000000000001b660      0x773 ./FreeRTOS/portable/GCC/RISC-V/port.o
 .debug_line    0x000000000001bdd3      0x374 ./FreeRTOS/portable/GCC/RISC-V/portASM.o
 .debug_line    0x000000000001c147      0x67d ./FreeRTOS/list.o
 .debug_line    0x000000000001c7c4     0x318e ./FreeRTOS/queue.o
 .debug_line    0x000000000001f952     0x502a ./FreeRTOS/tasks.o
 .debug_line    0x000000000002497c     0x15e7 ./FreeRTOS/timers.o
 .debug_line    0x0000000000025f63      0x745 ./Debug/debug.o

.debug_str      0x0000000000000000     0x7300
 .debug_str     0x0000000000000000      0x7ba ./User/RTOS_apps/IMU_handle.o
                                        0x8b2 (size before relaxing)
 .debug_str     0x00000000000007ba      0x21d ./User/RTOS_apps/Print_status.o
                                        0xa2e (size before relaxing)
 .debug_str     0x00000000000009d7      0x196 ./User/RTOS_apps/control_handle.o
                                        0x9b3 (size before relaxing)
 .debug_str     0x0000000000000b6d       0x68 ./User/RTOS_apps/soft_stast.o
                                        0x894 (size before relaxing)
 .debug_str     0x0000000000000bd5       0xe6 ./User/RTOS_tasks.o
                                        0x8e6 (size before relaxing)
 .debug_str     0x0000000000000cbb       0x34 ./User/ch32v30x_it.o
                                        0x5b6 (size before relaxing)
 .debug_str     0x0000000000000cef      0x217 ./User/main.o
                                        0x7d2 (size before relaxing)
 .debug_str     0x0000000000000f06       0xfe ./User/system_ch32v30x.o
                                        0x6d5 (size before relaxing)
 .debug_str     0x0000000000001004       0x2e ./Startup/startup_ch32v30x_D8C.o
                                         0x6a (size before relaxing)
 .debug_str     0x0000000000001032      0x617 ./Peripheral/src/ch32v30x_adc.o
                                        0xc39 (size before relaxing)
 .debug_str     0x0000000000001649       0xa0 ./Peripheral/src/ch32v30x_dbgmcu.o
                                        0x668 (size before relaxing)
 .debug_str     0x00000000000016e9      0x221 ./Peripheral/src/ch32v30x_dma.o
                                        0x815 (size before relaxing)
 .debug_str     0x000000000000190a      0x268 ./Peripheral/src/ch32v30x_gpio.o
                                        0x9d2 (size before relaxing)
 .debug_str     0x0000000000001b72      0x464 ./Peripheral/src/ch32v30x_i2c.o
                                        0xb02 (size before relaxing)
 .debug_str     0x0000000000001fd6      0x6b5 ./Peripheral/src/ch32v30x_misc.o
                                        0xcdb (size before relaxing)
 .debug_str     0x000000000000268b      0x544 ./Peripheral/src/ch32v30x_rcc.o
                                        0xcec (size before relaxing)
 .debug_str     0x0000000000002bcf      0xa8a ./Peripheral/src/ch32v30x_tim.o
                                       0x129d (size before relaxing)
 .debug_str     0x0000000000003659      0x3fe ./Peripheral/src/ch32v30x_usart.o
                                        0xb0c (size before relaxing)
 .debug_str     0x0000000000003a57      0xaad ./General_Files/eMPL/inv_mpu.o
                                       0x1172 (size before relaxing)
 .debug_str     0x0000000000004504      0x371 ./General_Files/eMPL/inv_mpu_dmp_motion_driver.o
                                        0xaaf (size before relaxing)
 .debug_str     0x0000000000004875      0x485 ./General_Files/drivers/BMP280.o
                                        0xa99 (size before relaxing)
 .debug_str     0x0000000000004cfa       0xb2 ./General_Files/drivers/MPU6050.o
                                        0xc3d (size before relaxing)
 .debug_str     0x0000000000004dac       0x6c ./General_Files/drivers/MyI2C.o
                                        0x851 (size before relaxing)
 .debug_str     0x0000000000004e18       0xcf ./General_Files/drivers/adc.o
                                        0xb79 (size before relaxing)
 .debug_str     0x0000000000004ee7       0x2f ./General_Files/drivers/bsp_filter.o
                                        0x83e (size before relaxing)
 .debug_str     0x0000000000004f16       0x29 ./General_Files/drivers/gpio.o
                                        0x756 (size before relaxing)
 .debug_str     0x0000000000004f3f       0x74 ./General_Files/drivers/pwm.o
                                        0xd62 (size before relaxing)
 .debug_str     0x0000000000004fb3       0x8e ./General_Files/drivers/tim.o
                                       0x1062 (size before relaxing)
 .debug_str     0x0000000000005041       0x78 ./General_Files/drivers/uart.o
                                       0x1118 (size before relaxing)
 .debug_str     0x00000000000050b9       0x2f ./General_Files/apps/src/CRC.o
                                        0x1c9 (size before relaxing)
 .debug_str     0x00000000000050e8      0x4ca ./General_Files/apps/src/CRSF.o
                                        0xadd (size before relaxing)
 .debug_str     0x00000000000055b2       0x44 ./General_Files/apps/src/pid.o
                                        0x1c8 (size before relaxing)
 .debug_str     0x00000000000055f6       0x26 ./General_Files/system.o
                                        0x87d (size before relaxing)
 .debug_str     0x000000000000561c      0x2fd ./FreeRTOS/portable/MemMang/heap_4.o
                                        0x8d4 (size before relaxing)
 .debug_str     0x0000000000005919      0x147 ./FreeRTOS/portable/GCC/RISC-V/port.o
                                        0xd52 (size before relaxing)
 .debug_str     0x0000000000005a60       0x2a ./FreeRTOS/portable/GCC/RISC-V/portASM.o
                                         0x72 (size before relaxing)
 .debug_str     0x0000000000005a8a      0x125 ./FreeRTOS/list.o
                                        0x6de (size before relaxing)
 .debug_str     0x0000000000005baf      0x78c ./FreeRTOS/queue.o
                                       0x1523 (size before relaxing)
 .debug_str     0x000000000000633b      0xa69 ./FreeRTOS/tasks.o
                                       0x1a65 (size before relaxing)
 .debug_str     0x0000000000006da4      0x4de ./FreeRTOS/timers.o
                                       0x1362 (size before relaxing)
 .debug_str     0x0000000000007282       0x7e ./Debug/debug.o
                                        0x933 (size before relaxing)

.comment        0x0000000000000000       0x33
 .comment       0x0000000000000000       0x33 ./User/RTOS_apps/IMU_handle.o
                                         0x34 (size before relaxing)
 .comment       0x0000000000000033       0x34 ./User/RTOS_apps/Print_status.o
 .comment       0x0000000000000033       0x34 ./User/RTOS_apps/control_handle.o
 .comment       0x0000000000000033       0x34 ./User/RTOS_apps/soft_stast.o
 .comment       0x0000000000000033       0x34 ./User/RTOS_tasks.o
 .comment       0x0000000000000033       0x34 ./User/ch32v30x_it.o
 .comment       0x0000000000000033       0x34 ./User/main.o
 .comment       0x0000000000000033       0x34 ./User/system_ch32v30x.o
 .comment       0x0000000000000033       0x34 ./Peripheral/src/ch32v30x_adc.o
 .comment       0x0000000000000033       0x34 ./Peripheral/src/ch32v30x_dbgmcu.o
 .comment       0x0000000000000033       0x34 ./Peripheral/src/ch32v30x_dma.o
 .comment       0x0000000000000033       0x34 ./Peripheral/src/ch32v30x_gpio.o
 .comment       0x0000000000000033       0x34 ./Peripheral/src/ch32v30x_i2c.o
 .comment       0x0000000000000033       0x34 ./Peripheral/src/ch32v30x_misc.o
 .comment       0x0000000000000033       0x34 ./Peripheral/src/ch32v30x_rcc.o
 .comment       0x0000000000000033       0x34 ./Peripheral/src/ch32v30x_tim.o
 .comment       0x0000000000000033       0x34 ./Peripheral/src/ch32v30x_usart.o
 .comment       0x0000000000000033       0x34 ./General_Files/eMPL/inv_mpu.o
 .comment       0x0000000000000033       0x34 ./General_Files/eMPL/inv_mpu_dmp_motion_driver.o
 .comment       0x0000000000000033       0x34 ./General_Files/drivers/BMP280.o
 .comment       0x0000000000000033       0x34 ./General_Files/drivers/MPU6050.o
 .comment       0x0000000000000033       0x34 ./General_Files/drivers/MyI2C.o
 .comment       0x0000000000000033       0x34 ./General_Files/drivers/adc.o
 .comment       0x0000000000000033       0x34 ./General_Files/drivers/bsp_filter.o
 .comment       0x0000000000000033       0x34 ./General_Files/drivers/gpio.o
 .comment       0x0000000000000033       0x34 ./General_Files/drivers/pwm.o
 .comment       0x0000000000000033       0x34 ./General_Files/drivers/tim.o
 .comment       0x0000000000000033       0x34 ./General_Files/drivers/uart.o
 .comment       0x0000000000000033       0x34 ./General_Files/apps/src/CRC.o
 .comment       0x0000000000000033       0x34 ./General_Files/apps/src/CRSF.o
 .comment       0x0000000000000033       0x34 ./General_Files/apps/src/pid.o
 .comment       0x0000000000000033       0x34 ./General_Files/system.o
 .comment       0x0000000000000033       0x34 ./FreeRTOS/portable/MemMang/heap_4.o
 .comment       0x0000000000000033       0x34 ./FreeRTOS/portable/GCC/RISC-V/port.o
 .comment       0x0000000000000033       0x34 ./FreeRTOS/list.o
 .comment       0x0000000000000033       0x34 ./FreeRTOS/queue.o
 .comment       0x0000000000000033       0x34 ./FreeRTOS/tasks.o
 .comment       0x0000000000000033       0x34 ./FreeRTOS/timers.o
 .comment       0x0000000000000033       0x34 ./Debug/debug.o
 .comment       0x0000000000000033       0x34 c:/mounriver/mounriver_studio/toolchain/risc-v embedded gcc/bin/../lib/gcc/riscv-none-embed/8.2.0/../../../../riscv-none-embed/lib/rv32imacxw/ilp32\libprintfloat.a(printfloat.o)

.debug_frame    0x0000000000000000     0x4208
 .debug_frame   0x0000000000000000       0x6c ./User/RTOS_apps/IMU_handle.o
 .debug_frame   0x000000000000006c       0x78 ./User/RTOS_apps/Print_status.o
 .debug_frame   0x00000000000000e4      0x22c ./User/RTOS_apps/control_handle.o
 .debug_frame   0x0000000000000310       0x3c ./User/RTOS_apps/soft_stast.o
 .debug_frame   0x000000000000034c       0x44 ./User/RTOS_tasks.o
 .debug_frame   0x0000000000000390       0x30 ./User/ch32v30x_it.o
 .debug_frame   0x00000000000003c0       0x48 ./User/main.o
 .debug_frame   0x0000000000000408       0x3c ./User/system_ch32v30x.o
 .debug_frame   0x0000000000000444      0x2b4 ./Peripheral/src/ch32v30x_adc.o
 .debug_frame   0x00000000000006f8       0x70 ./Peripheral/src/ch32v30x_dbgmcu.o
 .debug_frame   0x0000000000000768       0xd8 ./Peripheral/src/ch32v30x_dma.o
 .debug_frame   0x0000000000000840      0x174 ./Peripheral/src/ch32v30x_gpio.o
 .debug_frame   0x00000000000009b4      0x264 ./Peripheral/src/ch32v30x_i2c.o
 .debug_frame   0x0000000000000c18       0x30 ./Peripheral/src/ch32v30x_misc.o
 .debug_frame   0x0000000000000c48      0x344 ./Peripheral/src/ch32v30x_rcc.o
 .debug_frame   0x0000000000000f8c      0x614 ./Peripheral/src/ch32v30x_tim.o
 .debug_frame   0x00000000000015a0      0x1e4 ./Peripheral/src/ch32v30x_usart.o
 .debug_frame   0x0000000000001784      0x6f4 ./General_Files/eMPL/inv_mpu.o
 .debug_frame   0x0000000000001e78      0x3d0 ./General_Files/eMPL/inv_mpu_dmp_motion_driver.o
 .debug_frame   0x0000000000002248      0x1ac ./General_Files/drivers/BMP280.o
 .debug_frame   0x00000000000023f4      0x124 ./General_Files/drivers/MPU6050.o
 .debug_frame   0x0000000000002518      0x148 ./General_Files/drivers/MyI2C.o
 .debug_frame   0x0000000000002660       0xc4 ./General_Files/drivers/adc.o
 .debug_frame   0x0000000000002724       0x50 ./General_Files/drivers/bsp_filter.o
 .debug_frame   0x0000000000002774       0x34 ./General_Files/drivers/gpio.o
 .debug_frame   0x00000000000027a8       0x98 ./General_Files/drivers/pwm.o
 .debug_frame   0x0000000000002840       0xc0 ./General_Files/drivers/tim.o
 .debug_frame   0x0000000000002900       0x70 ./General_Files/drivers/uart.o
 .debug_frame   0x0000000000002970       0x30 ./General_Files/apps/src/CRC.o
 .debug_frame   0x00000000000029a0       0xb0 ./General_Files/apps/src/CRSF.o
 .debug_frame   0x0000000000002a50       0x70 ./General_Files/apps/src/pid.o
 .debug_frame   0x0000000000002ac0       0x3c ./General_Files/system.o
 .debug_frame   0x0000000000002afc       0xc8 ./FreeRTOS/portable/MemMang/heap_4.o
 .debug_frame   0x0000000000002bc4       0xac ./FreeRTOS/portable/GCC/RISC-V/port.o
 .debug_frame   0x0000000000002c70       0x60 ./FreeRTOS/list.o
 .debug_frame   0x0000000000002cd0      0x48c ./FreeRTOS/queue.o
 .debug_frame   0x000000000000315c      0x678 ./FreeRTOS/tasks.o
 .debug_frame   0x00000000000037d4      0x2a8 ./FreeRTOS/timers.o
 .debug_frame   0x0000000000003a7c       0xb8 ./Debug/debug.o
 .debug_frame   0x0000000000003b34       0x4c c:/mounriver/mounriver_studio/toolchain/risc-v embedded gcc/bin/../lib/gcc/riscv-none-embed/8.2.0/../../../../riscv-none-embed/lib/rv32imacxw/ilp32\libm.a(lib_a-wf_asin.o)
 .debug_frame   0x0000000000003b80       0x20 c:/mounriver/mounriver_studio/toolchain/risc-v embedded gcc/bin/../lib/gcc/riscv-none-embed/8.2.0/../../../../riscv-none-embed/lib/rv32imacxw/ilp32\libm.a(lib_a-wf_atan2.o)
 .debug_frame   0x0000000000003ba0       0x50 c:/mounriver/mounriver_studio/toolchain/risc-v embedded gcc/bin/../lib/gcc/riscv-none-embed/8.2.0/../../../../riscv-none-embed/lib/rv32imacxw/ilp32\libm.a(lib_a-ef_asin.o)
 .debug_frame   0x0000000000003bf0       0x48 c:/mounriver/mounriver_studio/toolchain/risc-v embedded gcc/bin/../lib/gcc/riscv-none-embed/8.2.0/../../../../riscv-none-embed/lib/rv32imacxw/ilp32\libm.a(lib_a-ef_atan2.o)
 .debug_frame   0x0000000000003c38       0x48 c:/mounriver/mounriver_studio/toolchain/risc-v embedded gcc/bin/../lib/gcc/riscv-none-embed/8.2.0/../../../../riscv-none-embed/lib/rv32imacxw/ilp32\libm.a(lib_a-ef_sqrt.o)
 .debug_frame   0x0000000000003c80       0x20 c:/mounriver/mounriver_studio/toolchain/risc-v embedded gcc/bin/../lib/gcc/riscv-none-embed/8.2.0/../../../../riscv-none-embed/lib/rv32imacxw/ilp32\libm.a(lib_a-s_matherr.o)
 .debug_frame   0x0000000000003ca0       0x20 c:/mounriver/mounriver_studio/toolchain/risc-v embedded gcc/bin/../lib/gcc/riscv-none-embed/8.2.0/../../../../riscv-none-embed/lib/rv32imacxw/ilp32\libm.a(lib_a-s_nan.o)
 .debug_frame   0x0000000000003cc0       0x44 c:/mounriver/mounriver_studio/toolchain/risc-v embedded gcc/bin/../lib/gcc/riscv-none-embed/8.2.0/../../../../riscv-none-embed/lib/rv32imacxw/ilp32\libm.a(lib_a-sf_atan.o)
 .debug_frame   0x0000000000003d04       0x20 c:/mounriver/mounriver_studio/toolchain/risc-v embedded gcc/bin/../lib/gcc/riscv-none-embed/8.2.0/../../../../riscv-none-embed/lib/rv32imacxw/ilp32\libm.a(lib_a-sf_fabs.o)
 .debug_frame   0x0000000000003d24       0x44 c:/mounriver/mounriver_studio/toolchain/risc-v embedded gcc/bin/../lib/gcc/riscv-none-embed/8.2.0/rv32imacxw/ilp32\libgcc.a(adddf3.o)
 .debug_frame   0x0000000000003d68       0x20 c:/mounriver/mounriver_studio/toolchain/risc-v embedded gcc/bin/../lib/gcc/riscv-none-embed/8.2.0/rv32imacxw/ilp32\libgcc.a(ledf2.o)
 .debug_frame   0x0000000000003d88       0x54 c:/mounriver/mounriver_studio/toolchain/risc-v embedded gcc/bin/../lib/gcc/riscv-none-embed/8.2.0/rv32imacxw/ilp32\libgcc.a(muldf3.o)
 .debug_frame   0x0000000000003ddc       0x44 c:/mounriver/mounriver_studio/toolchain/risc-v embedded gcc/bin/../lib/gcc/riscv-none-embed/8.2.0/rv32imacxw/ilp32\libgcc.a(subdf3.o)
 .debug_frame   0x0000000000003e20       0x20 c:/mounriver/mounriver_studio/toolchain/risc-v embedded gcc/bin/../lib/gcc/riscv-none-embed/8.2.0/rv32imacxw/ilp32\libgcc.a(fixunsdfsi.o)
 .debug_frame   0x0000000000003e40       0x38 c:/mounriver/mounriver_studio/toolchain/risc-v embedded gcc/bin/../lib/gcc/riscv-none-embed/8.2.0/rv32imacxw/ilp32\libgcc.a(floatsidf.o)
 .debug_frame   0x0000000000003e78       0x20 c:/mounriver/mounriver_studio/toolchain/risc-v embedded gcc/bin/../lib/gcc/riscv-none-embed/8.2.0/rv32imacxw/ilp32\libgcc.a(fixdfdi.o)
 .debug_frame   0x0000000000003e98       0x40 c:/mounriver/mounriver_studio/toolchain/risc-v embedded gcc/bin/../lib/gcc/riscv-none-embed/8.2.0/rv32imacxw/ilp32\libgcc.a(floatdidf.o)
 .debug_frame   0x0000000000003ed8       0x40 c:/mounriver/mounriver_studio/toolchain/risc-v embedded gcc/bin/../lib/gcc/riscv-none-embed/8.2.0/rv32imacxw/ilp32\libgcc.a(addsf3.o)
 .debug_frame   0x0000000000003f18       0x50 c:/mounriver/mounriver_studio/toolchain/risc-v embedded gcc/bin/../lib/gcc/riscv-none-embed/8.2.0/rv32imacxw/ilp32\libgcc.a(divsf3.o)
 .debug_frame   0x0000000000003f68       0x20 c:/mounriver/mounriver_studio/toolchain/risc-v embedded gcc/bin/../lib/gcc/riscv-none-embed/8.2.0/rv32imacxw/ilp32\libgcc.a(eqsf2.o)
 .debug_frame   0x0000000000003f88       0x20 c:/mounriver/mounriver_studio/toolchain/risc-v embedded gcc/bin/../lib/gcc/riscv-none-embed/8.2.0/rv32imacxw/ilp32\libgcc.a(gesf2.o)
 .debug_frame   0x0000000000003fa8       0x20 c:/mounriver/mounriver_studio/toolchain/risc-v embedded gcc/bin/../lib/gcc/riscv-none-embed/8.2.0/rv32imacxw/ilp32\libgcc.a(lesf2.o)
 .debug_frame   0x0000000000003fc8       0x50 c:/mounriver/mounriver_studio/toolchain/risc-v embedded gcc/bin/../lib/gcc/riscv-none-embed/8.2.0/rv32imacxw/ilp32\libgcc.a(mulsf3.o)
 .debug_frame   0x0000000000004018       0x3c c:/mounriver/mounriver_studio/toolchain/risc-v embedded gcc/bin/../lib/gcc/riscv-none-embed/8.2.0/rv32imacxw/ilp32\libgcc.a(subsf3.o)
 .debug_frame   0x0000000000004054       0x20 c:/mounriver/mounriver_studio/toolchain/risc-v embedded gcc/bin/../lib/gcc/riscv-none-embed/8.2.0/rv32imacxw/ilp32\libgcc.a(unordsf2.o)
 .debug_frame   0x0000000000004074       0x20 c:/mounriver/mounriver_studio/toolchain/risc-v embedded gcc/bin/../lib/gcc/riscv-none-embed/8.2.0/rv32imacxw/ilp32\libgcc.a(fixsfsi.o)
 .debug_frame   0x0000000000004094       0x20 c:/mounriver/mounriver_studio/toolchain/risc-v embedded gcc/bin/../lib/gcc/riscv-none-embed/8.2.0/rv32imacxw/ilp32\libgcc.a(fixunssfsi.o)
 .debug_frame   0x00000000000040b4       0x38 c:/mounriver/mounriver_studio/toolchain/risc-v embedded gcc/bin/../lib/gcc/riscv-none-embed/8.2.0/rv32imacxw/ilp32\libgcc.a(floatsisf.o)
 .debug_frame   0x00000000000040ec       0x44 c:/mounriver/mounriver_studio/toolchain/risc-v embedded gcc/bin/../lib/gcc/riscv-none-embed/8.2.0/rv32imacxw/ilp32\libgcc.a(floatunsisf.o)
 .debug_frame   0x0000000000004130       0x38 c:/mounriver/mounriver_studio/toolchain/risc-v embedded gcc/bin/../lib/gcc/riscv-none-embed/8.2.0/rv32imacxw/ilp32\libgcc.a(extendsfdf2.o)
 .debug_frame   0x0000000000004168       0x20 c:/mounriver/mounriver_studio/toolchain/risc-v embedded gcc/bin/../lib/gcc/riscv-none-embed/8.2.0/rv32imacxw/ilp32\libgcc.a(truncdfsf2.o)
 .debug_frame   0x0000000000004188       0x20 c:/mounriver/mounriver_studio/toolchain/risc-v embedded gcc/bin/../lib/gcc/riscv-none-embed/8.2.0/rv32imacxw/ilp32\libgcc.a(_clzsi2.o)
 .debug_frame   0x00000000000041a8       0x20 c:/mounriver/mounriver_studio/toolchain/risc-v embedded gcc/bin/../lib/gcc/riscv-none-embed/8.2.0/../../../../riscv-none-embed/lib/rv32imacxw/ilp32\libg_nano.a(lib_a-errno.o)
 .debug_frame   0x00000000000041c8       0x20 c:/mounriver/mounriver_studio/toolchain/risc-v embedded gcc/bin/../lib/gcc/riscv-none-embed/8.2.0/../../../../riscv-none-embed/lib/rv32imacxw/ilp32\libg_nano.a(lib_a-memcmp.o)
 .debug_frame   0x00000000000041e8       0x20 c:/mounriver/mounriver_studio/toolchain/risc-v embedded gcc/bin/../lib/gcc/riscv-none-embed/8.2.0/../../../../riscv-none-embed/lib/rv32imacxw/ilp32\libg_nano.a(lib_a-memcpy.o)
