
FreeRTOS.elf:     file format elf32-littleriscv
FreeRTOS.elf
architecture: riscv:rv32, flags 0x00000112:
EXEC_P, HAS_SYMS, D_PAGED
start address 0x00000000

Program Header:
    LOAD off    0x00001000 vaddr 0x00000000 paddr 0x00000000 align 2**12
         filesz 0x00007b1c memsz 0x00007b1c flags r-x
    LOAD off    0x00009000 vaddr 0x20000000 paddr 0x00007b1c align 2**12
         filesz 0x00000100 memsz 0x00003790 flags rw-
    LOAD off    0x00009800 vaddr 0x20007800 paddr 0x20007800 align 2**12
         filesz 0x00000000 memsz 0x00000800 flags rw-

Sections:
Idx Name          Size      VMA       LMA       File off  Algn
  0 .init         00000004  00000000  00000000  00001000  2**1
                  CONTENTS, ALLOC, LOAD, READONLY, CODE
  1 .vector       000001bc  00000004  00000004  00001004  2**1
                  CONTENTS, ALLOC, LOAD, READONLY, CODE
  2 .text         0000791c  00000200  00000200  00001200  2**8
                  CONTENTS, ALLOC, LOAD, READONLY, CODE
  3 .fini         00000000  00007b1c  00007b1c  00009100  2**0
                  CONTENTS, ALLOC, LOAD, CODE
  4 .dalign       00000000  20000000  20000000  00009100  2**0
                  CONTENTS
  5 .dlalign      00000000  00007b1c  00007b1c  00009100  2**0
                  CONTENTS
  6 .data         00000100  20000000  00007b1c  00009000  2**2
                  CONTENTS, ALLOC, LOAD, DATA
  7 .bss          00003690  20000100  00007c1c  00009100  2**2
                  ALLOC
  8 .stack        00000800  20007800  20007800  00009800  2**0
                  ALLOC
  9 .debug_info   0002761c  00000000  00000000  00009100  2**0
                  CONTENTS, READONLY, DEBUGGING
 10 .debug_abbrev 00005ba9  00000000  00000000  0003071c  2**0
                  CONTENTS, READONLY, DEBUGGING
 11 .debug_loc    0000db42  00000000  00000000  000362c5  2**0
                  CONTENTS, READONLY, DEBUGGING
 12 .debug_aranges 00001248  00000000  00000000  00043e08  2**3
                  CONTENTS, READONLY, DEBUGGING
 13 .debug_ranges 00001e00  00000000  00000000  00045050  2**3
                  CONTENTS, READONLY, DEBUGGING
 14 .debug_line   00020c36  00000000  00000000  00046e50  2**0
                  CONTENTS, READONLY, DEBUGGING
 15 .debug_str    000063de  00000000  00000000  00067a86  2**0
                  CONTENTS, READONLY, DEBUGGING
 16 .comment      00000033  00000000  00000000  0006de64  2**0
                  CONTENTS, READONLY
 17 .debug_frame  0000414c  00000000  00000000  0006de98  2**2
                  CONTENTS, READONLY, DEBUGGING
 18 .stab         00000084  00000000  00000000  00071fe4  2**2
                  CONTENTS, READONLY, DEBUGGING
 19 .stabstr      00000117  00000000  00000000  00072068  2**0
                  CONTENTS, READONLY, DEBUGGING
SYMBOL TABLE:
00000000 l    d  .init	00000000 .init
00000004 l    d  .vector	00000000 .vector
00000200 l    d  .text	00000000 .text
00007b1c l    d  .fini	00000000 .fini
20000000 l    d  .dalign	00000000 .dalign
00007b1c l    d  .dlalign	00000000 .dlalign
20000000 l    d  .data	00000000 .data
20000100 l    d  .bss	00000000 .bss
20007800 l    d  .stack	00000000 .stack
00000000 l    d  .debug_info	00000000 .debug_info
00000000 l    d  .debug_abbrev	00000000 .debug_abbrev
00000000 l    d  .debug_loc	00000000 .debug_loc
00000000 l    d  .debug_aranges	00000000 .debug_aranges
00000000 l    d  .debug_ranges	00000000 .debug_ranges
00000000 l    d  .debug_line	00000000 .debug_line
00000000 l    d  .debug_str	00000000 .debug_str
00000000 l    d  .comment	00000000 .comment
00000000 l    d  .debug_frame	00000000 .debug_frame
00000000 l    d  .stab	00000000 .stab
00000000 l    d  .stabstr	00000000 .stabstr
00000000 l    df *ABS*	00000000 ./Startup/startup_ch32v30x_D8C.o
00000004 l       .vector	00000000 _vector_base
00000000 l    df *ABS*	00000000 ./FreeRTOS/portable/GCC/RISC-V/portASM.o
00000264 l       .text	00000000 processed_source
00000428 l       .text	00000000 chip_specific_stack_frame
00000000 l    df *ABS*	00000000 RTOS_tasks.c
00000000 l    df *ABS*	00000000 ch32v30x_it.c
00000000 l    df *ABS*	00000000 main.c
00000000 l    df *ABS*	00000000 system_ch32v30x.c
00000000 l    df *ABS*	00000000 ch32v30x_dbgmcu.c
00000000 l    df *ABS*	00000000 ch32v30x_gpio.c
00000000 l    df *ABS*	00000000 ch32v30x_i2c.c
00000000 l    df *ABS*	00000000 ch32v30x_misc.c
00000000 l    df *ABS*	00000000 ch32v30x_rcc.c
20000010 l     O .data	00000010 APBAHBPrescTable
200000d4 l     O .data	00000004 ADCPrescTable
00000000 l    df *ABS*	00000000 ch32v30x_tim.c
00000000 l    df *ABS*	00000000 ch32v30x_usart.c
00000000 l    df *ABS*	00000000 inv_mpu.c
20000020 l     O .data	0000002c st
00000000 l    df *ABS*	00000000 inv_mpu_dmp_motion_driver.c
200001a8 l     O .bss	00000010 dmp
00000000 l    df *ABS*	00000000 MPU6050.c
00000000 l    df *ABS*	00000000 bsp_filter.c
00000000 l    df *ABS*	00000000 pwm.c
00000000 l    df *ABS*	00000000 tim.c
00000000 l    df *ABS*	00000000 uart.c
00000000 l    df *ABS*	00000000 CRC.c
00000000 l    df *ABS*	00000000 CRSF.c
00000000 l    df *ABS*	00000000 control.c
00000000 l    df *ABS*	00000000 pid.c
00000000 l    df *ABS*	00000000 heap_4.c
00002224 l     F .text	0000004c prvInsertBlockIntoFreeList
20000594 l     O .bss	00003000 ucHeap
2000012c l     O .bss	00000004 pxEnd
20000130 l     O .bss	00000004 xBlockAllocatedBit
20000134 l     O .bss	00000004 xFreeBytesRemaining
20000138 l     O .bss	00000004 xMinimumEverFreeBytesRemaining
2000013c l     O .bss	00000004 xNumberOfSuccessfulAllocations
20000140 l     O .bss	00000004 xNumberOfSuccessfulFrees
20000144 l     O .bss	00000008 xStart
00000000 l    df *ABS*	00000000 port.c
200000e4 l     O .data	00000004 uxCriticalNesting
00000000 l    df *ABS*	00000000 list.c
00000000 l    df *ABS*	00000000 queue.c
00002666 l     F .text	0000001a prvIsQueueEmpty
00002680 l     F .text	00000028 prvCopyDataFromQueue
000026a8 l     F .text	00000076 prvUnlockQueue
00000000 l    df *ABS*	00000000 tasks.c
00002a76 l     F .text	00000024 prvResetNextTaskUnblockTime
00002a9a l     F .text	000000a6 prvAddCurrentTaskToDelayedList
00002b40 l     F .text	00000052 prvIdleTask
200035d4 l     O .bss	0000012c pxReadyTasksLists
20003700 l     O .bss	00000014 xDelayedTaskList1
20003714 l     O .bss	00000014 xDelayedTaskList2
20003728 l     O .bss	00000014 xPendingReadyList
2000373c l     O .bss	00000014 xSuspendedTaskList
20003750 l     O .bss	00000014 xTasksWaitingTermination
20000150 l     O .bss	00000004 pxDelayedTaskList
20000154 l     O .bss	00000004 pxOverflowDelayedTaskList
20000158 l     O .bss	00000004 uxCurrentNumberOfTasks
2000015c l     O .bss	00000004 uxDeletedTasksWaitingCleanUp
20000160 l     O .bss	00000004 uxSchedulerSuspended
20000164 l     O .bss	00000004 uxTaskNumber
20000168 l     O .bss	00000004 uxTopReadyPriority
2000016c l     O .bss	00000004 xIdleTaskHandle
20000170 l     O .bss	00000004 xNextTaskUnblockTime
20000174 l     O .bss	00000004 xNumOfOverflows
20000178 l     O .bss	00000004 xPendedTicks
2000017c l     O .bss	00000004 xSchedulerRunning
20000180 l     O .bss	00000004 xTickCount
20000184 l     O .bss	00000004 xYieldPending
00000000 l    df *ABS*	00000000 timers.c
00003508 l     F .text	00000066 prvCheckForValidListAndQueue
0000356e l     F .text	00000046 prvInsertTimerInActiveList
000035b4 l     F .text	0000002a prvReloadTimer
000035de l     F .text	00000046 prvProcessExpiredTimer
00003624 l     F .text	00000030 prvSwitchTimerLists
00003654 l     F .text	00000198 prvTimerTask
20003764 l     O .bss	00000014 xActiveTimerList1
20003778 l     O .bss	00000014 xActiveTimerList2
20000188 l     O .bss	00000004 pxCurrentTimerList
2000018c l     O .bss	00000004 pxOverflowTimerList
20000190 l     O .bss	00000004 xLastTime.6314
20000194 l     O .bss	00000004 xTimerQueue
20000198 l     O .bss	00000004 xTimerTaskHandle
00000000 l    df *ABS*	00000000 debug.c
2000019c l     O .bss	00000002 p_ms
2000019e l     O .bss	00000001 p_us
200000ec l     O .data	00000004 curbrk.5265
00000000 l    df *ABS*	00000000 wf_asin.c
00000000 l    df *ABS*	00000000 wf_atan2.c
00000000 l    df *ABS*	00000000 ef_asin.c
00000000 l    df *ABS*	00000000 ef_atan2.c
00000000 l    df *ABS*	00000000 ef_sqrt.c
00000000 l    df *ABS*	00000000 s_matherr.c
00000000 l    df *ABS*	00000000 s_nan.c
00000000 l    df *ABS*	00000000 sf_atan.c
00007860 l     O .text	00000010 atanhi
00007870 l     O .text	00000010 atanlo
00000000 l    df *ABS*	00000000 sf_fabs.c
00000000 l    df *ABS*	00000000 adddf3.c
00000000 l    df *ABS*	00000000 muldf3.c
00000000 l    df *ABS*	00000000 fixunsdfsi.c
00000000 l    df *ABS*	00000000 floatsidf.c
00000000 l    df *ABS*	00000000 addsf3.c
00000000 l    df *ABS*	00000000 divsf3.c
00000000 l    df *ABS*	00000000 eqsf2.c
00000000 l    df *ABS*	00000000 gesf2.c
00000000 l    df *ABS*	00000000 lesf2.c
00000000 l    df *ABS*	00000000 mulsf3.c
00000000 l    df *ABS*	00000000 subsf3.c
00000000 l    df *ABS*	00000000 unordsf2.c
00000000 l    df *ABS*	00000000 fixsfsi.c
00000000 l    df *ABS*	00000000 fixunssfsi.c
00000000 l    df *ABS*	00000000 floatsisf.c
00000000 l    df *ABS*	00000000 extendsfdf2.c
00000000 l    df *ABS*	00000000 truncdfsf2.c
00000000 l    df *ABS*	00000000 libgcc2.c
00000000 l    df *ABS*	00000000 errno.c
00000000 l    df *ABS*	00000000 memcpy.c
00000000 l    df *ABS*	00000000 printf.c
00000000 l    df *ABS*	00000000 puts.c
00000000 l    df *ABS*	00000000 wbuf.c
00000000 l    df *ABS*	00000000 wsetup.c
00000000 l    df *ABS*	00000000 fflush.c
00000000 l    df *ABS*	00000000 findfp.c
0000667a l     F .text	00000066 std
00000000 l    df *ABS*	00000000 fwalk.c
00000000 l    df *ABS*	00000000 makebuf.c
00000000 l    df *ABS*	00000000 nano-mallocr.c
00000000 l    df *ABS*	00000000 nano-mallocr.c
00000000 l    df *ABS*	00000000 nano-vfprintf.c
00006b24 l     F .text	00000028 __sfputc_r
00000000 l    df *ABS*	00000000 nano-vfprintf_i.c
00000000 l    df *ABS*	00000000 sbrkr.c
00000000 l    df *ABS*	00000000 stdio.c
00000000 l    df *ABS*	00000000 writer.c
00000000 l    df *ABS*	00000000 closer.c
00000000 l    df *ABS*	00000000 fstatr.c
00000000 l    df *ABS*	00000000 isattyr.c
00000000 l    df *ABS*	00000000 lseekr.c
00000000 l    df *ABS*	00000000 memchr.c
00000000 l    df *ABS*	00000000 mlock.c
00000000 l    df *ABS*	00000000 readr.c
00000000 l    df *ABS*	00000000 close.c
00000000 l    df *ABS*	00000000 fstat.c
00000000 l    df *ABS*	00000000 isatty.c
00000000 l    df *ABS*	00000000 lseek.c
00000000 l    df *ABS*	00000000 read.c
00000000 l    df *ABS*	00000000 libgcc2.c
00000000 l    df *ABS*	00000000 impure.c
2000006c l     O .data	00000060 impure_data
00000000 l    df *ABS*	00000000 s_lib_ver.c
00000000 l    df *ABS*	00000000 reent.c
00000934  w      .text	00000000 EXTI2_IRQHandler
00000934  w      .text	00000000 TIM8_TRG_COM_IRQHandler
00000934  w      .text	00000000 TIM8_CC_IRQHandler
20000128 g     O .bss	00000004 Yaw
00007338 g     F .text	00000030 _isatty_r
0000624c g     F .text	000000d4 _puts_r
00007368 g     F .text	00000034 _lseek_r
00000cf0 g     F .text	00000004 TIM_SetCompare2
00000934  w      .text	00000000 UART8_IRQHandler
00000f46 g     F .text	00000090 mpu_read_fifo_stream
000025bc g     F .text	00000042 vPortExitCritical
200001cc g     O .bss	00000014 MPU6050_para_filted
0000620c g     F .text	00000040 printf
200008d0 g       .data	00000000 __global_pointer$
000004ee g     F .text	00000028 .hidden __riscv_save_8
00000934  w      .text	00000000 TIM1_CC_IRQHandler
00000aec g     F .text	00000008 I2C_ReceiveData
0000726a g     F .text	00000030 __sseek
00006730 g     F .text	0000006c __sinit
0000632c g     F .text	000000bc __swbuf_r
20000454 g     O .bss	00000050 PID_roll_innerloop
0000067a g     F .text	00000002 HardFault_Handler
00002a1a g     F .text	0000005c vQueueWaitForMessageRestricted
00001a9a g     F .text	00000038 ShiftRxBuffer
000066ea g     F .text	00000046 __sfmoreglue
000073b6 g     F .text	00000002 __malloc_unlock
0000053a g     F .text	0000000c .hidden __riscv_restore_3
00000934  w      .text	00000000 TIM6_IRQHandler
000052d8 g     F .text	000002b2 .hidden __divsf3
0000256e g     F .text	00000038 SysTick_Handler
00007500 g     O .text	0000001b reg
00000934  w      .text	00000000 PVD_IRQHandler
00000934  w      .text	00000000 SDIO_IRQHandler
00000934  w      .text	00000000 TIM9_BRK_IRQHandler
00000526 g     F .text	00000020 .hidden __riscv_restore_10
00001f16 g     F .text	000001a6 Flight_control
00000934  w      .text	00000000 DMA2_Channel8_IRQHandler
00000676 g     F .text	00000004 NMI_Handler
00005d50 g     F .text	00000062 .hidden __fixsfsi
00000934  w      .text	00000000 CAN2_RX1_IRQHandler
00000934  w      .text	00000000 EXTI3_IRQHandler
000004ee g     F .text	00000028 .hidden __riscv_save_11
00001e16 g     F .text	00000034 Yaw_innerloop_ctr
000009c8 g     F .text	0000000a DBGMCU_GetCHIPID
00006152 g     F .text	00000008 __errno
20000104 g     O .bss	00000004 TESTTask_Handler
00001d46 g     F .text	0000002c ELRS_Convert_flight_mode
2000014c g     O .bss	00000004 pxCurrentTCB
00000934  w      .text	00000000 USBHS_IRQHandler
00000dd0 g     F .text	0000000a USART_GetFlagStatus
00000934  w      .text	00000000 DMA2_Channel9_IRQHandler
00007306 g     F .text	00000032 _fstat_r
00000934  w      .text	00000000 TIM10_CC_IRQHandler
2000378c g     O .bss	00000004 errno
20000100 g       .bss	00000000 _sbss
00000800 g       *ABS*	00000000 __stack_size
20000110 g     O .bss	00000004 Mech_zero_yaw
00001868 g     F .text	00000042 UART_RxCpltCallback
000038b8 g     F .text	0000005a USART_Printf_Init
20000116 g     O .bss	00000002 PWM_Out2
0000598c g     F .text	00000388 .hidden __subsf3
00000934  w      .text	00000000 USBFS_IRQHandler
00003400 g     F .text	00000016 vTaskInternalSetTimeOutState
0000053a g     F .text	0000000c .hidden __riscv_restore_2
000020ec g     F .text	0000001c pid_reset
000024e0 g     F .text	0000008e xPortStartScheduler
0000615a g     F .text	000000b2 memcpy
00003256 g     F .text	00000048 vTaskPlaceOnEventList
000066e0 g     F .text	0000000a _cleanup_r
000024a2  w    F .text	0000003e vPortSetupTimerInterrupt
00004efc g     F .text	00000072 .hidden __floatsidf
00000934  w      .text	00000000 EXTI0_IRQHandler
00000934  w      .text	00000000 I2C2_EV_IRQHandler
00000934  w      .text	00000000 TIM10_TRG_COM_IRQHandler
00006320 g     F .text	0000000c puts
000023fa g     F .text	000000a8 vPortFree
200000d0 g     O .data	00000004 SystemCoreClock
20008000 g       .stack	00000000 __freertos_irq_stack_top
00000dc8 g     F .text	00000008 USART_ReceiveData
20000124 g     O .bss	00000002 Throttle
00000d10 g     F .text	0000000c TIM_ClearFlag
000073fc g     F .text	00000010 _fstat
00000004 g       .init	00000000 _einit
20000114 g     O .bss	00000002 PWM_Out1
00001eb2 g     F .text	00000020 Check_control_mode
0000566c g     F .text	0000008c .hidden __lesf2
00000cce g     F .text	0000001e RCC_APB2PeriphClockCmd
00004ea0 g     F .text	0000005c .hidden __fixunsdfsi
000004e6 g     F .text	00000030 .hidden __riscv_save_12
00000d06 g     F .text	00000004 TIM_GetCapture3
00000934  w      .text	00000000 CAN2_SCE_IRQHandler
00000934  w      .text	00000000 ADC1_2_IRQHandler
200000e1 g     O .data	00000001 is_locked
000009d2 g     F .text	000000c0 GPIO_Init
00000934  w      .text	00000000 Break_Point_Handler
00000526 g     F .text	00000020 .hidden __riscv_restore_11
20000108 g     O .bss	00000004 NVIC_Priority_Group
00000934  w      .text	00000000 SPI1_IRQHandler
00000daa g     F .text	00000016 USART_Cmd
000071c4 g     F .text	00000032 _sbrk_r
00000cfe g     F .text	00000004 TIM_GetCapture1
00000934  w      .text	00000000 TAMPER_IRQHandler
00000516 g     F .text	0000000c .hidden __riscv_save_1
0000053a g     F .text	0000000c .hidden __riscv_restore_0
000042b2 g     F .text	00000006 fabsf
000073b8 g     F .text	00000034 _read_r
00002612 g     F .text	00000006 vListInitialiseItem
000004fc g     F .text	0000001a .hidden __riscv_save_7
00002850 g     F .text	0000015e xQueueReceive
00000934  w      .text	00000000 CAN2_RX0_IRQHandler
20003594 g     O .bss	00000040 xQueueRegistry
00001e82 g     F .text	00000030 Pitch_innerloop_ctr
00005ece g     F .text	000000ac .hidden __extendsfdf2
00000934  w      .text	00000000 TIM8_UP_IRQHandler
20000100 g     O .bss	00000004 PrintTask_Handler
00000628 g     F .text	0000004e RTOS_init
000042b8 g     F .text	00000730 .hidden __adddf3
0000558a g     F .text	0000005c .hidden __nesf2
00000934  w      .text	00000000 Ecall_M_Mode_Handler
20007800 g       .stack	00000000 _heap_end
0000740c g     F .text	00000010 _isatty
200000f0 g     O .data	00000004 __fdlib_version
200000fc g     O .data	00000004 _global_impure_ptr
00000530 g     F .text	00000016 .hidden __riscv_restore_5
20000120 g     O .bss	00000004 Roll
00000fd8 g     F .text	000001ba mpu_dmp_get_data
00000934  w      .text	00000000 DMA2_Channel2_IRQHandler
00000934  w      .text	00000000 DMA1_Channel4_IRQHandler
00000ae8 g     F .text	00000004 I2C_SendData
00003950 g     F .text	0000002a _sbrk
00002270 g     F .text	0000018a pvPortMalloc
000025fe g     F .text	00000014 vListInitialise
00000934  w      .text	00000000 TIM9_UP_IRQHandler
00000530 g     F .text	00000016 .hidden __riscv_restore_6
00000934  w      .text	00000000 USART3_IRQHandler
00002e38 g     F .text	0000000a xTaskGetTickCount
00001daa g     F .text	00000030 Roll_innerloop_ctr
00000934  w      .text	00000000 RTC_IRQHandler
20003790 g       .bss	00000000 _ebss
00000de6 g     F .text	0000003c USART_GetITStatus
00000934  w      .text	00000000 DMA1_Channel7_IRQHandler
00001c46 g     F .text	00000060 HandleByteReceived
00000934  w      .text	00000000 CAN1_RX1_IRQHandler
0000384c g     F .text	00000032 Delay_Init
00000934  w      .text	00000000 DVP_IRQHandler
00000934  w      .text	00000000 UART5_IRQHandler
000055e6 g     F .text	00000086 .hidden __gtsf2
00003314 g     F .text	000000ec xTaskRemoveFromEventList
20000544 g     O .bss	00000050 PID_yaw_outerloop
2000011a g     O .bss	00000002 PWM_Out4
00000a92 g     F .text	00000004 GPIO_SetBits
00001702 g     F .text	00000012 TIM4_IRQHandler
000004ee g     F .text	00000028 .hidden __riscv_save_9
00000934  w      .text	00000000 DMA2_Channel1_IRQHandler
200001b8 g     O .bss	00000014 MPU6050_para
00003a3a g     F .text	00000370 __ieee754_asinf
00000a9a g     F .text	0000001a I2C_GenerateSTART
00007a80 g     O .text	00000020 __sf_fake_stderr
2000005c g     O .data	00000010 pid_func
000004fc g     F .text	0000001a .hidden __riscv_save_4
00000934  w      .text	00000000 I2C1_EV_IRQHandler
200000f8 g     O .data	00000004 xISRStackTop
0000067c g     F .text	0000002e GPIO_Toggle_INIT
00001ce6 g     F .text	0000004a ELRS_Convert_throttle
00002140 g     F .text	000000e4 pid_calc
00000b58 g     F .text	00000176 RCC_GetClocksFreq
00001d30 g     F .text	00000016 ELRS_Convert_lock
00000934  w      .text	00000000 DMA1_Channel6_IRQHandler
000060e4 g     F .text	0000006e .hidden __clzsi2
00006b4c g     F .text	00000042 __sfputs_r
20000404 g     O .bss	00000050 PID_pitch_outerloop
00000934  w      .text	00000000 UART4_IRQHandler
00000934  w      .text	00000000 DMA2_Channel4_IRQHandler
0000739c g     F .text	00000018 memchr
00000d1c g     F .text	0000008e USART_Init
00003416 g     F .text	000000ca xTaskCheckForTimeOut
00006990 g     F .text	000000b0 _free_r
000017c2 g     F .text	000000a6 TIM3_IRQHandler
00000934  w      .text	00000000 RCC_IRQHandler
00000516 g     F .text	0000000c .hidden __riscv_save_3
20000118 g     O .bss	00000002 PWM_Out3
00000934  w      .text	00000000 TIM1_TRG_COM_IRQHandler
00001714 g     F .text	0000005e load_filter_data
0000751c g     O .text	00000028 test
00000934  w      .text	00000000 DMA1_Channel1_IRQHandler
00000000 g       .init	00000000 _start
00000934  w      .text	00000000 DMA2_Channel7_IRQHandler
00002e28 g     F .text	00000010 vTaskSuspendAll
20000000 g     O .data	00000010 AHBPrescTable
00000b1c g     F .text	00000032 I2C_GetFlagStatus
0000741c g     F .text	00000010 _lseek
00005e08 g     F .text	000000c6 .hidden __floatsisf
00002646 g     F .text	00000020 uxListRemove
00000934  w      .text	00000000 EXTI15_10_IRQHandler
2000004c g     O .data	00000010 Motor_pos
000020bc g     F .text	00000030 Stop_motor
200004f4 g     O .bss	00000050 PID_yaw_innerloop
200001e0 g     O .bss	00000048 gyro_filter
0000558a g     F .text	0000005c .hidden __eqsf2
000031bc g     F .text	0000009a vTaskSwitchContext
200000dc g     O .data	00000004 MOTOR_MODE
0000329e g     F .text	00000076 vTaskPlaceOnEventListRestricted
00000a96 g     F .text	00000004 GPIO_ResetBits
00000934  w      .text	00000000 TIM7_IRQHandler
000072d6 g     F .text	00000030 _close_r
00000934  w      .text	00000000 CAN2_TX_IRQHandler
20000000 g       .dalign	00000000 _data_vma
2000010c g     O .bss	00000001 RxBuf_Index
00000934  w      .text	00000000 TIM5_IRQHandler
00000cf4 g     F .text	00000004 TIM_SetCompare3
20000328 g     O .bss	00000040 CrsfChannels
000018dc g     F .text	000001a0 print_status
00001192 g     F .text	000001c2 dmp_read_fifo
000063e8 g     F .text	000000fc __swsetup_r
00000934  w      .text	00000000 EXTI9_5_IRQHandler
20000368 g     O .bss	0000000a LinkStatistics
0000679c g     F .text	000000a0 __sfp
000049e8 g     F .text	000004b8 .hidden __muldf3
000004ee g     F .text	00000028 .hidden __riscv_save_10
000071f6 g     F .text	0000002c __sread
00000af4 g     F .text	00000012 I2C_Send7bitAddress
00000934  w      .text	00000000 ETH_WKUP_IRQHandler
000073b4 g     F .text	00000002 __malloc_lock
00000530 g     F .text	00000016 .hidden __riscv_restore_4
00000526 g     F .text	00000020 .hidden __riscv_restore_8
00006614 g     F .text	00000066 _fflush_r
00001d72 g     F .text	00000038 Roll_outerloop_ctr
000004fc g     F .text	0000001a .hidden __riscv_save_6
000015ce g     F .text	00000050 FilterSample
00000934  w      .text	00000000 SPI2_IRQHandler
00007aa0 g     O .text	00000020 __sf_fake_stdin
00000546 g     F .text	000000a8 memset
00003f3c g     F .text	000000dc __ieee754_sqrtf
00000fd6 g     F .text	00000002 mget_ms
00000526 g     F .text	00000020 .hidden __riscv_restore_9
00000530 g     F .text	00000016 .hidden __riscv_restore_7
000006aa g     F .text	00000062 main
00000934  w      .text	00000000 TIM10_BRK_IRQHandler
00001420 g     F .text	0000012e MPU6050_I2C_Mem_Read
0000566c g     F .text	0000008c .hidden __ltsf2
00000934  w      .text	00000000 TIM9_CC_IRQHandler
00002618 g     F .text	0000002e vListInsert
0000729a g     F .text	00000006 __sclose
00004018 g     F .text	00000004 matherr
00000934  w      .text	00000000 DMA2_Channel5_IRQHandler
000037ec g     F .text	00000060 xTimerCreateTimerTask
00005f7a g     F .text	0000016a .hidden __truncdfsf2
200000d8 g     O .data	00000004 CONTROL_MODE
00006a40 g     F .text	000000e4 _malloc_r
0000161e g     F .text	00000026 FilterAverage
00002122 g     F .text	0000001e pid_clc
00000934  w      .text	00000000 DMA1_Channel5_IRQHandler
00000934  w      .text	00000000 EXTI4_IRQHandler
0000387e g     F .text	0000003a Delay_Ms
000027e2 g     F .text	0000006e xQueueGenericCreate
00000934  w      .text	00000000 USB_LP_CAN1_RX0_IRQHandler
000056f8 g     F .text	00000294 .hidden __mulsf3
00001586 g     F .text	00000048 MPU6050_MPU_DMP_GetData
00000cf8 g     F .text	00000006 TIM_SetCompare4
00001644 g     F .text	000000be Motor_ctr
00000d02 g     F .text	00000004 TIM_GetCapture2
00001ad2 g     F .text	00000112 PacketChannelsPacked
00000dda g     F .text	0000000c USART_ClearFlag
0000070c g     F .text	000000fa SystemInit
000074b4 g     O .text	0000000c hw
00000934  w      .text	00000000 RNG_IRQHandler
00001dda g     F .text	0000003c Yaw_outerloop_ctr
0000620c g     F .text	00000040 iprintf
00002fee g     F .text	00000168 xTaskResumeAll
200000e8 g     O .data	00000004 uxTopUsedPriority
00000934  w      .text	00000000 USB_HP_CAN1_TX_IRQHandler
00007980 g     O .text	00000100 .hidden __clz_tab
00002d96 g     F .text	00000092 vTaskStartScheduler
00001c12 g     F .text	00000034 ProcessPacketIn
00000000 g       .init	00000000 _sinit
0000154e g     F .text	00000038 MPU6050_Get_Data
000055e6 g     F .text	00000086 .hidden __gesf2
000072a0 g     F .text	00000036 _write_r
00000300 g       .text	00000000 xPortStartFirstTask
00000934  w      .text	00000000 DMA1_Channel3_IRQHandler
00000934  w      .text	00000000 ETH_IRQHandler
00006e16 g     F .text	0000010c _printf_common
200000f4 g     O .data	00000004 _impure_ptr
00000934  w      .text	00000000 TIM1_UP_IRQHandler
000064e4 g     F .text	00000130 __sflush_r
00003a38 g     F .text	00000002 atan2f
00000934  w      .text	00000000 WWDG_IRQHandler
20000374 g     O .bss	00000040 RxBuf
00000934  w      .text	00000000 USBHSWakeup_IRQHandler
00000934  w      .text	00000000 DMA2_Channel11_IRQHandler
00000934  w      .text	00000000 Ecall_U_Mode_Handler
000034e0 g     F .text	0000000c vTaskMissedYield
00000934  w      .text	00000000 DMA2_Channel6_IRQHandler
00001ca6 g     F .text	00000040 ELRS_Convert_angle
00000934  w      .text	00000000 TIM2_IRQHandler
20008000 g       .stack	00000000 _eusrstack
00000516 g     F .text	0000000c .hidden __riscv_save_2
00000200 g       .text	00000000 SW_Handler
000029ae g     F .text	0000006c vQueueAddToRegistry
0000401c g     F .text	0000000e nan
00002e42 g     F .text	000001ac xTaskIncrementTick
00001be4 g     F .text	0000002e PacketLinkStatistics
00000934  w      .text	00000000 TIM1_BRK_IRQHandler
000068a6 g     F .text	00000058 __swhatbuf_r
00000dc0 g     F .text	00000008 USART_SendData
00000934  w      .text	00000000 DMA2_Channel10_IRQHandler
00000934  w      .text	00000000 EXTI1_IRQHandler
000004fc g     F .text	0000001a .hidden __riscv_save_5
0000271e g     F .text	000000c4 xQueueGenericReset
00003912 g     F .text	0000003e _write
20000100 g       .data	00000000 _edata
00000d0a g     F .text	00000006 TIM_GetCapture4
20003790 g       .bss	00000000 _end
00005d14 g     F .text	0000003c .hidden __unordsf2
00000934  w      .text	00000000 RTCAlarm_IRQHandler
00002b92 g     F .text	00000204 xTaskCreate
00007b1c g       .dlalign	00000000 _data_lma
00000934  w      .text	00000000 TIM10_UP_IRQHandler
00002108 g     F .text	0000001a pid_init
00000934  w      .text	00000000 TIM9_TRG_COM_IRQHandler
00000934  w      .text	00000000 UART7_IRQHandler
200000e0 g     O .data	00000001 flight_mode
00001e4a g     F .text	00000038 Pitch_outerloop_ctr
000018aa g     F .text	00000032 USART2_IRQHandler
00000934  w      .text	00000000 UART6_IRQHandler
00007222 g     F .text	00000048 __swrite
00001a7c g     F .text	0000001e Calc
00001354 g     F .text	000000cc MPU6050_I2C_Mem_Write
00006b8e g     F .text	00000288 _vfiprintf_r
0000683c g     F .text	0000006a _fwalk_reent
00000806 g     F .text	0000012e SystemCoreClockUpdate
00001772 g     F .text	00000050 calc_IMU_filter
00000934  w      .text	00000000 I2C2_ER_IRQHandler
00003156 g     F .text	00000066 vTaskDelay
00000934  w      .text	00000000 DMA1_Channel2_IRQHandler
0000402a g     F .text	00000288 atanf
00007ac0 g     O .text	00000020 __sf_fake_stdout
000005ee g     F .text	0000003a test_task
00000522 g     F .text	00000024 .hidden __riscv_restore_12
00000934  w      .text	00000000 TIM8_BRK_IRQHandler
000034ec g     F .text	0000001c xTaskGetSchedulerState
0000742c g     F .text	00000010 _read
00000936  w      .text	00000000 handle_reset
200004a4 g     O .bss	00000050 PID_roll_outerloop
00000934  w      .text	00000000 CAN1_SCE_IRQHandler
00005db2 g     F .text	00000056 .hidden __fixunssfsi
00000934  w      .text	00000000 FLASH_IRQHandler
00000516 g     F .text	0000000c .hidden __riscv_save_0
00000934  w      .text	00000000 USART1_IRQHandler
000068fe g     F .text	00000092 __smakebuf_r
00000ace g     F .text	0000001a I2C_AcknowledgeConfig
00000400 g       .text	00000000 pxPortInitialiseStack
00006f22 g     F .text	000002a2 _printf_i
00000934  w      .text	00000000 SPI3_IRQHandler
200003b4 g     O .bss	00000050 PID_pitch_innerloop
200001a4 g     O .bss	00000004 __malloc_sbrk_start
00000b06 g     F .text	00000016 I2C_CheckEvent
20000228 g     O .bss	00000100 _lut
00000ab4 g     F .text	0000001a I2C_GenerateSTOP
00000934  w      .text	00000000 I2C1_ER_IRQHandler
00000b4e g     F .text	0000000a NVIC_PriorityGroupConfig
000025a6 g     F .text	00000016 vPortEnterCritical
00001ed2 g     F .text	00000044 Update_ELRS
0000397a g     F .text	000000be asinf
200001a0 g     O .bss	00000004 __malloc_free_list
0000053a g     F .text	0000000c .hidden __riscv_restore_1
00006b8e g     F .text	00000288 _vfprintf_r
00000cec g     F .text	00000004 TIM_SetCompare1
00004f6e g     F .text	0000036a .hidden __addsf3
2000011c g     O .bss	00000004 Pitch
00000934  w      .text	00000000 USBWakeUp_IRQHandler
00000e22 g     F .text	00000124 mpu_reset_fifo
000073ec g     F .text	00000010 _close
00000934  w      .text	00000000 DMA2_Channel3_IRQHandler
00003daa g     F .text	00000192 __ieee754_atan2f



Disassembly of section .init:

00000000 <_sinit>:
   0:	1370006f          	j	936 <handle_reset>

Disassembly of section .vector:

00000004 <_vector_base>:
	...
   c:	0676                	slli	a2,a2,0x1d
   e:	0000                	unimp
  10:	067a                	slli	a2,a2,0x1e
  12:	0000                	unimp
  14:	0000                	unimp
  16:	0000                	unimp
  18:	0934                	addi	a3,sp,152
	...
  22:	0000                	unimp
  24:	0934                	addi	a3,sp,152
  26:	0000                	unimp
  28:	0934                	addi	a3,sp,152
	...
  32:	0000                	unimp
  34:	256e                	lhu	a1,14(a0)
  36:	0000                	unimp
  38:	0000                	unimp
  3a:	0000                	unimp
  3c:	0200                	addi	s0,sp,256
  3e:	0000                	unimp
  40:	0000                	unimp
  42:	0000                	unimp
  44:	0934                	addi	a3,sp,152
  46:	0000                	unimp
  48:	0934                	addi	a3,sp,152
  4a:	0000                	unimp
  4c:	0934                	addi	a3,sp,152
  4e:	0000                	unimp
  50:	0934                	addi	a3,sp,152
  52:	0000                	unimp
  54:	0934                	addi	a3,sp,152
  56:	0000                	unimp
  58:	0934                	addi	a3,sp,152
  5a:	0000                	unimp
  5c:	0934                	addi	a3,sp,152
  5e:	0000                	unimp
  60:	0934                	addi	a3,sp,152
  62:	0000                	unimp
  64:	0934                	addi	a3,sp,152
  66:	0000                	unimp
  68:	0934                	addi	a3,sp,152
  6a:	0000                	unimp
  6c:	0934                	addi	a3,sp,152
  6e:	0000                	unimp
  70:	0934                	addi	a3,sp,152
  72:	0000                	unimp
  74:	0934                	addi	a3,sp,152
  76:	0000                	unimp
  78:	0934                	addi	a3,sp,152
  7a:	0000                	unimp
  7c:	0934                	addi	a3,sp,152
  7e:	0000                	unimp
  80:	0934                	addi	a3,sp,152
  82:	0000                	unimp
  84:	0934                	addi	a3,sp,152
  86:	0000                	unimp
  88:	0934                	addi	a3,sp,152
  8a:	0000                	unimp
  8c:	0934                	addi	a3,sp,152
  8e:	0000                	unimp
  90:	0934                	addi	a3,sp,152
  92:	0000                	unimp
  94:	0934                	addi	a3,sp,152
  96:	0000                	unimp
  98:	0934                	addi	a3,sp,152
  9a:	0000                	unimp
  9c:	0934                	addi	a3,sp,152
  9e:	0000                	unimp
  a0:	0934                	addi	a3,sp,152
  a2:	0000                	unimp
  a4:	0934                	addi	a3,sp,152
  a6:	0000                	unimp
  a8:	0934                	addi	a3,sp,152
  aa:	0000                	unimp
  ac:	0934                	addi	a3,sp,152
  ae:	0000                	unimp
  b0:	0934                	addi	a3,sp,152
  b2:	0000                	unimp
  b4:	0934                	addi	a3,sp,152
  b6:	0000                	unimp
  b8:	17c2                	slli	a5,a5,0x30
  ba:	0000                	unimp
  bc:	1702                	slli	a4,a4,0x20
  be:	0000                	unimp
  c0:	0934                	addi	a3,sp,152
  c2:	0000                	unimp
  c4:	0934                	addi	a3,sp,152
  c6:	0000                	unimp
  c8:	0934                	addi	a3,sp,152
  ca:	0000                	unimp
  cc:	0934                	addi	a3,sp,152
  ce:	0000                	unimp
  d0:	0934                	addi	a3,sp,152
  d2:	0000                	unimp
  d4:	0934                	addi	a3,sp,152
  d6:	0000                	unimp
  d8:	0934                	addi	a3,sp,152
  da:	0000                	unimp
  dc:	18aa                	slli	a7,a7,0x2a
  de:	0000                	unimp
  e0:	0934                	addi	a3,sp,152
  e2:	0000                	unimp
  e4:	0934                	addi	a3,sp,152
  e6:	0000                	unimp
  e8:	0934                	addi	a3,sp,152
  ea:	0000                	unimp
  ec:	0934                	addi	a3,sp,152
  ee:	0000                	unimp
  f0:	0934                	addi	a3,sp,152
  f2:	0000                	unimp
  f4:	0934                	addi	a3,sp,152
  f6:	0000                	unimp
  f8:	0934                	addi	a3,sp,152
  fa:	0000                	unimp
  fc:	0934                	addi	a3,sp,152
  fe:	0000                	unimp
 100:	0934                	addi	a3,sp,152
 102:	0000                	unimp
 104:	0000                	unimp
 106:	0000                	unimp
 108:	0934                	addi	a3,sp,152
 10a:	0000                	unimp
 10c:	0934                	addi	a3,sp,152
 10e:	0000                	unimp
 110:	0934                	addi	a3,sp,152
 112:	0000                	unimp
 114:	0934                	addi	a3,sp,152
 116:	0000                	unimp
 118:	0934                	addi	a3,sp,152
 11a:	0000                	unimp
 11c:	0934                	addi	a3,sp,152
 11e:	0000                	unimp
 120:	0934                	addi	a3,sp,152
 122:	0000                	unimp
 124:	0934                	addi	a3,sp,152
 126:	0000                	unimp
 128:	0934                	addi	a3,sp,152
 12a:	0000                	unimp
 12c:	0934                	addi	a3,sp,152
 12e:	0000                	unimp
 130:	0934                	addi	a3,sp,152
 132:	0000                	unimp
 134:	0934                	addi	a3,sp,152
 136:	0000                	unimp
 138:	0934                	addi	a3,sp,152
 13a:	0000                	unimp
 13c:	0934                	addi	a3,sp,152
 13e:	0000                	unimp
 140:	0934                	addi	a3,sp,152
 142:	0000                	unimp
 144:	0934                	addi	a3,sp,152
 146:	0000                	unimp
 148:	0934                	addi	a3,sp,152
 14a:	0000                	unimp
 14c:	0934                	addi	a3,sp,152
 14e:	0000                	unimp
 150:	0934                	addi	a3,sp,152
 152:	0000                	unimp
 154:	0934                	addi	a3,sp,152
 156:	0000                	unimp
 158:	0934                	addi	a3,sp,152
 15a:	0000                	unimp
 15c:	0934                	addi	a3,sp,152
 15e:	0000                	unimp
 160:	0934                	addi	a3,sp,152
 162:	0000                	unimp
 164:	0934                	addi	a3,sp,152
 166:	0000                	unimp
 168:	0934                	addi	a3,sp,152
 16a:	0000                	unimp
 16c:	0934                	addi	a3,sp,152
 16e:	0000                	unimp
 170:	0934                	addi	a3,sp,152
 172:	0000                	unimp
 174:	0934                	addi	a3,sp,152
 176:	0000                	unimp
 178:	0934                	addi	a3,sp,152
 17a:	0000                	unimp
 17c:	0934                	addi	a3,sp,152
 17e:	0000                	unimp
 180:	0934                	addi	a3,sp,152
 182:	0000                	unimp
 184:	0934                	addi	a3,sp,152
 186:	0000                	unimp
 188:	0934                	addi	a3,sp,152
 18a:	0000                	unimp
 18c:	0934                	addi	a3,sp,152
 18e:	0000                	unimp
 190:	0934                	addi	a3,sp,152
 192:	0000                	unimp
 194:	0934                	addi	a3,sp,152
 196:	0000                	unimp
 198:	0934                	addi	a3,sp,152
 19a:	0000                	unimp
 19c:	0934                	addi	a3,sp,152
 19e:	0000                	unimp
 1a0:	0934                	addi	a3,sp,152
	...

Disassembly of section .text:

00000200 <SW_Handler>:
     200:	f8810113          	addi	sp,sp,-120
     204:	c206                	sw	ra,4(sp)
     206:	c416                	sw	t0,8(sp)
     208:	c61a                	sw	t1,12(sp)
     20a:	c81e                	sw	t2,16(sp)
     20c:	ca22                	sw	s0,20(sp)
     20e:	cc26                	sw	s1,24(sp)
     210:	ce2a                	sw	a0,28(sp)
     212:	d02e                	sw	a1,32(sp)
     214:	d232                	sw	a2,36(sp)
     216:	d436                	sw	a3,40(sp)
     218:	d63a                	sw	a4,44(sp)
     21a:	d83e                	sw	a5,48(sp)
     21c:	da42                	sw	a6,52(sp)
     21e:	dc46                	sw	a7,56(sp)
     220:	de4a                	sw	s2,60(sp)
     222:	c0ce                	sw	s3,64(sp)
     224:	c2d2                	sw	s4,68(sp)
     226:	c4d6                	sw	s5,72(sp)
     228:	c6da                	sw	s6,76(sp)
     22a:	c8de                	sw	s7,80(sp)
     22c:	cae2                	sw	s8,84(sp)
     22e:	cce6                	sw	s9,88(sp)
     230:	ceea                	sw	s10,92(sp)
     232:	d0ee                	sw	s11,96(sp)
     234:	d2f2                	sw	t3,100(sp)
     236:	d4f6                	sw	t4,104(sp)
     238:	d6fa                	sw	t5,108(sp)
     23a:	d8fe                	sw	t6,112(sp)
     23c:	300022f3          	csrr	t0,mstatus
     240:	da96                	sw	t0,116(sp)
     242:	20000297          	auipc	t0,0x20000
     246:	f0a2a283          	lw	t0,-246(t0) # 2000014c <pxCurrentTCB>
     24a:	0022a023          	sw	sp,0(t0)
     24e:	341025f3          	csrr	a1,mepc
     252:	c02e                	sw	a1,0(sp)
     254:	02000593          	li	a1,32
     258:	8045a073          	csrs	0x804,a1
     25c:	8281a103          	lw	sp,-2008(gp) # 200000f8 <xISRStackTop>
     260:	75d020ef          	jal	ra,31bc <vTaskSwitchContext>

00000264 <processed_source>:
     264:	20000317          	auipc	t1,0x20000
     268:	ee832303          	lw	t1,-280(t1) # 2000014c <pxCurrentTCB>
     26c:	00032103          	lw	sp,0(t1)
     270:	4282                	lw	t0,0(sp)
     272:	34129073          	csrw	mepc,t0
     276:	52d6                	lw	t0,116(sp)
     278:	30029073          	csrw	mstatus,t0
     27c:	4092                	lw	ra,4(sp)
     27e:	42a2                	lw	t0,8(sp)
     280:	4332                	lw	t1,12(sp)
     282:	43c2                	lw	t2,16(sp)
     284:	4452                	lw	s0,20(sp)
     286:	44e2                	lw	s1,24(sp)
     288:	4572                	lw	a0,28(sp)
     28a:	5582                	lw	a1,32(sp)
     28c:	5612                	lw	a2,36(sp)
     28e:	56a2                	lw	a3,40(sp)
     290:	5732                	lw	a4,44(sp)
     292:	57c2                	lw	a5,48(sp)
     294:	5852                	lw	a6,52(sp)
     296:	58e2                	lw	a7,56(sp)
     298:	5972                	lw	s2,60(sp)
     29a:	4986                	lw	s3,64(sp)
     29c:	4a16                	lw	s4,68(sp)
     29e:	4aa6                	lw	s5,72(sp)
     2a0:	4b36                	lw	s6,76(sp)
     2a2:	4bc6                	lw	s7,80(sp)
     2a4:	4c56                	lw	s8,84(sp)
     2a6:	4ce6                	lw	s9,88(sp)
     2a8:	4d76                	lw	s10,92(sp)
     2aa:	5d86                	lw	s11,96(sp)
     2ac:	5e16                	lw	t3,100(sp)
     2ae:	5ea6                	lw	t4,104(sp)
     2b0:	5f36                	lw	t5,108(sp)
     2b2:	5fc6                	lw	t6,112(sp)
     2b4:	07810113          	addi	sp,sp,120
     2b8:	30200073          	mret
     2bc:	00000013          	nop
     2c0:	00000013          	nop
     2c4:	00000013          	nop
     2c8:	00000013          	nop
     2cc:	00000013          	nop
     2d0:	00000013          	nop
     2d4:	00000013          	nop
     2d8:	00000013          	nop
     2dc:	00000013          	nop
     2e0:	00000013          	nop
     2e4:	00000013          	nop
     2e8:	00000013          	nop
     2ec:	00000013          	nop
     2f0:	00000013          	nop
     2f4:	00000013          	nop
     2f8:	00000013          	nop
     2fc:	00000013          	nop

00000300 <xPortStartFirstTask>:
     300:	8281a283          	lw	t0,-2008(gp) # 200000f8 <xISRStackTop>
     304:	e0028293          	addi	t0,t0,-512
     308:	34029073          	csrw	mscratch,t0
     30c:	20000117          	auipc	sp,0x20000
     310:	e4012103          	lw	sp,-448(sp) # 2000014c <pxCurrentTCB>
     314:	4102                	lw	sp,0(sp)
     316:	4082                	lw	ra,0(sp)
     318:	4332                	lw	t1,12(sp)
     31a:	43c2                	lw	t2,16(sp)
     31c:	4452                	lw	s0,20(sp)
     31e:	44e2                	lw	s1,24(sp)
     320:	4572                	lw	a0,28(sp)
     322:	5582                	lw	a1,32(sp)
     324:	5612                	lw	a2,36(sp)
     326:	56a2                	lw	a3,40(sp)
     328:	5732                	lw	a4,44(sp)
     32a:	57c2                	lw	a5,48(sp)
     32c:	5852                	lw	a6,52(sp)
     32e:	58e2                	lw	a7,56(sp)
     330:	5972                	lw	s2,60(sp)
     332:	4986                	lw	s3,64(sp)
     334:	4a16                	lw	s4,68(sp)
     336:	4aa6                	lw	s5,72(sp)
     338:	4b36                	lw	s6,76(sp)
     33a:	4bc6                	lw	s7,80(sp)
     33c:	4c56                	lw	s8,84(sp)
     33e:	4ce6                	lw	s9,88(sp)
     340:	4d76                	lw	s10,92(sp)
     342:	5d86                	lw	s11,96(sp)
     344:	5e16                	lw	t3,100(sp)
     346:	5ea6                	lw	t4,104(sp)
     348:	5f36                	lw	t5,108(sp)
     34a:	5fc6                	lw	t6,112(sp)
     34c:	52d6                	lw	t0,116(sp)
     34e:	02a1                	addi	t0,t0,8
     350:	30029073          	csrw	mstatus,t0
     354:	42a2                	lw	t0,8(sp)
     356:	07810113          	addi	sp,sp,120
     35a:	8082                	ret
     35c:	00000013          	nop
     360:	00000013          	nop
     364:	00000013          	nop
     368:	00000013          	nop
     36c:	00000013          	nop
     370:	00000013          	nop
     374:	00000013          	nop
     378:	00000013          	nop
     37c:	00000013          	nop
     380:	00000013          	nop
     384:	00000013          	nop
     388:	00000013          	nop
     38c:	00000013          	nop
     390:	00000013          	nop
     394:	00000013          	nop
     398:	00000013          	nop
     39c:	00000013          	nop
     3a0:	00000013          	nop
     3a4:	00000013          	nop
     3a8:	00000013          	nop
     3ac:	00000013          	nop
     3b0:	00000013          	nop
     3b4:	00000013          	nop
     3b8:	00000013          	nop
     3bc:	00000013          	nop
     3c0:	00000013          	nop
     3c4:	00000013          	nop
     3c8:	00000013          	nop
     3cc:	00000013          	nop
     3d0:	00000013          	nop
     3d4:	00000013          	nop
     3d8:	00000013          	nop
     3dc:	00000013          	nop
     3e0:	00000013          	nop
     3e4:	00000013          	nop
     3e8:	00000013          	nop
     3ec:	00000013          	nop
     3f0:	00000013          	nop
     3f4:	00000013          	nop
     3f8:	00000013          	nop
     3fc:	00000013          	nop

00000400 <pxPortInitialiseStack>:
     400:	300022f3          	csrr	t0,mstatus
     404:	ff72f293          	andi	t0,t0,-9
     408:	78800313          	li	t1,1928
     40c:	0312                	slli	t1,t1,0x4
     40e:	0062e2b3          	or	t0,t0,t1
     412:	1571                	addi	a0,a0,-4
     414:	00552023          	sw	t0,0(a0)
     418:	fa850513          	addi	a0,a0,-88
     41c:	c110                	sw	a2,0(a0)
     41e:	1521                	addi	a0,a0,-24
     420:	00052023          	sw	zero,0(a0)
     424:	00000293          	li	t0,0

00000428 <chip_specific_stack_frame>:
     428:	00028763          	beqz	t0,436 <chip_specific_stack_frame+0xe>
     42c:	1571                	addi	a0,a0,-4
     42e:	00052023          	sw	zero,0(a0)
     432:	12fd                	addi	t0,t0,-1
     434:	bfd5                	j	428 <chip_specific_stack_frame>
     436:	1571                	addi	a0,a0,-4
     438:	c10c                	sw	a1,0(a0)
     43a:	8082                	ret
	...

000004e6 <__riscv_save_12>:
     4e6:	7139                	addi	sp,sp,-64
     4e8:	4301                	li	t1,0
     4ea:	c66e                	sw	s11,12(sp)
     4ec:	a019                	j	4f2 <__riscv_save_10+0x4>

000004ee <__riscv_save_10>:
     4ee:	7139                	addi	sp,sp,-64
     4f0:	5341                	li	t1,-16
     4f2:	c86a                	sw	s10,16(sp)
     4f4:	ca66                	sw	s9,20(sp)
     4f6:	cc62                	sw	s8,24(sp)
     4f8:	ce5e                	sw	s7,28(sp)
     4fa:	a019                	j	500 <__riscv_save_4+0x4>

000004fc <__riscv_save_4>:
     4fc:	7139                	addi	sp,sp,-64
     4fe:	5301                	li	t1,-32
     500:	d05a                	sw	s6,32(sp)
     502:	d256                	sw	s5,36(sp)
     504:	d452                	sw	s4,40(sp)
     506:	d64e                	sw	s3,44(sp)
     508:	d84a                	sw	s2,48(sp)
     50a:	da26                	sw	s1,52(sp)
     50c:	dc22                	sw	s0,56(sp)
     50e:	de06                	sw	ra,60(sp)
     510:	40610133          	sub	sp,sp,t1
     514:	8282                	jr	t0

00000516 <__riscv_save_0>:
     516:	1141                	addi	sp,sp,-16
     518:	c04a                	sw	s2,0(sp)
     51a:	c226                	sw	s1,4(sp)
     51c:	c422                	sw	s0,8(sp)
     51e:	c606                	sw	ra,12(sp)
     520:	8282                	jr	t0

00000522 <__riscv_restore_12>:
     522:	4db2                	lw	s11,12(sp)
     524:	0141                	addi	sp,sp,16

00000526 <__riscv_restore_10>:
     526:	4d02                	lw	s10,0(sp)
     528:	4c92                	lw	s9,4(sp)
     52a:	4c22                	lw	s8,8(sp)
     52c:	4bb2                	lw	s7,12(sp)
     52e:	0141                	addi	sp,sp,16

00000530 <__riscv_restore_4>:
     530:	4b02                	lw	s6,0(sp)
     532:	4a92                	lw	s5,4(sp)
     534:	4a22                	lw	s4,8(sp)
     536:	49b2                	lw	s3,12(sp)
     538:	0141                	addi	sp,sp,16

0000053a <__riscv_restore_0>:
     53a:	4902                	lw	s2,0(sp)
     53c:	4492                	lw	s1,4(sp)
     53e:	4422                	lw	s0,8(sp)
     540:	40b2                	lw	ra,12(sp)
     542:	0141                	addi	sp,sp,16
     544:	8082                	ret

00000546 <memset>:
     546:	433d                	li	t1,15
     548:	872a                	mv	a4,a0
     54a:	02c37363          	bgeu	t1,a2,570 <memset+0x2a>
     54e:	00f77793          	andi	a5,a4,15
     552:	efbd                	bnez	a5,5d0 <memset+0x8a>
     554:	e5ad                	bnez	a1,5be <memset+0x78>
     556:	ff067693          	andi	a3,a2,-16
     55a:	8a3d                	andi	a2,a2,15
     55c:	96ba                	add	a3,a3,a4
     55e:	c30c                	sw	a1,0(a4)
     560:	c34c                	sw	a1,4(a4)
     562:	c70c                	sw	a1,8(a4)
     564:	c74c                	sw	a1,12(a4)
     566:	0741                	addi	a4,a4,16
     568:	fed76be3          	bltu	a4,a3,55e <memset+0x18>
     56c:	e211                	bnez	a2,570 <memset+0x2a>
     56e:	8082                	ret
     570:	40c306b3          	sub	a3,t1,a2
     574:	068a                	slli	a3,a3,0x2
     576:	00000297          	auipc	t0,0x0
     57a:	9696                	add	a3,a3,t0
     57c:	00a68067          	jr	10(a3)
     580:	00b70723          	sb	a1,14(a4)
     584:	00b706a3          	sb	a1,13(a4)
     588:	00b70623          	sb	a1,12(a4)
     58c:	00b705a3          	sb	a1,11(a4)
     590:	00b70523          	sb	a1,10(a4)
     594:	00b704a3          	sb	a1,9(a4)
     598:	00b70423          	sb	a1,8(a4)
     59c:	00b703a3          	sb	a1,7(a4)
     5a0:	00b70323          	sb	a1,6(a4)
     5a4:	00b702a3          	sb	a1,5(a4)
     5a8:	00b70223          	sb	a1,4(a4)
     5ac:	00b701a3          	sb	a1,3(a4)
     5b0:	00b70123          	sb	a1,2(a4)
     5b4:	00b700a3          	sb	a1,1(a4)
     5b8:	00b70023          	sb	a1,0(a4)
     5bc:	8082                	ret
     5be:	0ff5f593          	andi	a1,a1,255
     5c2:	00859693          	slli	a3,a1,0x8
     5c6:	8dd5                	or	a1,a1,a3
     5c8:	01059693          	slli	a3,a1,0x10
     5cc:	8dd5                	or	a1,a1,a3
     5ce:	b761                	j	556 <memset+0x10>
     5d0:	00279693          	slli	a3,a5,0x2
     5d4:	00000297          	auipc	t0,0x0
     5d8:	9696                	add	a3,a3,t0
     5da:	8286                	mv	t0,ra
     5dc:	fa8680e7          	jalr	-88(a3)
     5e0:	8096                	mv	ra,t0
     5e2:	17c1                	addi	a5,a5,-16
     5e4:	8f1d                	sub	a4,a4,a5
     5e6:	963e                	add	a2,a2,a5
     5e8:	f8c374e3          	bgeu	t1,a2,570 <memset+0x2a>
     5ec:	b7a5                	j	554 <memset+0xe>

000005ee <test_task>:
     5ee:	f29ff2ef          	jal	t0,516 <__riscv_save_0>
     5f2:	40011437          	lui	s0,0x40011
     5f6:	000074b7          	lui	s1,0x7
     5fa:	80040413          	addi	s0,s0,-2048 # 40010800 <__freertos_irq_stack_top+0x20008800>
     5fe:	44448513          	addi	a0,s1,1092 # 7444 <_read+0x18>
     602:	51f050ef          	jal	ra,6320 <puts>
     606:	10000593          	li	a1,256
     60a:	8522                	mv	a0,s0
     60c:	2159                	jal	a92 <GPIO_SetBits>
     60e:	06400513          	li	a0,100
     612:	345020ef          	jal	ra,3156 <vTaskDelay>
     616:	8522                	mv	a0,s0
     618:	10000593          	li	a1,256
     61c:	29ad                	jal	a96 <GPIO_ResetBits>
     61e:	06400513          	li	a0,100
     622:	335020ef          	jal	ra,3156 <vTaskDelay>
     626:	bfe1                	j	5fe <test_task+0x10>

00000628 <RTOS_init>:
     628:	eefff2ef          	jal	t0,516 <__riscv_save_0>
     62c:	00007437          	lui	s0,0x7
     630:	200007b7          	lui	a5,0x20000
     634:	00000537          	lui	a0,0x0
     638:	43c40593          	addi	a1,s0,1084 # 743c <_read+0x10>
     63c:	10478793          	addi	a5,a5,260 # 20000104 <TESTTask_Handler>
     640:	4715                	li	a4,5
     642:	4681                	li	a3,0
     644:	10000613          	li	a2,256
     648:	5ee50513          	addi	a0,a0,1518 # 5ee <test_task>
     64c:	546020ef          	jal	ra,2b92 <xTaskCreate>
     650:	200007b7          	lui	a5,0x20000
     654:	00002537          	lui	a0,0x2
     658:	10078793          	addi	a5,a5,256 # 20000100 <_edata>
     65c:	4715                	li	a4,5
     65e:	4681                	li	a3,0
     660:	10000613          	li	a2,256
     664:	43c40593          	addi	a1,s0,1084
     668:	8dc50513          	addi	a0,a0,-1828 # 18dc <print_status>
     66c:	526020ef          	jal	ra,2b92 <xTaskCreate>
     670:	726020ef          	jal	ra,2d96 <vTaskStartScheduler>
     674:	b5d9                	j	53a <__riscv_restore_0>

00000676 <NMI_Handler>:
     676:	30200073          	mret

0000067a <HardFault_Handler>:
     67a:	a001                	j	67a <HardFault_Handler>

0000067c <GPIO_Toggle_INIT>:
     67c:	e9bff2ef          	jal	t0,516 <__riscv_save_0>
     680:	1141                	addi	sp,sp,-16
     682:	4585                	li	a1,1
     684:	4511                	li	a0,4
     686:	c202                	sw	zero,4(sp)
     688:	c402                	sw	zero,8(sp)
     68a:	c602                	sw	zero,12(sp)
     68c:	2589                	jal	cce <RCC_APB2PeriphClockCmd>
     68e:	478d                	li	a5,3
     690:	827c                	sh	a5,4(sp)
     692:	40011537          	lui	a0,0x40011
     696:	47c1                	li	a5,16
     698:	c63e                	sw	a5,12(sp)
     69a:	004c                	addi	a1,sp,4
     69c:	478d                	li	a5,3
     69e:	80050513          	addi	a0,a0,-2048 # 40010800 <__freertos_irq_stack_top+0x20008800>
     6a2:	c43e                	sw	a5,8(sp)
     6a4:	263d                	jal	9d2 <GPIO_Init>
     6a6:	0141                	addi	sp,sp,16
     6a8:	bd49                	j	53a <__riscv_restore_0>

000006aa <main>:
     6aa:	e6dff2ef          	jal	t0,516 <__riscv_save_0>
     6ae:	4509                	li	a0,2
     6b0:	2979                	jal	b4e <NVIC_PriorityGroupConfig>
     6b2:	2a91                	jal	806 <SystemCoreClockUpdate>
     6b4:	198030ef          	jal	ra,384c <Delay_Init>
     6b8:	6571                	lui	a0,0x1c
     6ba:	20050513          	addi	a0,a0,512 # 1c200 <_data_lma+0x146e4>
     6be:	1fa030ef          	jal	ra,38b8 <USART_Printf_Init>
     6c2:	200007b7          	lui	a5,0x20000
     6c6:	0d07a583          	lw	a1,208(a5) # 200000d0 <SystemCoreClock>
     6ca:	00007537          	lui	a0,0x7
     6ce:	45450513          	addi	a0,a0,1108 # 7454 <_read+0x28>
     6d2:	33b050ef          	jal	ra,620c <iprintf>
     6d6:	2ccd                	jal	9c8 <DBGMCU_GetCHIPID>
     6d8:	85aa                	mv	a1,a0
     6da:	00007537          	lui	a0,0x7
     6de:	46450513          	addi	a0,a0,1124 # 7464 <_read+0x38>
     6e2:	32b050ef          	jal	ra,620c <iprintf>
     6e6:	000075b7          	lui	a1,0x7
     6ea:	00007537          	lui	a0,0x7
     6ee:	47458593          	addi	a1,a1,1140 # 7474 <_read+0x48>
     6f2:	47c50513          	addi	a0,a0,1148 # 747c <_read+0x50>
     6f6:	317050ef          	jal	ra,620c <iprintf>
     6fa:	3749                	jal	67c <GPIO_Toggle_INIT>
     6fc:	3735                	jal	628 <RTOS_init>
     6fe:	00007437          	lui	s0,0x7
     702:	49c40513          	addi	a0,s0,1180 # 749c <_read+0x70>
     706:	41b050ef          	jal	ra,6320 <puts>
     70a:	bfe5                	j	702 <main+0x58>

0000070c <SystemInit>:
     70c:	400217b7          	lui	a5,0x40021
     710:	4398                	lw	a4,0(a5)
     712:	f0ff06b7          	lui	a3,0xf0ff0
     716:	1141                	addi	sp,sp,-16
     718:	00176713          	ori	a4,a4,1
     71c:	c398                	sw	a4,0(a5)
     71e:	43d8                	lw	a4,4(a5)
     720:	00020637          	lui	a2,0x20
     724:	8f75                	and	a4,a4,a3
     726:	c3d8                	sw	a4,4(a5)
     728:	4398                	lw	a4,0(a5)
     72a:	fef706b7          	lui	a3,0xfef70
     72e:	16fd                	addi	a3,a3,-1
     730:	8f75                	and	a4,a4,a3
     732:	c398                	sw	a4,0(a5)
     734:	4398                	lw	a4,0(a5)
     736:	fffc06b7          	lui	a3,0xfffc0
     73a:	16fd                	addi	a3,a3,-1
     73c:	8f75                	and	a4,a4,a3
     73e:	c398                	sw	a4,0(a5)
     740:	43d8                	lw	a4,4(a5)
     742:	ff0106b7          	lui	a3,0xff010
     746:	16fd                	addi	a3,a3,-1
     748:	8f75                	and	a4,a4,a3
     74a:	c3d8                	sw	a4,4(a5)
     74c:	4398                	lw	a4,0(a5)
     74e:	ec0006b7          	lui	a3,0xec000
     752:	16fd                	addi	a3,a3,-1
     754:	8f75                	and	a4,a4,a3
     756:	c398                	sw	a4,0(a5)
     758:	00ff0737          	lui	a4,0xff0
     75c:	c798                	sw	a4,8(a5)
     75e:	0207a623          	sw	zero,44(a5) # 4002102c <__freertos_irq_stack_top+0x2001902c>
     762:	c402                	sw	zero,8(sp)
     764:	c602                	sw	zero,12(sp)
     766:	4398                	lw	a4,0(a5)
     768:	66c1                	lui	a3,0x10
     76a:	8f55                	or	a4,a4,a3
     76c:	c398                	sw	a4,0(a5)
     76e:	400216b7          	lui	a3,0x40021
     772:	6705                	lui	a4,0x1
     774:	429c                	lw	a5,0(a3)
     776:	8ff1                	and	a5,a5,a2
     778:	c63e                	sw	a5,12(sp)
     77a:	47a2                	lw	a5,8(sp)
     77c:	0785                	addi	a5,a5,1
     77e:	c43e                	sw	a5,8(sp)
     780:	47b2                	lw	a5,12(sp)
     782:	e781                	bnez	a5,78a <SystemInit+0x7e>
     784:	47a2                	lw	a5,8(sp)
     786:	fee797e3          	bne	a5,a4,774 <SystemInit+0x68>
     78a:	400217b7          	lui	a5,0x40021
     78e:	439c                	lw	a5,0(a5)
     790:	00e79713          	slli	a4,a5,0xe
     794:	06075763          	bgez	a4,802 <__stack_size+0x2>
     798:	4785                	li	a5,1
     79a:	c63e                	sw	a5,12(sp)
     79c:	4732                	lw	a4,12(sp)
     79e:	4785                	li	a5,1
     7a0:	04f71f63          	bne	a4,a5,7fe <SystemInit+0xf2>
     7a4:	400217b7          	lui	a5,0x40021
     7a8:	43d8                	lw	a4,4(a5)
     7aa:	ffc106b7          	lui	a3,0xffc10
     7ae:	16fd                	addi	a3,a3,-1
     7b0:	c3d8                	sw	a4,4(a5)
     7b2:	43d8                	lw	a4,4(a5)
     7b4:	c3d8                	sw	a4,4(a5)
     7b6:	43d8                	lw	a4,4(a5)
     7b8:	40076713          	ori	a4,a4,1024
     7bc:	c3d8                	sw	a4,4(a5)
     7be:	43d8                	lw	a4,4(a5)
     7c0:	8f75                	and	a4,a4,a3
     7c2:	c3d8                	sw	a4,4(a5)
     7c4:	43d8                	lw	a4,4(a5)
     7c6:	001d06b7          	lui	a3,0x1d0
     7ca:	8f55                	or	a4,a4,a3
     7cc:	c3d8                	sw	a4,4(a5)
     7ce:	4398                	lw	a4,0(a5)
     7d0:	010006b7          	lui	a3,0x1000
     7d4:	8f55                	or	a4,a4,a3
     7d6:	c398                	sw	a4,0(a5)
     7d8:	4398                	lw	a4,0(a5)
     7da:	00671693          	slli	a3,a4,0x6
     7de:	fe06dde3          	bgez	a3,7d8 <SystemInit+0xcc>
     7e2:	43d8                	lw	a4,4(a5)
     7e4:	400216b7          	lui	a3,0x40021
     7e8:	9b71                	andi	a4,a4,-4
     7ea:	c3d8                	sw	a4,4(a5)
     7ec:	43d8                	lw	a4,4(a5)
     7ee:	00276713          	ori	a4,a4,2
     7f2:	c3d8                	sw	a4,4(a5)
     7f4:	4721                	li	a4,8
     7f6:	42dc                	lw	a5,4(a3)
     7f8:	8bb1                	andi	a5,a5,12
     7fa:	fee79ee3          	bne	a5,a4,7f6 <SystemInit+0xea>
     7fe:	0141                	addi	sp,sp,16
     800:	8082                	ret
     802:	c602                	sw	zero,12(sp)
     804:	bf61                	j	79c <SystemInit+0x90>

00000806 <SystemCoreClockUpdate>:
     806:	400216b7          	lui	a3,0x40021
     80a:	42d8                	lw	a4,4(a3)
     80c:	200007b7          	lui	a5,0x20000
     810:	4611                	li	a2,4
     812:	8b31                	andi	a4,a4,12
     814:	0d078793          	addi	a5,a5,208 # 200000d0 <SystemCoreClock>
     818:	00c70563          	beq	a4,a2,822 <SystemCoreClockUpdate+0x1c>
     81c:	4621                	li	a2,8
     81e:	02c70863          	beq	a4,a2,84e <SystemCoreClockUpdate+0x48>
     822:	007a1737          	lui	a4,0x7a1
     826:	20070713          	addi	a4,a4,512 # 7a1200 <_data_lma+0x7996e4>
     82a:	c398                	sw	a4,0(a5)
     82c:	40021737          	lui	a4,0x40021
     830:	4358                	lw	a4,4(a4)
     832:	8311                	srli	a4,a4,0x4
     834:	00f77693          	andi	a3,a4,15
     838:	20000737          	lui	a4,0x20000
     83c:	00070713          	mv	a4,a4
     840:	9736                	add	a4,a4,a3
     842:	2314                	lbu	a3,0(a4)
     844:	4398                	lw	a4,0(a5)
     846:	00d75733          	srl	a4,a4,a3
     84a:	c398                	sw	a4,0(a5)
     84c:	8082                	ret
     84e:	42d8                	lw	a4,4(a3)
     850:	42d4                	lw	a3,4(a3)
     852:	6641                	lui	a2,0x10
     854:	8349                	srli	a4,a4,0x12
     856:	8b3d                	andi	a4,a4,15
     858:	8ef1                	and	a3,a3,a2
     85a:	00270613          	addi	a2,a4,2 # 20000002 <_data_vma+0x2>
     85e:	cf15                	beqz	a4,89a <SystemCoreClockUpdate+0x94>
     860:	473d                	li	a4,15
     862:	02e60f63          	beq	a2,a4,8a0 <SystemCoreClockUpdate+0x9a>
     866:	4741                	li	a4,16
     868:	02e60f63          	beq	a2,a4,8a6 <SystemCoreClockUpdate+0xa0>
     86c:	4745                	li	a4,17
     86e:	4581                	li	a1,0
     870:	00e61363          	bne	a2,a4,876 <SystemCoreClockUpdate+0x70>
     874:	4641                	li	a2,16
     876:	e2a1                	bnez	a3,8b6 <SystemCoreClockUpdate+0xb0>
     878:	40024737          	lui	a4,0x40024
     87c:	80072703          	lw	a4,-2048(a4) # 40023800 <__freertos_irq_stack_top+0x2001b800>
     880:	8b41                	andi	a4,a4,16
     882:	c70d                	beqz	a4,8ac <SystemCoreClockUpdate+0xa6>
     884:	007a1737          	lui	a4,0x7a1
     888:	20070713          	addi	a4,a4,512 # 7a1200 <_data_lma+0x7996e4>
     88c:	02c70633          	mul	a2,a4,a2
     890:	c390                	sw	a2,0(a5)
     892:	ddc9                	beqz	a1,82c <SystemCoreClockUpdate+0x26>
     894:	4398                	lw	a4,0(a5)
     896:	8305                	srli	a4,a4,0x1
     898:	bf49                	j	82a <SystemCoreClockUpdate+0x24>
     89a:	4581                	li	a1,0
     89c:	4649                	li	a2,18
     89e:	bfe1                	j	876 <SystemCoreClockUpdate+0x70>
     8a0:	4585                	li	a1,1
     8a2:	4635                	li	a2,13
     8a4:	bfc9                	j	876 <SystemCoreClockUpdate+0x70>
     8a6:	4581                	li	a1,0
     8a8:	463d                	li	a2,15
     8aa:	b7f1                	j	876 <SystemCoreClockUpdate+0x70>
     8ac:	003d1737          	lui	a4,0x3d1
     8b0:	90070713          	addi	a4,a4,-1792 # 3d0900 <_data_lma+0x3c8de4>
     8b4:	bfe1                	j	88c <SystemCoreClockUpdate+0x86>
     8b6:	40021537          	lui	a0,0x40021
     8ba:	5558                	lw	a4,44(a0)
     8bc:	00f71693          	slli	a3,a4,0xf
     8c0:	5558                	lw	a4,44(a0)
     8c2:	0406df63          	bgez	a3,920 <SystemCoreClockUpdate+0x11a>
     8c6:	8311                	srli	a4,a4,0x4
     8c8:	8b3d                	andi	a4,a4,15
     8ca:	00170693          	addi	a3,a4,1
     8ce:	007a1737          	lui	a4,0x7a1
     8d2:	20070713          	addi	a4,a4,512 # 7a1200 <_data_lma+0x7996e4>
     8d6:	02d75733          	divu	a4,a4,a3
     8da:	c398                	sw	a4,0(a5)
     8dc:	5554                	lw	a3,44(a0)
     8de:	82a1                	srli	a3,a3,0x8
     8e0:	8abd                	andi	a3,a3,15
     8e2:	e28d                	bnez	a3,904 <SystemCoreClockUpdate+0xfe>
     8e4:	4695                	li	a3,5
     8e6:	02d70733          	mul	a4,a4,a3
     8ea:	8305                	srli	a4,a4,0x1
     8ec:	c398                	sw	a4,0(a5)
     8ee:	40021737          	lui	a4,0x40021
     8f2:	5758                	lw	a4,44(a4)
     8f4:	4394                	lw	a3,0(a5)
     8f6:	8b3d                	andi	a4,a4,15
     8f8:	0705                	addi	a4,a4,1
     8fa:	02e6d733          	divu	a4,a3,a4
     8fe:	c398                	sw	a4,0(a5)
     900:	4398                	lw	a4,0(a5)
     902:	b769                	j	88c <SystemCoreClockUpdate+0x86>
     904:	4505                	li	a0,1
     906:	00a69463          	bne	a3,a0,90e <SystemCoreClockUpdate+0x108>
     90a:	46e5                	li	a3,25
     90c:	bfe9                	j	8e6 <SystemCoreClockUpdate+0xe0>
     90e:	453d                	li	a0,15
     910:	00a69663          	bne	a3,a0,91c <SystemCoreClockUpdate+0x116>
     914:	46d1                	li	a3,20
     916:	02e68733          	mul	a4,a3,a4
     91a:	bfc9                	j	8ec <SystemCoreClockUpdate+0xe6>
     91c:	0689                	addi	a3,a3,2
     91e:	bfe5                	j	916 <SystemCoreClockUpdate+0x110>
     920:	8b3d                	andi	a4,a4,15
     922:	00170693          	addi	a3,a4,1 # 40021001 <__freertos_irq_stack_top+0x20019001>
     926:	007a1737          	lui	a4,0x7a1
     92a:	20070713          	addi	a4,a4,512 # 7a1200 <_data_lma+0x7996e4>
     92e:	02d75733          	divu	a4,a4,a3
     932:	b7f1                	j	8fe <SystemCoreClockUpdate+0xf8>

00000934 <ADC1_2_IRQHandler>:
     934:	a001                	j	934 <ADC1_2_IRQHandler>

00000936 <handle_reset>:
     936:	20000197          	auipc	gp,0x20000
     93a:	f9a18193          	addi	gp,gp,-102 # 200008d0 <__global_pointer$>
     93e:	20007117          	auipc	sp,0x20007
     942:	6c210113          	addi	sp,sp,1730 # 20008000 <__freertos_irq_stack_top>
     946:	00007517          	auipc	a0,0x7
     94a:	1d650513          	addi	a0,a0,470 # 7b1c <_data_lma>
     94e:	1ffff597          	auipc	a1,0x1ffff
     952:	6b258593          	addi	a1,a1,1714 # 20000000 <_data_vma>
     956:	83018613          	addi	a2,gp,-2000 # 20000100 <_edata>
     95a:	00c5fa63          	bgeu	a1,a2,96e <handle_reset+0x38>
     95e:	00052283          	lw	t0,0(a0)
     962:	0055a023          	sw	t0,0(a1)
     966:	0511                	addi	a0,a0,4
     968:	0591                	addi	a1,a1,4
     96a:	fec5eae3          	bltu	a1,a2,95e <handle_reset+0x28>
     96e:	1ffff517          	auipc	a0,0x1ffff
     972:	79250513          	addi	a0,a0,1938 # 20000100 <_edata>
     976:	20003597          	auipc	a1,0x20003
     97a:	e1a58593          	addi	a1,a1,-486 # 20003790 <_ebss>
     97e:	00b57763          	bgeu	a0,a1,98c <handle_reset+0x56>
     982:	00052023          	sw	zero,0(a0)
     986:	0511                	addi	a0,a0,4
     988:	feb56de3          	bltu	a0,a1,982 <handle_reset+0x4c>
     98c:	42fd                	li	t0,31
     98e:	bc029073          	csrw	0xbc0,t0
     992:	42fd                	li	t0,31
     994:	80429073          	csrw	0x804,t0
     998:	000082b7          	lui	t0,0x8
     99c:	80028293          	addi	t0,t0,-2048 # 7800 <test+0x2e4>
     9a0:	30029073          	csrw	mstatus,t0
     9a4:	fffff297          	auipc	t0,0xfffff
     9a8:	66028293          	addi	t0,t0,1632 # 4 <_einit>
     9ac:	0032e293          	ori	t0,t0,3
     9b0:	30529073          	csrw	mtvec,t0
     9b4:	d59ff0ef          	jal	ra,70c <SystemInit>
     9b8:	00000297          	auipc	t0,0x0
     9bc:	cf228293          	addi	t0,t0,-782 # 6aa <main>
     9c0:	34129073          	csrw	mepc,t0
     9c4:	30200073          	mret

000009c8 <DBGMCU_GetCHIPID>:
     9c8:	1ffff7b7          	lui	a5,0x1ffff
     9cc:	7047a503          	lw	a0,1796(a5) # 1ffff704 <_data_lma+0x1fff7be8>
     9d0:	8082                	ret

000009d2 <GPIO_Init>:
     9d2:	459c                	lw	a5,8(a1)
     9d4:	0107f713          	andi	a4,a5,16
     9d8:	00f7f813          	andi	a6,a5,15
     9dc:	c701                	beqz	a4,9e4 <GPIO_Init+0x12>
     9de:	41d8                	lw	a4,4(a1)
     9e0:	00e86833          	or	a6,a6,a4
     9e4:	218e                	lhu	a1,0(a1)
     9e6:	0ff5f713          	andi	a4,a1,255
     9ea:	c339                	beqz	a4,a30 <GPIO_Init+0x5e>
     9ec:	4118                	lw	a4,0(a0)
     9ee:	4681                	li	a3,0
     9f0:	4e85                	li	t4,1
     9f2:	4f3d                	li	t5,15
     9f4:	02800f93          	li	t6,40
     9f8:	04800293          	li	t0,72
     9fc:	4e21                	li	t3,8
     9fe:	00de9633          	sll	a2,t4,a3
     a02:	00c5f8b3          	and	a7,a1,a2
     a06:	03161163          	bne	a2,a7,a28 <GPIO_Init+0x56>
     a0a:	00269893          	slli	a7,a3,0x2
     a0e:	011f1333          	sll	t1,t5,a7
     a12:	fff34313          	not	t1,t1
     a16:	00e37733          	and	a4,t1,a4
     a1a:	011818b3          	sll	a7,a6,a7
     a1e:	00e8e733          	or	a4,a7,a4
     a22:	05f79f63          	bne	a5,t6,a80 <GPIO_Init+0xae>
     a26:	c950                	sw	a2,20(a0)
     a28:	0685                	addi	a3,a3,1
     a2a:	fdc69ae3          	bne	a3,t3,9fe <GPIO_Init+0x2c>
     a2e:	c118                	sw	a4,0(a0)
     a30:	0ff00713          	li	a4,255
     a34:	04b77563          	bgeu	a4,a1,a7e <GPIO_Init+0xac>
     a38:	4154                	lw	a3,4(a0)
     a3a:	4621                	li	a2,8
     a3c:	4e85                	li	t4,1
     a3e:	4f3d                	li	t5,15
     a40:	02800f93          	li	t6,40
     a44:	04800293          	li	t0,72
     a48:	4e41                	li	t3,16
     a4a:	00ce98b3          	sll	a7,t4,a2
     a4e:	0115f733          	and	a4,a1,a7
     a52:	02e89263          	bne	a7,a4,a76 <GPIO_Init+0xa4>
     a56:	00261713          	slli	a4,a2,0x2
     a5a:	1701                	addi	a4,a4,-32
     a5c:	00ef1333          	sll	t1,t5,a4
     a60:	fff34313          	not	t1,t1
     a64:	00d376b3          	and	a3,t1,a3
     a68:	00e81733          	sll	a4,a6,a4
     a6c:	8ed9                	or	a3,a3,a4
     a6e:	01f79d63          	bne	a5,t6,a88 <GPIO_Init+0xb6>
     a72:	01152a23          	sw	a7,20(a0)
     a76:	0605                	addi	a2,a2,1
     a78:	fdc619e3          	bne	a2,t3,a4a <GPIO_Init+0x78>
     a7c:	c154                	sw	a3,4(a0)
     a7e:	8082                	ret
     a80:	fa5794e3          	bne	a5,t0,a28 <GPIO_Init+0x56>
     a84:	c910                	sw	a2,16(a0)
     a86:	b74d                	j	a28 <GPIO_Init+0x56>
     a88:	fe5797e3          	bne	a5,t0,a76 <GPIO_Init+0xa4>
     a8c:	01152823          	sw	a7,16(a0)
     a90:	b7dd                	j	a76 <GPIO_Init+0xa4>

00000a92 <GPIO_SetBits>:
     a92:	c90c                	sw	a1,16(a0)
     a94:	8082                	ret

00000a96 <GPIO_ResetBits>:
     a96:	c94c                	sw	a1,20(a0)
     a98:	8082                	ret

00000a9a <I2C_GenerateSTART>:
     a9a:	211e                	lhu	a5,0(a0)
     a9c:	c589                	beqz	a1,aa6 <I2C_GenerateSTART+0xc>
     a9e:	1007e793          	ori	a5,a5,256
     aa2:	a11e                	sh	a5,0(a0)
     aa4:	8082                	ret
     aa6:	07c2                	slli	a5,a5,0x10
     aa8:	83c1                	srli	a5,a5,0x10
     aaa:	eff7f793          	andi	a5,a5,-257
     aae:	07c2                	slli	a5,a5,0x10
     ab0:	83c1                	srli	a5,a5,0x10
     ab2:	bfc5                	j	aa2 <I2C_GenerateSTART+0x8>

00000ab4 <I2C_GenerateSTOP>:
     ab4:	211e                	lhu	a5,0(a0)
     ab6:	c589                	beqz	a1,ac0 <I2C_GenerateSTOP+0xc>
     ab8:	2007e793          	ori	a5,a5,512
     abc:	a11e                	sh	a5,0(a0)
     abe:	8082                	ret
     ac0:	07c2                	slli	a5,a5,0x10
     ac2:	83c1                	srli	a5,a5,0x10
     ac4:	dff7f793          	andi	a5,a5,-513
     ac8:	07c2                	slli	a5,a5,0x10
     aca:	83c1                	srli	a5,a5,0x10
     acc:	bfc5                	j	abc <I2C_GenerateSTOP+0x8>

00000ace <I2C_AcknowledgeConfig>:
     ace:	211e                	lhu	a5,0(a0)
     ad0:	c589                	beqz	a1,ada <I2C_AcknowledgeConfig+0xc>
     ad2:	4007e793          	ori	a5,a5,1024
     ad6:	a11e                	sh	a5,0(a0)
     ad8:	8082                	ret
     ada:	07c2                	slli	a5,a5,0x10
     adc:	83c1                	srli	a5,a5,0x10
     ade:	bff7f793          	andi	a5,a5,-1025
     ae2:	07c2                	slli	a5,a5,0x10
     ae4:	83c1                	srli	a5,a5,0x10
     ae6:	bfc5                	j	ad6 <I2C_AcknowledgeConfig+0x8>

00000ae8 <I2C_SendData>:
     ae8:	a90e                	sh	a1,16(a0)
     aea:	8082                	ret

00000aec <I2C_ReceiveData>:
     aec:	290a                	lhu	a0,16(a0)
     aee:	0ff57513          	andi	a0,a0,255
     af2:	8082                	ret

00000af4 <I2C_Send7bitAddress>:
     af4:	0fe5f793          	andi	a5,a1,254
     af8:	c219                	beqz	a2,afe <I2C_Send7bitAddress+0xa>
     afa:	0015e793          	ori	a5,a1,1
     afe:	07c2                	slli	a5,a5,0x10
     b00:	83c1                	srli	a5,a5,0x10
     b02:	a91e                	sh	a5,16(a0)
     b04:	8082                	ret

00000b06 <I2C_CheckEvent>:
     b06:	295e                	lhu	a5,20(a0)
     b08:	2d0a                	lhu	a0,24(a0)
     b0a:	0542                	slli	a0,a0,0x10
     b0c:	8d5d                	or	a0,a0,a5
     b0e:	8d6d                	and	a0,a0,a1
     b10:	0522                	slli	a0,a0,0x8
     b12:	8121                	srli	a0,a0,0x8
     b14:	8d0d                	sub	a0,a0,a1
     b16:	00153513          	seqz	a0,a0
     b1a:	8082                	ret

00000b1c <I2C_GetFlagStatus>:
     b1c:	1141                	addi	sp,sp,-16
     b1e:	c402                	sw	zero,8(sp)
     b20:	c602                	sw	zero,12(sp)
     b22:	01c5d793          	srli	a5,a1,0x1c
     b26:	c62a                	sw	a0,12(sp)
     b28:	c43e                	sw	a5,8(sp)
     b2a:	47a2                	lw	a5,8(sp)
     b2c:	05a2                	slli	a1,a1,0x8
     b2e:	81a1                	srli	a1,a1,0x8
     b30:	cb99                	beqz	a5,b46 <I2C_GetFlagStatus+0x2a>
     b32:	47b2                	lw	a5,12(sp)
     b34:	07d1                	addi	a5,a5,20
     b36:	c63e                	sw	a5,12(sp)
     b38:	47b2                	lw	a5,12(sp)
     b3a:	4388                	lw	a0,0(a5)
     b3c:	0141                	addi	sp,sp,16
     b3e:	8d6d                	and	a0,a0,a1
     b40:	00a03533          	snez	a0,a0
     b44:	8082                	ret
     b46:	47b2                	lw	a5,12(sp)
     b48:	81c1                	srli	a1,a1,0x10
     b4a:	07e1                	addi	a5,a5,24
     b4c:	b7ed                	j	b36 <I2C_GetFlagStatus+0x1a>

00000b4e <NVIC_PriorityGroupConfig>:
     b4e:	200007b7          	lui	a5,0x20000
     b52:	10a7a423          	sw	a0,264(a5) # 20000108 <NVIC_Priority_Group>
     b56:	8082                	ret

00000b58 <RCC_GetClocksFreq>:
     b58:	40021737          	lui	a4,0x40021
     b5c:	435c                	lw	a5,4(a4)
     b5e:	4691                	li	a3,4
     b60:	8bb1                	andi	a5,a5,12
     b62:	00d78563          	beq	a5,a3,b6c <RCC_GetClocksFreq+0x14>
     b66:	46a1                	li	a3,8
     b68:	06d78263          	beq	a5,a3,bcc <RCC_GetClocksFreq+0x74>
     b6c:	007a17b7          	lui	a5,0x7a1
     b70:	20078793          	addi	a5,a5,512 # 7a1200 <_data_lma+0x7996e4>
     b74:	c11c                	sw	a5,0(a0)
     b76:	40021637          	lui	a2,0x40021
     b7a:	425c                	lw	a5,4(a2)
     b7c:	20000737          	lui	a4,0x20000
     b80:	01070713          	addi	a4,a4,16 # 20000010 <APBAHBPrescTable>
     b84:	8391                	srli	a5,a5,0x4
     b86:	8bbd                	andi	a5,a5,15
     b88:	97ba                	add	a5,a5,a4
     b8a:	2394                	lbu	a3,0(a5)
     b8c:	411c                	lw	a5,0(a0)
     b8e:	00d7d7b3          	srl	a5,a5,a3
     b92:	c15c                	sw	a5,4(a0)
     b94:	4254                	lw	a3,4(a2)
     b96:	82a1                	srli	a3,a3,0x8
     b98:	8a9d                	andi	a3,a3,7
     b9a:	96ba                	add	a3,a3,a4
     b9c:	2294                	lbu	a3,0(a3)
     b9e:	00d7d6b3          	srl	a3,a5,a3
     ba2:	c514                	sw	a3,8(a0)
     ba4:	4254                	lw	a3,4(a2)
     ba6:	82ad                	srli	a3,a3,0xb
     ba8:	8a9d                	andi	a3,a3,7
     baa:	9736                	add	a4,a4,a3
     bac:	2318                	lbu	a4,0(a4)
     bae:	00e7d7b3          	srl	a5,a5,a4
     bb2:	c55c                	sw	a5,12(a0)
     bb4:	4258                	lw	a4,4(a2)
     bb6:	8339                	srli	a4,a4,0xe
     bb8:	00377693          	andi	a3,a4,3
     bbc:	80418713          	addi	a4,gp,-2044 # 200000d4 <ADCPrescTable>
     bc0:	9736                	add	a4,a4,a3
     bc2:	2318                	lbu	a4,0(a4)
     bc4:	02e7d7b3          	divu	a5,a5,a4
     bc8:	c91c                	sw	a5,16(a0)
     bca:	8082                	ret
     bcc:	435c                	lw	a5,4(a4)
     bce:	4358                	lw	a4,4(a4)
     bd0:	66c1                	lui	a3,0x10
     bd2:	83c9                	srli	a5,a5,0x12
     bd4:	8f75                	and	a4,a4,a3
     bd6:	1ffff6b7          	lui	a3,0x1ffff
     bda:	70c6a683          	lw	a3,1804(a3) # 1ffff70c <_data_lma+0x1fff7bf0>
     bde:	8bbd                	andi	a5,a5,15
     be0:	0789                	addi	a5,a5,2
     be2:	01169613          	slli	a2,a3,0x11
     be6:	00064863          	bltz	a2,bf6 <RCC_GetClocksFreq+0x9e>
     bea:	46c5                	li	a3,17
     bec:	4601                	li	a2,0
     bee:	02d79263          	bne	a5,a3,c12 <RCC_GetClocksFreq+0xba>
     bf2:	47c9                	li	a5,18
     bf4:	a839                	j	c12 <RCC_GetClocksFreq+0xba>
     bf6:	4689                	li	a3,2
     bf8:	02d78f63          	beq	a5,a3,c36 <RCC_GetClocksFreq+0xde>
     bfc:	46bd                	li	a3,15
     bfe:	02d78e63          	beq	a5,a3,c3a <RCC_GetClocksFreq+0xe2>
     c02:	46c1                	li	a3,16
     c04:	02d78e63          	beq	a5,a3,c40 <RCC_GetClocksFreq+0xe8>
     c08:	46c5                	li	a3,17
     c0a:	4601                	li	a2,0
     c0c:	00d79363          	bne	a5,a3,c12 <RCC_GetClocksFreq+0xba>
     c10:	47c1                	li	a5,16
     c12:	ef1d                	bnez	a4,c50 <RCC_GetClocksFreq+0xf8>
     c14:	40024737          	lui	a4,0x40024
     c18:	80072703          	lw	a4,-2048(a4) # 40023800 <__freertos_irq_stack_top+0x2001b800>
     c1c:	8b41                	andi	a4,a4,16
     c1e:	c705                	beqz	a4,c46 <RCC_GetClocksFreq+0xee>
     c20:	007a1737          	lui	a4,0x7a1
     c24:	20070713          	addi	a4,a4,512 # 7a1200 <_data_lma+0x7996e4>
     c28:	02f707b3          	mul	a5,a4,a5
     c2c:	c11c                	sw	a5,0(a0)
     c2e:	d621                	beqz	a2,b76 <RCC_GetClocksFreq+0x1e>
     c30:	411c                	lw	a5,0(a0)
     c32:	8385                	srli	a5,a5,0x1
     c34:	b781                	j	b74 <RCC_GetClocksFreq+0x1c>
     c36:	4601                	li	a2,0
     c38:	bf6d                	j	bf2 <RCC_GetClocksFreq+0x9a>
     c3a:	4605                	li	a2,1
     c3c:	47b5                	li	a5,13
     c3e:	bfd1                	j	c12 <RCC_GetClocksFreq+0xba>
     c40:	4601                	li	a2,0
     c42:	47bd                	li	a5,15
     c44:	b7f9                	j	c12 <RCC_GetClocksFreq+0xba>
     c46:	003d1737          	lui	a4,0x3d1
     c4a:	90070713          	addi	a4,a4,-1792 # 3d0900 <_data_lma+0x3c8de4>
     c4e:	bfe9                	j	c28 <RCC_GetClocksFreq+0xd0>
     c50:	400215b7          	lui	a1,0x40021
     c54:	55d8                	lw	a4,44(a1)
     c56:	00f71693          	slli	a3,a4,0xf
     c5a:	55d8                	lw	a4,44(a1)
     c5c:	0406df63          	bgez	a3,cba <RCC_GetClocksFreq+0x162>
     c60:	8311                	srli	a4,a4,0x4
     c62:	8b3d                	andi	a4,a4,15
     c64:	00170693          	addi	a3,a4,1
     c68:	007a1737          	lui	a4,0x7a1
     c6c:	20070713          	addi	a4,a4,512 # 7a1200 <_data_lma+0x7996e4>
     c70:	02d75733          	divu	a4,a4,a3
     c74:	c118                	sw	a4,0(a0)
     c76:	55d4                	lw	a3,44(a1)
     c78:	82a1                	srli	a3,a3,0x8
     c7a:	8abd                	andi	a3,a3,15
     c7c:	e28d                	bnez	a3,c9e <RCC_GetClocksFreq+0x146>
     c7e:	4695                	li	a3,5
     c80:	02d70733          	mul	a4,a4,a3
     c84:	8305                	srli	a4,a4,0x1
     c86:	c118                	sw	a4,0(a0)
     c88:	40021737          	lui	a4,0x40021
     c8c:	5758                	lw	a4,44(a4)
     c8e:	4114                	lw	a3,0(a0)
     c90:	8b3d                	andi	a4,a4,15
     c92:	0705                	addi	a4,a4,1
     c94:	02e6d733          	divu	a4,a3,a4
     c98:	c118                	sw	a4,0(a0)
     c9a:	4118                	lw	a4,0(a0)
     c9c:	b771                	j	c28 <RCC_GetClocksFreq+0xd0>
     c9e:	4585                	li	a1,1
     ca0:	00b69463          	bne	a3,a1,ca8 <RCC_GetClocksFreq+0x150>
     ca4:	46e5                	li	a3,25
     ca6:	bfe9                	j	c80 <RCC_GetClocksFreq+0x128>
     ca8:	45bd                	li	a1,15
     caa:	00b69663          	bne	a3,a1,cb6 <RCC_GetClocksFreq+0x15e>
     cae:	46d1                	li	a3,20
     cb0:	02e68733          	mul	a4,a3,a4
     cb4:	bfc9                	j	c86 <RCC_GetClocksFreq+0x12e>
     cb6:	0689                	addi	a3,a3,2
     cb8:	bfe5                	j	cb0 <RCC_GetClocksFreq+0x158>
     cba:	8b3d                	andi	a4,a4,15
     cbc:	00170693          	addi	a3,a4,1 # 40021001 <__freertos_irq_stack_top+0x20019001>
     cc0:	007a1737          	lui	a4,0x7a1
     cc4:	20070713          	addi	a4,a4,512 # 7a1200 <_data_lma+0x7996e4>
     cc8:	02d75733          	divu	a4,a4,a3
     ccc:	b7f1                	j	c98 <RCC_GetClocksFreq+0x140>

00000cce <RCC_APB2PeriphClockCmd>:
     cce:	c599                	beqz	a1,cdc <RCC_APB2PeriphClockCmd+0xe>
     cd0:	40021737          	lui	a4,0x40021
     cd4:	4f1c                	lw	a5,24(a4)
     cd6:	8d5d                	or	a0,a0,a5
     cd8:	cf08                	sw	a0,24(a4)
     cda:	8082                	ret
     cdc:	400217b7          	lui	a5,0x40021
     ce0:	4f98                	lw	a4,24(a5)
     ce2:	fff54513          	not	a0,a0
     ce6:	8d79                	and	a0,a0,a4
     ce8:	cf88                	sw	a0,24(a5)
     cea:	8082                	ret

00000cec <TIM_SetCompare1>:
     cec:	b94e                	sh	a1,52(a0)
     cee:	8082                	ret

00000cf0 <TIM_SetCompare2>:
     cf0:	bd0e                	sh	a1,56(a0)
     cf2:	8082                	ret

00000cf4 <TIM_SetCompare3>:
     cf4:	bd4e                	sh	a1,60(a0)
     cf6:	8082                	ret

00000cf8 <TIM_SetCompare4>:
     cf8:	04b51023          	sh	a1,64(a0)
     cfc:	8082                	ret

00000cfe <TIM_GetCapture1>:
     cfe:	394a                	lhu	a0,52(a0)
     d00:	8082                	ret

00000d02 <TIM_GetCapture2>:
     d02:	3d0a                	lhu	a0,56(a0)
     d04:	8082                	ret

00000d06 <TIM_GetCapture3>:
     d06:	3d4a                	lhu	a0,60(a0)
     d08:	8082                	ret

00000d0a <TIM_GetCapture4>:
     d0a:	04055503          	lhu	a0,64(a0)
     d0e:	8082                	ret

00000d10 <TIM_ClearFlag>:
     d10:	fff5c593          	not	a1,a1
     d14:	05c2                	slli	a1,a1,0x10
     d16:	81c1                	srli	a1,a1,0x10
     d18:	a90e                	sh	a1,16(a0)
     d1a:	8082                	ret

00000d1c <USART_Init>:
     d1c:	ffaff2ef          	jal	t0,516 <__riscv_save_0>
     d20:	2916                	lhu	a3,16(a0)
     d22:	77f5                	lui	a5,0xffffd
     d24:	17fd                	addi	a5,a5,-1
     d26:	8ff5                	and	a5,a5,a3
     d28:	21f6                	lhu	a3,6(a1)
     d2a:	25da                	lhu	a4,12(a1)
     d2c:	7179                	addi	sp,sp,-48
     d2e:	8fd5                	or	a5,a5,a3
     d30:	a91e                	sh	a5,16(a0)
     d32:	2556                	lhu	a3,12(a0)
     d34:	77fd                	lui	a5,0xfffff
     d36:	9f378793          	addi	a5,a5,-1549 # ffffe9f3 <__freertos_irq_stack_top+0xdfff69f3>
     d3a:	8ff5                	and	a5,a5,a3
     d3c:	21d6                	lhu	a3,4(a1)
     d3e:	842a                	mv	s0,a0
     d40:	c62e                	sw	a1,12(sp)
     d42:	8fd5                	or	a5,a5,a3
     d44:	2596                	lhu	a3,8(a1)
     d46:	8fd5                	or	a5,a5,a3
     d48:	25b6                	lhu	a3,10(a1)
     d4a:	8fd5                	or	a5,a5,a3
     d4c:	a55e                	sh	a5,12(a0)
     d4e:	295e                	lhu	a5,20(a0)
     d50:	07c2                	slli	a5,a5,0x10
     d52:	83c1                	srli	a5,a5,0x10
     d54:	cff7f793          	andi	a5,a5,-769
     d58:	8fd9                	or	a5,a5,a4
     d5a:	a95e                	sh	a5,20(a0)
     d5c:	0868                	addi	a0,sp,28
     d5e:	3bed                	jal	b58 <RCC_GetClocksFreq>
     d60:	400147b7          	lui	a5,0x40014
     d64:	80078793          	addi	a5,a5,-2048 # 40013800 <__freertos_irq_stack_top+0x2000b800>
     d68:	45b2                	lw	a1,12(sp)
     d6a:	02f41e63          	bne	s0,a5,da6 <USART_Init+0x8a>
     d6e:	57a2                	lw	a5,40(sp)
     d70:	4765                	li	a4,25
     d72:	02e787b3          	mul	a5,a5,a4
     d76:	4198                	lw	a4,0(a1)
     d78:	06400693          	li	a3,100
     d7c:	070a                	slli	a4,a4,0x2
     d7e:	02e7d7b3          	divu	a5,a5,a4
     d82:	02d7d733          	divu	a4,a5,a3
     d86:	02d7f7b3          	remu	a5,a5,a3
     d8a:	0712                	slli	a4,a4,0x4
     d8c:	0792                	slli	a5,a5,0x4
     d8e:	03278793          	addi	a5,a5,50
     d92:	02d7d7b3          	divu	a5,a5,a3
     d96:	8bbd                	andi	a5,a5,15
     d98:	8fd9                	or	a5,a5,a4
     d9a:	07c2                	slli	a5,a5,0x10
     d9c:	83c1                	srli	a5,a5,0x10
     d9e:	a41e                	sh	a5,8(s0)
     da0:	6145                	addi	sp,sp,48
     da2:	f98ff06f          	j	53a <__riscv_restore_0>
     da6:	5792                	lw	a5,36(sp)
     da8:	b7e1                	j	d70 <USART_Init+0x54>

00000daa <USART_Cmd>:
     daa:	c591                	beqz	a1,db6 <USART_Cmd+0xc>
     dac:	255e                	lhu	a5,12(a0)
     dae:	6709                	lui	a4,0x2
     db0:	8fd9                	or	a5,a5,a4
     db2:	a55e                	sh	a5,12(a0)
     db4:	8082                	ret
     db6:	255a                	lhu	a4,12(a0)
     db8:	77f9                	lui	a5,0xffffe
     dba:	17fd                	addi	a5,a5,-1
     dbc:	8ff9                	and	a5,a5,a4
     dbe:	bfd5                	j	db2 <USART_Cmd+0x8>

00000dc0 <USART_SendData>:
     dc0:	1ff5f593          	andi	a1,a1,511
     dc4:	a14e                	sh	a1,4(a0)
     dc6:	8082                	ret

00000dc8 <USART_ReceiveData>:
     dc8:	214a                	lhu	a0,4(a0)
     dca:	1ff57513          	andi	a0,a0,511
     dce:	8082                	ret

00000dd0 <USART_GetFlagStatus>:
     dd0:	210a                	lhu	a0,0(a0)
     dd2:	8d6d                	and	a0,a0,a1
     dd4:	00a03533          	snez	a0,a0
     dd8:	8082                	ret

00000dda <USART_ClearFlag>:
     dda:	fff5c593          	not	a1,a1
     dde:	05c2                	slli	a1,a1,0x10
     de0:	81c1                	srli	a1,a1,0x10
     de2:	a10e                	sh	a1,0(a0)
     de4:	8082                	ret

00000de6 <USART_GetITStatus>:
     de6:	0ff5f713          	andi	a4,a1,255
     dea:	4685                	li	a3,1
     dec:	8315                	srli	a4,a4,0x5
     dee:	00b697b3          	sll	a5,a3,a1
     df2:	02d71163          	bne	a4,a3,e14 <USART_GetITStatus+0x2e>
     df6:	255a                	lhu	a4,12(a0)
     df8:	8ff9                	and	a5,a5,a4
     dfa:	211a                	lhu	a4,0(a0)
     dfc:	4501                	li	a0,0
     dfe:	0742                	slli	a4,a4,0x10
     e00:	8341                	srli	a4,a4,0x10
     e02:	cb81                	beqz	a5,e12 <USART_GetITStatus+0x2c>
     e04:	4505                	li	a0,1
     e06:	81a1                	srli	a1,a1,0x8
     e08:	00b515b3          	sll	a1,a0,a1
     e0c:	8f6d                	and	a4,a4,a1
     e0e:	00e03533          	snez	a0,a4
     e12:	8082                	ret
     e14:	4689                	li	a3,2
     e16:	00d71463          	bne	a4,a3,e1e <USART_GetITStatus+0x38>
     e1a:	291a                	lhu	a4,16(a0)
     e1c:	bff1                	j	df8 <USART_GetITStatus+0x12>
     e1e:	295a                	lhu	a4,20(a0)
     e20:	bfe1                	j	df8 <USART_GetITStatus+0x12>

00000e22 <mpu_reset_fifo>:
     e22:	ef4ff2ef          	jal	t0,516 <__riscv_save_0>
     e26:	20000437          	lui	s0,0x20000
     e2a:	02040793          	addi	a5,s0,32 # 20000020 <st>
     e2e:	27bc                	lbu	a5,10(a5)
     e30:	1141                	addi	sp,sp,-16
     e32:	557d                	li	a0,-1
     e34:	c7cd                	beqz	a5,ede <mpu_reset_fifo+0xbc>
     e36:	02040413          	addi	s0,s0,32
     e3a:	4018                	lw	a4,0(s0)
     e3c:	405c                	lw	a5,4(s0)
     e3e:	000107a3          	sb	zero,15(sp)
     e42:	376c                	lbu	a1,15(a4)
     e44:	2388                	lbu	a0,0(a5)
     e46:	00f10693          	addi	a3,sp,15
     e4a:	4605                	li	a2,1
     e4c:	2321                	jal	1354 <MPU6050_I2C_Mem_Write>
     e4e:	4018                	lw	a4,0(s0)
     e50:	405c                	lw	a5,4(s0)
     e52:	00f10693          	addi	a3,sp,15
     e56:	334c                	lbu	a1,5(a4)
     e58:	2388                	lbu	a0,0(a5)
     e5a:	4605                	li	a2,1
     e5c:	29e5                	jal	1354 <MPU6050_I2C_Mem_Write>
     e5e:	405c                	lw	a5,4(s0)
     e60:	4018                	lw	a4,0(s0)
     e62:	00f10693          	addi	a3,sp,15
     e66:	2388                	lbu	a0,0(a5)
     e68:	234c                	lbu	a1,4(a4)
     e6a:	4605                	li	a2,1
     e6c:	21e5                	jal	1354 <MPU6050_I2C_Mem_Write>
     e6e:	02444783          	lbu	a5,36(s0)
     e72:	cbad                	beqz	a5,ee4 <mpu_reset_fifo+0xc2>
     e74:	47b1                	li	a5,12
     e76:	87dc                	sb	a5,15(sp)
     e78:	4018                	lw	a4,0(s0)
     e7a:	405c                	lw	a5,4(s0)
     e7c:	00f10693          	addi	a3,sp,15
     e80:	234c                	lbu	a1,4(a4)
     e82:	2388                	lbu	a0,0(a5)
     e84:	4605                	li	a2,1
     e86:	21f9                	jal	1354 <MPU6050_I2C_Mem_Write>
     e88:	03200513          	li	a0,50
     e8c:	1f3020ef          	jal	ra,387e <Delay_Ms>
     e90:	fc000793          	li	a5,-64
     e94:	87dc                	sb	a5,15(sp)
     e96:	243c                	lbu	a5,10(s0)
     e98:	8b85                	andi	a5,a5,1
     e9a:	c399                	beqz	a5,ea0 <mpu_reset_fifo+0x7e>
     e9c:	5781                	li	a5,-32
     e9e:	87dc                	sb	a5,15(sp)
     ea0:	405c                	lw	a5,4(s0)
     ea2:	4018                	lw	a4,0(s0)
     ea4:	00f10693          	addi	a3,sp,15
     ea8:	2388                	lbu	a0,0(a5)
     eaa:	234c                	lbu	a1,4(a4)
     eac:	4605                	li	a2,1
     eae:	215d                	jal	1354 <MPU6050_I2C_Mem_Write>
     eb0:	381c                	lbu	a5,17(s0)
     eb2:	c391                	beqz	a5,eb6 <mpu_reset_fifo+0x94>
     eb4:	4789                	li	a5,2
     eb6:	87dc                	sb	a5,15(sp)
     eb8:	4018                	lw	a4,0(s0)
     eba:	405c                	lw	a5,4(s0)
     ebc:	00f10693          	addi	a3,sp,15
     ec0:	376c                	lbu	a1,15(a4)
     ec2:	2388                	lbu	a0,0(a5)
     ec4:	4605                	li	a2,1
     ec6:	2179                	jal	1354 <MPU6050_I2C_Mem_Write>
     ec8:	4018                	lw	a4,0(s0)
     eca:	405c                	lw	a5,4(s0)
     ecc:	000107a3          	sb	zero,15(sp)
     ed0:	00f10693          	addi	a3,sp,15
     ed4:	2388                	lbu	a0,0(a5)
     ed6:	334c                	lbu	a1,5(a4)
     ed8:	4605                	li	a2,1
     eda:	29ad                	jal	1354 <MPU6050_I2C_Mem_Write>
     edc:	4501                	li	a0,0
     ede:	0141                	addi	sp,sp,16
     ee0:	e5aff06f          	j	53a <__riscv_restore_0>
     ee4:	4791                	li	a5,4
     ee6:	87dc                	sb	a5,15(sp)
     ee8:	4018                	lw	a4,0(s0)
     eea:	405c                	lw	a5,4(s0)
     eec:	00f10693          	addi	a3,sp,15
     ef0:	234c                	lbu	a1,4(a4)
     ef2:	2388                	lbu	a0,0(a5)
     ef4:	4605                	li	a2,1
     ef6:	29b9                	jal	1354 <MPU6050_I2C_Mem_Write>
     ef8:	283c                	lbu	a5,18(s0)
     efa:	04000713          	li	a4,64
     efe:	e791                	bnez	a5,f0a <mpu_reset_fifo+0xe8>
     f00:	243c                	lbu	a5,10(s0)
     f02:	8b85                	andi	a5,a5,1
     f04:	c399                	beqz	a5,f0a <mpu_reset_fifo+0xe8>
     f06:	06000713          	li	a4,96
     f0a:	405c                	lw	a5,4(s0)
     f0c:	87d8                	sb	a4,15(sp)
     f0e:	4018                	lw	a4,0(s0)
     f10:	2388                	lbu	a0,0(a5)
     f12:	00f10693          	addi	a3,sp,15
     f16:	234c                	lbu	a1,4(a4)
     f18:	4605                	li	a2,1
     f1a:	292d                	jal	1354 <MPU6050_I2C_Mem_Write>
     f1c:	03200513          	li	a0,50
     f20:	15f020ef          	jal	ra,387e <Delay_Ms>
     f24:	381c                	lbu	a5,17(s0)
     f26:	4018                	lw	a4,0(s0)
     f28:	00f10693          	addi	a3,sp,15
     f2c:	00f037b3          	snez	a5,a5
     f30:	87dc                	sb	a5,15(sp)
     f32:	405c                	lw	a5,4(s0)
     f34:	376c                	lbu	a1,15(a4)
     f36:	4605                	li	a2,1
     f38:	2388                	lbu	a0,0(a5)
     f3a:	2929                	jal	1354 <MPU6050_I2C_Mem_Write>
     f3c:	4018                	lw	a4,0(s0)
     f3e:	405c                	lw	a5,4(s0)
     f40:	01040693          	addi	a3,s0,16
     f44:	bf41                	j	ed4 <mpu_reset_fifo+0xb2>

00000f46 <mpu_read_fifo_stream>:
     f46:	db6ff2ef          	jal	t0,4fc <__riscv_save_4>
     f4a:	200009b7          	lui	s3,0x20000
     f4e:	02098493          	addi	s1,s3,32 # 20000020 <st>
     f52:	0244c783          	lbu	a5,36(s1)
     f56:	1141                	addi	sp,sp,-16
     f58:	c795                	beqz	a5,f84 <mpu_read_fifo_stream+0x3e>
     f5a:	24b8                	lbu	a4,10(s1)
     f5c:	57fd                	li	a5,-1
     f5e:	c739                	beqz	a4,fac <mpu_read_fifo_stream+0x66>
     f60:	40dc                	lw	a5,4(s1)
     f62:	4098                	lw	a4,0(s1)
     f64:	8aae                	mv	s5,a1
     f66:	892a                	mv	s2,a0
     f68:	272c                	lbu	a1,10(a4)
     f6a:	2388                	lbu	a0,0(a5)
     f6c:	8a32                	mv	s4,a2
     f6e:	0074                	addi	a3,sp,12
     f70:	4609                	li	a2,2
     f72:	217d                	jal	1420 <MPU6050_I2C_Mem_Read>
     f74:	861c                	lbu	a5,12(sp)
     f76:	8680                	lbu	s0,13(sp)
     f78:	07a2                	slli	a5,a5,0x8
     f7a:	8c5d                	or	s0,s0,a5
     f7c:	01247663          	bgeu	s0,s2,f88 <mpu_read_fifo_stream+0x42>
     f80:	000a0023          	sb	zero,0(s4)
     f84:	57fd                	li	a5,-1
     f86:	a01d                	j	fac <mpu_read_fifo_stream+0x66>
     f88:	40d8                	lw	a4,4(s1)
     f8a:	02098993          	addi	s3,s3,32
     f8e:	233e                	lhu	a5,2(a4)
     f90:	8385                	srli	a5,a5,0x1
     f92:	0287f163          	bgeu	a5,s0,fb4 <mpu_read_fifo_stream+0x6e>
     f96:	409c                	lw	a5,0(s1)
     f98:	2308                	lbu	a0,0(a4)
     f9a:	0074                	addi	a3,sp,12
     f9c:	3b8c                	lbu	a1,17(a5)
     f9e:	4605                	li	a2,1
     fa0:	2141                	jal	1420 <MPU6050_I2C_Mem_Read>
     fa2:	861c                	lbu	a5,12(sp)
     fa4:	8bc1                	andi	a5,a5,16
     fa6:	c799                	beqz	a5,fb4 <mpu_read_fifo_stream+0x6e>
     fa8:	3dad                	jal	e22 <mpu_reset_fifo>
     faa:	57f9                	li	a5,-2
     fac:	853e                	mv	a0,a5
     fae:	0141                	addi	sp,sp,16
     fb0:	d80ff06f          	j	530 <__riscv_restore_4>
     fb4:	0049a783          	lw	a5,4(s3)
     fb8:	0009a703          	lw	a4,0(s3)
     fbc:	86d6                	mv	a3,s5
     fbe:	2388                	lbu	a0,0(a5)
     fc0:	372c                	lbu	a1,11(a4)
     fc2:	0ff97613          	andi	a2,s2,255
     fc6:	29a9                	jal	1420 <MPU6050_I2C_Mem_Read>
     fc8:	03245433          	divu	s0,s0,s2
     fcc:	4781                	li	a5,0
     fce:	147d                	addi	s0,s0,-1
     fd0:	008a0023          	sb	s0,0(s4)
     fd4:	bfe1                	j	fac <mpu_read_fifo_stream+0x66>

00000fd6 <mget_ms>:
     fd6:	8082                	ret

00000fd8 <mpu_dmp_get_data>:
     fd8:	d16ff2ef          	jal	t0,4ee <__riscv_save_10>
     fdc:	7179                	addi	sp,sp,-48
     fde:	8baa                	mv	s7,a0
     fe0:	8b2e                	mv	s6,a1
     fe2:	8ab2                	mv	s5,a2
     fe4:	00910793          	addi	a5,sp,9
     fe8:	00a10713          	addi	a4,sp,10
     fec:	0074                	addi	a3,sp,12
     fee:	1010                	addi	a2,sp,32
     ff0:	082c                	addi	a1,sp,24
     ff2:	0808                	addi	a0,sp,16
     ff4:	2a79                	jal	1192 <dmp_read_fifo>
     ff6:	18051c63          	bnez	a0,118e <mpu_dmp_get_data+0x1b6>
     ffa:	853c                	lhu	a5,10(sp)
     ffc:	4509                	li	a0,2
     ffe:	1007f793          	andi	a5,a5,256
    1002:	18078363          	beqz	a5,1188 <mpu_dmp_get_data+0x1b0>
    1006:	5502                	lw	a0,32(sp)
    1008:	000079b7          	lui	s3,0x7
    100c:	5fd040ef          	jal	ra,5e08 <__floatsisf>
    1010:	4c09a583          	lw	a1,1216(s3) # 74c0 <hw+0xc>
    1014:	6e4040ef          	jal	ra,56f8 <__mulsf3>
    1018:	892a                	mv	s2,a0
    101a:	5512                	lw	a0,36(sp)
    101c:	5ed040ef          	jal	ra,5e08 <__floatsisf>
    1020:	4c09a583          	lw	a1,1216(s3)
    1024:	6d4040ef          	jal	ra,56f8 <__mulsf3>
    1028:	84aa                	mv	s1,a0
    102a:	5522                	lw	a0,40(sp)
    102c:	5dd040ef          	jal	ra,5e08 <__floatsisf>
    1030:	4c09a583          	lw	a1,1216(s3)
    1034:	6c4040ef          	jal	ra,56f8 <__mulsf3>
    1038:	842a                	mv	s0,a0
    103a:	5532                	lw	a0,44(sp)
    103c:	5cd040ef          	jal	ra,5e08 <__floatsisf>
    1040:	4c09a583          	lw	a1,1216(s3)
    1044:	6b4040ef          	jal	ra,56f8 <__mulsf3>
    1048:	000077b7          	lui	a5,0x7
    104c:	4c47a583          	lw	a1,1220(a5) # 74c4 <hw+0x10>
    1050:	89aa                	mv	s3,a0
    1052:	8526                	mv	a0,s1
    1054:	6a4040ef          	jal	ra,56f8 <__mulsf3>
    1058:	8caa                	mv	s9,a0
    105a:	85ca                	mv	a1,s2
    105c:	854a                	mv	a0,s2
    105e:	711030ef          	jal	ra,4f6e <__addsf3>
    1062:	8c2a                	mv	s8,a0
    1064:	85ce                	mv	a1,s3
    1066:	8566                	mv	a0,s9
    1068:	690040ef          	jal	ra,56f8 <__mulsf3>
    106c:	8a2a                	mv	s4,a0
    106e:	85a2                	mv	a1,s0
    1070:	8562                	mv	a0,s8
    1072:	686040ef          	jal	ra,56f8 <__mulsf3>
    1076:	85aa                	mv	a1,a0
    1078:	8552                	mv	a0,s4
    107a:	6f5030ef          	jal	ra,4f6e <__addsf3>
    107e:	0fd020ef          	jal	ra,397a <asinf>
    1082:	64d040ef          	jal	ra,5ece <__extendsfdf2>
    1086:	00007a37          	lui	s4,0x7
    108a:	4c8a2603          	lw	a2,1224(s4) # 74c8 <hw+0x14>
    108e:	4cca2683          	lw	a3,1228(s4)
    1092:	157030ef          	jal	ra,49e8 <__muldf3>
    1096:	6e5040ef          	jal	ra,5f7a <__truncdfsf2>
    109a:	00aba023          	sw	a0,0(s7)
    109e:	85a2                	mv	a1,s0
    10a0:	8522                	mv	a0,s0
    10a2:	6cd030ef          	jal	ra,4f6e <__addsf3>
    10a6:	8baa                	mv	s7,a0
    10a8:	85a6                	mv	a1,s1
    10aa:	8566                	mv	a0,s9
    10ac:	64c040ef          	jal	ra,56f8 <__mulsf3>
    10b0:	8caa                	mv	s9,a0
    10b2:	85a2                	mv	a1,s0
    10b4:	855e                	mv	a0,s7
    10b6:	642040ef          	jal	ra,56f8 <__mulsf3>
    10ba:	85aa                	mv	a1,a0
    10bc:	8566                	mv	a0,s9
    10be:	0cf040ef          	jal	ra,598c <__subsf3>
    10c2:	000077b7          	lui	a5,0x7
    10c6:	4e07a583          	lw	a1,1248(a5) # 74e0 <hw+0x2c>
    10ca:	6a5030ef          	jal	ra,4f6e <__addsf3>
    10ce:	8caa                	mv	s9,a0
    10d0:	85ce                	mv	a1,s3
    10d2:	855e                	mv	a0,s7
    10d4:	624040ef          	jal	ra,56f8 <__mulsf3>
    10d8:	8baa                	mv	s7,a0
    10da:	85a6                	mv	a1,s1
    10dc:	8562                	mv	a0,s8
    10de:	61a040ef          	jal	ra,56f8 <__mulsf3>
    10e2:	85aa                	mv	a1,a0
    10e4:	855e                	mv	a0,s7
    10e6:	689030ef          	jal	ra,4f6e <__addsf3>
    10ea:	85e6                	mv	a1,s9
    10ec:	14d020ef          	jal	ra,3a38 <atan2f>
    10f0:	5df040ef          	jal	ra,5ece <__extendsfdf2>
    10f4:	4c8a2603          	lw	a2,1224(s4)
    10f8:	4cca2683          	lw	a3,1228(s4)
    10fc:	0ed030ef          	jal	ra,49e8 <__muldf3>
    1100:	67b040ef          	jal	ra,5f7a <__truncdfsf2>
    1104:	00ab2023          	sw	a0,0(s6)
    1108:	85ca                	mv	a1,s2
    110a:	854a                	mv	a0,s2
    110c:	5ec040ef          	jal	ra,56f8 <__mulsf3>
    1110:	8b2a                	mv	s6,a0
    1112:	85a6                	mv	a1,s1
    1114:	8526                	mv	a0,s1
    1116:	5e2040ef          	jal	ra,56f8 <__mulsf3>
    111a:	85aa                	mv	a1,a0
    111c:	855a                	mv	a0,s6
    111e:	651030ef          	jal	ra,4f6e <__addsf3>
    1122:	8b2a                	mv	s6,a0
    1124:	85a2                	mv	a1,s0
    1126:	8522                	mv	a0,s0
    1128:	5d0040ef          	jal	ra,56f8 <__mulsf3>
    112c:	85aa                	mv	a1,a0
    112e:	855a                	mv	a0,s6
    1130:	05d040ef          	jal	ra,598c <__subsf3>
    1134:	8b2a                	mv	s6,a0
    1136:	85ce                	mv	a1,s3
    1138:	854e                	mv	a0,s3
    113a:	5be040ef          	jal	ra,56f8 <__mulsf3>
    113e:	85aa                	mv	a1,a0
    1140:	855a                	mv	a0,s6
    1142:	04b040ef          	jal	ra,598c <__subsf3>
    1146:	85a2                	mv	a1,s0
    1148:	8b2a                	mv	s6,a0
    114a:	8526                	mv	a0,s1
    114c:	5ac040ef          	jal	ra,56f8 <__mulsf3>
    1150:	842a                	mv	s0,a0
    1152:	85ce                	mv	a1,s3
    1154:	854a                	mv	a0,s2
    1156:	5a2040ef          	jal	ra,56f8 <__mulsf3>
    115a:	85aa                	mv	a1,a0
    115c:	8522                	mv	a0,s0
    115e:	611030ef          	jal	ra,4f6e <__addsf3>
    1162:	85aa                	mv	a1,a0
    1164:	60b030ef          	jal	ra,4f6e <__addsf3>
    1168:	85da                	mv	a1,s6
    116a:	0cf020ef          	jal	ra,3a38 <atan2f>
    116e:	561040ef          	jal	ra,5ece <__extendsfdf2>
    1172:	4c8a2603          	lw	a2,1224(s4)
    1176:	4cca2683          	lw	a3,1228(s4)
    117a:	06f030ef          	jal	ra,49e8 <__muldf3>
    117e:	5fd040ef          	jal	ra,5f7a <__truncdfsf2>
    1182:	00aaa023          	sw	a0,0(s5)
    1186:	4501                	li	a0,0
    1188:	6145                	addi	sp,sp,48
    118a:	b9cff06f          	j	526 <__riscv_restore_10>
    118e:	4505                	li	a0,1
    1190:	bfe5                	j	1188 <mpu_dmp_get_data+0x1b0>

00001192 <dmp_read_fifo>:
    1192:	b5cff2ef          	jal	t0,4ee <__riscv_save_10>
    1196:	20000ab7          	lui	s5,0x20000
    119a:	1a8a8b93          	addi	s7,s5,424 # 200001a8 <dmp>
    119e:	892a                	mv	s2,a0
    11a0:	00ebc503          	lbu	a0,14(s7)
    11a4:	1101                	addi	sp,sp,-32
    11a6:	89ae                	mv	s3,a1
    11a8:	8b32                	mv	s6,a2
    11aa:	00071023          	sh	zero,0(a4) # 2000 <Flight_control+0xea>
    11ae:	863e                	mv	a2,a5
    11b0:	858a                	mv	a1,sp
    11b2:	84b6                	mv	s1,a3
    11b4:	8a3a                	mv	s4,a4
    11b6:	3b41                	jal	f46 <mpu_read_fifo_stream>
    11b8:	e15d                	bnez	a0,125e <dmp_read_fifo+0xcc>
    11ba:	00abd703          	lhu	a4,10(s7)
    11be:	842a                	mv	s0,a0
    11c0:	1a8a8a93          	addi	s5,s5,424
    11c4:	01477793          	andi	a5,a4,20
    11c8:	18078463          	beqz	a5,1350 <dmp_read_fifo+0x1be>
    11cc:	801c                	lbu	a5,0(sp)
    11ce:	8094                	lbu	a3,1(sp)
    11d0:	8290                	lbu	a2,5(sp)
    11d2:	07e2                	slli	a5,a5,0x18
    11d4:	06c2                	slli	a3,a3,0x10
    11d6:	8fd5                	or	a5,a5,a3
    11d8:	8194                	lbu	a3,3(sp)
    11da:	0642                	slli	a2,a2,0x10
    11dc:	840c                	lbu	a1,8(sp)
    11de:	8fd5                	or	a5,a5,a3
    11e0:	8114                	lbu	a3,2(sp)
    11e2:	05e2                	slli	a1,a1,0x18
    11e4:	8688                	lbu	a0,13(sp)
    11e6:	06a2                	slli	a3,a3,0x8
    11e8:	8fd5                	or	a5,a5,a3
    11ea:	8214                	lbu	a3,4(sp)
    11ec:	00fb2023          	sw	a5,0(s6)
    11f0:	87c1                	srai	a5,a5,0x10
    11f2:	06e2                	slli	a3,a3,0x18
    11f4:	8ed1                	or	a3,a3,a2
    11f6:	8390                	lbu	a2,7(sp)
    11f8:	02f787b3          	mul	a5,a5,a5
    11fc:	0542                	slli	a0,a0,0x10
    11fe:	8ed1                	or	a3,a3,a2
    1200:	8310                	lbu	a2,6(sp)
    1202:	0622                	slli	a2,a2,0x8
    1204:	8ed1                	or	a3,a3,a2
    1206:	8490                	lbu	a2,9(sp)
    1208:	00db2223          	sw	a3,4(s6)
    120c:	86c1                	srai	a3,a3,0x10
    120e:	0642                	slli	a2,a2,0x10
    1210:	8dd1                	or	a1,a1,a2
    1212:	8590                	lbu	a2,11(sp)
    1214:	02d686b3          	mul	a3,a3,a3
    1218:	8dd1                	or	a1,a1,a2
    121a:	8510                	lbu	a2,10(sp)
    121c:	0622                	slli	a2,a2,0x8
    121e:	8dd1                	or	a1,a1,a2
    1220:	8610                	lbu	a2,12(sp)
    1222:	00bb2423          	sw	a1,8(s6)
    1226:	85c1                	srai	a1,a1,0x10
    1228:	0662                	slli	a2,a2,0x18
    122a:	8e49                	or	a2,a2,a0
    122c:	8788                	lbu	a0,15(sp)
    122e:	96be                	add	a3,a3,a5
    1230:	02b587b3          	mul	a5,a1,a1
    1234:	8e49                	or	a2,a2,a0
    1236:	8708                	lbu	a0,14(sp)
    1238:	0522                	slli	a0,a0,0x8
    123a:	8e49                	or	a2,a2,a0
    123c:	00cb2623          	sw	a2,12(s6)
    1240:	8641                	srai	a2,a2,0x10
    1242:	02c60633          	mul	a2,a2,a2
    1246:	97b6                	add	a5,a5,a3
    1248:	f10006b7          	lui	a3,0xf1000
    124c:	97b2                	add	a5,a5,a2
    124e:	97b6                	add	a5,a5,a3
    1250:	020006b7          	lui	a3,0x2000
    1254:	00f6f763          	bgeu	a3,a5,1262 <dmp_read_fifo+0xd0>
    1258:	36e9                	jal	e22 <mpu_reset_fifo>
    125a:	000a1023          	sh	zero,0(s4)
    125e:	547d                	li	s0,-1
    1260:	a0e5                	j	1348 <dmp_read_fifo+0x1b6>
    1262:	000a5783          	lhu	a5,0(s4)
    1266:	1007e793          	ori	a5,a5,256
    126a:	00fa1023          	sh	a5,0(s4)
    126e:	47c1                	li	a5,16
    1270:	04077693          	andi	a3,a4,64
    1274:	c6a1                	beqz	a3,12bc <dmp_read_fifo+0x12a>
    1276:	1014                	addi	a3,sp,32
    1278:	96be                	add	a3,a3,a5
    127a:	fe06c603          	lbu	a2,-32(a3) # 1ffffe0 <_data_lma+0x1ff84c4>
    127e:	fe16c583          	lbu	a1,-31(a3)
    1282:	0799                	addi	a5,a5,6
    1284:	0622                	slli	a2,a2,0x8
    1286:	8e4d                	or	a2,a2,a1
    1288:	00c99023          	sh	a2,0(s3)
    128c:	fe26c603          	lbu	a2,-30(a3)
    1290:	fe36c583          	lbu	a1,-29(a3)
    1294:	0ff7f793          	andi	a5,a5,255
    1298:	0622                	slli	a2,a2,0x8
    129a:	8e4d                	or	a2,a2,a1
    129c:	00c99123          	sh	a2,2(s3)
    12a0:	fe46c603          	lbu	a2,-28(a3)
    12a4:	fe56c683          	lbu	a3,-27(a3)
    12a8:	0622                	slli	a2,a2,0x8
    12aa:	8ed1                	or	a3,a3,a2
    12ac:	00d99223          	sh	a3,4(s3)
    12b0:	000a5683          	lhu	a3,0(s4)
    12b4:	0086e693          	ori	a3,a3,8
    12b8:	00da1023          	sh	a3,0(s4)
    12bc:	18077693          	andi	a3,a4,384
    12c0:	c6a1                	beqz	a3,1308 <dmp_read_fifo+0x176>
    12c2:	1014                	addi	a3,sp,32
    12c4:	96be                	add	a3,a3,a5
    12c6:	fe06c603          	lbu	a2,-32(a3)
    12ca:	fe16c583          	lbu	a1,-31(a3)
    12ce:	0799                	addi	a5,a5,6
    12d0:	0622                	slli	a2,a2,0x8
    12d2:	8e4d                	or	a2,a2,a1
    12d4:	00c91023          	sh	a2,0(s2)
    12d8:	fe26c603          	lbu	a2,-30(a3)
    12dc:	fe36c583          	lbu	a1,-29(a3)
    12e0:	0ff7f793          	andi	a5,a5,255
    12e4:	0622                	slli	a2,a2,0x8
    12e6:	8e4d                	or	a2,a2,a1
    12e8:	00c91123          	sh	a2,2(s2)
    12ec:	fe46c603          	lbu	a2,-28(a3)
    12f0:	fe56c683          	lbu	a3,-27(a3)
    12f4:	0622                	slli	a2,a2,0x8
    12f6:	8ed1                	or	a3,a3,a2
    12f8:	00d91223          	sh	a3,4(s2)
    12fc:	000a5683          	lhu	a3,0(s4)
    1300:	0706e693          	ori	a3,a3,112
    1304:	00da1023          	sh	a3,0(s4)
    1308:	8b0d                	andi	a4,a4,3
    130a:	cf0d                	beqz	a4,1344 <dmp_read_fifo+0x1b2>
    130c:	00f10933          	add	s2,sp,a5
    1310:	00194783          	lbu	a5,1(s2)
    1314:	00394983          	lbu	s3,3(s2)
    1318:	8b85                	andi	a5,a5,1
    131a:	cb99                	beqz	a5,1330 <dmp_read_fifo+0x19e>
    131c:	000aa783          	lw	a5,0(s5)
    1320:	cb81                	beqz	a5,1330 <dmp_read_fifo+0x19e>
    1322:	0079f593          	andi	a1,s3,7
    1326:	0039d513          	srli	a0,s3,0x3
    132a:	0585                	addi	a1,a1,1
    132c:	891d                	andi	a0,a0,7
    132e:	9782                	jalr	a5
    1330:	00194783          	lbu	a5,1(s2)
    1334:	8ba1                	andi	a5,a5,8
    1336:	c799                	beqz	a5,1344 <dmp_read_fifo+0x1b2>
    1338:	004aa783          	lw	a5,4(s5)
    133c:	c781                	beqz	a5,1344 <dmp_read_fifo+0x1b2>
    133e:	0069d513          	srli	a0,s3,0x6
    1342:	9782                	jalr	a5
    1344:	8526                	mv	a0,s1
    1346:	3941                	jal	fd6 <mget_ms>
    1348:	8522                	mv	a0,s0
    134a:	6105                	addi	sp,sp,32
    134c:	9daff06f          	j	526 <__riscv_restore_10>
    1350:	4781                	li	a5,0
    1352:	bf39                	j	1270 <dmp_read_fifo+0xde>

00001354 <MPU6050_I2C_Mem_Write>:
    1354:	9a8ff2ef          	jal	t0,4fc <__riscv_save_4>
    1358:	400064b7          	lui	s1,0x40006
    135c:	8aaa                	mv	s5,a0
    135e:	8a2e                	mv	s4,a1
    1360:	8932                	mv	s2,a2
    1362:	8436                	mv	s0,a3
    1364:	80048993          	addi	s3,s1,-2048 # 40005800 <__freertos_irq_stack_top+0x1fffd800>
    1368:	000205b7          	lui	a1,0x20
    136c:	854e                	mv	a0,s3
    136e:	faeff0ef          	jal	ra,b1c <I2C_GetFlagStatus>
    1372:	f97d                	bnez	a0,1368 <MPU6050_I2C_Mem_Write+0x14>
    1374:	80048513          	addi	a0,s1,-2048
    1378:	4585                	li	a1,1
    137a:	000304b7          	lui	s1,0x30
    137e:	400069b7          	lui	s3,0x40006
    1382:	f18ff0ef          	jal	ra,a9a <I2C_GenerateSTART>
    1386:	0485                	addi	s1,s1,1
    1388:	80098b13          	addi	s6,s3,-2048 # 40005800 <__freertos_irq_stack_top+0x1fffd800>
    138c:	85a6                	mv	a1,s1
    138e:	855a                	mv	a0,s6
    1390:	f76ff0ef          	jal	ra,b06 <I2C_CheckEvent>
    1394:	dd65                	beqz	a0,138c <MPU6050_I2C_Mem_Write+0x38>
    1396:	85d6                	mv	a1,s5
    1398:	80098513          	addi	a0,s3,-2048
    139c:	4601                	li	a2,0
    139e:	000704b7          	lui	s1,0x70
    13a2:	400069b7          	lui	s3,0x40006
    13a6:	f4eff0ef          	jal	ra,af4 <I2C_Send7bitAddress>
    13aa:	08248493          	addi	s1,s1,130 # 70082 <_data_lma+0x68566>
    13ae:	80098a93          	addi	s5,s3,-2048 # 40005800 <__freertos_irq_stack_top+0x1fffd800>
    13b2:	85a6                	mv	a1,s1
    13b4:	8556                	mv	a0,s5
    13b6:	f50ff0ef          	jal	ra,b06 <I2C_CheckEvent>
    13ba:	dd65                	beqz	a0,13b2 <MPU6050_I2C_Mem_Write+0x5e>
    13bc:	80098513          	addi	a0,s3,-2048
    13c0:	85d2                	mv	a1,s4
    13c2:	000709b7          	lui	s3,0x70
    13c6:	400064b7          	lui	s1,0x40006
    13ca:	f1eff0ef          	jal	ra,ae8 <I2C_SendData>
    13ce:	08498993          	addi	s3,s3,132 # 70084 <_data_lma+0x68568>
    13d2:	80048493          	addi	s1,s1,-2048 # 40005800 <__freertos_irq_stack_top+0x1fffd800>
    13d6:	85ce                	mv	a1,s3
    13d8:	8526                	mv	a0,s1
    13da:	f2cff0ef          	jal	ra,b06 <I2C_CheckEvent>
    13de:	dd65                	beqz	a0,13d6 <MPU6050_I2C_Mem_Write+0x82>
    13e0:	400064b7          	lui	s1,0x40006
    13e4:	000709b7          	lui	s3,0x70
    13e8:	9922                	add	s2,s2,s0
    13ea:	80048493          	addi	s1,s1,-2048 # 40005800 <__freertos_irq_stack_top+0x1fffd800>
    13ee:	08498993          	addi	s3,s3,132 # 70084 <_data_lma+0x68568>
    13f2:	00891b63          	bne	s2,s0,1408 <MPU6050_I2C_Mem_Write+0xb4>
    13f6:	40006537          	lui	a0,0x40006
    13fa:	4585                	li	a1,1
    13fc:	80050513          	addi	a0,a0,-2048 # 40005800 <__freertos_irq_stack_top+0x1fffd800>
    1400:	eb4ff0ef          	jal	ra,ab4 <I2C_GenerateSTOP>
    1404:	92cff06f          	j	530 <__riscv_restore_4>
    1408:	0405                	addi	s0,s0,1
    140a:	fff44583          	lbu	a1,-1(s0)
    140e:	8526                	mv	a0,s1
    1410:	ed8ff0ef          	jal	ra,ae8 <I2C_SendData>
    1414:	85ce                	mv	a1,s3
    1416:	8526                	mv	a0,s1
    1418:	eeeff0ef          	jal	ra,b06 <I2C_CheckEvent>
    141c:	dd65                	beqz	a0,1414 <MPU6050_I2C_Mem_Write+0xc0>
    141e:	bfd1                	j	13f2 <MPU6050_I2C_Mem_Write+0x9e>

00001420 <MPU6050_I2C_Mem_Read>:
    1420:	8dcff2ef          	jal	t0,4fc <__riscv_save_4>
    1424:	400064b7          	lui	s1,0x40006
    1428:	8a2a                	mv	s4,a0
    142a:	8aae                	mv	s5,a1
    142c:	8432                	mv	s0,a2
    142e:	8936                	mv	s2,a3
    1430:	80048993          	addi	s3,s1,-2048 # 40005800 <__freertos_irq_stack_top+0x1fffd800>
    1434:	000205b7          	lui	a1,0x20
    1438:	854e                	mv	a0,s3
    143a:	ee2ff0ef          	jal	ra,b1c <I2C_GetFlagStatus>
    143e:	f97d                	bnez	a0,1434 <MPU6050_I2C_Mem_Read+0x14>
    1440:	80048513          	addi	a0,s1,-2048
    1444:	4585                	li	a1,1
    1446:	000304b7          	lui	s1,0x30
    144a:	400069b7          	lui	s3,0x40006
    144e:	e4cff0ef          	jal	ra,a9a <I2C_GenerateSTART>
    1452:	0485                	addi	s1,s1,1
    1454:	80098b13          	addi	s6,s3,-2048 # 40005800 <__freertos_irq_stack_top+0x1fffd800>
    1458:	85a6                	mv	a1,s1
    145a:	855a                	mv	a0,s6
    145c:	eaaff0ef          	jal	ra,b06 <I2C_CheckEvent>
    1460:	dd65                	beqz	a0,1458 <MPU6050_I2C_Mem_Read+0x38>
    1462:	80098513          	addi	a0,s3,-2048
    1466:	4601                	li	a2,0
    1468:	85d2                	mv	a1,s4
    146a:	000704b7          	lui	s1,0x70
    146e:	400069b7          	lui	s3,0x40006
    1472:	e82ff0ef          	jal	ra,af4 <I2C_Send7bitAddress>
    1476:	08248493          	addi	s1,s1,130 # 70082 <_data_lma+0x68566>
    147a:	80098b13          	addi	s6,s3,-2048 # 40005800 <__freertos_irq_stack_top+0x1fffd800>
    147e:	85a6                	mv	a1,s1
    1480:	855a                	mv	a0,s6
    1482:	e84ff0ef          	jal	ra,b06 <I2C_CheckEvent>
    1486:	dd65                	beqz	a0,147e <MPU6050_I2C_Mem_Read+0x5e>
    1488:	85d6                	mv	a1,s5
    148a:	80098513          	addi	a0,s3,-2048
    148e:	000704b7          	lui	s1,0x70
    1492:	400069b7          	lui	s3,0x40006
    1496:	e52ff0ef          	jal	ra,ae8 <I2C_SendData>
    149a:	08448493          	addi	s1,s1,132 # 70084 <_data_lma+0x68568>
    149e:	80098a93          	addi	s5,s3,-2048 # 40005800 <__freertos_irq_stack_top+0x1fffd800>
    14a2:	85a6                	mv	a1,s1
    14a4:	8556                	mv	a0,s5
    14a6:	e60ff0ef          	jal	ra,b06 <I2C_CheckEvent>
    14aa:	dd65                	beqz	a0,14a2 <MPU6050_I2C_Mem_Read+0x82>
    14ac:	80098513          	addi	a0,s3,-2048
    14b0:	4585                	li	a1,1
    14b2:	000304b7          	lui	s1,0x30
    14b6:	400069b7          	lui	s3,0x40006
    14ba:	de0ff0ef          	jal	ra,a9a <I2C_GenerateSTART>
    14be:	0485                	addi	s1,s1,1
    14c0:	80098a93          	addi	s5,s3,-2048 # 40005800 <__freertos_irq_stack_top+0x1fffd800>
    14c4:	85a6                	mv	a1,s1
    14c6:	8556                	mv	a0,s5
    14c8:	e3eff0ef          	jal	ra,b06 <I2C_CheckEvent>
    14cc:	dd65                	beqz	a0,14c4 <MPU6050_I2C_Mem_Read+0xa4>
    14ce:	80098513          	addi	a0,s3,-2048
    14d2:	4605                	li	a2,1
    14d4:	85d2                	mv	a1,s4
    14d6:	000309b7          	lui	s3,0x30
    14da:	400064b7          	lui	s1,0x40006
    14de:	e16ff0ef          	jal	ra,af4 <I2C_Send7bitAddress>
    14e2:	0989                	addi	s3,s3,2
    14e4:	80048493          	addi	s1,s1,-2048 # 40005800 <__freertos_irq_stack_top+0x1fffd800>
    14e8:	85ce                	mv	a1,s3
    14ea:	8526                	mv	a0,s1
    14ec:	e1aff0ef          	jal	ra,b06 <I2C_CheckEvent>
    14f0:	dd65                	beqz	a0,14e8 <MPU6050_I2C_Mem_Read+0xc8>
    14f2:	400064b7          	lui	s1,0x40006
    14f6:	000309b7          	lui	s3,0x30
    14fa:	0ff00a13          	li	s4,255
    14fe:	80048493          	addi	s1,s1,-2048 # 40005800 <__freertos_irq_stack_top+0x1fffd800>
    1502:	04098993          	addi	s3,s3,64 # 30040 <_data_lma+0x28524>
    1506:	147d                	addi	s0,s0,-1
    1508:	0ff47413          	andi	s0,s0,255
    150c:	03441063          	bne	s0,s4,152c <MPU6050_I2C_Mem_Read+0x10c>
    1510:	40006437          	lui	s0,0x40006
    1514:	80040513          	addi	a0,s0,-2048 # 40005800 <__freertos_irq_stack_top+0x1fffd800>
    1518:	4585                	li	a1,1
    151a:	d9aff0ef          	jal	ra,ab4 <I2C_GenerateSTOP>
    151e:	4585                	li	a1,1
    1520:	80040513          	addi	a0,s0,-2048
    1524:	daaff0ef          	jal	ra,ace <I2C_AcknowledgeConfig>
    1528:	808ff06f          	j	530 <__riscv_restore_4>
    152c:	e409                	bnez	s0,1536 <MPU6050_I2C_Mem_Read+0x116>
    152e:	4581                	li	a1,0
    1530:	8526                	mv	a0,s1
    1532:	d9cff0ef          	jal	ra,ace <I2C_AcknowledgeConfig>
    1536:	85ce                	mv	a1,s3
    1538:	8526                	mv	a0,s1
    153a:	dccff0ef          	jal	ra,b06 <I2C_CheckEvent>
    153e:	dd65                	beqz	a0,1536 <MPU6050_I2C_Mem_Read+0x116>
    1540:	8526                	mv	a0,s1
    1542:	daaff0ef          	jal	ra,aec <I2C_ReceiveData>
    1546:	00a90023          	sb	a0,0(s2)
    154a:	0905                	addi	s2,s2,1
    154c:	bf6d                	j	1506 <MPU6050_I2C_Mem_Read+0xe6>

0000154e <MPU6050_Get_Data>:
    154e:	fc9fe2ef          	jal	t0,516 <__riscv_save_0>
    1552:	1141                	addi	sp,sp,-16
    1554:	842a                	mv	s0,a0
    1556:	00e10693          	addi	a3,sp,14
    155a:	85aa                	mv	a1,a0
    155c:	4605                	li	a2,1
    155e:	0d000513          	li	a0,208
    1562:	3d7d                	jal	1420 <MPU6050_I2C_Mem_Read>
    1564:	00140593          	addi	a1,s0,1
    1568:	00f10693          	addi	a3,sp,15
    156c:	4605                	li	a2,1
    156e:	0ff5f593          	andi	a1,a1,255
    1572:	0d000513          	li	a0,208
    1576:	356d                	jal	1420 <MPU6050_I2C_Mem_Read>
    1578:	871c                	lbu	a5,14(sp)
    157a:	8788                	lbu	a0,15(sp)
    157c:	07a2                	slli	a5,a5,0x8
    157e:	8d5d                	or	a0,a0,a5
    1580:	0141                	addi	sp,sp,16
    1582:	fb9fe06f          	j	53a <__riscv_restore_0>

00001586 <MPU6050_MPU_DMP_GetData>:
    1586:	f91fe2ef          	jal	t0,516 <__riscv_save_0>
    158a:	1141                	addi	sp,sp,-16
    158c:	0070                	addi	a2,sp,12
    158e:	002c                	addi	a1,sp,8
    1590:	0048                	addi	a0,sp,4
    1592:	a47ff0ef          	jal	ra,fd8 <mpu_dmp_get_data>
    1596:	47b2                	lw	a5,12(sp)
    1598:	20000437          	lui	s0,0x20000
    159c:	1b840413          	addi	s0,s0,440 # 200001b8 <MPU6050_para>
    15a0:	c01c                	sw	a5,0(s0)
    15a2:	4792                	lw	a5,4(sp)
    15a4:	84aa                	mv	s1,a0
    15a6:	04700513          	li	a0,71
    15aa:	c05c                	sw	a5,4(s0)
    15ac:	47a2                	lw	a5,8(sp)
    15ae:	c41c                	sw	a5,8(s0)
    15b0:	3f79                	jal	154e <MPU6050_Get_Data>
    15b2:	a44a                	sh	a0,12(s0)
    15b4:	04300513          	li	a0,67
    15b8:	3f59                	jal	154e <MPU6050_Get_Data>
    15ba:	a46a                	sh	a0,14(s0)
    15bc:	04500513          	li	a0,69
    15c0:	3779                	jal	154e <MPU6050_Get_Data>
    15c2:	1531                	addi	a0,a0,-20
    15c4:	a80a                	sh	a0,16(s0)
    15c6:	8526                	mv	a0,s1
    15c8:	0141                	addi	sp,sp,16
    15ca:	f71fe06f          	j	53a <__riscv_restore_0>

000015ce <FilterSample>:
    15ce:	f49fe2ef          	jal	t0,516 <__riscv_save_0>
    15d2:	451c                	lw	a5,8(a0)
    15d4:	84aa                	mv	s1,a0
    15d6:	892e                	mv	s2,a1
    15d8:	00a51403          	lh	s0,10(a0)
    15dc:	ef89                	bnez	a5,15f6 <FilterSample+0x28>
    15de:	4108                	lw	a0,0(a0)
    15e0:	00000593          	li	a1,0
    15e4:	7a7030ef          	jal	ra,558a <__eqsf2>
    15e8:	e519                	bnez	a0,15f6 <FilterSample+0x28>
    15ea:	040a                	slli	s0,s0,0x2
    15ec:	9426                	add	s0,s0,s1
    15ee:	01242023          	sw	s2,0(s0)
    15f2:	f49fe06f          	j	53a <__riscv_restore_0>
    15f6:	4789                	li	a5,2
    15f8:	0405                	addi	s0,s0,1
    15fa:	02f46433          	rem	s0,s0,a5
    15fe:	00849703          	lh	a4,8(s1)
    1602:	01041793          	slli	a5,s0,0x10
    1606:	87c1                	srai	a5,a5,0x10
    1608:	040a                	slli	s0,s0,0x2
    160a:	a4be                	sh	a5,10(s1)
    160c:	9426                	add	s0,s0,s1
    160e:	01242023          	sw	s2,0(s0)
    1612:	fee790e3          	bne	a5,a4,15f2 <FilterSample+0x24>
    1616:	0785                	addi	a5,a5,1
    1618:	8b85                	andi	a5,a5,1
    161a:	a49e                	sh	a5,8(s1)
    161c:	bfd9                	j	15f2 <FilterSample+0x24>

0000161e <FilterAverage>:
    161e:	ef9fe2ef          	jal	t0,516 <__riscv_save_0>
    1622:	842a                	mv	s0,a0
    1624:	4108                	lw	a0,0(a0)
    1626:	00000593          	li	a1,0
    162a:	145030ef          	jal	ra,4f6e <__addsf3>
    162e:	404c                	lw	a1,4(s0)
    1630:	13f030ef          	jal	ra,4f6e <__addsf3>
    1634:	000077b7          	lui	a5,0x7
    1638:	5447a583          	lw	a1,1348(a5) # 7544 <test+0x28>
    163c:	0bc040ef          	jal	ra,56f8 <__mulsf3>
    1640:	efbfe06f          	j	53a <__riscv_restore_0>

00001644 <Motor_ctr>:
    1644:	5a000793          	li	a5,1440
    1648:	00a7fb63          	bgeu	a5,a0,165e <Motor_ctr+0x1a>
    164c:	6785                	lui	a5,0x1
    164e:	b3f78713          	addi	a4,a5,-1217 # b3f <I2C_GetFlagStatus+0x23>
    1652:	04a76e63          	bltu	a4,a0,16ae <Motor_ctr+0x6a>
    1656:	67200793          	li	a5,1650
    165a:	00a7e463          	bltu	a5,a0,1662 <Motor_ctr+0x1e>
    165e:	5a000513          	li	a0,1440
    1662:	8111c783          	lbu	a5,-2031(gp) # 200000e1 <is_locked>
    1666:	eb99                	bnez	a5,167c <Motor_ctr+0x38>
    1668:	67200713          	li	a4,1650
    166c:	87aa                	mv	a5,a0
    166e:	00e57463          	bgeu	a0,a4,1676 <Motor_ctr+0x32>
    1672:	67200793          	li	a5,1650
    1676:	01079513          	slli	a0,a5,0x10
    167a:	8141                	srli	a0,a0,0x10
    167c:	80c1a783          	lw	a5,-2036(gp) # 200000dc <MOTOR_MODE>
    1680:	4709                	li	a4,2
    1682:	15fd                	addi	a1,a1,-1
    1684:	06e78e63          	beq	a5,a4,1700 <Motor_ctr+0xbc>
    1688:	e8ffe2ef          	jal	t0,516 <__riscv_save_0>
    168c:	00259793          	slli	a5,a1,0x2
    1690:	200005b7          	lui	a1,0x20000
    1694:	04c58593          	addi	a1,a1,76 # 2000004c <Motor_pos>
    1698:	95be                	add	a1,a1,a5
    169a:	419c                	lw	a5,0(a1)
    169c:	04e78263          	beq	a5,a4,16e0 <Motor_ctr+0x9c>
    16a0:	00f74a63          	blt	a4,a5,16b4 <Motor_ctr+0x70>
    16a4:	4705                	li	a4,1
    16a6:	02e78563          	beq	a5,a4,16d0 <Motor_ctr+0x8c>
    16aa:	e91fe06f          	j	53a <__riscv_restore_0>
    16ae:	b4078513          	addi	a0,a5,-1216
    16b2:	bf45                	j	1662 <Motor_ctr+0x1e>
    16b4:	470d                	li	a4,3
    16b6:	02e78d63          	beq	a5,a4,16f0 <Motor_ctr+0xac>
    16ba:	4711                	li	a4,4
    16bc:	fee797e3          	bne	a5,a4,16aa <Motor_ctr+0x66>
    16c0:	85aa                	mv	a1,a0
    16c2:	40015537          	lui	a0,0x40015
    16c6:	c0050513          	addi	a0,a0,-1024 # 40014c00 <__freertos_irq_stack_top+0x2000cc00>
    16ca:	e2eff0ef          	jal	ra,cf8 <TIM_SetCompare4>
    16ce:	bff1                	j	16aa <Motor_ctr+0x66>
    16d0:	85aa                	mv	a1,a0
    16d2:	40015537          	lui	a0,0x40015
    16d6:	c0050513          	addi	a0,a0,-1024 # 40014c00 <__freertos_irq_stack_top+0x2000cc00>
    16da:	e12ff0ef          	jal	ra,cec <TIM_SetCompare1>
    16de:	b7f1                	j	16aa <Motor_ctr+0x66>
    16e0:	85aa                	mv	a1,a0
    16e2:	40015537          	lui	a0,0x40015
    16e6:	c0050513          	addi	a0,a0,-1024 # 40014c00 <__freertos_irq_stack_top+0x2000cc00>
    16ea:	e06ff0ef          	jal	ra,cf0 <TIM_SetCompare2>
    16ee:	bf75                	j	16aa <Motor_ctr+0x66>
    16f0:	85aa                	mv	a1,a0
    16f2:	40015537          	lui	a0,0x40015
    16f6:	c0050513          	addi	a0,a0,-1024 # 40014c00 <__freertos_irq_stack_top+0x2000cc00>
    16fa:	dfaff0ef          	jal	ra,cf4 <TIM_SetCompare3>
    16fe:	b775                	j	16aa <Motor_ctr+0x66>
    1700:	8082                	ret

00001702 <TIM4_IRQHandler>:
    1702:	40001537          	lui	a0,0x40001
    1706:	4585                	li	a1,1
    1708:	80050513          	addi	a0,a0,-2048 # 40000800 <__freertos_irq_stack_top+0x1fff8800>
    170c:	e04ff0ef          	jal	ra,d10 <TIM_ClearFlag>
    1710:	30200073          	mret

00001714 <load_filter_data>:
    1714:	e03fe2ef          	jal	t0,516 <__riscv_save_0>
    1718:	20000437          	lui	s0,0x20000
    171c:	1b842583          	lw	a1,440(s0) # 200001b8 <MPU6050_para>
    1720:	91018493          	addi	s1,gp,-1776 # 200001e0 <gyro_filter>
    1724:	91018513          	addi	a0,gp,-1776 # 200001e0 <gyro_filter>
    1728:	1b840413          	addi	s0,s0,440
    172c:	354d                	jal	15ce <FilterSample>
    172e:	404c                	lw	a1,4(s0)
    1730:	00c48513          	addi	a0,s1,12
    1734:	3d69                	jal	15ce <FilterSample>
    1736:	440c                	lw	a1,8(s0)
    1738:	01848513          	addi	a0,s1,24
    173c:	3d49                	jal	15ce <FilterSample>
    173e:	00c41503          	lh	a0,12(s0)
    1742:	6c6040ef          	jal	ra,5e08 <__floatsisf>
    1746:	85aa                	mv	a1,a0
    1748:	02448513          	addi	a0,s1,36
    174c:	3549                	jal	15ce <FilterSample>
    174e:	00e41503          	lh	a0,14(s0)
    1752:	6b6040ef          	jal	ra,5e08 <__floatsisf>
    1756:	85aa                	mv	a1,a0
    1758:	03048513          	addi	a0,s1,48
    175c:	3d8d                	jal	15ce <FilterSample>
    175e:	01041503          	lh	a0,16(s0)
    1762:	6a6040ef          	jal	ra,5e08 <__floatsisf>
    1766:	85aa                	mv	a1,a0
    1768:	03c48513          	addi	a0,s1,60
    176c:	358d                	jal	15ce <FilterSample>
    176e:	dcdfe06f          	j	53a <__riscv_restore_0>

00001772 <calc_IMU_filter>:
    1772:	da5fe2ef          	jal	t0,516 <__riscv_save_0>
    1776:	91018493          	addi	s1,gp,-1776 # 200001e0 <gyro_filter>
    177a:	20000437          	lui	s0,0x20000
    177e:	91018513          	addi	a0,gp,-1776 # 200001e0 <gyro_filter>
    1782:	1cc40413          	addi	s0,s0,460 # 200001cc <MPU6050_para_filted>
    1786:	3d61                	jal	161e <FilterAverage>
    1788:	c008                	sw	a0,0(s0)
    178a:	01848513          	addi	a0,s1,24
    178e:	3d41                	jal	161e <FilterAverage>
    1790:	c048                	sw	a0,4(s0)
    1792:	00c48513          	addi	a0,s1,12
    1796:	3561                	jal	161e <FilterAverage>
    1798:	c408                	sw	a0,8(s0)
    179a:	02448513          	addi	a0,s1,36
    179e:	3541                	jal	161e <FilterAverage>
    17a0:	5b0040ef          	jal	ra,5d50 <__fixsfsi>
    17a4:	a44a                	sh	a0,12(s0)
    17a6:	03048513          	addi	a0,s1,48
    17aa:	3d95                	jal	161e <FilterAverage>
    17ac:	5a4040ef          	jal	ra,5d50 <__fixsfsi>
    17b0:	a46a                	sh	a0,14(s0)
    17b2:	03c48513          	addi	a0,s1,60
    17b6:	35a5                	jal	161e <FilterAverage>
    17b8:	598040ef          	jal	ra,5d50 <__fixsfsi>
    17bc:	a80a                	sh	a0,16(s0)
    17be:	d7dfe06f          	j	53a <__riscv_restore_0>

000017c2 <TIM3_IRQHandler>:
    17c2:	40000537          	lui	a0,0x40000
    17c6:	1141                	addi	sp,sp,-16
    17c8:	4585                	li	a1,1
    17ca:	40050513          	addi	a0,a0,1024 # 40000400 <__freertos_irq_stack_top+0x1fff8400>
    17ce:	c622                	sw	s0,12(sp)
    17d0:	d40ff0ef          	jal	ra,d10 <TIM_ClearFlag>
    17d4:	6fe000ef          	jal	ra,1ed2 <Update_ELRS>
    17d8:	337d                	jal	1586 <MPU6050_MPU_DMP_GetData>
    17da:	e50d                	bnez	a0,1804 <TIM3_IRQHandler+0x42>
    17dc:	3f25                	jal	1714 <load_filter_data>
    17de:	3f51                	jal	1772 <calc_IMU_filter>
    17e0:	80c1a703          	lw	a4,-2036(gp) # 200000dc <MOTOR_MODE>
    17e4:	4789                	li	a5,2
    17e6:	00f70f63          	beq	a4,a5,1804 <TIM3_IRQHandler+0x42>
    17ea:	8111c783          	lbu	a5,-2031(gp) # 200000e1 <is_locked>
    17ee:	ef95                	bnez	a5,182a <TIM3_IRQHandler+0x68>
    17f0:	20000437          	lui	s0,0x20000
    17f4:	12445503          	lhu	a0,292(s0) # 20000124 <Throttle>
    17f8:	6a300793          	li	a5,1699
    17fc:	00a7f863          	bgeu	a5,a0,180c <TIM3_IRQHandler+0x4a>
    1800:	716000ef          	jal	ra,1f16 <Flight_control>
    1804:	4432                	lw	s0,12(sp)
    1806:	0141                	addi	sp,sp,16
    1808:	30200073          	mret
    180c:	4585                	li	a1,1
    180e:	3d1d                	jal	1644 <Motor_ctr>
    1810:	12445503          	lhu	a0,292(s0)
    1814:	4589                	li	a1,2
    1816:	353d                	jal	1644 <Motor_ctr>
    1818:	12445503          	lhu	a0,292(s0)
    181c:	458d                	li	a1,3
    181e:	351d                	jal	1644 <Motor_ctr>
    1820:	12445503          	lhu	a0,292(s0)
    1824:	4591                	li	a1,4
    1826:	3d39                	jal	1644 <Motor_ctr>
    1828:	bff1                	j	1804 <TIM3_IRQHandler+0x42>
    182a:	20000437          	lui	s0,0x20000
    182e:	05c40413          	addi	s0,s0,92 # 2000005c <pid_func>
    1832:	08b000ef          	jal	ra,20bc <Stop_motor>
    1836:	441c                	lw	a5,8(s0)
    1838:	bd418513          	addi	a0,gp,-1068 # 200004a4 <PID_roll_outerloop>
    183c:	9782                	jalr	a5
    183e:	441c                	lw	a5,8(s0)
    1840:	b8418513          	addi	a0,gp,-1148 # 20000454 <PID_roll_innerloop>
    1844:	9782                	jalr	a5
    1846:	441c                	lw	a5,8(s0)
    1848:	b3418513          	addi	a0,gp,-1228 # 20000404 <PID_pitch_outerloop>
    184c:	9782                	jalr	a5
    184e:	441c                	lw	a5,8(s0)
    1850:	ae418513          	addi	a0,gp,-1308 # 200003b4 <PID_pitch_innerloop>
    1854:	9782                	jalr	a5
    1856:	441c                	lw	a5,8(s0)
    1858:	c7418513          	addi	a0,gp,-908 # 20000544 <PID_yaw_outerloop>
    185c:	9782                	jalr	a5
    185e:	441c                	lw	a5,8(s0)
    1860:	c2418513          	addi	a0,gp,-988 # 200004f4 <PID_yaw_innerloop>
    1864:	9782                	jalr	a5
    1866:	bf79                	j	1804 <TIM3_IRQHandler+0x42>

00001868 <UART_RxCpltCallback>:
    1868:	caffe2ef          	jal	t0,516 <__riscv_save_0>
    186c:	842a                	mv	s0,a0
    186e:	d5aff0ef          	jal	ra,dc8 <USART_ReceiveData>
    1872:	200006b7          	lui	a3,0x20000
    1876:	10c6c703          	lbu	a4,268(a3) # 2000010c <RxBuf_Index>
    187a:	aa418613          	addi	a2,gp,-1372 # 20000374 <RxBuf>
    187e:	00170793          	addi	a5,a4,1
    1882:	0ff7f793          	andi	a5,a5,255
    1886:	9732                	add	a4,a4,a2
    1888:	a308                	sb	a0,0(a4)
    188a:	10f68623          	sb	a5,268(a3)
    188e:	04000713          	li	a4,64
    1892:	00e79463          	bne	a5,a4,189a <UART_RxCpltCallback+0x32>
    1896:	10068623          	sb	zero,268(a3)
    189a:	2675                	jal	1c46 <HandleByteReceived>
    189c:	52500593          	li	a1,1317
    18a0:	8522                	mv	a0,s0
    18a2:	d38ff0ef          	jal	ra,dda <USART_ClearFlag>
    18a6:	c95fe06f          	j	53a <__riscv_restore_0>

000018aa <USART2_IRQHandler>:
    18aa:	1141                	addi	sp,sp,-16
    18ac:	c622                	sw	s0,12(sp)
    18ae:	40004437          	lui	s0,0x40004
    18b2:	52500593          	li	a1,1317
    18b6:	40040513          	addi	a0,s0,1024 # 40004400 <__freertos_irq_stack_top+0x1fffc400>
    18ba:	d2cff0ef          	jal	ra,de6 <USART_GetITStatus>
    18be:	c919                	beqz	a0,18d4 <USART2_IRQHandler+0x2a>
    18c0:	02000593          	li	a1,32
    18c4:	40040513          	addi	a0,s0,1024
    18c8:	d08ff0ef          	jal	ra,dd0 <USART_GetFlagStatus>
    18cc:	c501                	beqz	a0,18d4 <USART2_IRQHandler+0x2a>
    18ce:	40040513          	addi	a0,s0,1024
    18d2:	3f59                	jal	1868 <UART_RxCpltCallback>
    18d4:	4432                	lw	s0,12(sp)
    18d6:	0141                	addi	sp,sp,16
    18d8:	30200073          	mret

000018dc <print_status>:
    18dc:	c3bfe2ef          	jal	t0,516 <__riscv_save_0>
    18e0:	20000437          	lui	s0,0x20000
    18e4:	1cc42503          	lw	a0,460(s0) # 200001cc <MPU6050_para_filted>
    18e8:	1cc40413          	addi	s0,s0,460
    18ec:	5e2040ef          	jal	ra,5ece <__extendsfdf2>
    18f0:	862a                	mv	a2,a0
    18f2:	00007537          	lui	a0,0x7
    18f6:	86ae                	mv	a3,a1
    18f8:	54850513          	addi	a0,a0,1352 # 7548 <test+0x2c>
    18fc:	111040ef          	jal	ra,620c <iprintf>
    1900:	4048                	lw	a0,4(s0)
    1902:	5cc040ef          	jal	ra,5ece <__extendsfdf2>
    1906:	862a                	mv	a2,a0
    1908:	00007537          	lui	a0,0x7
    190c:	86ae                	mv	a3,a1
    190e:	55850513          	addi	a0,a0,1368 # 7558 <test+0x3c>
    1912:	0fb040ef          	jal	ra,620c <iprintf>
    1916:	4408                	lw	a0,8(s0)
    1918:	5b6040ef          	jal	ra,5ece <__extendsfdf2>
    191c:	862a                	mv	a2,a0
    191e:	00007537          	lui	a0,0x7
    1922:	86ae                	mv	a3,a1
    1924:	56c50513          	addi	a0,a0,1388 # 756c <test+0x50>
    1928:	0e5040ef          	jal	ra,620c <iprintf>
    192c:	00c41583          	lh	a1,12(s0)
    1930:	00007537          	lui	a0,0x7
    1934:	58050513          	addi	a0,a0,1408 # 7580 <test+0x64>
    1938:	0d5040ef          	jal	ra,620c <iprintf>
    193c:	00e41583          	lh	a1,14(s0)
    1940:	00007537          	lui	a0,0x7
    1944:	59450513          	addi	a0,a0,1428 # 7594 <test+0x78>
    1948:	0c5040ef          	jal	ra,620c <iprintf>
    194c:	01041583          	lh	a1,16(s0)
    1950:	00007537          	lui	a0,0x7
    1954:	5ac50513          	addi	a0,a0,1452 # 75ac <test+0x90>
    1958:	0b5040ef          	jal	ra,620c <iprintf>
    195c:	c481a503          	lw	a0,-952(gp) # 20000518 <PID_yaw_innerloop+0x24>
    1960:	40015437          	lui	s0,0x40015
    1964:	56a040ef          	jal	ra,5ece <__extendsfdf2>
    1968:	862a                	mv	a2,a0
    196a:	00007537          	lui	a0,0x7
    196e:	86ae                	mv	a3,a1
    1970:	5c050513          	addi	a0,a0,1472 # 75c0 <test+0xa4>
    1974:	099040ef          	jal	ra,620c <iprintf>
    1978:	ba81a503          	lw	a0,-1112(gp) # 20000478 <PID_roll_innerloop+0x24>
    197c:	552040ef          	jal	ra,5ece <__extendsfdf2>
    1980:	862a                	mv	a2,a0
    1982:	00007537          	lui	a0,0x7
    1986:	86ae                	mv	a3,a1
    1988:	5d050513          	addi	a0,a0,1488 # 75d0 <test+0xb4>
    198c:	081040ef          	jal	ra,620c <iprintf>
    1990:	b081a503          	lw	a0,-1272(gp) # 200003d8 <PID_pitch_innerloop+0x24>
    1994:	53a040ef          	jal	ra,5ece <__extendsfdf2>
    1998:	862a                	mv	a2,a0
    199a:	00007537          	lui	a0,0x7
    199e:	86ae                	mv	a3,a1
    19a0:	5e050513          	addi	a0,a0,1504 # 75e0 <test+0xc4>
    19a4:	069040ef          	jal	ra,620c <iprintf>
    19a8:	c0040513          	addi	a0,s0,-1024 # 40014c00 <__freertos_irq_stack_top+0x2000cc00>
    19ac:	b56ff0ef          	jal	ra,d02 <TIM_GetCapture2>
    19b0:	85aa                	mv	a1,a0
    19b2:	00007537          	lui	a0,0x7
    19b6:	5f450513          	addi	a0,a0,1524 # 75f4 <test+0xd8>
    19ba:	053040ef          	jal	ra,620c <iprintf>
    19be:	c0040513          	addi	a0,s0,-1024
    19c2:	b44ff0ef          	jal	ra,d06 <TIM_GetCapture3>
    19c6:	85aa                	mv	a1,a0
    19c8:	00007537          	lui	a0,0x7
    19cc:	60050513          	addi	a0,a0,1536 # 7600 <test+0xe4>
    19d0:	03d040ef          	jal	ra,620c <iprintf>
    19d4:	c0040513          	addi	a0,s0,-1024
    19d8:	b26ff0ef          	jal	ra,cfe <TIM_GetCapture1>
    19dc:	85aa                	mv	a1,a0
    19de:	00007537          	lui	a0,0x7
    19e2:	60c50513          	addi	a0,a0,1548 # 760c <test+0xf0>
    19e6:	027040ef          	jal	ra,620c <iprintf>
    19ea:	c0040513          	addi	a0,s0,-1024
    19ee:	b1cff0ef          	jal	ra,d0a <TIM_GetCapture4>
    19f2:	85aa                	mv	a1,a0
    19f4:	00007537          	lui	a0,0x7
    19f8:	61850513          	addi	a0,a0,1560 # 7618 <test+0xfc>
    19fc:	011040ef          	jal	ra,620c <iprintf>
    1a00:	8101c783          	lbu	a5,-2032(gp) # 200000e0 <flight_mode>
    1a04:	4709                	li	a4,2
    1a06:	04e79163          	bne	a5,a4,1a48 <print_status+0x16c>
    1a0a:	00007537          	lui	a0,0x7
    1a0e:	62450513          	addi	a0,a0,1572 # 7624 <test+0x108>
    1a12:	10f040ef          	jal	ra,6320 <puts>
    1a16:	8111c783          	lbu	a5,-2031(gp) # 200000e1 <is_locked>
    1a1a:	e7a1                	bnez	a5,1a62 <print_status+0x186>
    1a1c:	00007537          	lui	a0,0x7
    1a20:	66050513          	addi	a0,a0,1632 # 7660 <test+0x144>
    1a24:	0fd040ef          	jal	ra,6320 <puts>
    1a28:	8081a783          	lw	a5,-2040(gp) # 200000d8 <CONTROL_MODE>
    1a2c:	4705                	li	a4,1
    1a2e:	02e79f63          	bne	a5,a4,1a6c <print_status+0x190>
    1a32:	00007537          	lui	a0,0x7
    1a36:	68850513          	addi	a0,a0,1672 # 7688 <test+0x16c>
    1a3a:	0e7040ef          	jal	ra,6320 <puts>
    1a3e:	4529                	li	a0,10
    1a40:	716010ef          	jal	ra,3156 <vTaskDelay>
    1a44:	af7fe06f          	j	53a <__riscv_restore_0>
    1a48:	4705                	li	a4,1
    1a4a:	00e79763          	bne	a5,a4,1a58 <print_status+0x17c>
    1a4e:	00007537          	lui	a0,0x7
    1a52:	63850513          	addi	a0,a0,1592 # 7638 <test+0x11c>
    1a56:	bf75                	j	1a12 <print_status+0x136>
    1a58:	00007537          	lui	a0,0x7
    1a5c:	64c50513          	addi	a0,a0,1612 # 764c <test+0x130>
    1a60:	bf4d                	j	1a12 <print_status+0x136>
    1a62:	00007537          	lui	a0,0x7
    1a66:	67450513          	addi	a0,a0,1652 # 7674 <test+0x158>
    1a6a:	bf6d                	j	1a24 <print_status+0x148>
    1a6c:	4709                	li	a4,2
    1a6e:	fce798e3          	bne	a5,a4,1a3e <print_status+0x162>
    1a72:	00007537          	lui	a0,0x7
    1a76:	69c50513          	addi	a0,a0,1692 # 769c <test+0x180>
    1a7a:	b7c1                	j	1a3a <print_status+0x15e>

00001a7c <Calc>:
    1a7c:	95aa                	add	a1,a1,a0
    1a7e:	4781                	li	a5,0
    1a80:	95818713          	addi	a4,gp,-1704 # 20000228 <_lut>
    1a84:	00b51463          	bne	a0,a1,1a8c <Calc+0x10>
    1a88:	853e                	mv	a0,a5
    1a8a:	8082                	ret
    1a8c:	0505                	addi	a0,a0,1
    1a8e:	fff54683          	lbu	a3,-1(a0)
    1a92:	8fb5                	xor	a5,a5,a3
    1a94:	97ba                	add	a5,a5,a4
    1a96:	239c                	lbu	a5,0(a5)
    1a98:	b7f5                	j	1a84 <Calc+0x8>

00001a9a <ShiftRxBuffer>:
    1a9a:	20000737          	lui	a4,0x20000
    1a9e:	10c70713          	addi	a4,a4,268 # 2000010c <RxBuf_Index>
    1aa2:	231c                	lbu	a5,0(a4)
    1aa4:	00f56563          	bltu	a0,a5,1aae <ShiftRxBuffer+0x14>
    1aa8:	00070023          	sb	zero,0(a4)
    1aac:	8082                	ret
    1aae:	8f89                	sub	a5,a5,a0
    1ab0:	0ff7f793          	andi	a5,a5,255
    1ab4:	a31c                	sb	a5,0(a4)
    1ab6:	aa418693          	addi	a3,gp,-1372 # 20000374 <RxBuf>
    1aba:	4701                	li	a4,0
    1abc:	00a70633          	add	a2,a4,a0
    1ac0:	9636                	add	a2,a2,a3
    1ac2:	220c                	lbu	a1,0(a2)
    1ac4:	00e68633          	add	a2,a3,a4
    1ac8:	0705                	addi	a4,a4,1
    1aca:	a20c                	sb	a1,0(a2)
    1acc:	fef718e3          	bne	a4,a5,1abc <ShiftRxBuffer+0x22>
    1ad0:	8082                	ret

00001ad2 <PacketChannelsPacked>:
    1ad2:	2158                	lbu	a4,4(a0)
    1ad4:	3134                	lbu	a3,3(a0)
    1ad6:	8b1d                	andi	a4,a4,7
    1ad8:	0722                	slli	a4,a4,0x8
    1ada:	a5818793          	addi	a5,gp,-1448 # 20000328 <CrsfChannels>
    1ade:	8f55                	or	a4,a4,a3
    1ae0:	c398                	sw	a4,0(a5)
    1ae2:	2158                	lbu	a4,4(a0)
    1ae4:	00375693          	srli	a3,a4,0x3
    1ae8:	3158                	lbu	a4,5(a0)
    1aea:	03f77713          	andi	a4,a4,63
    1aee:	0716                	slli	a4,a4,0x5
    1af0:	8f55                	or	a4,a4,a3
    1af2:	c3d8                	sw	a4,4(a5)
    1af4:	3154                	lbu	a3,5(a0)
    1af6:	2178                	lbu	a4,6(a0)
    1af8:	8299                	srli	a3,a3,0x6
    1afa:	070a                	slli	a4,a4,0x2
    1afc:	8ed9                	or	a3,a3,a4
    1afe:	3178                	lbu	a4,7(a0)
    1b00:	8b05                	andi	a4,a4,1
    1b02:	072a                	slli	a4,a4,0xa
    1b04:	8f55                	or	a4,a4,a3
    1b06:	c798                	sw	a4,8(a5)
    1b08:	3178                	lbu	a4,7(a0)
    1b0a:	00175693          	srli	a3,a4,0x1
    1b0e:	2518                	lbu	a4,8(a0)
    1b10:	8b3d                	andi	a4,a4,15
    1b12:	071e                	slli	a4,a4,0x7
    1b14:	8f55                	or	a4,a4,a3
    1b16:	c7d8                	sw	a4,12(a5)
    1b18:	2518                	lbu	a4,8(a0)
    1b1a:	00475693          	srli	a3,a4,0x4
    1b1e:	3518                	lbu	a4,9(a0)
    1b20:	07f77713          	andi	a4,a4,127
    1b24:	0712                	slli	a4,a4,0x4
    1b26:	8f55                	or	a4,a4,a3
    1b28:	cb98                	sw	a4,16(a5)
    1b2a:	3514                	lbu	a3,9(a0)
    1b2c:	2538                	lbu	a4,10(a0)
    1b2e:	829d                	srli	a3,a3,0x7
    1b30:	0706                	slli	a4,a4,0x1
    1b32:	8ed9                	or	a3,a3,a4
    1b34:	3538                	lbu	a4,11(a0)
    1b36:	8b0d                	andi	a4,a4,3
    1b38:	0726                	slli	a4,a4,0x9
    1b3a:	8f55                	or	a4,a4,a3
    1b3c:	cbd8                	sw	a4,20(a5)
    1b3e:	3538                	lbu	a4,11(a0)
    1b40:	00275693          	srli	a3,a4,0x2
    1b44:	2558                	lbu	a4,12(a0)
    1b46:	8b7d                	andi	a4,a4,31
    1b48:	071a                	slli	a4,a4,0x6
    1b4a:	8f55                	or	a4,a4,a3
    1b4c:	cf98                	sw	a4,24(a5)
    1b4e:	2558                	lbu	a4,12(a0)
    1b50:	00575693          	srli	a3,a4,0x5
    1b54:	3558                	lbu	a4,13(a0)
    1b56:	070e                	slli	a4,a4,0x3
    1b58:	8f55                	or	a4,a4,a3
    1b5a:	cfd8                	sw	a4,28(a5)
    1b5c:	3578                	lbu	a4,15(a0)
    1b5e:	2574                	lbu	a3,14(a0)
    1b60:	8b1d                	andi	a4,a4,7
    1b62:	0722                	slli	a4,a4,0x8
    1b64:	8f55                	or	a4,a4,a3
    1b66:	d398                	sw	a4,32(a5)
    1b68:	3578                	lbu	a4,15(a0)
    1b6a:	00375693          	srli	a3,a4,0x3
    1b6e:	2918                	lbu	a4,16(a0)
    1b70:	03f77713          	andi	a4,a4,63
    1b74:	0716                	slli	a4,a4,0x5
    1b76:	8f55                	or	a4,a4,a3
    1b78:	d3d8                	sw	a4,36(a5)
    1b7a:	2914                	lbu	a3,16(a0)
    1b7c:	3918                	lbu	a4,17(a0)
    1b7e:	8299                	srli	a3,a3,0x6
    1b80:	070a                	slli	a4,a4,0x2
    1b82:	8ed9                	or	a3,a3,a4
    1b84:	2938                	lbu	a4,18(a0)
    1b86:	8b05                	andi	a4,a4,1
    1b88:	072a                	slli	a4,a4,0xa
    1b8a:	8f55                	or	a4,a4,a3
    1b8c:	d798                	sw	a4,40(a5)
    1b8e:	2938                	lbu	a4,18(a0)
    1b90:	00175693          	srli	a3,a4,0x1
    1b94:	3938                	lbu	a4,19(a0)
    1b96:	8b3d                	andi	a4,a4,15
    1b98:	071e                	slli	a4,a4,0x7
    1b9a:	8f55                	or	a4,a4,a3
    1b9c:	d7d8                	sw	a4,44(a5)
    1b9e:	3938                	lbu	a4,19(a0)
    1ba0:	00475693          	srli	a3,a4,0x4
    1ba4:	2958                	lbu	a4,20(a0)
    1ba6:	07f77713          	andi	a4,a4,127
    1baa:	0712                	slli	a4,a4,0x4
    1bac:	8f55                	or	a4,a4,a3
    1bae:	db98                	sw	a4,48(a5)
    1bb0:	2954                	lbu	a3,20(a0)
    1bb2:	3958                	lbu	a4,21(a0)
    1bb4:	829d                	srli	a3,a3,0x7
    1bb6:	0706                	slli	a4,a4,0x1
    1bb8:	8ed9                	or	a3,a3,a4
    1bba:	2978                	lbu	a4,22(a0)
    1bbc:	8b0d                	andi	a4,a4,3
    1bbe:	0726                	slli	a4,a4,0x9
    1bc0:	8f55                	or	a4,a4,a3
    1bc2:	dbd8                	sw	a4,52(a5)
    1bc4:	2978                	lbu	a4,22(a0)
    1bc6:	00275693          	srli	a3,a4,0x2
    1bca:	3978                	lbu	a4,23(a0)
    1bcc:	8b7d                	andi	a4,a4,31
    1bce:	071a                	slli	a4,a4,0x6
    1bd0:	8f55                	or	a4,a4,a3
    1bd2:	df98                	sw	a4,56(a5)
    1bd4:	3978                	lbu	a4,23(a0)
    1bd6:	00575693          	srli	a3,a4,0x5
    1bda:	2d18                	lbu	a4,24(a0)
    1bdc:	070e                	slli	a4,a4,0x3
    1bde:	8f55                	or	a4,a4,a3
    1be0:	dfd8                	sw	a4,60(a5)
    1be2:	8082                	ret

00001be4 <PacketLinkStatistics>:
    1be4:	933fe2ef          	jal	t0,516 <__riscv_save_0>
    1be8:	2158                	lbu	a4,4(a0)
    1bea:	313c                	lbu	a5,3(a0)
    1bec:	1141                	addi	sp,sp,-16
    1bee:	0722                	slli	a4,a4,0x8
    1bf0:	8f5d                	or	a4,a4,a5
    1bf2:	315c                	lbu	a5,5(a0)
    1bf4:	006c                	addi	a1,sp,12
    1bf6:	4629                	li	a2,10
    1bf8:	07c2                	slli	a5,a5,0x10
    1bfa:	8f5d                	or	a4,a4,a5
    1bfc:	217c                	lbu	a5,6(a0)
    1bfe:	a9818513          	addi	a0,gp,-1384 # 20000368 <LinkStatistics>
    1c02:	07e2                	slli	a5,a5,0x18
    1c04:	8fd9                	or	a5,a5,a4
    1c06:	c63e                	sw	a5,12(sp)
    1c08:	552040ef          	jal	ra,615a <memcpy>
    1c0c:	0141                	addi	sp,sp,16
    1c0e:	92dfe06f          	j	53a <__riscv_restore_0>

00001c12 <ProcessPacketIn>:
    1c12:	aa418793          	addi	a5,gp,-1372 # 20000374 <RxBuf>
    1c16:	2394                	lbu	a3,0(a5)
    1c18:	0c800713          	li	a4,200
    1c1c:	02e69463          	bne	a3,a4,1c44 <ProcessPacketIn+0x32>
    1c20:	8f7fe2ef          	jal	t0,516 <__riscv_save_0>
    1c24:	23bc                	lbu	a5,2(a5)
    1c26:	4751                	li	a4,20
    1c28:	00e78a63          	beq	a5,a4,1c3c <ProcessPacketIn+0x2a>
    1c2c:	4759                	li	a4,22
    1c2e:	00e79563          	bne	a5,a4,1c38 <ProcessPacketIn+0x26>
    1c32:	aa418513          	addi	a0,gp,-1372 # 20000374 <RxBuf>
    1c36:	3d71                	jal	1ad2 <PacketChannelsPacked>
    1c38:	903fe06f          	j	53a <__riscv_restore_0>
    1c3c:	aa418513          	addi	a0,gp,-1372 # 20000374 <RxBuf>
    1c40:	3755                	jal	1be4 <PacketLinkStatistics>
    1c42:	bfdd                	j	1c38 <ProcessPacketIn+0x26>
    1c44:	8082                	ret

00001c46 <HandleByteReceived>:
    1c46:	8b7fe2ef          	jal	t0,4fc <__riscv_save_4>
    1c4a:	aa418493          	addi	s1,gp,-1372 # 20000374 <RxBuf>
    1c4e:	20000937          	lui	s2,0x20000
    1c52:	4985                	li	s3,1
    1c54:	03b00a13          	li	s4,59
    1c58:	00248a93          	addi	s5,s1,2
    1c5c:	10c94703          	lbu	a4,268(s2) # 2000010c <RxBuf_Index>
    1c60:	04e9f163          	bgeu	s3,a4,1ca2 <HandleByteReceived+0x5c>
    1c64:	3080                	lbu	s0,1(s1)
    1c66:	ffd40793          	addi	a5,s0,-3
    1c6a:	0ff7f793          	andi	a5,a5,255
    1c6e:	00fa7563          	bgeu	s4,a5,1c78 <HandleByteReceived+0x32>
    1c72:	4505                	li	a0,1
    1c74:	351d                	jal	1a9a <ShiftRxBuffer>
    1c76:	b7dd                	j	1c5c <HandleByteReceived+0x16>
    1c78:	00140793          	addi	a5,s0,1
    1c7c:	02e7d363          	bge	a5,a4,1ca2 <HandleByteReceived+0x5c>
    1c80:	97a6                	add	a5,a5,s1
    1c82:	0007cb03          	lbu	s6,0(a5)
    1c86:	fff40593          	addi	a1,s0,-1
    1c8a:	0ff5f593          	andi	a1,a1,255
    1c8e:	8556                	mv	a0,s5
    1c90:	33f5                	jal	1a7c <Calc>
    1c92:	feab10e3          	bne	s6,a0,1c72 <HandleByteReceived+0x2c>
    1c96:	3fb5                	jal	1c12 <ProcessPacketIn>
    1c98:	00240513          	addi	a0,s0,2
    1c9c:	0ff57513          	andi	a0,a0,255
    1ca0:	bfd1                	j	1c74 <HandleByteReceived+0x2e>
    1ca2:	88ffe06f          	j	530 <__riscv_restore_4>

00001ca6 <ELRS_Convert_angle>:
    1ca6:	871fe2ef          	jal	t0,516 <__riscv_save_0>
    1caa:	3e800713          	li	a4,1000
    1cae:	87aa                	mv	a5,a0
    1cb0:	02a75263          	bge	a4,a0,1cd4 <ELRS_Convert_angle+0x2e>
    1cb4:	c1850513          	addi	a0,a0,-1000
    1cb8:	244030ef          	jal	ra,4efc <__floatsidf>
    1cbc:	000077b7          	lui	a5,0x7
    1cc0:	6b07a603          	lw	a2,1712(a5) # 76b0 <test+0x194>
    1cc4:	6b47a683          	lw	a3,1716(a5)
    1cc8:	521020ef          	jal	ra,49e8 <__muldf3>
    1ccc:	2ae040ef          	jal	ra,5f7a <__truncdfsf2>
    1cd0:	86bfe06f          	j	53a <__riscv_restore_0>
    1cd4:	3d800713          	li	a4,984
    1cd8:	00000513          	li	a0,0
    1cdc:	fef74ae3          	blt	a4,a5,1cd0 <ELRS_Convert_angle+0x2a>
    1ce0:	c2778513          	addi	a0,a5,-985
    1ce4:	bfd1                	j	1cb8 <ELRS_Convert_angle+0x12>

00001ce6 <ELRS_Convert_throttle>:
    1ce6:	0c800793          	li	a5,200
    1cea:	04a7f063          	bgeu	a5,a0,1d2a <ELRS_Convert_throttle+0x44>
    1cee:	829fe2ef          	jal	t0,516 <__riscv_save_0>
    1cf2:	f3850513          	addi	a0,a0,-200
    1cf6:	0542                	slli	a0,a0,0x10
    1cf8:	8141                	srli	a0,a0,0x10
    1cfa:	202030ef          	jal	ra,4efc <__floatsidf>
    1cfe:	000077b7          	lui	a5,0x7
    1d02:	6b87a603          	lw	a2,1720(a5) # 76b8 <test+0x19c>
    1d06:	6bc7a683          	lw	a3,1724(a5)
    1d0a:	4df020ef          	jal	ra,49e8 <__muldf3>
    1d0e:	000077b7          	lui	a5,0x7
    1d12:	6c07a603          	lw	a2,1728(a5) # 76c0 <test+0x1a4>
    1d16:	6c47a683          	lw	a3,1732(a5)
    1d1a:	59e020ef          	jal	ra,42b8 <__adddf3>
    1d1e:	182030ef          	jal	ra,4ea0 <__fixunsdfsi>
    1d22:	0542                	slli	a0,a0,0x10
    1d24:	8141                	srli	a0,a0,0x10
    1d26:	815fe06f          	j	53a <__riscv_restore_0>
    1d2a:	54600513          	li	a0,1350
    1d2e:	8082                	ret

00001d30 <ELRS_Convert_lock>:
    1d30:	a681a783          	lw	a5,-1432(gp) # 20000338 <CrsfChannels+0x10>
    1d34:	90778793          	addi	a5,a5,-1785
    1d38:	0107b793          	sltiu	a5,a5,16
    1d3c:	0017c793          	xori	a5,a5,1
    1d40:	80f188a3          	sb	a5,-2031(gp) # 200000e1 <is_locked>
    1d44:	8082                	ret

00001d46 <ELRS_Convert_flight_mode>:
    1d46:	a701a703          	lw	a4,-1424(gp) # 20000340 <CrsfChannels+0x18>
    1d4a:	46bd                	li	a3,15
    1d4c:	90770613          	addi	a2,a4,-1785
    1d50:	81018793          	addi	a5,gp,-2032 # 200000e0 <flight_mode>
    1d54:	00c6e563          	bltu	a3,a2,1d5e <ELRS_Convert_flight_mode+0x18>
    1d58:	4709                	li	a4,2
    1d5a:	a398                	sb	a4,0(a5)
    1d5c:	8082                	ret
    1d5e:	c2270713          	addi	a4,a4,-990
    1d62:	46d1                	li	a3,20
    1d64:	00e6e463          	bltu	a3,a4,1d6c <ELRS_Convert_flight_mode+0x26>
    1d68:	4705                	li	a4,1
    1d6a:	bfc5                	j	1d5a <ELRS_Convert_flight_mode+0x14>
    1d6c:	00078023          	sb	zero,0(a5)
    1d70:	8082                	ret

00001d72 <Roll_outerloop_ctr>:
    1d72:	fa4fe2ef          	jal	t0,516 <__riscv_save_0>
    1d76:	200007b7          	lui	a5,0x20000
    1d7a:	1d47a603          	lw	a2,468(a5) # 200001d4 <MPU6050_para_filted+0x8>
    1d7e:	200007b7          	lui	a5,0x20000
    1d82:	1207a503          	lw	a0,288(a5) # 20000120 <Roll>
    1d86:	1141                	addi	sp,sp,-16
    1d88:	00000593          	li	a1,0
    1d8c:	c632                	sw	a2,12(sp)
    1d8e:	1e0030ef          	jal	ra,4f6e <__addsf3>
    1d92:	200007b7          	lui	a5,0x20000
    1d96:	4632                	lw	a2,12(sp)
    1d98:	0687a783          	lw	a5,104(a5) # 20000068 <pid_func+0xc>
    1d9c:	85aa                	mv	a1,a0
    1d9e:	bd418513          	addi	a0,gp,-1068 # 200004a4 <PID_roll_outerloop>
    1da2:	9782                	jalr	a5
    1da4:	0141                	addi	sp,sp,16
    1da6:	f94fe06f          	j	53a <__riscv_restore_0>

00001daa <Roll_innerloop_ctr>:
    1daa:	f6cfe2ef          	jal	t0,516 <__riscv_save_0>
    1dae:	90c19503          	lh	a0,-1780(gp) # 200001dc <MPU6050_para_filted+0x10>
    1db2:	056040ef          	jal	ra,5e08 <__floatsisf>
    1db6:	000077b7          	lui	a5,0x7
    1dba:	6c87a583          	lw	a1,1736(a5) # 76c8 <test+0x1ac>
    1dbe:	51a030ef          	jal	ra,52d8 <__divsf3>
    1dc2:	200007b7          	lui	a5,0x20000
    1dc6:	0687a783          	lw	a5,104(a5) # 20000068 <pid_func+0xc>
    1dca:	bf81a583          	lw	a1,-1032(gp) # 200004c8 <PID_roll_outerloop+0x24>
    1dce:	862a                	mv	a2,a0
    1dd0:	b8418513          	addi	a0,gp,-1148 # 20000454 <PID_roll_innerloop>
    1dd4:	9782                	jalr	a5
    1dd6:	f64fe06f          	j	53a <__riscv_restore_0>

00001dda <Yaw_outerloop_ctr>:
    1dda:	f3cfe2ef          	jal	t0,516 <__riscv_save_0>
    1dde:	200007b7          	lui	a5,0x20000
    1de2:	1cc7a603          	lw	a2,460(a5) # 200001cc <MPU6050_para_filted>
    1de6:	200007b7          	lui	a5,0x20000
    1dea:	1107a583          	lw	a1,272(a5) # 20000110 <Mech_zero_yaw>
    1dee:	200007b7          	lui	a5,0x20000
    1df2:	1287a503          	lw	a0,296(a5) # 20000128 <Yaw>
    1df6:	1141                	addi	sp,sp,-16
    1df8:	c632                	sw	a2,12(sp)
    1dfa:	174030ef          	jal	ra,4f6e <__addsf3>
    1dfe:	200007b7          	lui	a5,0x20000
    1e02:	4632                	lw	a2,12(sp)
    1e04:	0687a783          	lw	a5,104(a5) # 20000068 <pid_func+0xc>
    1e08:	85aa                	mv	a1,a0
    1e0a:	c7418513          	addi	a0,gp,-908 # 20000544 <PID_yaw_outerloop>
    1e0e:	9782                	jalr	a5
    1e10:	0141                	addi	sp,sp,16
    1e12:	f28fe06f          	j	53a <__riscv_restore_0>

00001e16 <Yaw_innerloop_ctr>:
    1e16:	f00fe2ef          	jal	t0,516 <__riscv_save_0>
    1e1a:	90819503          	lh	a0,-1784(gp) # 200001d8 <MPU6050_para_filted+0xc>
    1e1e:	40a00533          	neg	a0,a0
    1e22:	7e7030ef          	jal	ra,5e08 <__floatsisf>
    1e26:	000077b7          	lui	a5,0x7
    1e2a:	6c87a583          	lw	a1,1736(a5) # 76c8 <test+0x1ac>
    1e2e:	4aa030ef          	jal	ra,52d8 <__divsf3>
    1e32:	200007b7          	lui	a5,0x20000
    1e36:	0687a783          	lw	a5,104(a5) # 20000068 <pid_func+0xc>
    1e3a:	c981a583          	lw	a1,-872(gp) # 20000568 <PID_yaw_outerloop+0x24>
    1e3e:	862a                	mv	a2,a0
    1e40:	c2418513          	addi	a0,gp,-988 # 200004f4 <PID_yaw_innerloop>
    1e44:	9782                	jalr	a5
    1e46:	ef4fe06f          	j	53a <__riscv_restore_0>

00001e4a <Pitch_outerloop_ctr>:
    1e4a:	eccfe2ef          	jal	t0,516 <__riscv_save_0>
    1e4e:	200007b7          	lui	a5,0x20000
    1e52:	1d07a603          	lw	a2,464(a5) # 200001d0 <MPU6050_para_filted+0x4>
    1e56:	200007b7          	lui	a5,0x20000
    1e5a:	11c7a503          	lw	a0,284(a5) # 2000011c <Pitch>
    1e5e:	1141                	addi	sp,sp,-16
    1e60:	00000593          	li	a1,0
    1e64:	c632                	sw	a2,12(sp)
    1e66:	108030ef          	jal	ra,4f6e <__addsf3>
    1e6a:	200007b7          	lui	a5,0x20000
    1e6e:	4632                	lw	a2,12(sp)
    1e70:	0687a783          	lw	a5,104(a5) # 20000068 <pid_func+0xc>
    1e74:	85aa                	mv	a1,a0
    1e76:	b3418513          	addi	a0,gp,-1228 # 20000404 <PID_pitch_outerloop>
    1e7a:	9782                	jalr	a5
    1e7c:	0141                	addi	sp,sp,16
    1e7e:	ebcfe06f          	j	53a <__riscv_restore_0>

00001e82 <Pitch_innerloop_ctr>:
    1e82:	e94fe2ef          	jal	t0,516 <__riscv_save_0>
    1e86:	90a19503          	lh	a0,-1782(gp) # 200001da <MPU6050_para_filted+0xe>
    1e8a:	77f030ef          	jal	ra,5e08 <__floatsisf>
    1e8e:	000077b7          	lui	a5,0x7
    1e92:	6c87a583          	lw	a1,1736(a5) # 76c8 <test+0x1ac>
    1e96:	442030ef          	jal	ra,52d8 <__divsf3>
    1e9a:	200007b7          	lui	a5,0x20000
    1e9e:	0687a783          	lw	a5,104(a5) # 20000068 <pid_func+0xc>
    1ea2:	b581a583          	lw	a1,-1192(gp) # 20000428 <PID_pitch_outerloop+0x24>
    1ea6:	862a                	mv	a2,a0
    1ea8:	ae418513          	addi	a0,gp,-1308 # 200003b4 <PID_pitch_innerloop>
    1eac:	9782                	jalr	a5
    1eae:	e8cfe06f          	j	53a <__riscv_restore_0>

00001eb2 <Check_control_mode>:
    1eb2:	a741a783          	lw	a5,-1420(gp) # 20000344 <CrsfChannels+0x1c>
    1eb6:	0bf00713          	li	a4,191
    1eba:	00e79663          	bne	a5,a4,1ec6 <Check_control_mode+0x14>
    1ebe:	4705                	li	a4,1
    1ec0:	80e1a423          	sw	a4,-2040(gp) # 200000d8 <CONTROL_MODE>
    1ec4:	8082                	ret
    1ec6:	70000713          	li	a4,1792
    1eca:	fee79de3          	bne	a5,a4,1ec4 <Check_control_mode+0x12>
    1ece:	4709                	li	a4,2
    1ed0:	bfc5                	j	1ec0 <Check_control_mode+0xe>

00001ed2 <Update_ELRS>:
    1ed2:	e44fe2ef          	jal	t0,516 <__riscv_save_0>
    1ed6:	a5818413          	addi	s0,gp,-1448 # 20000328 <CrsfChannels>
    1eda:	4448                	lw	a0,12(s0)
    1edc:	33e9                	jal	1ca6 <ELRS_Convert_angle>
    1ede:	200007b7          	lui	a5,0x20000
    1ee2:	12a7a423          	sw	a0,296(a5) # 20000128 <Yaw>
    1ee6:	a581a503          	lw	a0,-1448(gp) # 20000328 <CrsfChannels>
    1eea:	3b75                	jal	1ca6 <ELRS_Convert_angle>
    1eec:	200007b7          	lui	a5,0x20000
    1ef0:	12a7a023          	sw	a0,288(a5) # 20000120 <Roll>
    1ef4:	4048                	lw	a0,4(s0)
    1ef6:	3b45                	jal	1ca6 <ELRS_Convert_angle>
    1ef8:	200007b7          	lui	a5,0x20000
    1efc:	10a7ae23          	sw	a0,284(a5) # 2000011c <Pitch>
    1f00:	4408                	lw	a0,8(s0)
    1f02:	33d5                	jal	1ce6 <ELRS_Convert_throttle>
    1f04:	200007b7          	lui	a5,0x20000
    1f08:	12a79223          	sh	a0,292(a5) # 20000124 <Throttle>
    1f0c:	3515                	jal	1d30 <ELRS_Convert_lock>
    1f0e:	3d25                	jal	1d46 <ELRS_Convert_flight_mode>
    1f10:	374d                	jal	1eb2 <Check_control_mode>
    1f12:	e28fe06f          	j	53a <__riscv_restore_0>

00001f16 <Flight_control>:
    1f16:	dd8fe2ef          	jal	t0,4ee <__riscv_save_10>
    1f1a:	3da1                	jal	1d72 <Roll_outerloop_ctr>
    1f1c:	3579                	jal	1daa <Roll_innerloop_ctr>
    1f1e:	3735                	jal	1e4a <Pitch_outerloop_ctr>
    1f20:	378d                	jal	1e82 <Pitch_innerloop_ctr>
    1f22:	3d65                	jal	1dda <Yaw_outerloop_ctr>
    1f24:	3dcd                	jal	1e16 <Yaw_innerloop_ctr>
    1f26:	200007b7          	lui	a5,0x20000
    1f2a:	20000437          	lui	s0,0x20000
    1f2e:	1cc7a703          	lw	a4,460(a5) # 200001cc <MPU6050_para_filted>
    1f32:	12445c83          	lhu	s9,292(s0) # 20000124 <Throttle>
    1f36:	200007b7          	lui	a5,0x20000
    1f3a:	10e7a823          	sw	a4,272(a5) # 20000110 <Mech_zero_yaw>
    1f3e:	8566                	mv	a0,s9
    1f40:	6c9030ef          	jal	ra,5e08 <__floatsisf>
    1f44:	b081aa83          	lw	s5,-1272(gp) # 200003d8 <PID_pitch_innerloop+0x24>
    1f48:	8baa                	mv	s7,a0
    1f4a:	20000c37          	lui	s8,0x20000
    1f4e:	85d6                	mv	a1,s5
    1f50:	01e030ef          	jal	ra,4f6e <__addsf3>
    1f54:	ba81a903          	lw	s2,-1112(gp) # 20000478 <PID_roll_innerloop+0x24>
    1f58:	c481a483          	lw	s1,-952(gp) # 20000518 <PID_yaw_innerloop+0x24>
    1f5c:	85ca                	mv	a1,s2
    1f5e:	89aa                	mv	s3,a0
    1f60:	00e030ef          	jal	ra,4f6e <__addsf3>
    1f64:	85a6                	mv	a1,s1
    1f66:	008030ef          	jal	ra,4f6e <__addsf3>
    1f6a:	649030ef          	jal	ra,5db2 <__fixunssfsi>
    1f6e:	01051a13          	slli	s4,a0,0x10
    1f72:	010a5a13          	srli	s4,s4,0x10
    1f76:	85ca                	mv	a1,s2
    1f78:	854e                	mv	a0,s3
    1f7a:	114c1a23          	sh	s4,276(s8) # 20000114 <PWM_Out1>
    1f7e:	20f030ef          	jal	ra,598c <__subsf3>
    1f82:	85a6                	mv	a1,s1
    1f84:	209030ef          	jal	ra,598c <__subsf3>
    1f88:	62b030ef          	jal	ra,5db2 <__fixunssfsi>
    1f8c:	01051993          	slli	s3,a0,0x10
    1f90:	20000b37          	lui	s6,0x20000
    1f94:	0109d993          	srli	s3,s3,0x10
    1f98:	85d6                	mv	a1,s5
    1f9a:	113b1b23          	sh	s3,278(s6) # 20000116 <PWM_Out2>
    1f9e:	855e                	mv	a0,s7
    1fa0:	1ed030ef          	jal	ra,598c <__subsf3>
    1fa4:	85aa                	mv	a1,a0
    1fa6:	8d2a                	mv	s10,a0
    1fa8:	854a                	mv	a0,s2
    1faa:	7c5020ef          	jal	ra,4f6e <__addsf3>
    1fae:	85a6                	mv	a1,s1
    1fb0:	7bf020ef          	jal	ra,4f6e <__addsf3>
    1fb4:	5ff030ef          	jal	ra,5db2 <__fixunssfsi>
    1fb8:	01051b93          	slli	s7,a0,0x10
    1fbc:	20000ab7          	lui	s5,0x20000
    1fc0:	010bdb93          	srli	s7,s7,0x10
    1fc4:	117a9c23          	sh	s7,280(s5) # 20000118 <PWM_Out3>
    1fc8:	85ca                	mv	a1,s2
    1fca:	856a                	mv	a0,s10
    1fcc:	1c1030ef          	jal	ra,598c <__subsf3>
    1fd0:	85a6                	mv	a1,s1
    1fd2:	1bb030ef          	jal	ra,598c <__subsf3>
    1fd6:	5dd030ef          	jal	ra,5db2 <__fixunssfsi>
    1fda:	0542                	slli	a0,a0,0x10
    1fdc:	200004b7          	lui	s1,0x20000
    1fe0:	8141                	srli	a0,a0,0x10
    1fe2:	6785                	lui	a5,0x1
    1fe4:	10a49d23          	sh	a0,282(s1) # 2000011a <PWM_Out4>
    1fe8:	b4078793          	addi	a5,a5,-1216 # b40 <I2C_GetFlagStatus+0x24>
    1fec:	12440413          	addi	s0,s0,292
    1ff0:	114c0713          	addi	a4,s8,276
    1ff4:	116b0b13          	addi	s6,s6,278
    1ff8:	118a8a93          	addi	s5,s5,280
    1ffc:	11a48493          	addi	s1,s1,282
    2000:	0747f063          	bgeu	a5,s4,2060 <Flight_control+0x14a>
    2004:	a31e                	sh	a5,0(a4)
    2006:	6785                	lui	a5,0x1
    2008:	b4078793          	addi	a5,a5,-1216 # b40 <I2C_GetFlagStatus+0x24>
    200c:	0737f163          	bgeu	a5,s3,206e <Flight_control+0x158>
    2010:	00fb1023          	sh	a5,0(s6)
    2014:	6785                	lui	a5,0x1
    2016:	b4078793          	addi	a5,a5,-1216 # b40 <I2C_GetFlagStatus+0x24>
    201a:	0777f163          	bgeu	a5,s7,207c <Flight_control+0x166>
    201e:	00fa9023          	sh	a5,0(s5)
    2022:	6785                	lui	a5,0x1
    2024:	b4078793          	addi	a5,a5,-1216 # b40 <I2C_GetFlagStatus+0x24>
    2028:	06a7f163          	bgeu	a5,a0,208a <Flight_control+0x174>
    202c:	a09e                	sh	a5,0(s1)
    202e:	8081a783          	lw	a5,-2040(gp) # 200000d8 <CONTROL_MODE>
    2032:	4685                	li	a3,1
    2034:	06d79263          	bne	a5,a3,2098 <Flight_control+0x182>
    2038:	230a                	lhu	a0,0(a4)
    203a:	4585                	li	a1,1
    203c:	e08ff0ef          	jal	ra,1644 <Motor_ctr>
    2040:	000b5503          	lhu	a0,0(s6)
    2044:	4589                	li	a1,2
    2046:	dfeff0ef          	jal	ra,1644 <Motor_ctr>
    204a:	000ad503          	lhu	a0,0(s5)
    204e:	458d                	li	a1,3
    2050:	df4ff0ef          	jal	ra,1644 <Motor_ctr>
    2054:	208a                	lhu	a0,0(s1)
    2056:	4591                	li	a1,4
    2058:	decff0ef          	jal	ra,1644 <Motor_ctr>
    205c:	ccafe06f          	j	526 <__riscv_restore_10>
    2060:	59f00793          	li	a5,1439
    2064:	fb47e1e3          	bltu	a5,s4,2006 <Flight_control+0xf0>
    2068:	5a000793          	li	a5,1440
    206c:	bf61                	j	2004 <Flight_control+0xee>
    206e:	59f00793          	li	a5,1439
    2072:	fb37e1e3          	bltu	a5,s3,2014 <Flight_control+0xfe>
    2076:	5a000793          	li	a5,1440
    207a:	bf59                	j	2010 <Flight_control+0xfa>
    207c:	59f00793          	li	a5,1439
    2080:	fb77e1e3          	bltu	a5,s7,2022 <Flight_control+0x10c>
    2084:	5a000793          	li	a5,1440
    2088:	bf59                	j	201e <Flight_control+0x108>
    208a:	59f00793          	li	a5,1439
    208e:	faa7e0e3          	bltu	a5,a0,202e <Flight_control+0x118>
    2092:	5a000793          	li	a5,1440
    2096:	bf59                	j	202c <Flight_control+0x116>
    2098:	4709                	li	a4,2
    209a:	fce791e3          	bne	a5,a4,205c <Flight_control+0x146>
    209e:	4585                	li	a1,1
    20a0:	8566                	mv	a0,s9
    20a2:	da2ff0ef          	jal	ra,1644 <Motor_ctr>
    20a6:	200a                	lhu	a0,0(s0)
    20a8:	4589                	li	a1,2
    20aa:	d9aff0ef          	jal	ra,1644 <Motor_ctr>
    20ae:	200a                	lhu	a0,0(s0)
    20b0:	458d                	li	a1,3
    20b2:	d92ff0ef          	jal	ra,1644 <Motor_ctr>
    20b6:	4591                	li	a1,4
    20b8:	200a                	lhu	a0,0(s0)
    20ba:	bf79                	j	2058 <Flight_control+0x142>

000020bc <Stop_motor>:
    20bc:	c5afe2ef          	jal	t0,516 <__riscv_save_0>
    20c0:	4585                	li	a1,1
    20c2:	5a000513          	li	a0,1440
    20c6:	d7eff0ef          	jal	ra,1644 <Motor_ctr>
    20ca:	4589                	li	a1,2
    20cc:	5a000513          	li	a0,1440
    20d0:	d74ff0ef          	jal	ra,1644 <Motor_ctr>
    20d4:	458d                	li	a1,3
    20d6:	5a000513          	li	a0,1440
    20da:	d6aff0ef          	jal	ra,1644 <Motor_ctr>
    20de:	4591                	li	a1,4
    20e0:	5a000513          	li	a0,1440
    20e4:	d60ff0ef          	jal	ra,1644 <Motor_ctr>
    20e8:	c52fe06f          	j	53a <__riscv_restore_0>

000020ec <pid_reset>:
    20ec:	00000793          	li	a5,0
    20f0:	c11c                	sw	a5,0(a0)
    20f2:	c15c                	sw	a5,4(a0)
    20f4:	c51c                	sw	a5,8(a0)
    20f6:	c55c                	sw	a5,12(a0)
    20f8:	c91c                	sw	a5,16(a0)
    20fa:	cd1c                	sw	a5,24(a0)
    20fc:	c95c                	sw	a5,20(a0)
    20fe:	d15c                	sw	a5,36(a0)
    2100:	d51c                	sw	a5,40(a0)
    2102:	d55c                	sw	a5,44(a0)
    2104:	d91c                	sw	a5,48(a0)
    2106:	8082                	ret

00002108 <pid_init>:
    2108:	00000793          	li	a5,0
    210c:	c13c                	sw	a5,64(a0)
    210e:	dd5c                	sw	a5,60(a0)
    2110:	dd1c                	sw	a5,56(a0)
    2112:	d15c                	sw	a5,36(a0)
    2114:	d91c                	sw	a5,48(a0)
    2116:	d55c                	sw	a5,44(a0)
    2118:	d51c                	sw	a5,40(a0)
    211a:	c57c                	sw	a5,76(a0)
    211c:	c53c                	sw	a5,72(a0)
    211e:	c17c                	sw	a5,68(a0)
    2120:	8082                	ret

00002122 <pid_clc>:
    2122:	00000793          	li	a5,0
    2126:	c57c                	sw	a5,76(a0)
    2128:	c53c                	sw	a5,72(a0)
    212a:	c17c                	sw	a5,68(a0)
    212c:	c13c                	sw	a5,64(a0)
    212e:	dd5c                	sw	a5,60(a0)
    2130:	dd1c                	sw	a5,56(a0)
    2132:	d91c                	sw	a5,48(a0)
    2134:	d55c                	sw	a5,44(a0)
    2136:	d51c                	sw	a5,40(a0)
    2138:	d15c                	sw	a5,36(a0)
    213a:	cd5c                	sw	a5,28(a0)
    213c:	d11c                	sw	a5,32(a0)
    213e:	8082                	ret

00002140 <pid_calc>:
    2140:	bbcfe2ef          	jal	t0,4fc <__riscv_save_4>
    2144:	842a                	mv	s0,a0
    2146:	443c                	lw	a5,72(s0)
    2148:	04442983          	lw	s3,68(s0)
    214c:	d010                	sw	a2,32(s0)
    214e:	c47c                	sw	a5,76(s0)
    2150:	852e                	mv	a0,a1
    2152:	05342423          	sw	s3,72(s0)
    2156:	cc4c                	sw	a1,28(s0)
    2158:	85b2                	mv	a1,a2
    215a:	033030ef          	jal	ra,598c <__subsf3>
    215e:	400c                	lw	a1,0(s0)
    2160:	c068                	sw	a0,68(s0)
    2162:	84aa                	mv	s1,a0
    2164:	594030ef          	jal	ra,56f8 <__mulsf3>
    2168:	404c                	lw	a1,4(s0)
    216a:	d408                	sw	a0,40(s0)
    216c:	8a2a                	mv	s4,a0
    216e:	8526                	mv	a0,s1
    2170:	588030ef          	jal	ra,56f8 <__mulsf3>
    2174:	544c                	lw	a1,44(s0)
    2176:	5f9020ef          	jal	ra,4f6e <__addsf3>
    217a:	5c5c                	lw	a5,60(s0)
    217c:	85ce                	mv	a1,s3
    217e:	892a                	mv	s2,a0
    2180:	c03c                	sw	a5,64(s0)
    2182:	5c1c                	lw	a5,56(s0)
    2184:	d448                	sw	a0,44(s0)
    2186:	8526                	mv	a0,s1
    2188:	dc5c                	sw	a5,60(s0)
    218a:	003030ef          	jal	ra,598c <__subsf3>
    218e:	440c                	lw	a1,8(s0)
    2190:	dc08                	sw	a0,56(s0)
    2192:	566030ef          	jal	ra,56f8 <__mulsf3>
    2196:	01442a83          	lw	s5,20(s0)
    219a:	89aa                	mv	s3,a0
    219c:	d808                	sw	a0,48(s0)
    219e:	85d6                	mv	a1,s5
    21a0:	854a                	mv	a0,s2
    21a2:	444030ef          	jal	ra,55e6 <__gesf2>
    21a6:	00a05563          	blez	a0,21b0 <pid_calc+0x70>
    21aa:	03542623          	sw	s5,44(s0)
    21ae:	a809                	j	21c0 <pid_calc+0x80>
    21b0:	01842a83          	lw	s5,24(s0)
    21b4:	854a                	mv	a0,s2
    21b6:	85d6                	mv	a1,s5
    21b8:	4b4030ef          	jal	ra,566c <__lesf2>
    21bc:	fe0547e3          	bltz	a0,21aa <pid_calc+0x6a>
    21c0:	544c                	lw	a1,44(s0)
    21c2:	8552                	mv	a0,s4
    21c4:	5ab020ef          	jal	ra,4f6e <__addsf3>
    21c8:	85ce                	mv	a1,s3
    21ca:	5a5020ef          	jal	ra,4f6e <__addsf3>
    21ce:	00c42903          	lw	s2,12(s0)
    21d2:	d048                	sw	a0,36(s0)
    21d4:	89aa                	mv	s3,a0
    21d6:	85ca                	mv	a1,s2
    21d8:	40e030ef          	jal	ra,55e6 <__gesf2>
    21dc:	00a05563          	blez	a0,21e6 <pid_calc+0xa6>
    21e0:	03242223          	sw	s2,36(s0)
    21e4:	a809                	j	21f6 <pid_calc+0xb6>
    21e6:	01042903          	lw	s2,16(s0)
    21ea:	854e                	mv	a0,s3
    21ec:	85ca                	mv	a1,s2
    21ee:	47e030ef          	jal	ra,566c <__lesf2>
    21f2:	fe0547e3          	bltz	a0,21e0 <pid_calc+0xa0>
    21f6:	03442903          	lw	s2,52(s0)
    21fa:	8526                	mv	a0,s1
    21fc:	85ca                	mv	a1,s2
    21fe:	46e030ef          	jal	ra,566c <__lesf2>
    2202:	00a04f63          	bgtz	a0,2220 <pid_calc+0xe0>
    2206:	800005b7          	lui	a1,0x80000
    220a:	0125c5b3          	xor	a1,a1,s2
    220e:	8526                	mv	a0,s1
    2210:	3d6030ef          	jal	ra,55e6 <__gesf2>
    2214:	00054663          	bltz	a0,2220 <pid_calc+0xe0>
    2218:	00000793          	li	a5,0
    221c:	d05c                	sw	a5,36(s0)
    221e:	d45c                	sw	a5,44(s0)
    2220:	b10fe06f          	j	530 <__riscv_restore_4>

00002224 <prvInsertBlockIntoFreeList>:
    2224:	200007b7          	lui	a5,0x20000
    2228:	14478793          	addi	a5,a5,324 # 20000144 <xStart>
    222c:	4398                	lw	a4,0(a5)
    222e:	02a76f63          	bltu	a4,a0,226c <prvInsertBlockIntoFreeList+0x48>
    2232:	43d0                	lw	a2,4(a5)
    2234:	00c786b3          	add	a3,a5,a2
    2238:	00d51663          	bne	a0,a3,2244 <prvInsertBlockIntoFreeList+0x20>
    223c:	4154                	lw	a3,4(a0)
    223e:	853e                	mv	a0,a5
    2240:	96b2                	add	a3,a3,a2
    2242:	c3d4                	sw	a3,4(a5)
    2244:	4150                	lw	a2,4(a0)
    2246:	00c506b3          	add	a3,a0,a2
    224a:	00d71c63          	bne	a4,a3,2262 <prvInsertBlockIntoFreeList+0x3e>
    224e:	200006b7          	lui	a3,0x20000
    2252:	12c6a683          	lw	a3,300(a3) # 2000012c <pxEnd>
    2256:	00d70663          	beq	a4,a3,2262 <prvInsertBlockIntoFreeList+0x3e>
    225a:	4354                	lw	a3,4(a4)
    225c:	4318                	lw	a4,0(a4)
    225e:	96b2                	add	a3,a3,a2
    2260:	c154                	sw	a3,4(a0)
    2262:	c118                	sw	a4,0(a0)
    2264:	00f50363          	beq	a0,a5,226a <prvInsertBlockIntoFreeList+0x46>
    2268:	c388                	sw	a0,0(a5)
    226a:	8082                	ret
    226c:	87ba                	mv	a5,a4
    226e:	bf7d                	j	222c <prvInsertBlockIntoFreeList+0x8>

00002270 <pvPortMalloc>:
    2270:	a8cfe2ef          	jal	t0,4fc <__riscv_save_4>
    2274:	1141                	addi	sp,sp,-16
    2276:	c62a                	sw	a0,12(sp)
    2278:	3b1000ef          	jal	ra,2e28 <vTaskSuspendAll>
    227c:	200006b7          	lui	a3,0x20000
    2280:	12c6a783          	lw	a5,300(a3) # 2000012c <pxEnd>
    2284:	20000637          	lui	a2,0x20000
    2288:	12c68693          	addi	a3,a3,300
    228c:	13060613          	addi	a2,a2,304 # 20000130 <xBlockAllocatedBit>
    2290:	4532                	lw	a0,12(sp)
    2292:	efa1                	bnez	a5,22ea <pvPortMalloc+0x7a>
    2294:	20000737          	lui	a4,0x20000
    2298:	59470793          	addi	a5,a4,1428 # 20000594 <ucHeap>
    229c:	00f7f593          	andi	a1,a5,15
    22a0:	59470713          	addi	a4,a4,1428
    22a4:	c581                	beqz	a1,22ac <pvPortMalloc+0x3c>
    22a6:	00f78713          	addi	a4,a5,15
    22aa:	9b41                	andi	a4,a4,-16
    22ac:	200005b7          	lui	a1,0x20000
    22b0:	14458593          	addi	a1,a1,324 # 20000144 <xStart>
    22b4:	0005a223          	sw	zero,4(a1)
    22b8:	c198                	sw	a4,0(a1)
    22ba:	658d                	lui	a1,0x3
    22bc:	15c1                	addi	a1,a1,-16
    22be:	97ae                	add	a5,a5,a1
    22c0:	9bc1                	andi	a5,a5,-16
    22c2:	0007a223          	sw	zero,4(a5)
    22c6:	0007a023          	sw	zero,0(a5)
    22ca:	40e785b3          	sub	a1,a5,a4
    22ce:	c29c                	sw	a5,0(a3)
    22d0:	c31c                	sw	a5,0(a4)
    22d2:	200007b7          	lui	a5,0x20000
    22d6:	12b7ac23          	sw	a1,312(a5) # 20000138 <xMinimumEverFreeBytesRemaining>
    22da:	200007b7          	lui	a5,0x20000
    22de:	12b7aa23          	sw	a1,308(a5) # 20000134 <xFreeBytesRemaining>
    22e2:	800007b7          	lui	a5,0x80000
    22e6:	c34c                	sw	a1,4(a4)
    22e8:	c21c                	sw	a5,0(a2)
    22ea:	00062a03          	lw	s4,0(a2)
    22ee:	00aa77b3          	and	a5,s4,a0
    22f2:	e385                	bnez	a5,2312 <pvPortMalloc+0xa2>
    22f4:	fff50793          	addi	a5,a0,-1
    22f8:	5739                	li	a4,-18
    22fa:	00f76c63          	bltu	a4,a5,2312 <pvPortMalloc+0xa2>
    22fe:	01050793          	addi	a5,a0,16
    2302:	00f7f713          	andi	a4,a5,15
    2306:	c341                	beqz	a4,2386 <pvPortMalloc+0x116>
    2308:	ff07f713          	andi	a4,a5,-16
    230c:	0741                	addi	a4,a4,16
    230e:	06e7eb63          	bltu	a5,a4,2384 <pvPortMalloc+0x114>
    2312:	4481                	li	s1,0
    2314:	a089                	j	2356 <pvPortMalloc+0xe6>
    2316:	8722                	mv	a4,s0
    2318:	842e                	mv	s0,a1
    231a:	a061                	j	23a2 <pvPortMalloc+0x132>
    231c:	c158                	sw	a4,4(a0)
    231e:	c05c                	sw	a5,4(s0)
    2320:	3711                	jal	2224 <prvInsertBlockIntoFreeList>
    2322:	4058                	lw	a4,4(s0)
    2324:	200006b7          	lui	a3,0x20000
    2328:	13868693          	addi	a3,a3,312 # 20000138 <xMinimumEverFreeBytesRemaining>
    232c:	4290                	lw	a2,0(a3)
    232e:	40e907b3          	sub	a5,s2,a4
    2332:	00f9a023          	sw	a5,0(s3)
    2336:	00c7f363          	bgeu	a5,a2,233c <pvPortMalloc+0xcc>
    233a:	c29c                	sw	a5,0(a3)
    233c:	200007b7          	lui	a5,0x20000
    2340:	00ea6733          	or	a4,s4,a4
    2344:	13c78793          	addi	a5,a5,316 # 2000013c <xNumberOfSuccessfulAllocations>
    2348:	c058                	sw	a4,4(s0)
    234a:	4398                	lw	a4,0(a5)
    234c:	04c1                	addi	s1,s1,16
    234e:	00042023          	sw	zero,0(s0)
    2352:	0705                	addi	a4,a4,1
    2354:	c398                	sw	a4,0(a5)
    2356:	499000ef          	jal	ra,2fee <xTaskResumeAll>
    235a:	00f4f793          	andi	a5,s1,15
    235e:	cbd1                	beqz	a5,23f2 <pvPortMalloc+0x182>
    2360:	67a1                	lui	a5,0x8
    2362:	80078793          	addi	a5,a5,-2048 # 7800 <test+0x2e4>
    2366:	30079073          	csrw	mstatus,a5
    236a:	00007637          	lui	a2,0x7
    236e:	00007537          	lui	a0,0x7
    2372:	6cc60613          	addi	a2,a2,1740 # 76cc <test+0x1b0>
    2376:	11000593          	li	a1,272
    237a:	6f450513          	addi	a0,a0,1780 # 76f4 <test+0x1d8>
    237e:	68f030ef          	jal	ra,620c <iprintf>
    2382:	a001                	j	2382 <pvPortMalloc+0x112>
    2384:	87ba                	mv	a5,a4
    2386:	20000737          	lui	a4,0x20000
    238a:	13472903          	lw	s2,308(a4) # 20000134 <xFreeBytesRemaining>
    238e:	13470993          	addi	s3,a4,308
    2392:	f8f960e3          	bltu	s2,a5,2312 <pvPortMalloc+0xa2>
    2396:	20000737          	lui	a4,0x20000
    239a:	14472403          	lw	s0,324(a4) # 20000144 <xStart>
    239e:	14470713          	addi	a4,a4,324
    23a2:	4050                	lw	a2,4(s0)
    23a4:	00f67463          	bgeu	a2,a5,23ac <pvPortMalloc+0x13c>
    23a8:	400c                	lw	a1,0(s0)
    23aa:	f5b5                	bnez	a1,2316 <pvPortMalloc+0xa6>
    23ac:	4294                	lw	a3,0(a3)
    23ae:	f68682e3          	beq	a3,s0,2312 <pvPortMalloc+0xa2>
    23b2:	4014                	lw	a3,0(s0)
    23b4:	4304                	lw	s1,0(a4)
    23b6:	c314                	sw	a3,0(a4)
    23b8:	40f60733          	sub	a4,a2,a5
    23bc:	02000693          	li	a3,32
    23c0:	f6e6f1e3          	bgeu	a3,a4,2322 <pvPortMalloc+0xb2>
    23c4:	00f40533          	add	a0,s0,a5
    23c8:	00f57693          	andi	a3,a0,15
    23cc:	daa1                	beqz	a3,231c <pvPortMalloc+0xac>
    23ce:	67a1                	lui	a5,0x8
    23d0:	80078793          	addi	a5,a5,-2048 # 7800 <test+0x2e4>
    23d4:	30079073          	csrw	mstatus,a5
    23d8:	00007637          	lui	a2,0x7
    23dc:	00007537          	lui	a0,0x7
    23e0:	6cc60613          	addi	a2,a2,1740 # 76cc <test+0x1b0>
    23e4:	0cf00593          	li	a1,207
    23e8:	6f450513          	addi	a0,a0,1780 # 76f4 <test+0x1d8>
    23ec:	621030ef          	jal	ra,620c <iprintf>
    23f0:	a001                	j	23f0 <pvPortMalloc+0x180>
    23f2:	8526                	mv	a0,s1
    23f4:	0141                	addi	sp,sp,16
    23f6:	93afe06f          	j	530 <__riscv_restore_4>

000023fa <vPortFree>:
    23fa:	c15d                	beqz	a0,24a0 <vPortFree+0xa6>
    23fc:	91afe2ef          	jal	t0,516 <__riscv_save_0>
    2400:	200007b7          	lui	a5,0x20000
    2404:	ff452703          	lw	a4,-12(a0)
    2408:	1307a783          	lw	a5,304(a5) # 20000130 <xBlockAllocatedBit>
    240c:	842a                	mv	s0,a0
    240e:	00f776b3          	and	a3,a4,a5
    2412:	e29d                	bnez	a3,2438 <vPortFree+0x3e>
    2414:	67a1                	lui	a5,0x8
    2416:	80078793          	addi	a5,a5,-2048 # 7800 <test+0x2e4>
    241a:	30079073          	csrw	mstatus,a5
    241e:	00007637          	lui	a2,0x7
    2422:	00007537          	lui	a0,0x7
    2426:	6cc60613          	addi	a2,a2,1740 # 76cc <test+0x1b0>
    242a:	12400593          	li	a1,292
    242e:	6f450513          	addi	a0,a0,1780 # 76f4 <test+0x1d8>
    2432:	5db030ef          	jal	ra,620c <iprintf>
    2436:	a001                	j	2436 <vPortFree+0x3c>
    2438:	ff052683          	lw	a3,-16(a0)
    243c:	c29d                	beqz	a3,2462 <vPortFree+0x68>
    243e:	67a1                	lui	a5,0x8
    2440:	80078793          	addi	a5,a5,-2048 # 7800 <test+0x2e4>
    2444:	30079073          	csrw	mstatus,a5
    2448:	00007637          	lui	a2,0x7
    244c:	00007537          	lui	a0,0x7
    2450:	6cc60613          	addi	a2,a2,1740 # 76cc <test+0x1b0>
    2454:	12500593          	li	a1,293
    2458:	6f450513          	addi	a0,a0,1780 # 76f4 <test+0x1d8>
    245c:	5b1030ef          	jal	ra,620c <iprintf>
    2460:	a001                	j	2460 <vPortFree+0x66>
    2462:	fff7c793          	not	a5,a5
    2466:	8ff9                	and	a5,a5,a4
    2468:	fef52a23          	sw	a5,-12(a0)
    246c:	1bd000ef          	jal	ra,2e28 <vTaskSuspendAll>
    2470:	200007b7          	lui	a5,0x20000
    2474:	13478793          	addi	a5,a5,308 # 20000134 <xFreeBytesRemaining>
    2478:	4394                	lw	a3,0(a5)
    247a:	ff442703          	lw	a4,-12(s0)
    247e:	ff040513          	addi	a0,s0,-16
    2482:	9736                	add	a4,a4,a3
    2484:	c398                	sw	a4,0(a5)
    2486:	d9fff0ef          	jal	ra,2224 <prvInsertBlockIntoFreeList>
    248a:	200007b7          	lui	a5,0x20000
    248e:	14078793          	addi	a5,a5,320 # 20000140 <xNumberOfSuccessfulFrees>
    2492:	4398                	lw	a4,0(a5)
    2494:	0705                	addi	a4,a4,1
    2496:	c398                	sw	a4,0(a5)
    2498:	357000ef          	jal	ra,2fee <xTaskResumeAll>
    249c:	89efe06f          	j	53a <__riscv_restore_0>
    24a0:	8082                	ret

000024a2 <vPortSetupTimerInterrupt>:
    24a2:	e000e7b7          	lui	a5,0xe000e
    24a6:	5741                	li	a4,-16
    24a8:	40e78723          	sb	a4,1038(a5) # e000e40e <__freertos_irq_stack_top+0xc000640e>
    24ac:	40e78623          	sb	a4,1036(a5)
    24b0:	e000f7b7          	lui	a5,0xe000f
    24b4:	0007a023          	sw	zero,0(a5) # e000f000 <__freertos_irq_stack_top+0xc0007000>
    24b8:	0007a223          	sw	zero,4(a5)
    24bc:	4681                	li	a3,0
    24be:	c794                	sw	a3,8(a5)
    24c0:	4701                	li	a4,0
    24c2:	c7d8                	sw	a4,12(a5)
    24c4:	20000737          	lui	a4,0x20000
    24c8:	0d072583          	lw	a1,208(a4) # 200000d0 <SystemCoreClock>
    24cc:	1f400713          	li	a4,500
    24d0:	4681                	li	a3,0
    24d2:	02e5d633          	divu	a2,a1,a4
    24d6:	473d                	li	a4,15
    24d8:	cb90                	sw	a2,16(a5)
    24da:	cbd4                	sw	a3,20(a5)
    24dc:	c398                	sw	a4,0(a5)
    24de:	8082                	ret

000024e0 <xPortStartScheduler>:
    24e0:	836fe2ef          	jal	t0,516 <__riscv_save_0>
    24e4:	1141                	addi	sp,sp,-16
    24e6:	c602                	sw	zero,12(sp)
    24e8:	305027f3          	csrr	a5,mtvec
    24ec:	c63e                	sw	a5,12(sp)
    24ee:	47b2                	lw	a5,12(sp)
    24f0:	470d                	li	a4,3
    24f2:	8b8d                	andi	a5,a5,3
    24f4:	02e78463          	beq	a5,a4,251c <xPortStartScheduler+0x3c>
    24f8:	67a1                	lui	a5,0x8
    24fa:	80078793          	addi	a5,a5,-2048 # 7800 <test+0x2e4>
    24fe:	30079073          	csrw	mstatus,a5
    2502:	00007637          	lui	a2,0x7
    2506:	00007537          	lui	a0,0x7
    250a:	71860613          	addi	a2,a2,1816 # 7718 <test+0x1fc>
    250e:	0b600593          	li	a1,182
    2512:	6f450513          	addi	a0,a0,1780 # 76f4 <test+0x1d8>
    2516:	4f7030ef          	jal	ra,620c <iprintf>
    251a:	a001                	j	251a <xPortStartScheduler+0x3a>
    251c:	200087b7          	lui	a5,0x20008
    2520:	00078793          	mv	a5,a5
    2524:	8bbd                	andi	a5,a5,15
    2526:	c39d                	beqz	a5,254c <xPortStartScheduler+0x6c>
    2528:	67a1                	lui	a5,0x8
    252a:	80078793          	addi	a5,a5,-2048 # 7800 <test+0x2e4>
    252e:	30079073          	csrw	mstatus,a5
    2532:	00007637          	lui	a2,0x7
    2536:	00007537          	lui	a0,0x7
    253a:	71860613          	addi	a2,a2,1816 # 7718 <test+0x1fc>
    253e:	0bb00593          	li	a1,187
    2542:	6f450513          	addi	a0,a0,1780 # 76f4 <test+0x1d8>
    2546:	4c7030ef          	jal	ra,620c <iprintf>
    254a:	a001                	j	254a <xPortStartScheduler+0x6a>
    254c:	3f99                	jal	24a2 <vPortSetupTimerInterrupt>
    254e:	e000e7b7          	lui	a5,0xe000e
    2552:	6705                	lui	a4,0x1
    2554:	10e7a023          	sw	a4,256(a5) # e000e100 <__freertos_irq_stack_top+0xc0006100>
    2558:	6711                	lui	a4,0x4
    255a:	10e7a023          	sw	a4,256(a5)
    255e:	8001aa23          	sw	zero,-2028(gp) # 200000e4 <uxCriticalNesting>
    2562:	d9ffd0ef          	jal	ra,300 <xPortStartFirstTask>
    2566:	4501                	li	a0,0
    2568:	0141                	addi	sp,sp,16
    256a:	fd1fd06f          	j	53a <__riscv_restore_0>

0000256e <SysTick_Handler>:
    256e:	34011173          	csrrw	sp,mscratch,sp
    2572:	67a1                	lui	a5,0x8
    2574:	80078793          	addi	a5,a5,-2048 # 7800 <test+0x2e4>
    2578:	30079073          	csrw	mstatus,a5
    257c:	e000f7b7          	lui	a5,0xe000f
    2580:	0007a223          	sw	zero,4(a5) # e000f004 <__freertos_irq_stack_top+0xc0007004>
    2584:	0bf000ef          	jal	ra,2e42 <xTaskIncrementTick>
    2588:	c511                	beqz	a0,2594 <SysTick_Handler+0x26>
    258a:	e000e7b7          	lui	a5,0xe000e
    258e:	6711                	lui	a4,0x4
    2590:	20e7a023          	sw	a4,512(a5) # e000e200 <__freertos_irq_stack_top+0xc0006200>
    2594:	67a1                	lui	a5,0x8
    2596:	88878793          	addi	a5,a5,-1912 # 7888 <atanlo+0x18>
    259a:	30079073          	csrw	mstatus,a5
    259e:	34011173          	csrrw	sp,mscratch,sp
    25a2:	30200073          	mret

000025a6 <vPortEnterCritical>:
    25a6:	67a1                	lui	a5,0x8
    25a8:	80078793          	addi	a5,a5,-2048 # 7800 <test+0x2e4>
    25ac:	30079073          	csrw	mstatus,a5
    25b0:	81418793          	addi	a5,gp,-2028 # 200000e4 <uxCriticalNesting>
    25b4:	4398                	lw	a4,0(a5)
    25b6:	0705                	addi	a4,a4,1
    25b8:	c398                	sw	a4,0(a5)
    25ba:	8082                	ret

000025bc <vPortExitCritical>:
    25bc:	81418713          	addi	a4,gp,-2028 # 200000e4 <uxCriticalNesting>
    25c0:	431c                	lw	a5,0(a4)
    25c2:	e78d                	bnez	a5,25ec <vPortExitCritical+0x30>
    25c4:	f53fd2ef          	jal	t0,516 <__riscv_save_0>
    25c8:	67a1                	lui	a5,0x8
    25ca:	80078793          	addi	a5,a5,-2048 # 7800 <test+0x2e4>
    25ce:	30079073          	csrw	mstatus,a5
    25d2:	00007637          	lui	a2,0x7
    25d6:	00007537          	lui	a0,0x7
    25da:	71860613          	addi	a2,a2,1816 # 7718 <test+0x1fc>
    25de:	10200593          	li	a1,258
    25e2:	6f450513          	addi	a0,a0,1780 # 76f4 <test+0x1d8>
    25e6:	427030ef          	jal	ra,620c <iprintf>
    25ea:	a001                	j	25ea <vPortExitCritical+0x2e>
    25ec:	17fd                	addi	a5,a5,-1
    25ee:	c31c                	sw	a5,0(a4)
    25f0:	e791                	bnez	a5,25fc <vPortExitCritical+0x40>
    25f2:	67a1                	lui	a5,0x8
    25f4:	88878793          	addi	a5,a5,-1912 # 7888 <atanlo+0x18>
    25f8:	30079073          	csrw	mstatus,a5
    25fc:	8082                	ret

000025fe <vListInitialise>:
    25fe:	00850793          	addi	a5,a0,8
    2602:	577d                	li	a4,-1
    2604:	c15c                	sw	a5,4(a0)
    2606:	c518                	sw	a4,8(a0)
    2608:	c55c                	sw	a5,12(a0)
    260a:	c91c                	sw	a5,16(a0)
    260c:	00052023          	sw	zero,0(a0)
    2610:	8082                	ret

00002612 <vListInitialiseItem>:
    2612:	00052823          	sw	zero,16(a0)
    2616:	8082                	ret

00002618 <vListInsert>:
    2618:	4198                	lw	a4,0(a1)
    261a:	56fd                	li	a3,-1
    261c:	00850793          	addi	a5,a0,8
    2620:	00d71e63          	bne	a4,a3,263c <vListInsert+0x24>
    2624:	491c                	lw	a5,16(a0)
    2626:	43d8                	lw	a4,4(a5)
    2628:	c1d8                	sw	a4,4(a1)
    262a:	c70c                	sw	a1,8(a4)
    262c:	c59c                	sw	a5,8(a1)
    262e:	c3cc                	sw	a1,4(a5)
    2630:	411c                	lw	a5,0(a0)
    2632:	c988                	sw	a0,16(a1)
    2634:	0785                	addi	a5,a5,1
    2636:	c11c                	sw	a5,0(a0)
    2638:	8082                	ret
    263a:	87b6                	mv	a5,a3
    263c:	43d4                	lw	a3,4(a5)
    263e:	4290                	lw	a2,0(a3)
    2640:	fec77de3          	bgeu	a4,a2,263a <vListInsert+0x22>
    2644:	b7cd                	j	2626 <vListInsert+0xe>

00002646 <uxListRemove>:
    2646:	4154                	lw	a3,4(a0)
    2648:	4518                	lw	a4,8(a0)
    264a:	491c                	lw	a5,16(a0)
    264c:	c698                	sw	a4,8(a3)
    264e:	c354                	sw	a3,4(a4)
    2650:	43d4                	lw	a3,4(a5)
    2652:	00a69363          	bne	a3,a0,2658 <uxListRemove+0x12>
    2656:	c3d8                	sw	a4,4(a5)
    2658:	4398                	lw	a4,0(a5)
    265a:	00052823          	sw	zero,16(a0)
    265e:	177d                	addi	a4,a4,-1
    2660:	c398                	sw	a4,0(a5)
    2662:	4388                	lw	a0,0(a5)
    2664:	8082                	ret

00002666 <prvIsQueueEmpty>:
    2666:	eb1fd2ef          	jal	t0,516 <__riscv_save_0>
    266a:	1141                	addi	sp,sp,-16
    266c:	c62a                	sw	a0,12(sp)
    266e:	3f25                	jal	25a6 <vPortEnterCritical>
    2670:	4532                	lw	a0,12(sp)
    2672:	5d00                	lw	s0,56(a0)
    2674:	37a1                	jal	25bc <vPortExitCritical>
    2676:	00143513          	seqz	a0,s0
    267a:	0141                	addi	sp,sp,16
    267c:	ebffd06f          	j	53a <__riscv_restore_0>

00002680 <prvCopyDataFromQueue>:
    2680:	4130                	lw	a2,64(a0)
    2682:	c215                	beqz	a2,26a6 <prvCopyDataFromQueue+0x26>
    2684:	e93fd2ef          	jal	t0,516 <__riscv_save_0>
    2688:	4558                	lw	a4,12(a0)
    268a:	4514                	lw	a3,8(a0)
    268c:	87aa                	mv	a5,a0
    268e:	9732                	add	a4,a4,a2
    2690:	c558                	sw	a4,12(a0)
    2692:	00d76463          	bltu	a4,a3,269a <prvCopyDataFromQueue+0x1a>
    2696:	4118                	lw	a4,0(a0)
    2698:	c558                	sw	a4,12(a0)
    269a:	852e                	mv	a0,a1
    269c:	47cc                	lw	a1,12(a5)
    269e:	2bd030ef          	jal	ra,615a <memcpy>
    26a2:	e99fd06f          	j	53a <__riscv_restore_0>
    26a6:	8082                	ret

000026a8 <prvUnlockQueue>:
    26a8:	e6ffd2ef          	jal	t0,516 <__riscv_save_0>
    26ac:	842a                	mv	s0,a0
    26ae:	ef9ff0ef          	jal	ra,25a6 <vPortEnterCritical>
    26b2:	04544483          	lbu	s1,69(s0)
    26b6:	02440913          	addi	s2,s0,36
    26ba:	04e2                	slli	s1,s1,0x18
    26bc:	84e1                	srai	s1,s1,0x18
    26be:	02904863          	bgtz	s1,26ee <prvUnlockQueue+0x46>
    26c2:	57fd                	li	a5,-1
    26c4:	04f402a3          	sb	a5,69(s0)
    26c8:	ef5ff0ef          	jal	ra,25bc <vPortExitCritical>
    26cc:	edbff0ef          	jal	ra,25a6 <vPortEnterCritical>
    26d0:	04444483          	lbu	s1,68(s0)
    26d4:	01040913          	addi	s2,s0,16
    26d8:	04e2                	slli	s1,s1,0x18
    26da:	84e1                	srai	s1,s1,0x18
    26dc:	02904563          	bgtz	s1,2706 <prvUnlockQueue+0x5e>
    26e0:	57fd                	li	a5,-1
    26e2:	04f40223          	sb	a5,68(s0)
    26e6:	ed7ff0ef          	jal	ra,25bc <vPortExitCritical>
    26ea:	e51fd06f          	j	53a <__riscv_restore_0>
    26ee:	505c                	lw	a5,36(s0)
    26f0:	dbe9                	beqz	a5,26c2 <prvUnlockQueue+0x1a>
    26f2:	854a                	mv	a0,s2
    26f4:	421000ef          	jal	ra,3314 <xTaskRemoveFromEventList>
    26f8:	c119                	beqz	a0,26fe <prvUnlockQueue+0x56>
    26fa:	5e7000ef          	jal	ra,34e0 <vTaskMissedYield>
    26fe:	14fd                	addi	s1,s1,-1
    2700:	04e2                	slli	s1,s1,0x18
    2702:	84e1                	srai	s1,s1,0x18
    2704:	bf6d                	j	26be <prvUnlockQueue+0x16>
    2706:	481c                	lw	a5,16(s0)
    2708:	dfe1                	beqz	a5,26e0 <prvUnlockQueue+0x38>
    270a:	854a                	mv	a0,s2
    270c:	409000ef          	jal	ra,3314 <xTaskRemoveFromEventList>
    2710:	c119                	beqz	a0,2716 <prvUnlockQueue+0x6e>
    2712:	5cf000ef          	jal	ra,34e0 <vTaskMissedYield>
    2716:	14fd                	addi	s1,s1,-1
    2718:	04e2                	slli	s1,s1,0x18
    271a:	84e1                	srai	s1,s1,0x18
    271c:	b7c1                	j	26dc <prvUnlockQueue+0x34>

0000271e <xQueueGenericReset>:
    271e:	df9fd2ef          	jal	t0,516 <__riscv_save_0>
    2722:	1141                	addi	sp,sp,-16
    2724:	e11d                	bnez	a0,274a <xQueueGenericReset+0x2c>
    2726:	67a1                	lui	a5,0x8
    2728:	80078793          	addi	a5,a5,-2048 # 7800 <test+0x2e4>
    272c:	30079073          	csrw	mstatus,a5
    2730:	00007637          	lui	a2,0x7
    2734:	00007537          	lui	a0,0x7
    2738:	74060613          	addi	a2,a2,1856 # 7740 <test+0x224>
    273c:	11000593          	li	a1,272
    2740:	6f450513          	addi	a0,a0,1780 # 76f4 <test+0x1d8>
    2744:	2c9030ef          	jal	ra,620c <iprintf>
    2748:	a001                	j	2748 <xQueueGenericReset+0x2a>
    274a:	5d5c                	lw	a5,60(a0)
    274c:	c62e                	sw	a1,12(sp)
    274e:	842a                	mv	s0,a0
    2750:	c7bd                	beqz	a5,27be <xQueueGenericReset+0xa0>
    2752:	4138                	lw	a4,64(a0)
    2754:	02e7b7b3          	mulhu	a5,a5,a4
    2758:	e3bd                	bnez	a5,27be <xQueueGenericReset+0xa0>
    275a:	e4dff0ef          	jal	ra,25a6 <vPortEnterCritical>
    275e:	4030                	lw	a2,64(s0)
    2760:	5c58                	lw	a4,60(s0)
    2762:	4014                	lw	a3,0(s0)
    2764:	02042c23          	sw	zero,56(s0)
    2768:	02e607b3          	mul	a5,a2,a4
    276c:	45b2                	lw	a1,12(sp)
    276e:	c054                	sw	a3,4(s0)
    2770:	00f68733          	add	a4,a3,a5
    2774:	8f91                	sub	a5,a5,a2
    2776:	97b6                	add	a5,a5,a3
    2778:	c45c                	sw	a5,12(s0)
    277a:	57fd                	li	a5,-1
    277c:	04f40223          	sb	a5,68(s0)
    2780:	c418                	sw	a4,8(s0)
    2782:	04f402a3          	sb	a5,69(s0)
    2786:	e19d                	bnez	a1,27ac <xQueueGenericReset+0x8e>
    2788:	481c                	lw	a5,16(s0)
    278a:	cb99                	beqz	a5,27a0 <xQueueGenericReset+0x82>
    278c:	01040513          	addi	a0,s0,16
    2790:	385000ef          	jal	ra,3314 <xTaskRemoveFromEventList>
    2794:	c511                	beqz	a0,27a0 <xQueueGenericReset+0x82>
    2796:	e000e7b7          	lui	a5,0xe000e
    279a:	6711                	lui	a4,0x4
    279c:	20e7a023          	sw	a4,512(a5) # e000e200 <__freertos_irq_stack_top+0xc0006200>
    27a0:	e1dff0ef          	jal	ra,25bc <vPortExitCritical>
    27a4:	4505                	li	a0,1
    27a6:	0141                	addi	sp,sp,16
    27a8:	d93fd06f          	j	53a <__riscv_restore_0>
    27ac:	01040513          	addi	a0,s0,16
    27b0:	e4fff0ef          	jal	ra,25fe <vListInitialise>
    27b4:	02440513          	addi	a0,s0,36
    27b8:	e47ff0ef          	jal	ra,25fe <vListInitialise>
    27bc:	b7d5                	j	27a0 <xQueueGenericReset+0x82>
    27be:	67a1                	lui	a5,0x8
    27c0:	80078793          	addi	a5,a5,-2048 # 7800 <test+0x2e4>
    27c4:	30079073          	csrw	mstatus,a5
    27c8:	00007637          	lui	a2,0x7
    27cc:	00007537          	lui	a0,0x7
    27d0:	74060613          	addi	a2,a2,1856 # 7740 <test+0x224>
    27d4:	14500593          	li	a1,325
    27d8:	6f450513          	addi	a0,a0,1780 # 76f4 <test+0x1d8>
    27dc:	231030ef          	jal	ra,620c <iprintf>
    27e0:	a001                	j	27e0 <xQueueGenericReset+0xc2>

000027e2 <xQueueGenericCreate>:
    27e2:	d35fd2ef          	jal	t0,516 <__riscv_save_0>
    27e6:	1141                	addi	sp,sp,-16
    27e8:	c131                	beqz	a0,282c <xQueueGenericCreate+0x4a>
    27ea:	02a5b7b3          	mulhu	a5,a1,a0
    27ee:	84aa                	mv	s1,a0
    27f0:	ef95                	bnez	a5,282c <xQueueGenericCreate+0x4a>
    27f2:	02b50533          	mul	a0,a0,a1
    27f6:	fb700793          	li	a5,-73
    27fa:	02a7e963          	bltu	a5,a0,282c <xQueueGenericCreate+0x4a>
    27fe:	04850513          	addi	a0,a0,72
    2802:	c62e                	sw	a1,12(sp)
    2804:	a6dff0ef          	jal	ra,2270 <pvPortMalloc>
    2808:	842a                	mv	s0,a0
    280a:	cd09                	beqz	a0,2824 <xQueueGenericCreate+0x42>
    280c:	45b2                	lw	a1,12(sp)
    280e:	87aa                	mv	a5,a0
    2810:	c199                	beqz	a1,2816 <xQueueGenericCreate+0x34>
    2812:	04850793          	addi	a5,a0,72
    2816:	c02c                	sw	a1,64(s0)
    2818:	c01c                	sw	a5,0(s0)
    281a:	dc44                	sw	s1,60(s0)
    281c:	4585                	li	a1,1
    281e:	8522                	mv	a0,s0
    2820:	effff0ef          	jal	ra,271e <xQueueGenericReset>
    2824:	8522                	mv	a0,s0
    2826:	0141                	addi	sp,sp,16
    2828:	d13fd06f          	j	53a <__riscv_restore_0>
    282c:	67a1                	lui	a5,0x8
    282e:	80078793          	addi	a5,a5,-2048 # 7800 <test+0x2e4>
    2832:	30079073          	csrw	mstatus,a5
    2836:	00007637          	lui	a2,0x7
    283a:	00007537          	lui	a0,0x7
    283e:	74060613          	addi	a2,a2,1856 # 7740 <test+0x224>
    2842:	1c600593          	li	a1,454
    2846:	6f450513          	addi	a0,a0,1780 # 76f4 <test+0x1d8>
    284a:	1c3030ef          	jal	ra,620c <iprintf>
    284e:	a001                	j	284e <xQueueGenericCreate+0x6c>

00002850 <xQueueReceive>:
    2850:	c9ffd2ef          	jal	t0,4ee <__riscv_save_10>
    2854:	1101                	addi	sp,sp,-32
    2856:	c632                	sw	a2,12(sp)
    2858:	e11d                	bnez	a0,287e <xQueueReceive+0x2e>
    285a:	67a1                	lui	a5,0x8
    285c:	80078793          	addi	a5,a5,-2048 # 7800 <test+0x2e4>
    2860:	30079073          	csrw	mstatus,a5
    2864:	00007637          	lui	a2,0x7
    2868:	00007537          	lui	a0,0x7
    286c:	74060613          	addi	a2,a2,1856 # 7740 <test+0x224>
    2870:	55100593          	li	a1,1361
    2874:	6f450513          	addi	a0,a0,1780 # 76f4 <test+0x1d8>
    2878:	195030ef          	jal	ra,620c <iprintf>
    287c:	a001                	j	287c <xQueueReceive+0x2c>
    287e:	842a                	mv	s0,a0
    2880:	89ae                	mv	s3,a1
    2882:	e58d                	bnez	a1,28ac <xQueueReceive+0x5c>
    2884:	413c                	lw	a5,64(a0)
    2886:	c39d                	beqz	a5,28ac <xQueueReceive+0x5c>
    2888:	67a1                	lui	a5,0x8
    288a:	80078793          	addi	a5,a5,-2048 # 7800 <test+0x2e4>
    288e:	30079073          	csrw	mstatus,a5
    2892:	00007637          	lui	a2,0x7
    2896:	00007537          	lui	a0,0x7
    289a:	74060613          	addi	a2,a2,1856 # 7740 <test+0x224>
    289e:	55500593          	li	a1,1365
    28a2:	6f450513          	addi	a0,a0,1780 # 76f4 <test+0x1d8>
    28a6:	167030ef          	jal	ra,620c <iprintf>
    28aa:	a001                	j	28aa <xQueueReceive+0x5a>
    28ac:	441000ef          	jal	ra,34ec <xTaskGetSchedulerState>
    28b0:	e515                	bnez	a0,28dc <xQueueReceive+0x8c>
    28b2:	47b2                	lw	a5,12(sp)
    28b4:	4901                	li	s2,0
    28b6:	c785                	beqz	a5,28de <xQueueReceive+0x8e>
    28b8:	67a1                	lui	a5,0x8
    28ba:	80078793          	addi	a5,a5,-2048 # 7800 <test+0x2e4>
    28be:	30079073          	csrw	mstatus,a5
    28c2:	00007637          	lui	a2,0x7
    28c6:	00007537          	lui	a0,0x7
    28ca:	74060613          	addi	a2,a2,1856 # 7740 <test+0x224>
    28ce:	55a00593          	li	a1,1370
    28d2:	6f450513          	addi	a0,a0,1780 # 76f4 <test+0x1d8>
    28d6:	137030ef          	jal	ra,620c <iprintf>
    28da:	a001                	j	28da <xQueueReceive+0x8a>
    28dc:	4901                	li	s2,0
    28de:	5a7d                	li	s4,-1
    28e0:	02440a93          	addi	s5,s0,36
    28e4:	e000eb37          	lui	s6,0xe000e
    28e8:	6b91                	lui	s7,0x4
    28ea:	a885                	j	295a <xQueueReceive+0x10a>
    28ec:	47b2                	lw	a5,12(sp)
    28ee:	e789                	bnez	a5,28f8 <xQueueReceive+0xa8>
    28f0:	ccdff0ef          	jal	ra,25bc <vPortExitCritical>
    28f4:	4501                	li	a0,0
    28f6:	a859                	j	298c <xQueueReceive+0x13c>
    28f8:	00091563          	bnez	s2,2902 <xQueueReceive+0xb2>
    28fc:	0828                	addi	a0,sp,24
    28fe:	303000ef          	jal	ra,3400 <vTaskInternalSetTimeOutState>
    2902:	cbbff0ef          	jal	ra,25bc <vPortExitCritical>
    2906:	230d                	jal	2e28 <vTaskSuspendAll>
    2908:	c9fff0ef          	jal	ra,25a6 <vPortEnterCritical>
    290c:	04444783          	lbu	a5,68(s0)
    2910:	07e2                	slli	a5,a5,0x18
    2912:	87e1                	srai	a5,a5,0x18
    2914:	01479463          	bne	a5,s4,291c <xQueueReceive+0xcc>
    2918:	04040223          	sb	zero,68(s0)
    291c:	04544783          	lbu	a5,69(s0)
    2920:	07e2                	slli	a5,a5,0x18
    2922:	87e1                	srai	a5,a5,0x18
    2924:	01479463          	bne	a5,s4,292c <xQueueReceive+0xdc>
    2928:	040402a3          	sb	zero,69(s0)
    292c:	c91ff0ef          	jal	ra,25bc <vPortExitCritical>
    2930:	006c                	addi	a1,sp,12
    2932:	0828                	addi	a0,sp,24
    2934:	2e3000ef          	jal	ra,3416 <xTaskCheckForTimeOut>
    2938:	e135                	bnez	a0,299c <xQueueReceive+0x14c>
    293a:	8522                	mv	a0,s0
    293c:	d2bff0ef          	jal	ra,2666 <prvIsQueueEmpty>
    2940:	c929                	beqz	a0,2992 <xQueueReceive+0x142>
    2942:	45b2                	lw	a1,12(sp)
    2944:	8556                	mv	a0,s5
    2946:	111000ef          	jal	ra,3256 <vTaskPlaceOnEventList>
    294a:	8522                	mv	a0,s0
    294c:	d5dff0ef          	jal	ra,26a8 <prvUnlockQueue>
    2950:	2d79                	jal	2fee <xTaskResumeAll>
    2952:	e119                	bnez	a0,2958 <xQueueReceive+0x108>
    2954:	217b2023          	sw	s7,512(s6) # e000e200 <__freertos_irq_stack_top+0xc0006200>
    2958:	4905                	li	s2,1
    295a:	c4dff0ef          	jal	ra,25a6 <vPortEnterCritical>
    295e:	5c04                	lw	s1,56(s0)
    2960:	d4d1                	beqz	s1,28ec <xQueueReceive+0x9c>
    2962:	85ce                	mv	a1,s3
    2964:	8522                	mv	a0,s0
    2966:	14fd                	addi	s1,s1,-1
    2968:	d19ff0ef          	jal	ra,2680 <prvCopyDataFromQueue>
    296c:	dc04                	sw	s1,56(s0)
    296e:	481c                	lw	a5,16(s0)
    2970:	cb99                	beqz	a5,2986 <xQueueReceive+0x136>
    2972:	01040513          	addi	a0,s0,16
    2976:	19f000ef          	jal	ra,3314 <xTaskRemoveFromEventList>
    297a:	c511                	beqz	a0,2986 <xQueueReceive+0x136>
    297c:	e000e7b7          	lui	a5,0xe000e
    2980:	6711                	lui	a4,0x4
    2982:	20e7a023          	sw	a4,512(a5) # e000e200 <__freertos_irq_stack_top+0xc0006200>
    2986:	c37ff0ef          	jal	ra,25bc <vPortExitCritical>
    298a:	4505                	li	a0,1
    298c:	6105                	addi	sp,sp,32
    298e:	b99fd06f          	j	526 <__riscv_restore_10>
    2992:	8522                	mv	a0,s0
    2994:	d15ff0ef          	jal	ra,26a8 <prvUnlockQueue>
    2998:	2d99                	jal	2fee <xTaskResumeAll>
    299a:	bf7d                	j	2958 <xQueueReceive+0x108>
    299c:	8522                	mv	a0,s0
    299e:	d0bff0ef          	jal	ra,26a8 <prvUnlockQueue>
    29a2:	25b1                	jal	2fee <xTaskResumeAll>
    29a4:	8522                	mv	a0,s0
    29a6:	cc1ff0ef          	jal	ra,2666 <prvIsQueueEmpty>
    29aa:	d55d                	beqz	a0,2958 <xQueueReceive+0x108>
    29ac:	b7a1                	j	28f4 <xQueueReceive+0xa4>

000029ae <vQueueAddToRegistry>:
    29ae:	e515                	bnez	a0,29da <vQueueAddToRegistry+0x2c>
    29b0:	b67fd2ef          	jal	t0,516 <__riscv_save_0>
    29b4:	67a1                	lui	a5,0x8
    29b6:	80078793          	addi	a5,a5,-2048 # 7800 <test+0x2e4>
    29ba:	30079073          	csrw	mstatus,a5
    29be:	00007637          	lui	a2,0x7
    29c2:	6585                	lui	a1,0x1
    29c4:	00007537          	lui	a0,0x7
    29c8:	74060613          	addi	a2,a2,1856 # 7740 <test+0x224>
    29cc:	ac858593          	addi	a1,a1,-1336 # ac8 <I2C_GenerateSTOP+0x14>
    29d0:	6f450513          	addi	a0,a0,1780 # 76f4 <test+0x1d8>
    29d4:	039030ef          	jal	ra,620c <iprintf>
    29d8:	a001                	j	29d8 <vQueueAddToRegistry+0x2a>
    29da:	cd9d                	beqz	a1,2a18 <vQueueAddToRegistry+0x6a>
    29dc:	20003637          	lui	a2,0x20003
    29e0:	59460693          	addi	a3,a2,1428 # 20003594 <xQueueRegistry>
    29e4:	4781                	li	a5,0
    29e6:	4701                	li	a4,0
    29e8:	59460613          	addi	a2,a2,1428
    29ec:	4821                	li	a6,8
    29ee:	0046a883          	lw	a7,4(a3)
    29f2:	00a89863          	bne	a7,a0,2a02 <vQueueAddToRegistry+0x54>
    29f6:	00371793          	slli	a5,a4,0x3
    29fa:	97b2                	add	a5,a5,a2
    29fc:	c38c                	sw	a1,0(a5)
    29fe:	c3c8                	sw	a0,4(a5)
    2a00:	a821                	j	2a18 <vQueueAddToRegistry+0x6a>
    2a02:	e791                	bnez	a5,2a0e <vQueueAddToRegistry+0x60>
    2a04:	0006a883          	lw	a7,0(a3)
    2a08:	00089363          	bnez	a7,2a0e <vQueueAddToRegistry+0x60>
    2a0c:	87b6                	mv	a5,a3
    2a0e:	0705                	addi	a4,a4,1
    2a10:	06a1                	addi	a3,a3,8
    2a12:	fd071ee3          	bne	a4,a6,29ee <vQueueAddToRegistry+0x40>
    2a16:	f3fd                	bnez	a5,29fc <vQueueAddToRegistry+0x4e>
    2a18:	8082                	ret

00002a1a <vQueueWaitForMessageRestricted>:
    2a1a:	afdfd2ef          	jal	t0,516 <__riscv_save_0>
    2a1e:	1141                	addi	sp,sp,-16
    2a20:	842a                	mv	s0,a0
    2a22:	c62e                	sw	a1,12(sp)
    2a24:	c432                	sw	a2,8(sp)
    2a26:	b81ff0ef          	jal	ra,25a6 <vPortEnterCritical>
    2a2a:	04444783          	lbu	a5,68(s0)
    2a2e:	577d                	li	a4,-1
    2a30:	4622                	lw	a2,8(sp)
    2a32:	07e2                	slli	a5,a5,0x18
    2a34:	87e1                	srai	a5,a5,0x18
    2a36:	45b2                	lw	a1,12(sp)
    2a38:	00e79463          	bne	a5,a4,2a40 <vQueueWaitForMessageRestricted+0x26>
    2a3c:	04040223          	sb	zero,68(s0)
    2a40:	04544783          	lbu	a5,69(s0)
    2a44:	577d                	li	a4,-1
    2a46:	07e2                	slli	a5,a5,0x18
    2a48:	87e1                	srai	a5,a5,0x18
    2a4a:	00e79463          	bne	a5,a4,2a52 <vQueueWaitForMessageRestricted+0x38>
    2a4e:	040402a3          	sb	zero,69(s0)
    2a52:	c632                	sw	a2,12(sp)
    2a54:	c42e                	sw	a1,8(sp)
    2a56:	b67ff0ef          	jal	ra,25bc <vPortExitCritical>
    2a5a:	5c1c                	lw	a5,56(s0)
    2a5c:	45a2                	lw	a1,8(sp)
    2a5e:	4632                	lw	a2,12(sp)
    2a60:	e789                	bnez	a5,2a6a <vQueueWaitForMessageRestricted+0x50>
    2a62:	02440513          	addi	a0,s0,36
    2a66:	039000ef          	jal	ra,329e <vTaskPlaceOnEventListRestricted>
    2a6a:	8522                	mv	a0,s0
    2a6c:	c3dff0ef          	jal	ra,26a8 <prvUnlockQueue>
    2a70:	0141                	addi	sp,sp,16
    2a72:	ac9fd06f          	j	53a <__riscv_restore_0>

00002a76 <prvResetNextTaskUnblockTime>:
    2a76:	20000737          	lui	a4,0x20000
    2a7a:	15070713          	addi	a4,a4,336 # 20000150 <pxDelayedTaskList>
    2a7e:	431c                	lw	a5,0(a4)
    2a80:	4394                	lw	a3,0(a5)
    2a82:	200007b7          	lui	a5,0x20000
    2a86:	17078793          	addi	a5,a5,368 # 20000170 <xNextTaskUnblockTime>
    2a8a:	e681                	bnez	a3,2a92 <prvResetNextTaskUnblockTime+0x1c>
    2a8c:	577d                	li	a4,-1
    2a8e:	c398                	sw	a4,0(a5)
    2a90:	8082                	ret
    2a92:	4318                	lw	a4,0(a4)
    2a94:	4758                	lw	a4,12(a4)
    2a96:	4318                	lw	a4,0(a4)
    2a98:	bfdd                	j	2a8e <prvResetNextTaskUnblockTime+0x18>

00002a9a <prvAddCurrentTaskToDelayedList>:
    2a9a:	a63fd2ef          	jal	t0,4fc <__riscv_save_4>
    2a9e:	20000937          	lui	s2,0x20000
    2aa2:	200007b7          	lui	a5,0x20000
    2aa6:	14c90493          	addi	s1,s2,332 # 2000014c <pxCurrentTCB>
    2aaa:	1807a983          	lw	s3,384(a5) # 20000180 <xTickCount>
    2aae:	842a                	mv	s0,a0
    2ab0:	409c                	lw	a5,0(s1)
    2ab2:	4088                	lw	a0,0(s1)
    2ab4:	1141                	addi	sp,sp,-16
    2ab6:	040788a3          	sb	zero,81(a5)
    2aba:	0511                	addi	a0,a0,4
    2abc:	c62e                	sw	a1,12(sp)
    2abe:	b89ff0ef          	jal	ra,2646 <uxListRemove>
    2ac2:	577d                	li	a4,-1
    2ac4:	14c90793          	addi	a5,s2,332
    2ac8:	45b2                	lw	a1,12(sp)
    2aca:	02e41c63          	bne	s0,a4,2b02 <prvAddCurrentTaskToDelayedList+0x68>
    2ace:	c995                	beqz	a1,2b02 <prvAddCurrentTaskToDelayedList+0x68>
    2ad0:	200037b7          	lui	a5,0x20003
    2ad4:	73c78793          	addi	a5,a5,1852 # 2000373c <xSuspendedTaskList>
    2ad8:	4094                	lw	a3,0(s1)
    2ada:	43d8                	lw	a4,4(a5)
    2adc:	c698                	sw	a4,8(a3)
    2ade:	4710                	lw	a2,8(a4)
    2ae0:	4094                	lw	a3,0(s1)
    2ae2:	c6d0                	sw	a2,12(a3)
    2ae4:	4094                	lw	a3,0(s1)
    2ae6:	4710                	lw	a2,8(a4)
    2ae8:	0691                	addi	a3,a3,4
    2aea:	c254                	sw	a3,4(a2)
    2aec:	4094                	lw	a3,0(s1)
    2aee:	0691                	addi	a3,a3,4
    2af0:	c714                	sw	a3,8(a4)
    2af2:	4098                	lw	a4,0(s1)
    2af4:	cb5c                	sw	a5,20(a4)
    2af6:	4398                	lw	a4,0(a5)
    2af8:	0705                	addi	a4,a4,1
    2afa:	c398                	sw	a4,0(a5)
    2afc:	0141                	addi	sp,sp,16
    2afe:	a33fd06f          	j	530 <__riscv_restore_4>
    2b02:	4398                	lw	a4,0(a5)
    2b04:	944e                	add	s0,s0,s3
    2b06:	c340                	sw	s0,4(a4)
    2b08:	01347b63          	bgeu	s0,s3,2b1e <prvAddCurrentTaskToDelayedList+0x84>
    2b0c:	20000737          	lui	a4,0x20000
    2b10:	15472503          	lw	a0,340(a4) # 20000154 <pxOverflowDelayedTaskList>
    2b14:	438c                	lw	a1,0(a5)
    2b16:	0591                	addi	a1,a1,4
    2b18:	b01ff0ef          	jal	ra,2618 <vListInsert>
    2b1c:	b7c5                	j	2afc <prvAddCurrentTaskToDelayedList+0x62>
    2b1e:	20000737          	lui	a4,0x20000
    2b22:	15072503          	lw	a0,336(a4) # 20000150 <pxDelayedTaskList>
    2b26:	438c                	lw	a1,0(a5)
    2b28:	0591                	addi	a1,a1,4
    2b2a:	aefff0ef          	jal	ra,2618 <vListInsert>
    2b2e:	200007b7          	lui	a5,0x20000
    2b32:	17078793          	addi	a5,a5,368 # 20000170 <xNextTaskUnblockTime>
    2b36:	4398                	lw	a4,0(a5)
    2b38:	fce472e3          	bgeu	s0,a4,2afc <prvAddCurrentTaskToDelayedList+0x62>
    2b3c:	c380                	sw	s0,0(a5)
    2b3e:	bf7d                	j	2afc <prvAddCurrentTaskToDelayedList+0x62>

00002b40 <prvIdleTask>:
    2b40:	9bdfd2ef          	jal	t0,4fc <__riscv_save_4>
    2b44:	20003437          	lui	s0,0x20003
    2b48:	200009b7          	lui	s3,0x20000
    2b4c:	75040413          	addi	s0,s0,1872 # 20003750 <xTasksWaitingTermination>
    2b50:	20000a37          	lui	s4,0x20000
    2b54:	15c98493          	addi	s1,s3,348 # 2000015c <uxDeletedTasksWaitingCleanUp>
    2b58:	409c                	lw	a5,0(s1)
    2b5a:	dfed                	beqz	a5,2b54 <prvIdleTask+0x14>
    2b5c:	a4bff0ef          	jal	ra,25a6 <vPortEnterCritical>
    2b60:	445c                	lw	a5,12(s0)
    2b62:	00c7a903          	lw	s2,12(a5)
    2b66:	00490513          	addi	a0,s2,4
    2b6a:	addff0ef          	jal	ra,2646 <uxListRemove>
    2b6e:	158a0713          	addi	a4,s4,344 # 20000158 <uxCurrentNumberOfTasks>
    2b72:	431c                	lw	a5,0(a4)
    2b74:	17fd                	addi	a5,a5,-1
    2b76:	c31c                	sw	a5,0(a4)
    2b78:	409c                	lw	a5,0(s1)
    2b7a:	17fd                	addi	a5,a5,-1
    2b7c:	c09c                	sw	a5,0(s1)
    2b7e:	a3fff0ef          	jal	ra,25bc <vPortExitCritical>
    2b82:	03092503          	lw	a0,48(s2)
    2b86:	875ff0ef          	jal	ra,23fa <vPortFree>
    2b8a:	854a                	mv	a0,s2
    2b8c:	86fff0ef          	jal	ra,23fa <vPortFree>
    2b90:	b7d1                	j	2b54 <prvIdleTask+0x14>

00002b92 <xTaskCreate>:
    2b92:	95dfd2ef          	jal	t0,4ee <__riscv_save_10>
    2b96:	00261913          	slli	s2,a2,0x2
    2b9a:	8aaa                	mv	s5,a0
    2b9c:	854a                	mv	a0,s2
    2b9e:	8a2e                	mv	s4,a1
    2ba0:	8b36                	mv	s6,a3
    2ba2:	8bba                	mv	s7,a4
    2ba4:	89be                	mv	s3,a5
    2ba6:	ecaff0ef          	jal	ra,2270 <pvPortMalloc>
    2baa:	c11d                	beqz	a0,2bd0 <xTaskCreate+0x3e>
    2bac:	84aa                	mv	s1,a0
    2bae:	05400513          	li	a0,84
    2bb2:	ebeff0ef          	jal	ra,2270 <pvPortMalloc>
    2bb6:	842a                	mv	s0,a0
    2bb8:	c909                	beqz	a0,2bca <xTaskCreate+0x38>
    2bba:	d904                	sw	s1,48(a0)
    2bbc:	4781                	li	a5,0
    2bbe:	46c1                	li	a3,16
    2bc0:	000a1a63          	bnez	s4,2bd4 <xTaskCreate+0x42>
    2bc4:	02050a23          	sb	zero,52(a0)
    2bc8:	a025                	j	2bf0 <xTaskCreate+0x5e>
    2bca:	8526                	mv	a0,s1
    2bcc:	82fff0ef          	jal	ra,23fa <vPortFree>
    2bd0:	557d                	li	a0,-1
    2bd2:	a265                	j	2d7a <xTaskCreate+0x1e8>
    2bd4:	00fa0733          	add	a4,s4,a5
    2bd8:	00070703          	lb	a4,0(a4)
    2bdc:	00f40633          	add	a2,s0,a5
    2be0:	02e60a23          	sb	a4,52(a2)
    2be4:	c701                	beqz	a4,2bec <xTaskCreate+0x5a>
    2be6:	0785                	addi	a5,a5,1
    2be8:	fed796e3          	bne	a5,a3,2bd4 <xTaskCreate+0x42>
    2bec:	040401a3          	sb	zero,67(s0)
    2bf0:	47b9                	li	a5,14
    2bf2:	0377f463          	bgeu	a5,s7,2c1a <xTaskCreate+0x88>
    2bf6:	67a1                	lui	a5,0x8
    2bf8:	80078793          	addi	a5,a5,-2048 # 7800 <test+0x2e4>
    2bfc:	30079073          	csrw	mstatus,a5
    2c00:	00007637          	lui	a2,0x7
    2c04:	00007537          	lui	a0,0x7
    2c08:	75460613          	addi	a2,a2,1876 # 7754 <test+0x238>
    2c0c:	39700593          	li	a1,919
    2c10:	6f450513          	addi	a0,a0,1780 # 76f4 <test+0x1d8>
    2c14:	5f8030ef          	jal	ra,620c <iprintf>
    2c18:	a001                	j	2c18 <xTaskCreate+0x86>
    2c1a:	00440a13          	addi	s4,s0,4
    2c1e:	8552                	mv	a0,s4
    2c20:	03742623          	sw	s7,44(s0)
    2c24:	05742223          	sw	s7,68(s0)
    2c28:	04042423          	sw	zero,72(s0)
    2c2c:	9e7ff0ef          	jal	ra,2612 <vListInitialiseItem>
    2c30:	01840513          	addi	a0,s0,24
    2c34:	9dfff0ef          	jal	ra,2612 <vListInitialiseItem>
    2c38:	473d                	li	a4,15
    2c3a:	ffc90513          	addi	a0,s2,-4
    2c3e:	41770733          	sub	a4,a4,s7
    2c42:	9526                	add	a0,a0,s1
    2c44:	c800                	sw	s0,16(s0)
    2c46:	cc18                	sw	a4,24(s0)
    2c48:	d040                	sw	s0,36(s0)
    2c4a:	04040623          	sb	zero,76(s0)
    2c4e:	040406a3          	sb	zero,77(s0)
    2c52:	04040723          	sb	zero,78(s0)
    2c56:	040407a3          	sb	zero,79(s0)
    2c5a:	04040823          	sb	zero,80(s0)
    2c5e:	040408a3          	sb	zero,81(s0)
    2c62:	865a                	mv	a2,s6
    2c64:	85d6                	mv	a1,s5
    2c66:	9941                	andi	a0,a0,-16
    2c68:	f98fd0ef          	jal	ra,400 <pxPortInitialiseStack>
    2c6c:	c008                	sw	a0,0(s0)
    2c6e:	00098463          	beqz	s3,2c76 <xTaskCreate+0xe4>
    2c72:	0089a023          	sw	s0,0(s3)
    2c76:	931ff0ef          	jal	ra,25a6 <vPortEnterCritical>
    2c7a:	200007b7          	lui	a5,0x20000
    2c7e:	15878793          	addi	a5,a5,344 # 20000158 <uxCurrentNumberOfTasks>
    2c82:	4398                	lw	a4,0(a5)
    2c84:	200004b7          	lui	s1,0x20000
    2c88:	200039b7          	lui	s3,0x20003
    2c8c:	0705                	addi	a4,a4,1
    2c8e:	c398                	sw	a4,0(a5)
    2c90:	14c48713          	addi	a4,s1,332 # 2000014c <pxCurrentTCB>
    2c94:	4318                	lw	a4,0(a4)
    2c96:	14c48493          	addi	s1,s1,332
    2c9a:	5d498913          	addi	s2,s3,1492 # 200035d4 <pxReadyTasksLists>
    2c9e:	0e071063          	bnez	a4,2d7e <xTaskCreate+0x1ec>
    2ca2:	c080                	sw	s0,0(s1)
    2ca4:	4398                	lw	a4,0(a5)
    2ca6:	4785                	li	a5,1
    2ca8:	06f71663          	bne	a4,a5,2d14 <xTaskCreate+0x182>
    2cac:	5d498993          	addi	s3,s3,1492
    2cb0:	12c90a93          	addi	s5,s2,300
    2cb4:	854e                	mv	a0,s3
    2cb6:	09d1                	addi	s3,s3,20
    2cb8:	947ff0ef          	jal	ra,25fe <vListInitialise>
    2cbc:	ff3a9ce3          	bne	s5,s3,2cb4 <xTaskCreate+0x122>
    2cc0:	20003537          	lui	a0,0x20003
    2cc4:	70050a93          	addi	s5,a0,1792 # 20003700 <xDelayedTaskList1>
    2cc8:	70050513          	addi	a0,a0,1792
    2ccc:	933ff0ef          	jal	ra,25fe <vListInitialise>
    2cd0:	20003537          	lui	a0,0x20003
    2cd4:	71450993          	addi	s3,a0,1812 # 20003714 <xDelayedTaskList2>
    2cd8:	71450513          	addi	a0,a0,1812
    2cdc:	923ff0ef          	jal	ra,25fe <vListInitialise>
    2ce0:	20003537          	lui	a0,0x20003
    2ce4:	72850513          	addi	a0,a0,1832 # 20003728 <xPendingReadyList>
    2ce8:	917ff0ef          	jal	ra,25fe <vListInitialise>
    2cec:	20003537          	lui	a0,0x20003
    2cf0:	75050513          	addi	a0,a0,1872 # 20003750 <xTasksWaitingTermination>
    2cf4:	90bff0ef          	jal	ra,25fe <vListInitialise>
    2cf8:	20003537          	lui	a0,0x20003
    2cfc:	73c50513          	addi	a0,a0,1852 # 2000373c <xSuspendedTaskList>
    2d00:	8ffff0ef          	jal	ra,25fe <vListInitialise>
    2d04:	200007b7          	lui	a5,0x20000
    2d08:	1557a823          	sw	s5,336(a5) # 20000150 <pxDelayedTaskList>
    2d0c:	200007b7          	lui	a5,0x20000
    2d10:	1537aa23          	sw	s3,340(a5) # 20000154 <pxOverflowDelayedTaskList>
    2d14:	200007b7          	lui	a5,0x20000
    2d18:	16478793          	addi	a5,a5,356 # 20000164 <uxTaskNumber>
    2d1c:	4398                	lw	a4,0(a5)
    2d1e:	0705                	addi	a4,a4,1
    2d20:	c398                	sw	a4,0(a5)
    2d22:	20000737          	lui	a4,0x20000
    2d26:	16870713          	addi	a4,a4,360 # 20000168 <uxTopReadyPriority>
    2d2a:	545c                	lw	a5,44(s0)
    2d2c:	4314                	lw	a3,0(a4)
    2d2e:	00f6f363          	bgeu	a3,a5,2d34 <xTaskCreate+0x1a2>
    2d32:	c31c                	sw	a5,0(a4)
    2d34:	4751                	li	a4,20
    2d36:	02e787b3          	mul	a5,a5,a4
    2d3a:	97ca                	add	a5,a5,s2
    2d3c:	43d8                	lw	a4,4(a5)
    2d3e:	4714                	lw	a3,8(a4)
    2d40:	c418                	sw	a4,8(s0)
    2d42:	c454                	sw	a3,12(s0)
    2d44:	4714                	lw	a3,8(a4)
    2d46:	0146a223          	sw	s4,4(a3)
    2d4a:	01472423          	sw	s4,8(a4)
    2d4e:	4398                	lw	a4,0(a5)
    2d50:	c85c                	sw	a5,20(s0)
    2d52:	0705                	addi	a4,a4,1
    2d54:	c398                	sw	a4,0(a5)
    2d56:	867ff0ef          	jal	ra,25bc <vPortExitCritical>
    2d5a:	200007b7          	lui	a5,0x20000
    2d5e:	17c7a783          	lw	a5,380(a5) # 2000017c <xSchedulerRunning>
    2d62:	4505                	li	a0,1
    2d64:	cb99                	beqz	a5,2d7a <xTaskCreate+0x1e8>
    2d66:	409c                	lw	a5,0(s1)
    2d68:	57d8                	lw	a4,44(a5)
    2d6a:	545c                	lw	a5,44(s0)
    2d6c:	00f77763          	bgeu	a4,a5,2d7a <xTaskCreate+0x1e8>
    2d70:	e000e7b7          	lui	a5,0xe000e
    2d74:	6711                	lui	a4,0x4
    2d76:	20e7a023          	sw	a4,512(a5) # e000e200 <__freertos_irq_stack_top+0xc0006200>
    2d7a:	facfd06f          	j	526 <__riscv_restore_10>
    2d7e:	200007b7          	lui	a5,0x20000
    2d82:	17c7a783          	lw	a5,380(a5) # 2000017c <xSchedulerRunning>
    2d86:	f7d9                	bnez	a5,2d14 <xTaskCreate+0x182>
    2d88:	409c                	lw	a5,0(s1)
    2d8a:	57d8                	lw	a4,44(a5)
    2d8c:	545c                	lw	a5,44(s0)
    2d8e:	f8e7e3e3          	bltu	a5,a4,2d14 <xTaskCreate+0x182>
    2d92:	c080                	sw	s0,0(s1)
    2d94:	b741                	j	2d14 <xTaskCreate+0x182>

00002d96 <vTaskStartScheduler>:
    2d96:	f80fd2ef          	jal	t0,516 <__riscv_save_0>
    2d9a:	200007b7          	lui	a5,0x20000
    2d9e:	000075b7          	lui	a1,0x7
    2da2:	00003537          	lui	a0,0x3
    2da6:	16c78793          	addi	a5,a5,364 # 2000016c <xIdleTaskHandle>
    2daa:	4701                	li	a4,0
    2dac:	4681                	li	a3,0
    2dae:	10000613          	li	a2,256
    2db2:	76858593          	addi	a1,a1,1896 # 7768 <test+0x24c>
    2db6:	b4050513          	addi	a0,a0,-1216 # 2b40 <prvIdleTask>
    2dba:	dd9ff0ef          	jal	ra,2b92 <xTaskCreate>
    2dbe:	4405                	li	s0,1
    2dc0:	02851e63          	bne	a0,s0,2dfc <vTaskStartScheduler+0x66>
    2dc4:	229000ef          	jal	ra,37ec <xTimerCreateTimerTask>
    2dc8:	02851a63          	bne	a0,s0,2dfc <vTaskStartScheduler+0x66>
    2dcc:	67a1                	lui	a5,0x8
    2dce:	80078793          	addi	a5,a5,-2048 # 7800 <test+0x2e4>
    2dd2:	30079073          	csrw	mstatus,a5
    2dd6:	200007b7          	lui	a5,0x20000
    2dda:	577d                	li	a4,-1
    2ddc:	16e7a823          	sw	a4,368(a5) # 20000170 <xNextTaskUnblockTime>
    2de0:	200007b7          	lui	a5,0x20000
    2de4:	16a7ae23          	sw	a0,380(a5) # 2000017c <xSchedulerRunning>
    2de8:	200007b7          	lui	a5,0x20000
    2dec:	1807a023          	sw	zero,384(a5) # 20000180 <xTickCount>
    2df0:	ef0ff0ef          	jal	ra,24e0 <xPortStartScheduler>
    2df4:	8181a783          	lw	a5,-2024(gp) # 200000e8 <uxTopUsedPriority>
    2df8:	f42fd06f          	j	53a <__riscv_restore_0>
    2dfc:	57fd                	li	a5,-1
    2dfe:	fef51be3          	bne	a0,a5,2df4 <vTaskStartScheduler+0x5e>
    2e02:	67a1                	lui	a5,0x8
    2e04:	80078793          	addi	a5,a5,-2048 # 7800 <test+0x2e4>
    2e08:	30079073          	csrw	mstatus,a5
    2e0c:	00007637          	lui	a2,0x7
    2e10:	6585                	lui	a1,0x1
    2e12:	00007537          	lui	a0,0x7
    2e16:	75460613          	addi	a2,a2,1876 # 7754 <test+0x238>
    2e1a:	84058593          	addi	a1,a1,-1984 # 840 <SystemCoreClockUpdate+0x3a>
    2e1e:	6f450513          	addi	a0,a0,1780 # 76f4 <test+0x1d8>
    2e22:	3ea030ef          	jal	ra,620c <iprintf>
    2e26:	a001                	j	2e26 <vTaskStartScheduler+0x90>

00002e28 <vTaskSuspendAll>:
    2e28:	200007b7          	lui	a5,0x20000
    2e2c:	16078793          	addi	a5,a5,352 # 20000160 <uxSchedulerSuspended>
    2e30:	4398                	lw	a4,0(a5)
    2e32:	0705                	addi	a4,a4,1
    2e34:	c398                	sw	a4,0(a5)
    2e36:	8082                	ret

00002e38 <xTaskGetTickCount>:
    2e38:	200007b7          	lui	a5,0x20000
    2e3c:	1807a503          	lw	a0,384(a5) # 20000180 <xTickCount>
    2e40:	8082                	ret

00002e42 <xTaskIncrementTick>:
    2e42:	200007b7          	lui	a5,0x20000
    2e46:	1607a783          	lw	a5,352(a5) # 20000160 <uxSchedulerSuspended>
    2e4a:	18079963          	bnez	a5,2fdc <xTaskIncrementTick+0x19a>
    2e4e:	ec8fd2ef          	jal	t0,516 <__riscv_save_0>
    2e52:	200007b7          	lui	a5,0x20000
    2e56:	18078793          	addi	a5,a5,384 # 20000180 <xTickCount>
    2e5a:	4380                	lw	s0,0(a5)
    2e5c:	0405                	addi	s0,s0,1
    2e5e:	c380                	sw	s0,0(a5)
    2e60:	ec21                	bnez	s0,2eb8 <xTaskIncrementTick+0x76>
    2e62:	200007b7          	lui	a5,0x20000
    2e66:	15078793          	addi	a5,a5,336 # 20000150 <pxDelayedTaskList>
    2e6a:	4398                	lw	a4,0(a5)
    2e6c:	4318                	lw	a4,0(a4)
    2e6e:	c705                	beqz	a4,2e96 <xTaskIncrementTick+0x54>
    2e70:	67a1                	lui	a5,0x8
    2e72:	80078793          	addi	a5,a5,-2048 # 7800 <test+0x2e4>
    2e76:	30079073          	csrw	mstatus,a5
    2e7a:	00007637          	lui	a2,0x7
    2e7e:	6585                	lui	a1,0x1
    2e80:	00007537          	lui	a0,0x7
    2e84:	75460613          	addi	a2,a2,1876 # 7754 <test+0x238>
    2e88:	ac758593          	addi	a1,a1,-1337 # ac7 <I2C_GenerateSTOP+0x13>
    2e8c:	6f450513          	addi	a0,a0,1780 # 76f4 <test+0x1d8>
    2e90:	37c030ef          	jal	ra,620c <iprintf>
    2e94:	a001                	j	2e94 <xTaskIncrementTick+0x52>
    2e96:	20000737          	lui	a4,0x20000
    2e9a:	15470713          	addi	a4,a4,340 # 20000154 <pxOverflowDelayedTaskList>
    2e9e:	4394                	lw	a3,0(a5)
    2ea0:	4310                	lw	a2,0(a4)
    2ea2:	c390                	sw	a2,0(a5)
    2ea4:	200007b7          	lui	a5,0x20000
    2ea8:	c314                	sw	a3,0(a4)
    2eaa:	17478793          	addi	a5,a5,372 # 20000174 <xNumOfOverflows>
    2eae:	4398                	lw	a4,0(a5)
    2eb0:	0705                	addi	a4,a4,1
    2eb2:	c398                	sw	a4,0(a5)
    2eb4:	bc3ff0ef          	jal	ra,2a76 <prvResetNextTaskUnblockTime>
    2eb8:	20000637          	lui	a2,0x20000
    2ebc:	17060793          	addi	a5,a2,368 # 20000170 <xNextTaskUnblockTime>
    2ec0:	439c                	lw	a5,0(a5)
    2ec2:	20003737          	lui	a4,0x20003
    2ec6:	200005b7          	lui	a1,0x20000
    2eca:	17060613          	addi	a2,a2,368
    2ece:	5d470713          	addi	a4,a4,1492 # 200035d4 <pxReadyTasksLists>
    2ed2:	14c58593          	addi	a1,a1,332 # 2000014c <pxCurrentTCB>
    2ed6:	4501                	li	a0,0
    2ed8:	02f47563          	bgeu	s0,a5,2f02 <xTaskIncrementTick+0xc0>
    2edc:	419c                	lw	a5,0(a1)
    2ede:	46d1                	li	a3,20
    2ee0:	57dc                	lw	a5,44(a5)
    2ee2:	02d787b3          	mul	a5,a5,a3
    2ee6:	973e                	add	a4,a4,a5
    2ee8:	4318                	lw	a4,0(a4)
    2eea:	4785                	li	a5,1
    2eec:	00e7f363          	bgeu	a5,a4,2ef2 <xTaskIncrementTick+0xb0>
    2ef0:	4505                	li	a0,1
    2ef2:	200007b7          	lui	a5,0x20000
    2ef6:	1847a783          	lw	a5,388(a5) # 20000184 <xYieldPending>
    2efa:	c391                	beqz	a5,2efe <xTaskIncrementTick+0xbc>
    2efc:	4505                	li	a0,1
    2efe:	e3cfd06f          	j	53a <__riscv_restore_0>
    2f02:	20000e37          	lui	t3,0x20000
    2f06:	20000eb7          	lui	t4,0x20000
    2f0a:	4f51                	li	t5,20
    2f0c:	150e0793          	addi	a5,t3,336 # 20000150 <pxDelayedTaskList>
    2f10:	4394                	lw	a3,0(a5)
    2f12:	4294                	lw	a3,0(a3)
    2f14:	e681                	bnez	a3,2f1c <xTaskIncrementTick+0xda>
    2f16:	57fd                	li	a5,-1
    2f18:	c21c                	sw	a5,0(a2)
    2f1a:	b7c9                	j	2edc <xTaskIncrementTick+0x9a>
    2f1c:	439c                	lw	a5,0(a5)
    2f1e:	47dc                	lw	a5,12(a5)
    2f20:	47dc                	lw	a5,12(a5)
    2f22:	43d4                	lw	a3,4(a5)
    2f24:	00d47463          	bgeu	s0,a3,2f2c <xTaskIncrementTick+0xea>
    2f28:	c214                	sw	a3,0(a2)
    2f2a:	bf4d                	j	2edc <xTaskIncrementTick+0x9a>
    2f2c:	0087a883          	lw	a7,8(a5)
    2f30:	00c7a803          	lw	a6,12(a5)
    2f34:	4bd4                	lw	a3,20(a5)
    2f36:	00478313          	addi	t1,a5,4
    2f3a:	0108a423          	sw	a6,8(a7)
    2f3e:	01182223          	sw	a7,4(a6)
    2f42:	0046a883          	lw	a7,4(a3)
    2f46:	00689463          	bne	a7,t1,2f4e <xTaskIncrementTick+0x10c>
    2f4a:	0106a223          	sw	a6,4(a3)
    2f4e:	0006a803          	lw	a6,0(a3)
    2f52:	0007aa23          	sw	zero,20(a5)
    2f56:	187d                	addi	a6,a6,-1
    2f58:	0106a023          	sw	a6,0(a3)
    2f5c:	5794                	lw	a3,40(a5)
    2f5e:	ca95                	beqz	a3,2f92 <xTaskIncrementTick+0x150>
    2f60:	01c7a803          	lw	a6,28(a5)
    2f64:	0207a883          	lw	a7,32(a5)
    2f68:	0046af83          	lw	t6,4(a3)
    2f6c:	01182423          	sw	a7,8(a6)
    2f70:	0207a883          	lw	a7,32(a5)
    2f74:	0108a223          	sw	a6,4(a7)
    2f78:	01878813          	addi	a6,a5,24
    2f7c:	010f9463          	bne	t6,a6,2f84 <xTaskIncrementTick+0x142>
    2f80:	0116a223          	sw	a7,4(a3)
    2f84:	0006a803          	lw	a6,0(a3)
    2f88:	0207a423          	sw	zero,40(a5)
    2f8c:	187d                	addi	a6,a6,-1
    2f8e:	0106a023          	sw	a6,0(a3)
    2f92:	168e8693          	addi	a3,t4,360 # 20000168 <uxTopReadyPriority>
    2f96:	02c7a803          	lw	a6,44(a5)
    2f9a:	0006a883          	lw	a7,0(a3)
    2f9e:	0108f463          	bgeu	a7,a6,2fa6 <xTaskIncrementTick+0x164>
    2fa2:	0106a023          	sw	a6,0(a3)
    2fa6:	03e806b3          	mul	a3,a6,t5
    2faa:	96ba                	add	a3,a3,a4
    2fac:	0046a883          	lw	a7,4(a3)
    2fb0:	0088af83          	lw	t6,8(a7)
    2fb4:	0117a423          	sw	a7,8(a5)
    2fb8:	01f7a623          	sw	t6,12(a5)
    2fbc:	0088af83          	lw	t6,8(a7)
    2fc0:	006fa223          	sw	t1,4(t6)
    2fc4:	0068a423          	sw	t1,8(a7)
    2fc8:	cbd4                	sw	a3,20(a5)
    2fca:	429c                	lw	a5,0(a3)
    2fcc:	0785                	addi	a5,a5,1
    2fce:	c29c                	sw	a5,0(a3)
    2fd0:	419c                	lw	a5,0(a1)
    2fd2:	57dc                	lw	a5,44(a5)
    2fd4:	f2f86ce3          	bltu	a6,a5,2f0c <xTaskIncrementTick+0xca>
    2fd8:	4505                	li	a0,1
    2fda:	bf0d                	j	2f0c <xTaskIncrementTick+0xca>
    2fdc:	200007b7          	lui	a5,0x20000
    2fe0:	17878793          	addi	a5,a5,376 # 20000178 <xPendedTicks>
    2fe4:	4398                	lw	a4,0(a5)
    2fe6:	4501                	li	a0,0
    2fe8:	0705                	addi	a4,a4,1
    2fea:	c398                	sw	a4,0(a5)
    2fec:	8082                	ret

00002fee <xTaskResumeAll>:
    2fee:	d0efd2ef          	jal	t0,4fc <__riscv_save_4>
    2ff2:	20000437          	lui	s0,0x20000
    2ff6:	16040413          	addi	s0,s0,352 # 20000160 <uxSchedulerSuspended>
    2ffa:	401c                	lw	a5,0(s0)
    2ffc:	1141                	addi	sp,sp,-16
    2ffe:	e785                	bnez	a5,3026 <xTaskResumeAll+0x38>
    3000:	67a1                	lui	a5,0x8
    3002:	80078793          	addi	a5,a5,-2048 # 7800 <test+0x2e4>
    3006:	30079073          	csrw	mstatus,a5
    300a:	00007637          	lui	a2,0x7
    300e:	6585                	lui	a1,0x1
    3010:	00007537          	lui	a0,0x7
    3014:	75460613          	addi	a2,a2,1876 # 7754 <test+0x238>
    3018:	8b358593          	addi	a1,a1,-1869 # 8b3 <SystemCoreClockUpdate+0xad>
    301c:	6f450513          	addi	a0,a0,1780 # 76f4 <test+0x1d8>
    3020:	1ec030ef          	jal	ra,620c <iprintf>
    3024:	a001                	j	3024 <xTaskResumeAll+0x36>
    3026:	d80ff0ef          	jal	ra,25a6 <vPortEnterCritical>
    302a:	401c                	lw	a5,0(s0)
    302c:	17fd                	addi	a5,a5,-1
    302e:	c01c                	sw	a5,0(s0)
    3030:	401c                	lw	a5,0(s0)
    3032:	cb89                	beqz	a5,3044 <xTaskResumeAll+0x56>
    3034:	4501                	li	a0,0
    3036:	c62a                	sw	a0,12(sp)
    3038:	d84ff0ef          	jal	ra,25bc <vPortExitCritical>
    303c:	4532                	lw	a0,12(sp)
    303e:	0141                	addi	sp,sp,16
    3040:	cf0fd06f          	j	530 <__riscv_restore_4>
    3044:	200007b7          	lui	a5,0x20000
    3048:	1587a783          	lw	a5,344(a5) # 20000158 <uxCurrentNumberOfTasks>
    304c:	d7e5                	beqz	a5,3034 <xTaskResumeAll+0x46>
    304e:	200036b7          	lui	a3,0x20003
    3052:	20003537          	lui	a0,0x20003
    3056:	4781                	li	a5,0
    3058:	72868693          	addi	a3,a3,1832 # 20003728 <xPendingReadyList>
    305c:	20000f37          	lui	t5,0x20000
    3060:	5d450513          	addi	a0,a0,1492 # 200035d4 <pxReadyTasksLists>
    3064:	48d1                	li	a7,20
    3066:	20000337          	lui	t1,0x20000
    306a:	20000e37          	lui	t3,0x20000
    306e:	4e85                	li	t4,1
    3070:	a859                	j	3106 <xTaskResumeAll+0x118>
    3072:	46dc                	lw	a5,12(a3)
    3074:	47dc                	lw	a5,12(a5)
    3076:	4fcc                	lw	a1,28(a5)
    3078:	5390                	lw	a2,32(a5)
    307a:	5798                	lw	a4,40(a5)
    307c:	c590                	sw	a2,8(a1)
    307e:	0207a803          	lw	a6,32(a5)
    3082:	00b82223          	sw	a1,4(a6)
    3086:	00472803          	lw	a6,4(a4)
    308a:	01878593          	addi	a1,a5,24
    308e:	00b81363          	bne	a6,a1,3094 <xTaskResumeAll+0xa6>
    3092:	c350                	sw	a2,4(a4)
    3094:	4310                	lw	a2,0(a4)
    3096:	0207a423          	sw	zero,40(a5)
    309a:	167d                	addi	a2,a2,-1
    309c:	c310                	sw	a2,0(a4)
    309e:	478c                	lw	a1,8(a5)
    30a0:	47d0                	lw	a2,12(a5)
    30a2:	4bd8                	lw	a4,20(a5)
    30a4:	00478813          	addi	a6,a5,4
    30a8:	c590                	sw	a2,8(a1)
    30aa:	c24c                	sw	a1,4(a2)
    30ac:	434c                	lw	a1,4(a4)
    30ae:	01059363          	bne	a1,a6,30b4 <xTaskResumeAll+0xc6>
    30b2:	c350                	sw	a2,4(a4)
    30b4:	4310                	lw	a2,0(a4)
    30b6:	0007aa23          	sw	zero,20(a5)
    30ba:	167d                	addi	a2,a2,-1
    30bc:	c310                	sw	a2,0(a4)
    30be:	168f0713          	addi	a4,t5,360 # 20000168 <uxTopReadyPriority>
    30c2:	57d0                	lw	a2,44(a5)
    30c4:	430c                	lw	a1,0(a4)
    30c6:	00c5f363          	bgeu	a1,a2,30cc <xTaskResumeAll+0xde>
    30ca:	c310                	sw	a2,0(a4)
    30cc:	03160733          	mul	a4,a2,a7
    30d0:	972a                	add	a4,a4,a0
    30d2:	434c                	lw	a1,4(a4)
    30d4:	0085af83          	lw	t6,8(a1)
    30d8:	c78c                	sw	a1,8(a5)
    30da:	01f7a623          	sw	t6,12(a5)
    30de:	0085af83          	lw	t6,8(a1)
    30e2:	010fa223          	sw	a6,4(t6)
    30e6:	0105a423          	sw	a6,8(a1)
    30ea:	430c                	lw	a1,0(a4)
    30ec:	cbd8                	sw	a4,20(a5)
    30ee:	0585                	addi	a1,a1,1
    30f0:	c30c                	sw	a1,0(a4)
    30f2:	14c30713          	addi	a4,t1,332 # 2000014c <pxCurrentTCB>
    30f6:	4318                	lw	a4,0(a4)
    30f8:	5758                	lw	a4,44(a4)
    30fa:	00e66663          	bltu	a2,a4,3106 <xTaskResumeAll+0x118>
    30fe:	184e0713          	addi	a4,t3,388 # 20000184 <xYieldPending>
    3102:	01d72023          	sw	t4,0(a4)
    3106:	4298                	lw	a4,0(a3)
    3108:	f72d                	bnez	a4,3072 <xTaskResumeAll+0x84>
    310a:	c399                	beqz	a5,3110 <xTaskResumeAll+0x122>
    310c:	96bff0ef          	jal	ra,2a76 <prvResetNextTaskUnblockTime>
    3110:	200007b7          	lui	a5,0x20000
    3114:	17878713          	addi	a4,a5,376 # 20000178 <xPendedTicks>
    3118:	4304                	lw	s1,0(a4)
    311a:	17878413          	addi	s0,a5,376
    311e:	cc99                	beqz	s1,313c <xTaskResumeAll+0x14e>
    3120:	20000937          	lui	s2,0x20000
    3124:	4985                	li	s3,1
    3126:	d1dff0ef          	jal	ra,2e42 <xTaskIncrementTick>
    312a:	c509                	beqz	a0,3134 <xTaskResumeAll+0x146>
    312c:	18490793          	addi	a5,s2,388 # 20000184 <xYieldPending>
    3130:	0137a023          	sw	s3,0(a5)
    3134:	14fd                	addi	s1,s1,-1
    3136:	f8e5                	bnez	s1,3126 <xTaskResumeAll+0x138>
    3138:	00042023          	sw	zero,0(s0)
    313c:	200007b7          	lui	a5,0x20000
    3140:	1847a783          	lw	a5,388(a5) # 20000184 <xYieldPending>
    3144:	ee0788e3          	beqz	a5,3034 <xTaskResumeAll+0x46>
    3148:	e000e7b7          	lui	a5,0xe000e
    314c:	6711                	lui	a4,0x4
    314e:	20e7a023          	sw	a4,512(a5) # e000e200 <__freertos_irq_stack_top+0xc0006200>
    3152:	4505                	li	a0,1
    3154:	b5cd                	j	3036 <xTaskResumeAll+0x48>

00003156 <vTaskDelay>:
    3156:	e519                	bnez	a0,3164 <vTaskDelay+0xe>
    3158:	e000e7b7          	lui	a5,0xe000e
    315c:	6711                	lui	a4,0x4
    315e:	20e7a023          	sw	a4,512(a5) # e000e200 <__freertos_irq_stack_top+0xc0006200>
    3162:	8082                	ret
    3164:	bb2fd2ef          	jal	t0,516 <__riscv_save_0>
    3168:	200007b7          	lui	a5,0x20000
    316c:	1607a783          	lw	a5,352(a5) # 20000160 <uxSchedulerSuspended>
    3170:	1141                	addi	sp,sp,-16
    3172:	c39d                	beqz	a5,3198 <vTaskDelay+0x42>
    3174:	67a1                	lui	a5,0x8
    3176:	80078793          	addi	a5,a5,-2048 # 7800 <test+0x2e4>
    317a:	30079073          	csrw	mstatus,a5
    317e:	00007637          	lui	a2,0x7
    3182:	00007537          	lui	a0,0x7
    3186:	75460613          	addi	a2,a2,1876 # 7754 <test+0x238>
    318a:	54900593          	li	a1,1353
    318e:	6f450513          	addi	a0,a0,1780 # 76f4 <test+0x1d8>
    3192:	07a030ef          	jal	ra,620c <iprintf>
    3196:	a001                	j	3196 <vTaskDelay+0x40>
    3198:	c62a                	sw	a0,12(sp)
    319a:	c8fff0ef          	jal	ra,2e28 <vTaskSuspendAll>
    319e:	4532                	lw	a0,12(sp)
    31a0:	4581                	li	a1,0
    31a2:	8f9ff0ef          	jal	ra,2a9a <prvAddCurrentTaskToDelayedList>
    31a6:	e49ff0ef          	jal	ra,2fee <xTaskResumeAll>
    31aa:	e511                	bnez	a0,31b6 <vTaskDelay+0x60>
    31ac:	e000e7b7          	lui	a5,0xe000e
    31b0:	6711                	lui	a4,0x4
    31b2:	20e7a023          	sw	a4,512(a5) # e000e200 <__freertos_irq_stack_top+0xc0006200>
    31b6:	0141                	addi	sp,sp,16
    31b8:	b82fd06f          	j	53a <__riscv_restore_0>

000031bc <vTaskSwitchContext>:
    31bc:	200007b7          	lui	a5,0x20000
    31c0:	1607a703          	lw	a4,352(a5) # 20000160 <uxSchedulerSuspended>
    31c4:	200007b7          	lui	a5,0x20000
    31c8:	18478793          	addi	a5,a5,388 # 20000184 <xYieldPending>
    31cc:	c701                	beqz	a4,31d4 <vTaskSwitchContext+0x18>
    31ce:	4705                	li	a4,1
    31d0:	c398                	sw	a4,0(a5)
    31d2:	8082                	ret
    31d4:	0007a023          	sw	zero,0(a5)
    31d8:	200007b7          	lui	a5,0x20000
    31dc:	16878713          	addi	a4,a5,360 # 20000168 <uxTopReadyPriority>
    31e0:	4318                	lw	a4,0(a4)
    31e2:	16878613          	addi	a2,a5,360
    31e6:	200037b7          	lui	a5,0x20003
    31ea:	5d478793          	addi	a5,a5,1492 # 200035d4 <pxReadyTasksLists>
    31ee:	4851                	li	a6,20
    31f0:	030706b3          	mul	a3,a4,a6
    31f4:	00d785b3          	add	a1,a5,a3
    31f8:	4188                	lw	a0,0(a1)
    31fa:	c515                	beqz	a0,3226 <vTaskSwitchContext+0x6a>
    31fc:	41c8                	lw	a0,4(a1)
    31fe:	06a1                	addi	a3,a3,8
    3200:	96be                	add	a3,a3,a5
    3202:	4148                	lw	a0,4(a0)
    3204:	c1c8                	sw	a0,4(a1)
    3206:	00d51463          	bne	a0,a3,320e <vTaskSwitchContext+0x52>
    320a:	4154                	lw	a3,4(a0)
    320c:	c1d4                	sw	a3,4(a1)
    320e:	46d1                	li	a3,20
    3210:	02d706b3          	mul	a3,a4,a3
    3214:	97b6                	add	a5,a5,a3
    3216:	43dc                	lw	a5,4(a5)
    3218:	47d4                	lw	a3,12(a5)
    321a:	200007b7          	lui	a5,0x20000
    321e:	14d7a623          	sw	a3,332(a5) # 2000014c <pxCurrentTCB>
    3222:	c218                	sw	a4,0(a2)
    3224:	8082                	ret
    3226:	e715                	bnez	a4,3252 <vTaskSwitchContext+0x96>
    3228:	aeefd2ef          	jal	t0,516 <__riscv_save_0>
    322c:	67a1                	lui	a5,0x8
    322e:	80078793          	addi	a5,a5,-2048 # 7800 <test+0x2e4>
    3232:	30079073          	csrw	mstatus,a5
    3236:	00007637          	lui	a2,0x7
    323a:	6585                	lui	a1,0x1
    323c:	00007537          	lui	a0,0x7
    3240:	75460613          	addi	a2,a2,1876 # 7754 <test+0x238>
    3244:	c0258593          	addi	a1,a1,-1022 # c02 <RCC_GetClocksFreq+0xaa>
    3248:	6f450513          	addi	a0,a0,1780 # 76f4 <test+0x1d8>
    324c:	7c1020ef          	jal	ra,620c <iprintf>
    3250:	a001                	j	3250 <vTaskSwitchContext+0x94>
    3252:	177d                	addi	a4,a4,-1
    3254:	bf71                	j	31f0 <vTaskSwitchContext+0x34>

00003256 <vTaskPlaceOnEventList>:
    3256:	ac0fd2ef          	jal	t0,516 <__riscv_save_0>
    325a:	e505                	bnez	a0,3282 <vTaskPlaceOnEventList+0x2c>
    325c:	67a1                	lui	a5,0x8
    325e:	80078793          	addi	a5,a5,-2048 # 7800 <test+0x2e4>
    3262:	30079073          	csrw	mstatus,a5
    3266:	00007637          	lui	a2,0x7
    326a:	6585                	lui	a1,0x1
    326c:	00007537          	lui	a0,0x7
    3270:	75460613          	addi	a2,a2,1876 # 7754 <test+0x238>
    3274:	c1c58593          	addi	a1,a1,-996 # c1c <RCC_GetClocksFreq+0xc4>
    3278:	6f450513          	addi	a0,a0,1780 # 76f4 <test+0x1d8>
    327c:	791020ef          	jal	ra,620c <iprintf>
    3280:	a001                	j	3280 <vTaskPlaceOnEventList+0x2a>
    3282:	200007b7          	lui	a5,0x20000
    3286:	842e                	mv	s0,a1
    3288:	14c7a583          	lw	a1,332(a5) # 2000014c <pxCurrentTCB>
    328c:	05e1                	addi	a1,a1,24
    328e:	b8aff0ef          	jal	ra,2618 <vListInsert>
    3292:	4585                	li	a1,1
    3294:	8522                	mv	a0,s0
    3296:	805ff0ef          	jal	ra,2a9a <prvAddCurrentTaskToDelayedList>
    329a:	aa0fd06f          	j	53a <__riscv_restore_0>

0000329e <vTaskPlaceOnEventListRestricted>:
    329e:	a78fd2ef          	jal	t0,516 <__riscv_save_0>
    32a2:	872a                	mv	a4,a0
    32a4:	e505                	bnez	a0,32cc <vTaskPlaceOnEventListRestricted+0x2e>
    32a6:	67a1                	lui	a5,0x8
    32a8:	80078793          	addi	a5,a5,-2048 # 7800 <test+0x2e4>
    32ac:	30079073          	csrw	mstatus,a5
    32b0:	00007637          	lui	a2,0x7
    32b4:	6585                	lui	a1,0x1
    32b6:	00007537          	lui	a0,0x7
    32ba:	75460613          	addi	a2,a2,1876 # 7754 <test+0x238>
    32be:	c5258593          	addi	a1,a1,-942 # c52 <RCC_GetClocksFreq+0xfa>
    32c2:	6f450513          	addi	a0,a0,1780 # 76f4 <test+0x1d8>
    32c6:	747020ef          	jal	ra,620c <iprintf>
    32ca:	a001                	j	32ca <vTaskPlaceOnEventListRestricted+0x2c>
    32cc:	200007b7          	lui	a5,0x20000
    32d0:	14c78793          	addi	a5,a5,332 # 2000014c <pxCurrentTCB>
    32d4:	4354                	lw	a3,4(a4)
    32d6:	852e                	mv	a0,a1
    32d8:	438c                	lw	a1,0(a5)
    32da:	0086a803          	lw	a6,8(a3)
    32de:	cdd4                	sw	a3,28(a1)
    32e0:	438c                	lw	a1,0(a5)
    32e2:	0305a023          	sw	a6,32(a1)
    32e6:	0007a803          	lw	a6,0(a5)
    32ea:	468c                	lw	a1,8(a3)
    32ec:	0861                	addi	a6,a6,24
    32ee:	0105a223          	sw	a6,4(a1)
    32f2:	0007a803          	lw	a6,0(a5)
    32f6:	439c                	lw	a5,0(a5)
    32f8:	0861                	addi	a6,a6,24
    32fa:	0106a423          	sw	a6,8(a3)
    32fe:	d798                	sw	a4,40(a5)
    3300:	431c                	lw	a5,0(a4)
    3302:	0785                	addi	a5,a5,1
    3304:	c31c                	sw	a5,0(a4)
    3306:	c211                	beqz	a2,330a <vTaskPlaceOnEventListRestricted+0x6c>
    3308:	557d                	li	a0,-1
    330a:	85b2                	mv	a1,a2
    330c:	f8eff0ef          	jal	ra,2a9a <prvAddCurrentTaskToDelayedList>
    3310:	a2afd06f          	j	53a <__riscv_restore_0>

00003314 <xTaskRemoveFromEventList>:
    3314:	455c                	lw	a5,12(a0)
    3316:	47dc                	lw	a5,12(a5)
    3318:	e795                	bnez	a5,3344 <xTaskRemoveFromEventList+0x30>
    331a:	9fcfd2ef          	jal	t0,516 <__riscv_save_0>
    331e:	67a1                	lui	a5,0x8
    3320:	80078793          	addi	a5,a5,-2048 # 7800 <test+0x2e4>
    3324:	30079073          	csrw	mstatus,a5
    3328:	00007637          	lui	a2,0x7
    332c:	6585                	lui	a1,0x1
    332e:	00007537          	lui	a0,0x7
    3332:	75460613          	addi	a2,a2,1876 # 7754 <test+0x238>
    3336:	c8258593          	addi	a1,a1,-894 # c82 <RCC_GetClocksFreq+0x12a>
    333a:	6f450513          	addi	a0,a0,1780 # 76f4 <test+0x1d8>
    333e:	6cf020ef          	jal	ra,620c <iprintf>
    3342:	a001                	j	3342 <xTaskRemoveFromEventList+0x2e>
    3344:	4fd0                	lw	a2,28(a5)
    3346:	5394                	lw	a3,32(a5)
    3348:	5798                	lw	a4,40(a5)
    334a:	01878593          	addi	a1,a5,24
    334e:	c614                	sw	a3,8(a2)
    3350:	c2d0                	sw	a2,4(a3)
    3352:	4350                	lw	a2,4(a4)
    3354:	00b61363          	bne	a2,a1,335a <xTaskRemoveFromEventList+0x46>
    3358:	c354                	sw	a3,4(a4)
    335a:	4314                	lw	a3,0(a4)
    335c:	0207a423          	sw	zero,40(a5)
    3360:	16fd                	addi	a3,a3,-1
    3362:	c314                	sw	a3,0(a4)
    3364:	20000737          	lui	a4,0x20000
    3368:	16072703          	lw	a4,352(a4) # 20000160 <uxSchedulerSuspended>
    336c:	57d4                	lw	a3,44(a5)
    336e:	ef25                	bnez	a4,33e6 <xTaskRemoveFromEventList+0xd2>
    3370:	478c                	lw	a1,8(a5)
    3372:	47d0                	lw	a2,12(a5)
    3374:	4bd8                	lw	a4,20(a5)
    3376:	c590                	sw	a2,8(a1)
    3378:	47d0                	lw	a2,12(a5)
    337a:	4348                	lw	a0,4(a4)
    337c:	c24c                	sw	a1,4(a2)
    337e:	00478593          	addi	a1,a5,4
    3382:	00b51363          	bne	a0,a1,3388 <xTaskRemoveFromEventList+0x74>
    3386:	c350                	sw	a2,4(a4)
    3388:	4310                	lw	a2,0(a4)
    338a:	0007aa23          	sw	zero,20(a5)
    338e:	167d                	addi	a2,a2,-1
    3390:	c310                	sw	a2,0(a4)
    3392:	20000737          	lui	a4,0x20000
    3396:	16870713          	addi	a4,a4,360 # 20000168 <uxTopReadyPriority>
    339a:	4310                	lw	a2,0(a4)
    339c:	00d67363          	bgeu	a2,a3,33a2 <xTaskRemoveFromEventList+0x8e>
    33a0:	c314                	sw	a3,0(a4)
    33a2:	4751                	li	a4,20
    33a4:	02e68633          	mul	a2,a3,a4
    33a8:	20003737          	lui	a4,0x20003
    33ac:	5d470713          	addi	a4,a4,1492 # 200035d4 <pxReadyTasksLists>
    33b0:	9732                	add	a4,a4,a2
    33b2:	4350                	lw	a2,4(a4)
    33b4:	4608                	lw	a0,8(a2)
    33b6:	c790                	sw	a2,8(a5)
    33b8:	c7c8                	sw	a0,12(a5)
    33ba:	4608                	lw	a0,8(a2)
    33bc:	c14c                	sw	a1,4(a0)
    33be:	c60c                	sw	a1,8(a2)
    33c0:	cbd8                	sw	a4,20(a5)
    33c2:	431c                	lw	a5,0(a4)
    33c4:	4501                	li	a0,0
    33c6:	0785                	addi	a5,a5,1
    33c8:	c31c                	sw	a5,0(a4)
    33ca:	200007b7          	lui	a5,0x20000
    33ce:	14c7a783          	lw	a5,332(a5) # 2000014c <pxCurrentTCB>
    33d2:	57dc                	lw	a5,44(a5)
    33d4:	00d7f863          	bgeu	a5,a3,33e4 <xTaskRemoveFromEventList+0xd0>
    33d8:	200007b7          	lui	a5,0x20000
    33dc:	4705                	li	a4,1
    33de:	18e7a223          	sw	a4,388(a5) # 20000184 <xYieldPending>
    33e2:	4505                	li	a0,1
    33e4:	8082                	ret
    33e6:	20003737          	lui	a4,0x20003
    33ea:	72870713          	addi	a4,a4,1832 # 20003728 <xPendingReadyList>
    33ee:	4350                	lw	a2,4(a4)
    33f0:	4608                	lw	a0,8(a2)
    33f2:	cfd0                	sw	a2,28(a5)
    33f4:	d388                	sw	a0,32(a5)
    33f6:	4608                	lw	a0,8(a2)
    33f8:	c14c                	sw	a1,4(a0)
    33fa:	c60c                	sw	a1,8(a2)
    33fc:	d798                	sw	a4,40(a5)
    33fe:	b7d1                	j	33c2 <xTaskRemoveFromEventList+0xae>

00003400 <vTaskInternalSetTimeOutState>:
    3400:	200007b7          	lui	a5,0x20000
    3404:	1747a783          	lw	a5,372(a5) # 20000174 <xNumOfOverflows>
    3408:	c11c                	sw	a5,0(a0)
    340a:	200007b7          	lui	a5,0x20000
    340e:	1807a783          	lw	a5,384(a5) # 20000180 <xTickCount>
    3412:	c15c                	sw	a5,4(a0)
    3414:	8082                	ret

00003416 <xTaskCheckForTimeOut>:
    3416:	900fd2ef          	jal	t0,516 <__riscv_save_0>
    341a:	1141                	addi	sp,sp,-16
    341c:	e505                	bnez	a0,3444 <xTaskCheckForTimeOut+0x2e>
    341e:	67a1                	lui	a5,0x8
    3420:	80078793          	addi	a5,a5,-2048 # 7800 <test+0x2e4>
    3424:	30079073          	csrw	mstatus,a5
    3428:	00007637          	lui	a2,0x7
    342c:	6585                	lui	a1,0x1
    342e:	00007537          	lui	a0,0x7
    3432:	75460613          	addi	a2,a2,1876 # 7754 <test+0x238>
    3436:	cfd58593          	addi	a1,a1,-771 # cfd <TIM_SetCompare4+0x5>
    343a:	6f450513          	addi	a0,a0,1780 # 76f4 <test+0x1d8>
    343e:	5cf020ef          	jal	ra,620c <iprintf>
    3442:	a001                	j	3442 <xTaskCheckForTimeOut+0x2c>
    3444:	e585                	bnez	a1,346c <xTaskCheckForTimeOut+0x56>
    3446:	67a1                	lui	a5,0x8
    3448:	80078793          	addi	a5,a5,-2048 # 7800 <test+0x2e4>
    344c:	30079073          	csrw	mstatus,a5
    3450:	00007637          	lui	a2,0x7
    3454:	6585                	lui	a1,0x1
    3456:	00007537          	lui	a0,0x7
    345a:	75460613          	addi	a2,a2,1876 # 7754 <test+0x238>
    345e:	cfe58593          	addi	a1,a1,-770 # cfe <TIM_GetCapture1>
    3462:	6f450513          	addi	a0,a0,1780 # 76f4 <test+0x1d8>
    3466:	5a7020ef          	jal	ra,620c <iprintf>
    346a:	a001                	j	346a <xTaskCheckForTimeOut+0x54>
    346c:	c62e                	sw	a1,12(sp)
    346e:	c42a                	sw	a0,8(sp)
    3470:	936ff0ef          	jal	ra,25a6 <vPortEnterCritical>
    3474:	20000737          	lui	a4,0x20000
    3478:	200007b7          	lui	a5,0x20000
    347c:	14c70713          	addi	a4,a4,332 # 2000014c <pxCurrentTCB>
    3480:	1807a683          	lw	a3,384(a5) # 20000180 <xTickCount>
    3484:	431c                	lw	a5,0(a4)
    3486:	4522                	lw	a0,8(sp)
    3488:	45b2                	lw	a1,12(sp)
    348a:	0517c783          	lbu	a5,81(a5)
    348e:	cb99                	beqz	a5,34a4 <xTaskCheckForTimeOut+0x8e>
    3490:	431c                	lw	a5,0(a4)
    3492:	040788a3          	sb	zero,81(a5)
    3496:	4405                	li	s0,1
    3498:	924ff0ef          	jal	ra,25bc <vPortExitCritical>
    349c:	8522                	mv	a0,s0
    349e:	0141                	addi	sp,sp,16
    34a0:	89afd06f          	j	53a <__riscv_restore_0>
    34a4:	419c                	lw	a5,0(a1)
    34a6:	577d                	li	a4,-1
    34a8:	4401                	li	s0,0
    34aa:	fee787e3          	beq	a5,a4,3498 <xTaskCheckForTimeOut+0x82>
    34ae:	20000637          	lui	a2,0x20000
    34b2:	17462603          	lw	a2,372(a2) # 20000174 <xNumOfOverflows>
    34b6:	00052803          	lw	a6,0(a0)
    34ba:	4158                	lw	a4,4(a0)
    34bc:	00c80763          	beq	a6,a2,34ca <xTaskCheckForTimeOut+0xb4>
    34c0:	00e6e563          	bltu	a3,a4,34ca <xTaskCheckForTimeOut+0xb4>
    34c4:	0005a023          	sw	zero,0(a1)
    34c8:	b7f9                	j	3496 <xTaskCheckForTimeOut+0x80>
    34ca:	40e68633          	sub	a2,a3,a4
    34ce:	fef67be3          	bgeu	a2,a5,34c4 <xTaskCheckForTimeOut+0xae>
    34d2:	8f95                	sub	a5,a5,a3
    34d4:	97ba                	add	a5,a5,a4
    34d6:	c19c                	sw	a5,0(a1)
    34d8:	f29ff0ef          	jal	ra,3400 <vTaskInternalSetTimeOutState>
    34dc:	4401                	li	s0,0
    34de:	bf6d                	j	3498 <xTaskCheckForTimeOut+0x82>

000034e0 <vTaskMissedYield>:
    34e0:	200007b7          	lui	a5,0x20000
    34e4:	4705                	li	a4,1
    34e6:	18e7a223          	sw	a4,388(a5) # 20000184 <xYieldPending>
    34ea:	8082                	ret

000034ec <xTaskGetSchedulerState>:
    34ec:	200007b7          	lui	a5,0x20000
    34f0:	17c7a783          	lw	a5,380(a5) # 2000017c <xSchedulerRunning>
    34f4:	4505                	li	a0,1
    34f6:	cb81                	beqz	a5,3506 <xTaskGetSchedulerState+0x1a>
    34f8:	200007b7          	lui	a5,0x20000
    34fc:	1607a503          	lw	a0,352(a5) # 20000160 <uxSchedulerSuspended>
    3500:	00153513          	seqz	a0,a0
    3504:	0506                	slli	a0,a0,0x1
    3506:	8082                	ret

00003508 <prvCheckForValidListAndQueue>:
    3508:	80efd2ef          	jal	t0,516 <__riscv_save_0>
    350c:	20000437          	lui	s0,0x20000
    3510:	896ff0ef          	jal	ra,25a6 <vPortEnterCritical>
    3514:	19440413          	addi	s0,s0,404 # 20000194 <xTimerQueue>
    3518:	401c                	lw	a5,0(s0)
    351a:	e7b1                	bnez	a5,3566 <prvCheckForValidListAndQueue+0x5e>
    351c:	20003537          	lui	a0,0x20003
    3520:	76450913          	addi	s2,a0,1892 # 20003764 <xActiveTimerList1>
    3524:	76450513          	addi	a0,a0,1892
    3528:	8d6ff0ef          	jal	ra,25fe <vListInitialise>
    352c:	20003537          	lui	a0,0x20003
    3530:	77850493          	addi	s1,a0,1912 # 20003778 <xActiveTimerList2>
    3534:	77850513          	addi	a0,a0,1912
    3538:	8c6ff0ef          	jal	ra,25fe <vListInitialise>
    353c:	200007b7          	lui	a5,0x20000
    3540:	1927a423          	sw	s2,392(a5) # 20000188 <pxCurrentTimerList>
    3544:	4601                	li	a2,0
    3546:	200007b7          	lui	a5,0x20000
    354a:	45c1                	li	a1,16
    354c:	4511                	li	a0,4
    354e:	1897a623          	sw	s1,396(a5) # 2000018c <pxOverflowTimerList>
    3552:	a90ff0ef          	jal	ra,27e2 <xQueueGenericCreate>
    3556:	c008                	sw	a0,0(s0)
    3558:	c519                	beqz	a0,3566 <prvCheckForValidListAndQueue+0x5e>
    355a:	000075b7          	lui	a1,0x7
    355e:	79458593          	addi	a1,a1,1940 # 7794 <test+0x278>
    3562:	c4cff0ef          	jal	ra,29ae <vQueueAddToRegistry>
    3566:	856ff0ef          	jal	ra,25bc <vPortExitCritical>
    356a:	fd1fc06f          	j	53a <__riscv_restore_0>

0000356e <prvInsertTimerInActiveList>:
    356e:	fa9fc2ef          	jal	t0,516 <__riscv_save_0>
    3572:	c14c                	sw	a1,4(a0)
    3574:	c908                	sw	a0,16(a0)
    3576:	87aa                	mv	a5,a0
    3578:	02b66263          	bltu	a2,a1,359c <prvInsertTimerInActiveList+0x2e>
    357c:	4d18                	lw	a4,24(a0)
    357e:	8e15                	sub	a2,a2,a3
    3580:	4505                	li	a0,1
    3582:	00e67b63          	bgeu	a2,a4,3598 <prvInsertTimerInActiveList+0x2a>
    3586:	00478593          	addi	a1,a5,4
    358a:	200007b7          	lui	a5,0x20000
    358e:	18c7a503          	lw	a0,396(a5) # 2000018c <pxOverflowTimerList>
    3592:	886ff0ef          	jal	ra,2618 <vListInsert>
    3596:	4501                	li	a0,0
    3598:	fa3fc06f          	j	53a <__riscv_restore_0>
    359c:	00d67563          	bgeu	a2,a3,35a6 <prvInsertTimerInActiveList+0x38>
    35a0:	4505                	li	a0,1
    35a2:	fed5fbe3          	bgeu	a1,a3,3598 <prvInsertTimerInActiveList+0x2a>
    35a6:	00478593          	addi	a1,a5,4
    35aa:	200007b7          	lui	a5,0x20000
    35ae:	1887a503          	lw	a0,392(a5) # 20000188 <pxCurrentTimerList>
    35b2:	b7c5                	j	3592 <prvInsertTimerInActiveList+0x24>

000035b4 <prvReloadTimer>:
    35b4:	f63fc2ef          	jal	t0,516 <__riscv_save_0>
    35b8:	842a                	mv	s0,a0
    35ba:	84ae                	mv	s1,a1
    35bc:	8932                	mv	s2,a2
    35be:	4c0c                	lw	a1,24(s0)
    35c0:	86a6                	mv	a3,s1
    35c2:	864a                	mv	a2,s2
    35c4:	95a6                	add	a1,a1,s1
    35c6:	8522                	mv	a0,s0
    35c8:	fa7ff0ef          	jal	ra,356e <prvInsertTimerInActiveList>
    35cc:	e119                	bnez	a0,35d2 <prvReloadTimer+0x1e>
    35ce:	f6dfc06f          	j	53a <__riscv_restore_0>
    35d2:	4c1c                	lw	a5,24(s0)
    35d4:	8522                	mv	a0,s0
    35d6:	94be                	add	s1,s1,a5
    35d8:	501c                	lw	a5,32(s0)
    35da:	9782                	jalr	a5
    35dc:	b7cd                	j	35be <prvReloadTimer+0xa>

000035de <prvProcessExpiredTimer>:
    35de:	f39fc2ef          	jal	t0,516 <__riscv_save_0>
    35e2:	200007b7          	lui	a5,0x20000
    35e6:	1887a783          	lw	a5,392(a5) # 20000188 <pxCurrentTimerList>
    35ea:	1141                	addi	sp,sp,-16
    35ec:	84aa                	mv	s1,a0
    35ee:	47dc                	lw	a5,12(a5)
    35f0:	c62e                	sw	a1,12(sp)
    35f2:	47c0                	lw	s0,12(a5)
    35f4:	00440513          	addi	a0,s0,4
    35f8:	84eff0ef          	jal	ra,2646 <uxListRemove>
    35fc:	02444783          	lbu	a5,36(s0)
    3600:	4632                	lw	a2,12(sp)
    3602:	0047f713          	andi	a4,a5,4
    3606:	cb19                	beqz	a4,361c <prvProcessExpiredTimer+0x3e>
    3608:	85a6                	mv	a1,s1
    360a:	8522                	mv	a0,s0
    360c:	fa9ff0ef          	jal	ra,35b4 <prvReloadTimer>
    3610:	501c                	lw	a5,32(s0)
    3612:	8522                	mv	a0,s0
    3614:	9782                	jalr	a5
    3616:	0141                	addi	sp,sp,16
    3618:	f23fc06f          	j	53a <__riscv_restore_0>
    361c:	9bf9                	andi	a5,a5,-2
    361e:	02f40223          	sb	a5,36(s0)
    3622:	b7fd                	j	3610 <prvProcessExpiredTimer+0x32>

00003624 <prvSwitchTimerLists>:
    3624:	ef3fc2ef          	jal	t0,516 <__riscv_save_0>
    3628:	20000437          	lui	s0,0x20000
    362c:	18840693          	addi	a3,s0,392 # 20000188 <pxCurrentTimerList>
    3630:	4298                	lw	a4,0(a3)
    3632:	431c                	lw	a5,0(a4)
    3634:	eb91                	bnez	a5,3648 <prvSwitchTimerLists+0x24>
    3636:	200007b7          	lui	a5,0x20000
    363a:	18c78793          	addi	a5,a5,396 # 2000018c <pxOverflowTimerList>
    363e:	4390                	lw	a2,0(a5)
    3640:	c398                	sw	a4,0(a5)
    3642:	c290                	sw	a2,0(a3)
    3644:	ef7fc06f          	j	53a <__riscv_restore_0>
    3648:	475c                	lw	a5,12(a4)
    364a:	55fd                	li	a1,-1
    364c:	4388                	lw	a0,0(a5)
    364e:	f91ff0ef          	jal	ra,35de <prvProcessExpiredTimer>
    3652:	bfe9                	j	362c <prvSwitchTimerLists+0x8>

00003654 <prvTimerTask>:
    3654:	e9bfc2ef          	jal	t0,4ee <__riscv_save_10>
    3658:	691d                	lui	s2,0x7
    365a:	1141                	addi	sp,sp,-16
    365c:	20000ab7          	lui	s5,0x20000
    3660:	200009b7          	lui	s3,0x20000
    3664:	20000b37          	lui	s6,0x20000
    3668:	20000bb7          	lui	s7,0x20000
    366c:	77090913          	addi	s2,s2,1904 # 7770 <test+0x254>
    3670:	188aa783          	lw	a5,392(s5) # 20000188 <pxCurrentTimerList>
    3674:	4398                	lw	a4,0(a5)
    3676:	cb29                	beqz	a4,36c8 <prvTimerTask+0x74>
    3678:	47dc                	lw	a5,12(a5)
    367a:	4c81                	li	s9,0
    367c:	0007ac03          	lw	s8,0(a5)
    3680:	fa8ff0ef          	jal	ra,2e28 <vTaskSuspendAll>
    3684:	fb4ff0ef          	jal	ra,2e38 <xTaskGetTickCount>
    3688:	1909a783          	lw	a5,400(s3) # 20000190 <xLastTime.6314>
    368c:	842a                	mv	s0,a0
    368e:	19098493          	addi	s1,s3,400
    3692:	194b0a13          	addi	s4,s6,404 # 20000194 <xTimerQueue>
    3696:	02f56c63          	bltu	a0,a5,36ce <prvTimerTask+0x7a>
    369a:	c088                	sw	a0,0(s1)
    369c:	040c8063          	beqz	s9,36dc <prvTimerTask+0x88>
    36a0:	18cba783          	lw	a5,396(s7) # 2000018c <pxOverflowTimerList>
    36a4:	4390                	lw	a2,0(a5)
    36a6:	00163613          	seqz	a2,a2
    36aa:	000a2503          	lw	a0,0(s4)
    36ae:	408c05b3          	sub	a1,s8,s0
    36b2:	b68ff0ef          	jal	ra,2a1a <vQueueWaitForMessageRestricted>
    36b6:	939ff0ef          	jal	ra,2fee <xTaskResumeAll>
    36ba:	ed19                	bnez	a0,36d8 <prvTimerTask+0x84>
    36bc:	e000e7b7          	lui	a5,0xe000e
    36c0:	6711                	lui	a4,0x4
    36c2:	20e7a023          	sw	a4,512(a5) # e000e200 <__freertos_irq_stack_top+0xc0006200>
    36c6:	a809                	j	36d8 <prvTimerTask+0x84>
    36c8:	4c85                	li	s9,1
    36ca:	4c01                	li	s8,0
    36cc:	bf55                	j	3680 <prvTimerTask+0x2c>
    36ce:	f57ff0ef          	jal	ra,3624 <prvSwitchTimerLists>
    36d2:	c080                	sw	s0,0(s1)
    36d4:	91bff0ef          	jal	ra,2fee <xTaskResumeAll>
    36d8:	4c21                	li	s8,8
    36da:	a00d                	j	36fc <prvTimerTask+0xa8>
    36dc:	4601                	li	a2,0
    36de:	fd8566e3          	bltu	a0,s8,36aa <prvTimerTask+0x56>
    36e2:	90dff0ef          	jal	ra,2fee <xTaskResumeAll>
    36e6:	85a2                	mv	a1,s0
    36e8:	8562                	mv	a0,s8
    36ea:	ef5ff0ef          	jal	ra,35de <prvProcessExpiredTimer>
    36ee:	b7ed                	j	36d8 <prvTimerTask+0x84>
    36f0:	4792                	lw	a5,4(sp)
    36f2:	45b2                	lw	a1,12(sp)
    36f4:	9782                	jalr	a5
    36f6:	4782                	lw	a5,0(sp)
    36f8:	0007dd63          	bgez	a5,3712 <prvTimerTask+0xbe>
    36fc:	000a2503          	lw	a0,0(s4)
    3700:	4601                	li	a2,0
    3702:	858a                	mv	a1,sp
    3704:	94cff0ef          	jal	ra,2850 <xQueueReceive>
    3708:	d525                	beqz	a0,3670 <prvTimerTask+0x1c>
    370a:	4782                	lw	a5,0(sp)
    370c:	4522                	lw	a0,8(sp)
    370e:	fe07c1e3          	bltz	a5,36f0 <prvTimerTask+0x9c>
    3712:	4422                	lw	s0,8(sp)
    3714:	485c                	lw	a5,20(s0)
    3716:	e39d                	bnez	a5,373c <prvTimerTask+0xe8>
    3718:	f20ff0ef          	jal	ra,2e38 <xTaskGetTickCount>
    371c:	409c                	lw	a5,0(s1)
    371e:	8caa                	mv	s9,a0
    3720:	00f57463          	bgeu	a0,a5,3728 <prvTimerTask+0xd4>
    3724:	f01ff0ef          	jal	ra,3624 <prvSwitchTimerLists>
    3728:	4782                	lw	a5,0(sp)
    372a:	0194a023          	sw	s9,0(s1)
    372e:	17fd                	addi	a5,a5,-1
    3730:	fcfc66e3          	bltu	s8,a5,36fc <prvTimerTask+0xa8>
    3734:	078a                	slli	a5,a5,0x2
    3736:	97ca                	add	a5,a5,s2
    3738:	439c                	lw	a5,0(a5)
    373a:	8782                	jr	a5
    373c:	00440513          	addi	a0,s0,4
    3740:	f07fe0ef          	jal	ra,2646 <uxListRemove>
    3744:	bfd1                	j	3718 <prvTimerTask+0xc4>
    3746:	02444783          	lbu	a5,36(s0)
    374a:	4c0c                	lw	a1,24(s0)
    374c:	4692                	lw	a3,4(sp)
    374e:	0017e793          	ori	a5,a5,1
    3752:	02f40223          	sb	a5,36(s0)
    3756:	8666                	mv	a2,s9
    3758:	95b6                	add	a1,a1,a3
    375a:	8522                	mv	a0,s0
    375c:	e13ff0ef          	jal	ra,356e <prvInsertTimerInActiveList>
    3760:	dd51                	beqz	a0,36fc <prvTimerTask+0xa8>
    3762:	02444783          	lbu	a5,36(s0)
    3766:	0047f713          	andi	a4,a5,4
    376a:	cf01                	beqz	a4,3782 <prvTimerTask+0x12e>
    376c:	4c1c                	lw	a5,24(s0)
    376e:	4592                	lw	a1,4(sp)
    3770:	8666                	mv	a2,s9
    3772:	8522                	mv	a0,s0
    3774:	95be                	add	a1,a1,a5
    3776:	e3fff0ef          	jal	ra,35b4 <prvReloadTimer>
    377a:	501c                	lw	a5,32(s0)
    377c:	8522                	mv	a0,s0
    377e:	9782                	jalr	a5
    3780:	bfb5                	j	36fc <prvTimerTask+0xa8>
    3782:	9bf9                	andi	a5,a5,-2
    3784:	02f40223          	sb	a5,36(s0)
    3788:	bfcd                	j	377a <prvTimerTask+0x126>
    378a:	02444783          	lbu	a5,36(s0)
    378e:	9bf9                	andi	a5,a5,-2
    3790:	02f40223          	sb	a5,36(s0)
    3794:	b7a5                	j	36fc <prvTimerTask+0xa8>
    3796:	02444783          	lbu	a5,36(s0)
    379a:	4592                	lw	a1,4(sp)
    379c:	0017e793          	ori	a5,a5,1
    37a0:	02f40223          	sb	a5,36(s0)
    37a4:	cc0c                	sw	a1,24(s0)
    37a6:	e19d                	bnez	a1,37cc <prvTimerTask+0x178>
    37a8:	67a1                	lui	a5,0x8
    37aa:	80078793          	addi	a5,a5,-2048 # 7800 <test+0x2e4>
    37ae:	30079073          	csrw	mstatus,a5
    37b2:	00007637          	lui	a2,0x7
    37b6:	00007537          	lui	a0,0x7
    37ba:	79c60613          	addi	a2,a2,1948 # 779c <test+0x280>
    37be:	35900593          	li	a1,857
    37c2:	6f450513          	addi	a0,a0,1780 # 76f4 <test+0x1d8>
    37c6:	247020ef          	jal	ra,620c <iprintf>
    37ca:	a001                	j	37ca <prvTimerTask+0x176>
    37cc:	86e6                	mv	a3,s9
    37ce:	8666                	mv	a2,s9
    37d0:	95e6                	add	a1,a1,s9
    37d2:	8522                	mv	a0,s0
    37d4:	d9bff0ef          	jal	ra,356e <prvInsertTimerInActiveList>
    37d8:	b715                	j	36fc <prvTimerTask+0xa8>
    37da:	02444783          	lbu	a5,36(s0)
    37de:	0027f713          	andi	a4,a5,2
    37e2:	f755                	bnez	a4,378e <prvTimerTask+0x13a>
    37e4:	8522                	mv	a0,s0
    37e6:	c15fe0ef          	jal	ra,23fa <vPortFree>
    37ea:	bf09                	j	36fc <prvTimerTask+0xa8>

000037ec <xTimerCreateTimerTask>:
    37ec:	d2bfc2ef          	jal	t0,516 <__riscv_save_0>
    37f0:	d19ff0ef          	jal	ra,3508 <prvCheckForValidListAndQueue>
    37f4:	200007b7          	lui	a5,0x20000
    37f8:	1947a783          	lw	a5,404(a5) # 20000194 <xTimerQueue>
    37fc:	e39d                	bnez	a5,3822 <xTimerCreateTimerTask+0x36>
    37fe:	67a1                	lui	a5,0x8
    3800:	80078793          	addi	a5,a5,-2048 # 7800 <test+0x2e4>
    3804:	30079073          	csrw	mstatus,a5
    3808:	00007637          	lui	a2,0x7
    380c:	00007537          	lui	a0,0x7
    3810:	79c60613          	addi	a2,a2,1948 # 779c <test+0x280>
    3814:	11900593          	li	a1,281
    3818:	6f450513          	addi	a0,a0,1780 # 76f4 <test+0x1d8>
    381c:	1f1020ef          	jal	ra,620c <iprintf>
    3820:	a001                	j	3820 <xTimerCreateTimerTask+0x34>
    3822:	200007b7          	lui	a5,0x20000
    3826:	000075b7          	lui	a1,0x7
    382a:	00003537          	lui	a0,0x3
    382e:	19878793          	addi	a5,a5,408 # 20000198 <xTimerTaskHandle>
    3832:	4739                	li	a4,14
    3834:	4681                	li	a3,0
    3836:	10000613          	li	a2,256
    383a:	7b458593          	addi	a1,a1,1972 # 77b4 <test+0x298>
    383e:	65450513          	addi	a0,a0,1620 # 3654 <prvTimerTask>
    3842:	b50ff0ef          	jal	ra,2b92 <xTaskCreate>
    3846:	dd45                	beqz	a0,37fe <xTimerCreateTimerTask+0x12>
    3848:	cf3fc06f          	j	53a <__riscv_restore_0>

0000384c <Delay_Init>:
    384c:	200007b7          	lui	a5,0x20000
    3850:	0d07a783          	lw	a5,208(a5) # 200000d0 <SystemCoreClock>
    3854:	007a1737          	lui	a4,0x7a1
    3858:	20070713          	addi	a4,a4,512 # 7a1200 <_data_lma+0x7996e4>
    385c:	02e7d7b3          	divu	a5,a5,a4
    3860:	20000737          	lui	a4,0x20000
    3864:	0ff7f793          	andi	a5,a5,255
    3868:	18f70f23          	sb	a5,414(a4) # 2000019e <p_us>
    386c:	3e800713          	li	a4,1000
    3870:	02e787b3          	mul	a5,a5,a4
    3874:	20000737          	lui	a4,0x20000
    3878:	18f71e23          	sh	a5,412(a4) # 2000019c <p_ms>
    387c:	8082                	ret

0000387e <Delay_Ms>:
    387e:	e000f7b7          	lui	a5,0xe000f
    3882:	43d8                	lw	a4,4(a5)
    3884:	4681                	li	a3,0
    3886:	9b79                	andi	a4,a4,-2
    3888:	c3d8                	sw	a4,4(a5)
    388a:	20000737          	lui	a4,0x20000
    388e:	19c75703          	lhu	a4,412(a4) # 2000019c <p_ms>
    3892:	02a70633          	mul	a2,a4,a0
    3896:	cb90                	sw	a2,16(a5)
    3898:	cbd4                	sw	a3,20(a5)
    389a:	4398                	lw	a4,0(a5)
    389c:	01076713          	ori	a4,a4,16
    38a0:	c398                	sw	a4,0(a5)
    38a2:	4398                	lw	a4,0(a5)
    38a4:	02176713          	ori	a4,a4,33
    38a8:	c398                	sw	a4,0(a5)
    38aa:	43d8                	lw	a4,4(a5)
    38ac:	8b05                	andi	a4,a4,1
    38ae:	df75                	beqz	a4,38aa <Delay_Ms+0x2c>
    38b0:	4398                	lw	a4,0(a5)
    38b2:	9b79                	andi	a4,a4,-2
    38b4:	c398                	sw	a4,0(a5)
    38b6:	8082                	ret

000038b8 <USART_Printf_Init>:
    38b8:	c5ffc2ef          	jal	t0,516 <__riscv_save_0>
    38bc:	842a                	mv	s0,a0
    38be:	6511                	lui	a0,0x4
    38c0:	1101                	addi	sp,sp,-32
    38c2:	4585                	li	a1,1
    38c4:	0511                	addi	a0,a0,4
    38c6:	c08fd0ef          	jal	ra,cce <RCC_APB2PeriphClockCmd>
    38ca:	20000793          	li	a5,512
    38ce:	827c                	sh	a5,4(sp)
    38d0:	40011537          	lui	a0,0x40011
    38d4:	478d                	li	a5,3
    38d6:	c43e                	sw	a5,8(sp)
    38d8:	004c                	addi	a1,sp,4
    38da:	47e1                	li	a5,24
    38dc:	80050513          	addi	a0,a0,-2048 # 40010800 <__freertos_irq_stack_top+0x20008800>
    38e0:	c63e                	sw	a5,12(sp)
    38e2:	8f0fd0ef          	jal	ra,9d2 <GPIO_Init>
    38e6:	c822                	sw	s0,16(sp)
    38e8:	40014437          	lui	s0,0x40014
    38ec:	000807b7          	lui	a5,0x80
    38f0:	080c                	addi	a1,sp,16
    38f2:	80040513          	addi	a0,s0,-2048 # 40013800 <__freertos_irq_stack_top+0x2000b800>
    38f6:	cc3e                	sw	a5,24(sp)
    38f8:	ca02                	sw	zero,20(sp)
    38fa:	00011e23          	sh	zero,28(sp)
    38fe:	c1efd0ef          	jal	ra,d1c <USART_Init>
    3902:	4585                	li	a1,1
    3904:	80040513          	addi	a0,s0,-2048
    3908:	ca2fd0ef          	jal	ra,daa <USART_Cmd>
    390c:	6105                	addi	sp,sp,32
    390e:	c2dfc06f          	j	53a <__riscv_restore_0>

00003912 <_write>:
    3912:	bebfc2ef          	jal	t0,4fc <__riscv_save_4>
    3916:	400144b7          	lui	s1,0x40014
    391a:	89ae                	mv	s3,a1
    391c:	8932                	mv	s2,a2
    391e:	4401                	li	s0,0
    3920:	80048493          	addi	s1,s1,-2048 # 40013800 <__freertos_irq_stack_top+0x2000b800>
    3924:	01244563          	blt	s0,s2,392e <_write+0x1c>
    3928:	854a                	mv	a0,s2
    392a:	c07fc06f          	j	530 <__riscv_restore_4>
    392e:	04000593          	li	a1,64
    3932:	8526                	mv	a0,s1
    3934:	c9cfd0ef          	jal	ra,dd0 <USART_GetFlagStatus>
    3938:	d97d                	beqz	a0,392e <_write+0x1c>
    393a:	008987b3          	add	a5,s3,s0
    393e:	00078583          	lb	a1,0(a5) # 80000 <_data_lma+0x784e4>
    3942:	8526                	mv	a0,s1
    3944:	0405                	addi	s0,s0,1
    3946:	05c2                	slli	a1,a1,0x10
    3948:	81c1                	srli	a1,a1,0x10
    394a:	c76fd0ef          	jal	ra,dc0 <USART_SendData>
    394e:	bfd9                	j	3924 <_write+0x12>

00003950 <_sbrk>:
    3950:	81c18713          	addi	a4,gp,-2020 # 200000ec <curbrk.5265>
    3954:	431c                	lw	a5,0(a4)
    3956:	200036b7          	lui	a3,0x20003
    395a:	79068693          	addi	a3,a3,1936 # 20003790 <_ebss>
    395e:	953e                	add	a0,a0,a5
    3960:	00d56b63          	bltu	a0,a3,3976 <_sbrk+0x26>
    3964:	200086b7          	lui	a3,0x20008
    3968:	80068693          	addi	a3,a3,-2048 # 20007800 <_heap_end>
    396c:	00a6e563          	bltu	a3,a0,3976 <_sbrk+0x26>
    3970:	c308                	sw	a0,0(a4)
    3972:	853e                	mv	a0,a5
    3974:	8082                	ret
    3976:	57fd                	li	a5,-1
    3978:	bfed                	j	3972 <_sbrk+0x22>

0000397a <asinf>:
    397a:	7139                	addi	sp,sp,-64
    397c:	dc22                	sw	s0,56(sp)
    397e:	da26                	sw	s1,52(sp)
    3980:	d84a                	sw	s2,48(sp)
    3982:	de06                	sw	ra,60(sp)
    3984:	82018913          	addi	s2,gp,-2016 # 200000f0 <__fdlib_version>
    3988:	842a                	mv	s0,a0
    398a:	2845                	jal	3a3a <__ieee754_asinf>
    398c:	00092703          	lw	a4,0(s2)
    3990:	57fd                	li	a5,-1
    3992:	84aa                	mv	s1,a0
    3994:	02f70363          	beq	a4,a5,39ba <asinf+0x40>
    3998:	85a2                	mv	a1,s0
    399a:	8522                	mv	a0,s0
    399c:	378020ef          	jal	ra,5d14 <__unordsf2>
    39a0:	ed09                	bnez	a0,39ba <asinf+0x40>
    39a2:	8522                	mv	a0,s0
    39a4:	10f000ef          	jal	ra,42b2 <fabsf>
    39a8:	00004797          	auipc	a5,0x4
    39ac:	b3878793          	addi	a5,a5,-1224 # 74e0 <hw+0x2c>
    39b0:	438c                	lw	a1,0(a5)
    39b2:	435010ef          	jal	ra,55e6 <__gesf2>
    39b6:	00a04963          	bgtz	a0,39c8 <asinf+0x4e>
    39ba:	50f2                	lw	ra,60(sp)
    39bc:	5462                	lw	s0,56(sp)
    39be:	8526                	mv	a0,s1
    39c0:	5942                	lw	s2,48(sp)
    39c2:	54d2                	lw	s1,52(sp)
    39c4:	6121                	addi	sp,sp,64
    39c6:	8082                	ret
    39c8:	4785                	li	a5,1
    39ca:	c43e                	sw	a5,8(sp)
    39cc:	8522                	mv	a0,s0
    39ce:	00004797          	auipc	a5,0x4
    39d2:	dee78793          	addi	a5,a5,-530 # 77bc <test+0x2a0>
    39d6:	c63e                	sw	a5,12(sp)
    39d8:	d402                	sw	zero,40(sp)
    39da:	4f4020ef          	jal	ra,5ece <__extendsfdf2>
    39de:	872a                	mv	a4,a0
    39e0:	00004517          	auipc	a0,0x4
    39e4:	bc850513          	addi	a0,a0,-1080 # 75a8 <test+0x8c>
    39e8:	cc3a                	sw	a4,24(sp)
    39ea:	c83a                	sw	a4,16(sp)
    39ec:	ce2e                	sw	a1,28(sp)
    39ee:	ca2e                	sw	a1,20(sp)
    39f0:	2535                	jal	401c <nan>
    39f2:	00092703          	lw	a4,0(s2)
    39f6:	d02a                	sw	a0,32(sp)
    39f8:	d22e                	sw	a1,36(sp)
    39fa:	4789                	li	a5,2
    39fc:	02f70363          	beq	a4,a5,3a22 <asinf+0xa8>
    3a00:	0028                	addi	a0,sp,8
    3a02:	2d19                	jal	4018 <matherr>
    3a04:	cd19                	beqz	a0,3a22 <asinf+0xa8>
    3a06:	57a2                	lw	a5,40(sp)
    3a08:	e39d                	bnez	a5,3a2e <asinf+0xb4>
    3a0a:	5502                	lw	a0,32(sp)
    3a0c:	5592                	lw	a1,36(sp)
    3a0e:	56c020ef          	jal	ra,5f7a <__truncdfsf2>
    3a12:	50f2                	lw	ra,60(sp)
    3a14:	5462                	lw	s0,56(sp)
    3a16:	84aa                	mv	s1,a0
    3a18:	8526                	mv	a0,s1
    3a1a:	5942                	lw	s2,48(sp)
    3a1c:	54d2                	lw	s1,52(sp)
    3a1e:	6121                	addi	sp,sp,64
    3a20:	8082                	ret
    3a22:	730020ef          	jal	ra,6152 <__errno>
    3a26:	02100793          	li	a5,33
    3a2a:	c11c                	sw	a5,0(a0)
    3a2c:	bfe9                	j	3a06 <asinf+0x8c>
    3a2e:	724020ef          	jal	ra,6152 <__errno>
    3a32:	57a2                	lw	a5,40(sp)
    3a34:	c11c                	sw	a5,0(a0)
    3a36:	bfd1                	j	3a0a <asinf+0x90>

00003a38 <atan2f>:
    3a38:	ae8d                	j	3daa <__ieee754_atan2f>

00003a3a <__ieee754_asinf>:
    3a3a:	1101                	addi	sp,sp,-32
    3a3c:	cc22                	sw	s0,24(sp)
    3a3e:	00151413          	slli	s0,a0,0x1
    3a42:	ca26                	sw	s1,20(sp)
    3a44:	ce06                	sw	ra,28(sp)
    3a46:	c84a                	sw	s2,16(sp)
    3a48:	c64e                	sw	s3,12(sp)
    3a4a:	c452                	sw	s4,8(sp)
    3a4c:	c256                	sw	s5,4(sp)
    3a4e:	c05a                	sw	s6,0(sp)
    3a50:	8005                	srli	s0,s0,0x1
    3a52:	3f8007b7          	lui	a5,0x3f800
    3a56:	84aa                	mv	s1,a0
    3a58:	1af40663          	beq	s0,a5,3c04 <__ieee754_asinf+0x1ca>
    3a5c:	1887cc63          	blt	a5,s0,3bf4 <__ieee754_asinf+0x1ba>
    3a60:	3f0007b7          	lui	a5,0x3f000
    3a64:	892a                	mv	s2,a0
    3a66:	00004997          	auipc	s3,0x4
    3a6a:	a7a98993          	addi	s3,s3,-1414 # 74e0 <hw+0x2c>
    3a6e:	02f45863          	bge	s0,a5,3a9e <__ieee754_asinf+0x64>
    3a72:	320007b7          	lui	a5,0x32000
    3a76:	24f45363          	bge	s0,a5,3cbc <__ieee754_asinf+0x282>
    3a7a:	00004797          	auipc	a5,0x4
    3a7e:	d5278793          	addi	a5,a5,-686 # 77cc <test+0x2b0>
    3a82:	438c                	lw	a1,0(a5)
    3a84:	00004997          	auipc	s3,0x4
    3a88:	a5c98993          	addi	s3,s3,-1444 # 74e0 <hw+0x2c>
    3a8c:	4e2010ef          	jal	ra,4f6e <__addsf3>
    3a90:	0009a583          	lw	a1,0(s3)
    3a94:	353010ef          	jal	ra,55e6 <__gesf2>
    3a98:	87a6                	mv	a5,s1
    3a9a:	14a04263          	bgtz	a0,3bde <__ieee754_asinf+0x1a4>
    3a9e:	8526                	mv	a0,s1
    3aa0:	013000ef          	jal	ra,42b2 <fabsf>
    3aa4:	85aa                	mv	a1,a0
    3aa6:	0009a503          	lw	a0,0(s3)
    3aaa:	6e3010ef          	jal	ra,598c <__subsf3>
    3aae:	00004797          	auipc	a5,0x4
    3ab2:	a9678793          	addi	a5,a5,-1386 # 7544 <test+0x28>
    3ab6:	438c                	lw	a1,0(a5)
    3ab8:	441010ef          	jal	ra,56f8 <__mulsf3>
    3abc:	00004797          	auipc	a5,0x4
    3ac0:	d1478793          	addi	a5,a5,-748 # 77d0 <test+0x2b4>
    3ac4:	438c                	lw	a1,0(a5)
    3ac6:	84aa                	mv	s1,a0
    3ac8:	431010ef          	jal	ra,56f8 <__mulsf3>
    3acc:	00004797          	auipc	a5,0x4
    3ad0:	d0878793          	addi	a5,a5,-760 # 77d4 <test+0x2b8>
    3ad4:	438c                	lw	a1,0(a5)
    3ad6:	498010ef          	jal	ra,4f6e <__addsf3>
    3ada:	85a6                	mv	a1,s1
    3adc:	41d010ef          	jal	ra,56f8 <__mulsf3>
    3ae0:	00004797          	auipc	a5,0x4
    3ae4:	cf878793          	addi	a5,a5,-776 # 77d8 <test+0x2bc>
    3ae8:	438c                	lw	a1,0(a5)
    3aea:	6a3010ef          	jal	ra,598c <__subsf3>
    3aee:	85a6                	mv	a1,s1
    3af0:	409010ef          	jal	ra,56f8 <__mulsf3>
    3af4:	00004797          	auipc	a5,0x4
    3af8:	ce878793          	addi	a5,a5,-792 # 77dc <test+0x2c0>
    3afc:	438c                	lw	a1,0(a5)
    3afe:	470010ef          	jal	ra,4f6e <__addsf3>
    3b02:	85a6                	mv	a1,s1
    3b04:	3f5010ef          	jal	ra,56f8 <__mulsf3>
    3b08:	00004797          	auipc	a5,0x4
    3b0c:	cd878793          	addi	a5,a5,-808 # 77e0 <test+0x2c4>
    3b10:	438c                	lw	a1,0(a5)
    3b12:	67b010ef          	jal	ra,598c <__subsf3>
    3b16:	85a6                	mv	a1,s1
    3b18:	3e1010ef          	jal	ra,56f8 <__mulsf3>
    3b1c:	00004797          	auipc	a5,0x4
    3b20:	cc878793          	addi	a5,a5,-824 # 77e4 <test+0x2c8>
    3b24:	438c                	lw	a1,0(a5)
    3b26:	448010ef          	jal	ra,4f6e <__addsf3>
    3b2a:	85a6                	mv	a1,s1
    3b2c:	3cd010ef          	jal	ra,56f8 <__mulsf3>
    3b30:	00004797          	auipc	a5,0x4
    3b34:	cb878793          	addi	a5,a5,-840 # 77e8 <test+0x2cc>
    3b38:	438c                	lw	a1,0(a5)
    3b3a:	8a2a                	mv	s4,a0
    3b3c:	8526                	mv	a0,s1
    3b3e:	3bb010ef          	jal	ra,56f8 <__mulsf3>
    3b42:	00004797          	auipc	a5,0x4
    3b46:	caa78793          	addi	a5,a5,-854 # 77ec <test+0x2d0>
    3b4a:	438c                	lw	a1,0(a5)
    3b4c:	641010ef          	jal	ra,598c <__subsf3>
    3b50:	85a6                	mv	a1,s1
    3b52:	3a7010ef          	jal	ra,56f8 <__mulsf3>
    3b56:	00004797          	auipc	a5,0x4
    3b5a:	c9a78793          	addi	a5,a5,-870 # 77f0 <test+0x2d4>
    3b5e:	438c                	lw	a1,0(a5)
    3b60:	40e010ef          	jal	ra,4f6e <__addsf3>
    3b64:	85a6                	mv	a1,s1
    3b66:	393010ef          	jal	ra,56f8 <__mulsf3>
    3b6a:	00004797          	auipc	a5,0x4
    3b6e:	c8a78793          	addi	a5,a5,-886 # 77f4 <test+0x2d8>
    3b72:	438c                	lw	a1,0(a5)
    3b74:	619010ef          	jal	ra,598c <__subsf3>
    3b78:	85a6                	mv	a1,s1
    3b7a:	37f010ef          	jal	ra,56f8 <__mulsf3>
    3b7e:	0009a583          	lw	a1,0(s3)
    3b82:	3ec010ef          	jal	ra,4f6e <__addsf3>
    3b86:	8aaa                	mv	s5,a0
    3b88:	8526                	mv	a0,s1
    3b8a:	2e4d                	jal	3f3c <__ieee754_sqrtf>
    3b8c:	3f79a7b7          	lui	a5,0x3f79a
    3b90:	99978793          	addi	a5,a5,-1639 # 3f799999 <__freertos_irq_stack_top+0x1f791999>
    3b94:	89aa                	mv	s3,a0
    3b96:	0887dd63          	bge	a5,s0,3c30 <__ieee754_asinf+0x1f6>
    3b9a:	85d6                	mv	a1,s5
    3b9c:	8552                	mv	a0,s4
    3b9e:	73a010ef          	jal	ra,52d8 <__divsf3>
    3ba2:	85ce                	mv	a1,s3
    3ba4:	355010ef          	jal	ra,56f8 <__mulsf3>
    3ba8:	85ce                	mv	a1,s3
    3baa:	3c4010ef          	jal	ra,4f6e <__addsf3>
    3bae:	85aa                	mv	a1,a0
    3bb0:	3be010ef          	jal	ra,4f6e <__addsf3>
    3bb4:	00004797          	auipc	a5,0x4
    3bb8:	c4478793          	addi	a5,a5,-956 # 77f8 <test+0x2dc>
    3bbc:	438c                	lw	a1,0(a5)
    3bbe:	3b0010ef          	jal	ra,4f6e <__addsf3>
    3bc2:	00004797          	auipc	a5,0x4
    3bc6:	c0278793          	addi	a5,a5,-1022 # 77c4 <test+0x2a8>
    3bca:	85aa                	mv	a1,a0
    3bcc:	4388                	lw	a0,0(a5)
    3bce:	5bf010ef          	jal	ra,598c <__subsf3>
    3bd2:	87aa                	mv	a5,a0
    3bd4:	01204563          	bgtz	s2,3bde <__ieee754_asinf+0x1a4>
    3bd8:	80000737          	lui	a4,0x80000
    3bdc:	8fb9                	xor	a5,a5,a4
    3bde:	40f2                	lw	ra,28(sp)
    3be0:	4462                	lw	s0,24(sp)
    3be2:	44d2                	lw	s1,20(sp)
    3be4:	4942                	lw	s2,16(sp)
    3be6:	49b2                	lw	s3,12(sp)
    3be8:	4a22                	lw	s4,8(sp)
    3bea:	4a92                	lw	s5,4(sp)
    3bec:	4b02                	lw	s6,0(sp)
    3bee:	853e                	mv	a0,a5
    3bf0:	6105                	addi	sp,sp,32
    3bf2:	8082                	ret
    3bf4:	85aa                	mv	a1,a0
    3bf6:	597010ef          	jal	ra,598c <__subsf3>
    3bfa:	85aa                	mv	a1,a0
    3bfc:	6dc010ef          	jal	ra,52d8 <__divsf3>
    3c00:	87aa                	mv	a5,a0
    3c02:	bff1                	j	3bde <__ieee754_asinf+0x1a4>
    3c04:	00004797          	auipc	a5,0x4
    3c08:	bc078793          	addi	a5,a5,-1088 # 77c4 <test+0x2a8>
    3c0c:	438c                	lw	a1,0(a5)
    3c0e:	2eb010ef          	jal	ra,56f8 <__mulsf3>
    3c12:	00004797          	auipc	a5,0x4
    3c16:	bb678793          	addi	a5,a5,-1098 # 77c8 <test+0x2ac>
    3c1a:	438c                	lw	a1,0(a5)
    3c1c:	842a                	mv	s0,a0
    3c1e:	8526                	mv	a0,s1
    3c20:	2d9010ef          	jal	ra,56f8 <__mulsf3>
    3c24:	85aa                	mv	a1,a0
    3c26:	8522                	mv	a0,s0
    3c28:	346010ef          	jal	ra,4f6e <__addsf3>
    3c2c:	87aa                	mv	a5,a0
    3c2e:	bf45                	j	3bde <__ieee754_asinf+0x1a4>
    3c30:	85aa                	mv	a1,a0
    3c32:	747d                	lui	s0,0xfffff
    3c34:	8c69                	and	s0,s0,a0
    3c36:	338010ef          	jal	ra,4f6e <__addsf3>
    3c3a:	8b2a                	mv	s6,a0
    3c3c:	85d6                	mv	a1,s5
    3c3e:	8552                	mv	a0,s4
    3c40:	698010ef          	jal	ra,52d8 <__divsf3>
    3c44:	85aa                	mv	a1,a0
    3c46:	855a                	mv	a0,s6
    3c48:	2b1010ef          	jal	ra,56f8 <__mulsf3>
    3c4c:	8a2a                	mv	s4,a0
    3c4e:	85a2                	mv	a1,s0
    3c50:	8522                	mv	a0,s0
    3c52:	2a7010ef          	jal	ra,56f8 <__mulsf3>
    3c56:	85aa                	mv	a1,a0
    3c58:	8526                	mv	a0,s1
    3c5a:	533010ef          	jal	ra,598c <__subsf3>
    3c5e:	84aa                	mv	s1,a0
    3c60:	85a2                	mv	a1,s0
    3c62:	854e                	mv	a0,s3
    3c64:	30a010ef          	jal	ra,4f6e <__addsf3>
    3c68:	85aa                	mv	a1,a0
    3c6a:	8526                	mv	a0,s1
    3c6c:	66c010ef          	jal	ra,52d8 <__divsf3>
    3c70:	85aa                	mv	a1,a0
    3c72:	2fc010ef          	jal	ra,4f6e <__addsf3>
    3c76:	00004797          	auipc	a5,0x4
    3c7a:	b5278793          	addi	a5,a5,-1198 # 77c8 <test+0x2ac>
    3c7e:	85aa                	mv	a1,a0
    3c80:	4388                	lw	a0,0(a5)
    3c82:	00004497          	auipc	s1,0x4
    3c86:	b7a48493          	addi	s1,s1,-1158 # 77fc <test+0x2e0>
    3c8a:	503010ef          	jal	ra,598c <__subsf3>
    3c8e:	85aa                	mv	a1,a0
    3c90:	8552                	mv	a0,s4
    3c92:	4fb010ef          	jal	ra,598c <__subsf3>
    3c96:	89aa                	mv	s3,a0
    3c98:	85a2                	mv	a1,s0
    3c9a:	8522                	mv	a0,s0
    3c9c:	2d2010ef          	jal	ra,4f6e <__addsf3>
    3ca0:	85aa                	mv	a1,a0
    3ca2:	4088                	lw	a0,0(s1)
    3ca4:	4e9010ef          	jal	ra,598c <__subsf3>
    3ca8:	85aa                	mv	a1,a0
    3caa:	854e                	mv	a0,s3
    3cac:	4e1010ef          	jal	ra,598c <__subsf3>
    3cb0:	85aa                	mv	a1,a0
    3cb2:	4088                	lw	a0,0(s1)
    3cb4:	4d9010ef          	jal	ra,598c <__subsf3>
    3cb8:	87aa                	mv	a5,a0
    3cba:	bf29                	j	3bd4 <__ieee754_asinf+0x19a>
    3cbc:	85aa                	mv	a1,a0
    3cbe:	23b010ef          	jal	ra,56f8 <__mulsf3>
    3cc2:	00004797          	auipc	a5,0x4
    3cc6:	b0e78793          	addi	a5,a5,-1266 # 77d0 <test+0x2b4>
    3cca:	438c                	lw	a1,0(a5)
    3ccc:	842a                	mv	s0,a0
    3cce:	22b010ef          	jal	ra,56f8 <__mulsf3>
    3cd2:	00004797          	auipc	a5,0x4
    3cd6:	b0278793          	addi	a5,a5,-1278 # 77d4 <test+0x2b8>
    3cda:	438c                	lw	a1,0(a5)
    3cdc:	292010ef          	jal	ra,4f6e <__addsf3>
    3ce0:	85a2                	mv	a1,s0
    3ce2:	217010ef          	jal	ra,56f8 <__mulsf3>
    3ce6:	00004797          	auipc	a5,0x4
    3cea:	af278793          	addi	a5,a5,-1294 # 77d8 <test+0x2bc>
    3cee:	438c                	lw	a1,0(a5)
    3cf0:	49d010ef          	jal	ra,598c <__subsf3>
    3cf4:	85a2                	mv	a1,s0
    3cf6:	203010ef          	jal	ra,56f8 <__mulsf3>
    3cfa:	00004797          	auipc	a5,0x4
    3cfe:	ae278793          	addi	a5,a5,-1310 # 77dc <test+0x2c0>
    3d02:	438c                	lw	a1,0(a5)
    3d04:	26a010ef          	jal	ra,4f6e <__addsf3>
    3d08:	85a2                	mv	a1,s0
    3d0a:	1ef010ef          	jal	ra,56f8 <__mulsf3>
    3d0e:	00004797          	auipc	a5,0x4
    3d12:	ad278793          	addi	a5,a5,-1326 # 77e0 <test+0x2c4>
    3d16:	438c                	lw	a1,0(a5)
    3d18:	475010ef          	jal	ra,598c <__subsf3>
    3d1c:	85a2                	mv	a1,s0
    3d1e:	1db010ef          	jal	ra,56f8 <__mulsf3>
    3d22:	00004797          	auipc	a5,0x4
    3d26:	ac278793          	addi	a5,a5,-1342 # 77e4 <test+0x2c8>
    3d2a:	438c                	lw	a1,0(a5)
    3d2c:	242010ef          	jal	ra,4f6e <__addsf3>
    3d30:	85a2                	mv	a1,s0
    3d32:	1c7010ef          	jal	ra,56f8 <__mulsf3>
    3d36:	00004797          	auipc	a5,0x4
    3d3a:	ab278793          	addi	a5,a5,-1358 # 77e8 <test+0x2cc>
    3d3e:	438c                	lw	a1,0(a5)
    3d40:	892a                	mv	s2,a0
    3d42:	8522                	mv	a0,s0
    3d44:	1b5010ef          	jal	ra,56f8 <__mulsf3>
    3d48:	00004797          	auipc	a5,0x4
    3d4c:	aa478793          	addi	a5,a5,-1372 # 77ec <test+0x2d0>
    3d50:	438c                	lw	a1,0(a5)
    3d52:	43b010ef          	jal	ra,598c <__subsf3>
    3d56:	85a2                	mv	a1,s0
    3d58:	1a1010ef          	jal	ra,56f8 <__mulsf3>
    3d5c:	00004797          	auipc	a5,0x4
    3d60:	a9478793          	addi	a5,a5,-1388 # 77f0 <test+0x2d4>
    3d64:	438c                	lw	a1,0(a5)
    3d66:	208010ef          	jal	ra,4f6e <__addsf3>
    3d6a:	85a2                	mv	a1,s0
    3d6c:	18d010ef          	jal	ra,56f8 <__mulsf3>
    3d70:	00004797          	auipc	a5,0x4
    3d74:	a8478793          	addi	a5,a5,-1404 # 77f4 <test+0x2d8>
    3d78:	438c                	lw	a1,0(a5)
    3d7a:	413010ef          	jal	ra,598c <__subsf3>
    3d7e:	85a2                	mv	a1,s0
    3d80:	179010ef          	jal	ra,56f8 <__mulsf3>
    3d84:	00003797          	auipc	a5,0x3
    3d88:	75c78793          	addi	a5,a5,1884 # 74e0 <hw+0x2c>
    3d8c:	438c                	lw	a1,0(a5)
    3d8e:	1e0010ef          	jal	ra,4f6e <__addsf3>
    3d92:	85aa                	mv	a1,a0
    3d94:	854a                	mv	a0,s2
    3d96:	542010ef          	jal	ra,52d8 <__divsf3>
    3d9a:	85a6                	mv	a1,s1
    3d9c:	15d010ef          	jal	ra,56f8 <__mulsf3>
    3da0:	85a6                	mv	a1,s1
    3da2:	1cc010ef          	jal	ra,4f6e <__addsf3>
    3da6:	87aa                	mv	a5,a0
    3da8:	bd1d                	j	3bde <__ieee754_asinf+0x1a4>

00003daa <__ieee754_atan2f>:
    3daa:	800007b7          	lui	a5,0x80000
    3dae:	1141                	addi	sp,sp,-16
    3db0:	fff7c793          	not	a5,a5
    3db4:	872e                	mv	a4,a1
    3db6:	c606                	sw	ra,12(sp)
    3db8:	c422                	sw	s0,8(sp)
    3dba:	8dfd                	and	a1,a1,a5
    3dbc:	7f800637          	lui	a2,0x7f800
    3dc0:	86aa                	mv	a3,a0
    3dc2:	04b64063          	blt	a2,a1,3e02 <__ieee754_atan2f+0x58>
    3dc6:	8fe9                	and	a5,a5,a0
    3dc8:	832a                	mv	t1,a0
    3dca:	02f64c63          	blt	a2,a5,3e02 <__ieee754_atan2f+0x58>
    3dce:	3f8008b7          	lui	a7,0x3f800
    3dd2:	0f170063          	beq	a4,a7,3eb2 <__ieee754_atan2f+0x108>
    3dd6:	41e75413          	srai	s0,a4,0x1e
    3dda:	8809                	andi	s0,s0,2
    3ddc:	817d                	srli	a0,a0,0x1f
    3dde:	8c49                	or	s0,s0,a0
    3de0:	eb8d                	bnez	a5,3e12 <__ieee754_atan2f+0x68>
    3de2:	4789                	li	a5,2
    3de4:	08f40e63          	beq	s0,a5,3e80 <__ieee754_atan2f+0xd6>
    3de8:	478d                	li	a5,3
    3dea:	8536                	mv	a0,a3
    3dec:	00f41f63          	bne	s0,a5,3e0a <__ieee754_atan2f+0x60>
    3df0:	40b2                	lw	ra,12(sp)
    3df2:	4422                	lw	s0,8(sp)
    3df4:	00004797          	auipc	a5,0x4
    3df8:	a1078793          	addi	a5,a5,-1520 # 7804 <test+0x2e8>
    3dfc:	4388                	lw	a0,0(a5)
    3dfe:	0141                	addi	sp,sp,16
    3e00:	8082                	ret
    3e02:	85b6                	mv	a1,a3
    3e04:	853a                	mv	a0,a4
    3e06:	168010ef          	jal	ra,4f6e <__addsf3>
    3e0a:	40b2                	lw	ra,12(sp)
    3e0c:	4422                	lw	s0,8(sp)
    3e0e:	0141                	addi	sp,sp,16
    3e10:	8082                	ret
    3e12:	cdb9                	beqz	a1,3e70 <__ieee754_atan2f+0xc6>
    3e14:	06c58c63          	beq	a1,a2,3e8c <__ieee754_atan2f+0xe2>
    3e18:	04c78c63          	beq	a5,a2,3e70 <__ieee754_atan2f+0xc6>
    3e1c:	8f8d                	sub	a5,a5,a1
    3e1e:	87dd                	srai	a5,a5,0x17
    3e20:	03c00613          	li	a2,60
    3e24:	08f64b63          	blt	a2,a5,3eba <__ieee754_atan2f+0x110>
    3e28:	00075863          	bgez	a4,3e38 <__ieee754_atan2f+0x8e>
    3e2c:	fc400613          	li	a2,-60
    3e30:	00000513          	li	a0,0
    3e34:	00c7c863          	blt	a5,a2,3e44 <__ieee754_atan2f+0x9a>
    3e38:	85ba                	mv	a1,a4
    3e3a:	8536                	mv	a0,a3
    3e3c:	49c010ef          	jal	ra,52d8 <__divsf3>
    3e40:	298d                	jal	42b2 <fabsf>
    3e42:	22e5                	jal	402a <atanf>
    3e44:	4785                	li	a5,1
    3e46:	0cf40563          	beq	s0,a5,3f10 <__ieee754_atan2f+0x166>
    3e4a:	4789                	li	a5,2
    3e4c:	0af40263          	beq	s0,a5,3ef0 <__ieee754_atan2f+0x146>
    3e50:	dc4d                	beqz	s0,3e0a <__ieee754_atan2f+0x60>
    3e52:	00004797          	auipc	a5,0x4
    3e56:	9ca78793          	addi	a5,a5,-1590 # 781c <test+0x300>
    3e5a:	438c                	lw	a1,0(a5)
    3e5c:	112010ef          	jal	ra,4f6e <__addsf3>
    3e60:	00004797          	auipc	a5,0x4
    3e64:	9a078793          	addi	a5,a5,-1632 # 7800 <test+0x2e4>
    3e68:	438c                	lw	a1,0(a5)
    3e6a:	323010ef          	jal	ra,598c <__subsf3>
    3e6e:	bf71                	j	3e0a <__ieee754_atan2f+0x60>
    3e70:	06034a63          	bltz	t1,3ee4 <__ieee754_atan2f+0x13a>
    3e74:	00004797          	auipc	a5,0x4
    3e78:	95078793          	addi	a5,a5,-1712 # 77c4 <test+0x2a8>
    3e7c:	4388                	lw	a0,0(a5)
    3e7e:	b771                	j	3e0a <__ieee754_atan2f+0x60>
    3e80:	00004797          	auipc	a5,0x4
    3e84:	98078793          	addi	a5,a5,-1664 # 7800 <test+0x2e4>
    3e88:	4388                	lw	a0,0(a5)
    3e8a:	b741                	j	3e0a <__ieee754_atan2f+0x60>
    3e8c:	02b78d63          	beq	a5,a1,3ec6 <__ieee754_atan2f+0x11c>
    3e90:	4789                	li	a5,2
    3e92:	fef407e3          	beq	s0,a5,3e80 <__ieee754_atan2f+0xd6>
    3e96:	478d                	li	a5,3
    3e98:	f4f40ce3          	beq	s0,a5,3df0 <__ieee754_atan2f+0x46>
    3e9c:	4785                	li	a5,1
    3e9e:	00000513          	li	a0,0
    3ea2:	f6f414e3          	bne	s0,a5,3e0a <__ieee754_atan2f+0x60>
    3ea6:	00004797          	auipc	a5,0x4
    3eaa:	96278793          	addi	a5,a5,-1694 # 7808 <test+0x2ec>
    3eae:	4388                	lw	a0,0(a5)
    3eb0:	bfa9                	j	3e0a <__ieee754_atan2f+0x60>
    3eb2:	4422                	lw	s0,8(sp)
    3eb4:	40b2                	lw	ra,12(sp)
    3eb6:	0141                	addi	sp,sp,16
    3eb8:	aa8d                	j	402a <atanf>
    3eba:	00004797          	auipc	a5,0x4
    3ebe:	90a78793          	addi	a5,a5,-1782 # 77c4 <test+0x2a8>
    3ec2:	4388                	lw	a0,0(a5)
    3ec4:	b741                	j	3e44 <__ieee754_atan2f+0x9a>
    3ec6:	4789                	li	a5,2
    3ec8:	06f40463          	beq	s0,a5,3f30 <__ieee754_atan2f+0x186>
    3ecc:	478d                	li	a5,3
    3ece:	04f40b63          	beq	s0,a5,3f24 <__ieee754_atan2f+0x17a>
    3ed2:	4785                	li	a5,1
    3ed4:	04f40263          	beq	s0,a5,3f18 <__ieee754_atan2f+0x16e>
    3ed8:	00004797          	auipc	a5,0x4
    3edc:	92478793          	addi	a5,a5,-1756 # 77fc <test+0x2e0>
    3ee0:	4388                	lw	a0,0(a5)
    3ee2:	b725                	j	3e0a <__ieee754_atan2f+0x60>
    3ee4:	00004797          	auipc	a5,0x4
    3ee8:	92878793          	addi	a5,a5,-1752 # 780c <test+0x2f0>
    3eec:	4388                	lw	a0,0(a5)
    3eee:	bf31                	j	3e0a <__ieee754_atan2f+0x60>
    3ef0:	00004797          	auipc	a5,0x4
    3ef4:	92c78793          	addi	a5,a5,-1748 # 781c <test+0x300>
    3ef8:	438c                	lw	a1,0(a5)
    3efa:	074010ef          	jal	ra,4f6e <__addsf3>
    3efe:	00004797          	auipc	a5,0x4
    3f02:	90278793          	addi	a5,a5,-1790 # 7800 <test+0x2e4>
    3f06:	85aa                	mv	a1,a0
    3f08:	4388                	lw	a0,0(a5)
    3f0a:	283010ef          	jal	ra,598c <__subsf3>
    3f0e:	bdf5                	j	3e0a <__ieee754_atan2f+0x60>
    3f10:	800007b7          	lui	a5,0x80000
    3f14:	8d3d                	xor	a0,a0,a5
    3f16:	bdd5                	j	3e0a <__ieee754_atan2f+0x60>
    3f18:	00004797          	auipc	a5,0x4
    3f1c:	90078793          	addi	a5,a5,-1792 # 7818 <test+0x2fc>
    3f20:	4388                	lw	a0,0(a5)
    3f22:	b5e5                	j	3e0a <__ieee754_atan2f+0x60>
    3f24:	00004797          	auipc	a5,0x4
    3f28:	8f078793          	addi	a5,a5,-1808 # 7814 <test+0x2f8>
    3f2c:	4388                	lw	a0,0(a5)
    3f2e:	bdf1                	j	3e0a <__ieee754_atan2f+0x60>
    3f30:	00004797          	auipc	a5,0x4
    3f34:	8e078793          	addi	a5,a5,-1824 # 7810 <test+0x2f4>
    3f38:	4388                	lw	a0,0(a5)
    3f3a:	bdc1                	j	3e0a <__ieee754_atan2f+0x60>

00003f3c <__ieee754_sqrtf>:
    3f3c:	1141                	addi	sp,sp,-16
    3f3e:	00151793          	slli	a5,a0,0x1
    3f42:	c422                	sw	s0,8(sp)
    3f44:	c606                	sw	ra,12(sp)
    3f46:	8385                	srli	a5,a5,0x1
    3f48:	7f800737          	lui	a4,0x7f800
    3f4c:	842a                	mv	s0,a0
    3f4e:	85aa                	mv	a1,a0
    3f50:	08e7f863          	bgeu	a5,a4,3fe0 <__ieee754_sqrtf+0xa4>
    3f54:	c3c9                	beqz	a5,3fd6 <__ieee754_sqrtf+0x9a>
    3f56:	87aa                	mv	a5,a0
    3f58:	0a054263          	bltz	a0,3ffc <__ieee754_sqrtf+0xc0>
    3f5c:	8f69                	and	a4,a4,a0
    3f5e:	41755693          	srai	a3,a0,0x17
    3f62:	e305                	bnez	a4,3f82 <__ieee754_sqrtf+0x46>
    3f64:	00851713          	slli	a4,a0,0x8
    3f68:	0a074563          	bltz	a4,4012 <__ieee754_sqrtf+0xd6>
    3f6c:	4701                	li	a4,0
    3f6e:	a011                	j	3f72 <__ieee754_sqrtf+0x36>
    3f70:	8732                	mv	a4,a2
    3f72:	0786                	slli	a5,a5,0x1
    3f74:	00879593          	slli	a1,a5,0x8
    3f78:	00170613          	addi	a2,a4,1 # 7f800001 <__freertos_irq_stack_top+0x5f7f8001>
    3f7c:	fe05dae3          	bgez	a1,3f70 <__ieee754_sqrtf+0x34>
    3f80:	8e99                	sub	a3,a3,a4
    3f82:	00800737          	lui	a4,0x800
    3f86:	fff70613          	addi	a2,a4,-1 # 7fffff <_data_lma+0x7f84e3>
    3f8a:	8ff1                	and	a5,a5,a2
    3f8c:	f8168693          	addi	a3,a3,-127
    3f90:	8f5d                	or	a4,a4,a5
    3f92:	0016f613          	andi	a2,a3,1
    3f96:	00171793          	slli	a5,a4,0x1
    3f9a:	ee31                	bnez	a2,3ff6 <__ieee754_sqrtf+0xba>
    3f9c:	4016d813          	srai	a6,a3,0x1
    3fa0:	4501                	li	a0,0
    3fa2:	46e5                	li	a3,25
    3fa4:	4581                	li	a1,0
    3fa6:	01000737          	lui	a4,0x1000
    3faa:	00e58633          	add	a2,a1,a4
    3fae:	16fd                	addi	a3,a3,-1
    3fb0:	00c7c663          	blt	a5,a2,3fbc <__ieee754_sqrtf+0x80>
    3fb4:	00e605b3          	add	a1,a2,a4
    3fb8:	8f91                	sub	a5,a5,a2
    3fba:	953a                	add	a0,a0,a4
    3fbc:	0786                	slli	a5,a5,0x1
    3fbe:	8305                	srli	a4,a4,0x1
    3fc0:	f6ed                	bnez	a3,3faa <__ieee754_sqrtf+0x6e>
    3fc2:	c399                	beqz	a5,3fc8 <__ieee754_sqrtf+0x8c>
    3fc4:	0505                	addi	a0,a0,1
    3fc6:	9979                	andi	a0,a0,-2
    3fc8:	8505                	srai	a0,a0,0x1
    3fca:	3f0005b7          	lui	a1,0x3f000
    3fce:	95aa                	add	a1,a1,a0
    3fd0:	01781693          	slli	a3,a6,0x17
    3fd4:	95b6                	add	a1,a1,a3
    3fd6:	40b2                	lw	ra,12(sp)
    3fd8:	4422                	lw	s0,8(sp)
    3fda:	852e                	mv	a0,a1
    3fdc:	0141                	addi	sp,sp,16
    3fde:	8082                	ret
    3fe0:	718010ef          	jal	ra,56f8 <__mulsf3>
    3fe4:	85a2                	mv	a1,s0
    3fe6:	789000ef          	jal	ra,4f6e <__addsf3>
    3fea:	40b2                	lw	ra,12(sp)
    3fec:	4422                	lw	s0,8(sp)
    3fee:	85aa                	mv	a1,a0
    3ff0:	852e                	mv	a0,a1
    3ff2:	0141                	addi	sp,sp,16
    3ff4:	8082                	ret
    3ff6:	00271793          	slli	a5,a4,0x2
    3ffa:	b74d                	j	3f9c <__ieee754_sqrtf+0x60>
    3ffc:	191010ef          	jal	ra,598c <__subsf3>
    4000:	85aa                	mv	a1,a0
    4002:	2d6010ef          	jal	ra,52d8 <__divsf3>
    4006:	40b2                	lw	ra,12(sp)
    4008:	4422                	lw	s0,8(sp)
    400a:	85aa                	mv	a1,a0
    400c:	852e                	mv	a0,a1
    400e:	0141                	addi	sp,sp,16
    4010:	8082                	ret
    4012:	577d                	li	a4,-1
    4014:	8e99                	sub	a3,a3,a4
    4016:	b7b5                	j	3f82 <__ieee754_sqrtf+0x46>

00004018 <matherr>:
    4018:	4501                	li	a0,0
    401a:	8082                	ret

0000401c <nan>:
    401c:	00004797          	auipc	a5,0x4
    4020:	80478793          	addi	a5,a5,-2044 # 7820 <test+0x304>
    4024:	4388                	lw	a0,0(a5)
    4026:	43cc                	lw	a1,4(a5)
    4028:	8082                	ret

0000402a <atanf>:
    402a:	1101                	addi	sp,sp,-32
    402c:	cc22                	sw	s0,24(sp)
    402e:	00151413          	slli	s0,a0,0x1
    4032:	ca26                	sw	s1,20(sp)
    4034:	c64e                	sw	s3,12(sp)
    4036:	ce06                	sw	ra,28(sp)
    4038:	c84a                	sw	s2,16(sp)
    403a:	c452                	sw	s4,8(sp)
    403c:	8005                	srli	s0,s0,0x1
    403e:	508007b7          	lui	a5,0x50800
    4042:	84aa                	mv	s1,a0
    4044:	89aa                	mv	s3,a0
    4046:	02f44663          	blt	s0,a5,4072 <atanf+0x48>
    404a:	7f8007b7          	lui	a5,0x7f800
    404e:	1687c763          	blt	a5,s0,41bc <atanf+0x192>
    4052:	18a05c63          	blez	a0,41ea <atanf+0x1c0>
    4056:	00003797          	auipc	a5,0x3
    405a:	76e78793          	addi	a5,a5,1902 # 77c4 <test+0x2a8>
    405e:	439c                	lw	a5,0(a5)
    4060:	40f2                	lw	ra,28(sp)
    4062:	4462                	lw	s0,24(sp)
    4064:	44d2                	lw	s1,20(sp)
    4066:	4942                	lw	s2,16(sp)
    4068:	49b2                	lw	s3,12(sp)
    406a:	4a22                	lw	s4,8(sp)
    406c:	853e                	mv	a0,a5
    406e:	6105                	addi	sp,sp,32
    4070:	8082                	ret
    4072:	3ee007b7          	lui	a5,0x3ee00
    4076:	18f45563          	bge	s0,a5,4200 <atanf+0x1d6>
    407a:	310007b7          	lui	a5,0x31000
    407e:	14f44463          	blt	s0,a5,41c6 <atanf+0x19c>
    4082:	597d                	li	s2,-1
    4084:	85a6                	mv	a1,s1
    4086:	8526                	mv	a0,s1
    4088:	670010ef          	jal	ra,56f8 <__mulsf3>
    408c:	85aa                	mv	a1,a0
    408e:	8a2a                	mv	s4,a0
    4090:	668010ef          	jal	ra,56f8 <__mulsf3>
    4094:	00003797          	auipc	a5,0x3
    4098:	7a078793          	addi	a5,a5,1952 # 7834 <test+0x318>
    409c:	438c                	lw	a1,0(a5)
    409e:	842a                	mv	s0,a0
    40a0:	658010ef          	jal	ra,56f8 <__mulsf3>
    40a4:	00003797          	auipc	a5,0x3
    40a8:	79478793          	addi	a5,a5,1940 # 7838 <test+0x31c>
    40ac:	438c                	lw	a1,0(a5)
    40ae:	6c1000ef          	jal	ra,4f6e <__addsf3>
    40b2:	85a2                	mv	a1,s0
    40b4:	644010ef          	jal	ra,56f8 <__mulsf3>
    40b8:	00003797          	auipc	a5,0x3
    40bc:	78478793          	addi	a5,a5,1924 # 783c <test+0x320>
    40c0:	438c                	lw	a1,0(a5)
    40c2:	6ad000ef          	jal	ra,4f6e <__addsf3>
    40c6:	85a2                	mv	a1,s0
    40c8:	630010ef          	jal	ra,56f8 <__mulsf3>
    40cc:	00003797          	auipc	a5,0x3
    40d0:	77478793          	addi	a5,a5,1908 # 7840 <test+0x324>
    40d4:	438c                	lw	a1,0(a5)
    40d6:	699000ef          	jal	ra,4f6e <__addsf3>
    40da:	85a2                	mv	a1,s0
    40dc:	61c010ef          	jal	ra,56f8 <__mulsf3>
    40e0:	00003797          	auipc	a5,0x3
    40e4:	76478793          	addi	a5,a5,1892 # 7844 <test+0x328>
    40e8:	438c                	lw	a1,0(a5)
    40ea:	685000ef          	jal	ra,4f6e <__addsf3>
    40ee:	85a2                	mv	a1,s0
    40f0:	608010ef          	jal	ra,56f8 <__mulsf3>
    40f4:	00003797          	auipc	a5,0x3
    40f8:	75478793          	addi	a5,a5,1876 # 7848 <test+0x32c>
    40fc:	438c                	lw	a1,0(a5)
    40fe:	671000ef          	jal	ra,4f6e <__addsf3>
    4102:	85d2                	mv	a1,s4
    4104:	5f4010ef          	jal	ra,56f8 <__mulsf3>
    4108:	00003797          	auipc	a5,0x3
    410c:	74478793          	addi	a5,a5,1860 # 784c <test+0x330>
    4110:	438c                	lw	a1,0(a5)
    4112:	8a2a                	mv	s4,a0
    4114:	8522                	mv	a0,s0
    4116:	5e2010ef          	jal	ra,56f8 <__mulsf3>
    411a:	00003797          	auipc	a5,0x3
    411e:	73678793          	addi	a5,a5,1846 # 7850 <test+0x334>
    4122:	438c                	lw	a1,0(a5)
    4124:	069010ef          	jal	ra,598c <__subsf3>
    4128:	85a2                	mv	a1,s0
    412a:	5ce010ef          	jal	ra,56f8 <__mulsf3>
    412e:	00003797          	auipc	a5,0x3
    4132:	72678793          	addi	a5,a5,1830 # 7854 <test+0x338>
    4136:	438c                	lw	a1,0(a5)
    4138:	055010ef          	jal	ra,598c <__subsf3>
    413c:	85a2                	mv	a1,s0
    413e:	5ba010ef          	jal	ra,56f8 <__mulsf3>
    4142:	00003797          	auipc	a5,0x3
    4146:	71678793          	addi	a5,a5,1814 # 7858 <test+0x33c>
    414a:	438c                	lw	a1,0(a5)
    414c:	041010ef          	jal	ra,598c <__subsf3>
    4150:	85a2                	mv	a1,s0
    4152:	5a6010ef          	jal	ra,56f8 <__mulsf3>
    4156:	00003797          	auipc	a5,0x3
    415a:	70678793          	addi	a5,a5,1798 # 785c <test+0x340>
    415e:	438c                	lw	a1,0(a5)
    4160:	02d010ef          	jal	ra,598c <__subsf3>
    4164:	85a2                	mv	a1,s0
    4166:	592010ef          	jal	ra,56f8 <__mulsf3>
    416a:	85aa                	mv	a1,a0
    416c:	8552                	mv	a0,s4
    416e:	601000ef          	jal	ra,4f6e <__addsf3>
    4172:	85a6                	mv	a1,s1
    4174:	584010ef          	jal	ra,56f8 <__mulsf3>
    4178:	57fd                	li	a5,-1
    417a:	85aa                	mv	a1,a0
    417c:	06f90d63          	beq	s2,a5,41f6 <atanf+0x1cc>
    4180:	090a                	slli	s2,s2,0x2
    4182:	00003797          	auipc	a5,0x3
    4186:	6ee78793          	addi	a5,a5,1774 # 7870 <atanlo>
    418a:	97ca                	add	a5,a5,s2
    418c:	438c                	lw	a1,0(a5)
    418e:	00003797          	auipc	a5,0x3
    4192:	6d278793          	addi	a5,a5,1746 # 7860 <atanhi>
    4196:	993e                	add	s2,s2,a5
    4198:	7f4010ef          	jal	ra,598c <__subsf3>
    419c:	85a6                	mv	a1,s1
    419e:	7ee010ef          	jal	ra,598c <__subsf3>
    41a2:	85aa                	mv	a1,a0
    41a4:	00092503          	lw	a0,0(s2)
    41a8:	7e4010ef          	jal	ra,598c <__subsf3>
    41ac:	87aa                	mv	a5,a0
    41ae:	ea09d9e3          	bgez	s3,4060 <atanf+0x36>
    41b2:	80000737          	lui	a4,0x80000
    41b6:	00a747b3          	xor	a5,a4,a0
    41ba:	b55d                	j	4060 <atanf+0x36>
    41bc:	85aa                	mv	a1,a0
    41be:	5b1000ef          	jal	ra,4f6e <__addsf3>
    41c2:	87aa                	mv	a5,a0
    41c4:	bd71                	j	4060 <atanf+0x36>
    41c6:	00003797          	auipc	a5,0x3
    41ca:	60678793          	addi	a5,a5,1542 # 77cc <test+0x2b0>
    41ce:	438c                	lw	a1,0(a5)
    41d0:	59f000ef          	jal	ra,4f6e <__addsf3>
    41d4:	00003797          	auipc	a5,0x3
    41d8:	30c78793          	addi	a5,a5,780 # 74e0 <hw+0x2c>
    41dc:	438c                	lw	a1,0(a5)
    41de:	408010ef          	jal	ra,55e6 <__gesf2>
    41e2:	87a6                	mv	a5,s1
    41e4:	e8a05fe3          	blez	a0,4082 <atanf+0x58>
    41e8:	bda5                	j	4060 <atanf+0x36>
    41ea:	00003797          	auipc	a5,0x3
    41ee:	62278793          	addi	a5,a5,1570 # 780c <test+0x2f0>
    41f2:	439c                	lw	a5,0(a5)
    41f4:	b5b5                	j	4060 <atanf+0x36>
    41f6:	8526                	mv	a0,s1
    41f8:	794010ef          	jal	ra,598c <__subsf3>
    41fc:	87aa                	mv	a5,a0
    41fe:	b58d                	j	4060 <atanf+0x36>
    4200:	284d                	jal	42b2 <fabsf>
    4202:	3f9807b7          	lui	a5,0x3f980
    4206:	84aa                	mv	s1,a0
    4208:	04f45063          	bge	s0,a5,4248 <atanf+0x21e>
    420c:	3f3007b7          	lui	a5,0x3f300
    4210:	08f45563          	bge	s0,a5,429a <atanf+0x270>
    4214:	85aa                	mv	a1,a0
    4216:	559000ef          	jal	ra,4f6e <__addsf3>
    421a:	00003797          	auipc	a5,0x3
    421e:	2c678793          	addi	a5,a5,710 # 74e0 <hw+0x2c>
    4222:	438c                	lw	a1,0(a5)
    4224:	4901                	li	s2,0
    4226:	766010ef          	jal	ra,598c <__subsf3>
    422a:	00003797          	auipc	a5,0x3
    422e:	5fe78793          	addi	a5,a5,1534 # 7828 <test+0x30c>
    4232:	438c                	lw	a1,0(a5)
    4234:	842a                	mv	s0,a0
    4236:	8526                	mv	a0,s1
    4238:	537000ef          	jal	ra,4f6e <__addsf3>
    423c:	85aa                	mv	a1,a0
    423e:	8522                	mv	a0,s0
    4240:	098010ef          	jal	ra,52d8 <__divsf3>
    4244:	84aa                	mv	s1,a0
    4246:	bd3d                	j	4084 <atanf+0x5a>
    4248:	401c07b7          	lui	a5,0x401c0
    424c:	02f45c63          	bge	s0,a5,4284 <atanf+0x25a>
    4250:	00003417          	auipc	s0,0x3
    4254:	5dc40413          	addi	s0,s0,1500 # 782c <test+0x310>
    4258:	400c                	lw	a1,0(s0)
    425a:	4909                	li	s2,2
    425c:	730010ef          	jal	ra,598c <__subsf3>
    4260:	400c                	lw	a1,0(s0)
    4262:	8a2a                	mv	s4,a0
    4264:	8526                	mv	a0,s1
    4266:	492010ef          	jal	ra,56f8 <__mulsf3>
    426a:	00003797          	auipc	a5,0x3
    426e:	27678793          	addi	a5,a5,630 # 74e0 <hw+0x2c>
    4272:	438c                	lw	a1,0(a5)
    4274:	4fb000ef          	jal	ra,4f6e <__addsf3>
    4278:	85aa                	mv	a1,a0
    427a:	8552                	mv	a0,s4
    427c:	05c010ef          	jal	ra,52d8 <__divsf3>
    4280:	84aa                	mv	s1,a0
    4282:	b509                	j	4084 <atanf+0x5a>
    4284:	00003797          	auipc	a5,0x3
    4288:	5ac78793          	addi	a5,a5,1452 # 7830 <test+0x314>
    428c:	4388                	lw	a0,0(a5)
    428e:	85a6                	mv	a1,s1
    4290:	490d                	li	s2,3
    4292:	046010ef          	jal	ra,52d8 <__divsf3>
    4296:	84aa                	mv	s1,a0
    4298:	b3f5                	j	4084 <atanf+0x5a>
    429a:	00003417          	auipc	s0,0x3
    429e:	24640413          	addi	s0,s0,582 # 74e0 <hw+0x2c>
    42a2:	400c                	lw	a1,0(s0)
    42a4:	4905                	li	s2,1
    42a6:	6e6010ef          	jal	ra,598c <__subsf3>
    42aa:	8a2a                	mv	s4,a0
    42ac:	400c                	lw	a1,0(s0)
    42ae:	8526                	mv	a0,s1
    42b0:	b7d1                	j	4274 <atanf+0x24a>

000042b2 <fabsf>:
    42b2:	0506                	slli	a0,a0,0x1
    42b4:	8105                	srli	a0,a0,0x1
    42b6:	8082                	ret

000042b8 <__adddf3>:
    42b8:	00100837          	lui	a6,0x100
    42bc:	1101                	addi	sp,sp,-32
    42be:	187d                	addi	a6,a6,-1
    42c0:	00b87733          	and	a4,a6,a1
    42c4:	ca26                	sw	s1,20(sp)
    42c6:	00d87833          	and	a6,a6,a3
    42ca:	0145d493          	srli	s1,a1,0x14
    42ce:	0146d313          	srli	t1,a3,0x14
    42d2:	00371e13          	slli	t3,a4,0x3
    42d6:	c64e                	sw	s3,12(sp)
    42d8:	01d55713          	srli	a4,a0,0x1d
    42dc:	080e                	slli	a6,a6,0x3
    42de:	01d65793          	srli	a5,a2,0x1d
    42e2:	7ff4f493          	andi	s1,s1,2047
    42e6:	7ff37313          	andi	t1,t1,2047
    42ea:	ce06                	sw	ra,28(sp)
    42ec:	cc22                	sw	s0,24(sp)
    42ee:	c84a                	sw	s2,16(sp)
    42f0:	01f5d993          	srli	s3,a1,0x1f
    42f4:	01f6de93          	srli	t4,a3,0x1f
    42f8:	01c76733          	or	a4,a4,t3
    42fc:	00351f13          	slli	t5,a0,0x3
    4300:	0107e833          	or	a6,a5,a6
    4304:	00361f93          	slli	t6,a2,0x3
    4308:	40648e33          	sub	t3,s1,t1
    430c:	19d98063          	beq	s3,t4,448c <__adddf3+0x1d4>
    4310:	13c05663          	blez	t3,443c <__adddf3+0x184>
    4314:	1c030463          	beqz	t1,44dc <__adddf3+0x224>
    4318:	008006b7          	lui	a3,0x800
    431c:	7ff00793          	li	a5,2047
    4320:	00d86833          	or	a6,a6,a3
    4324:	36f48f63          	beq	s1,a5,46a2 <__adddf3+0x3ea>
    4328:	03800793          	li	a5,56
    432c:	35c7c063          	blt	a5,t3,466c <__adddf3+0x3b4>
    4330:	47fd                	li	a5,31
    4332:	47c7cd63          	blt	a5,t3,47ac <__adddf3+0x4f4>
    4336:	02000513          	li	a0,32
    433a:	41c50533          	sub	a0,a0,t3
    433e:	01cfd7b3          	srl	a5,t6,t3
    4342:	00a816b3          	sll	a3,a6,a0
    4346:	00af9933          	sll	s2,t6,a0
    434a:	8edd                	or	a3,a3,a5
    434c:	01203933          	snez	s2,s2
    4350:	01c857b3          	srl	a5,a6,t3
    4354:	0126e933          	or	s2,a3,s2
    4358:	8f1d                	sub	a4,a4,a5
    435a:	412f0933          	sub	s2,t5,s2
    435e:	012f37b3          	sltu	a5,t5,s2
    4362:	40f70633          	sub	a2,a4,a5
    4366:	00861793          	slli	a5,a2,0x8
    436a:	2407d463          	bgez	a5,45b2 <__adddf3+0x2fa>
    436e:	00800737          	lui	a4,0x800
    4372:	177d                	addi	a4,a4,-1
    4374:	00e67433          	and	s0,a2,a4
    4378:	2c040c63          	beqz	s0,4650 <__adddf3+0x398>
    437c:	8522                	mv	a0,s0
    437e:	567010ef          	jal	ra,60e4 <__clzsi2>
    4382:	ff850713          	addi	a4,a0,-8
    4386:	02000793          	li	a5,32
    438a:	8f99                	sub	a5,a5,a4
    438c:	00f957b3          	srl	a5,s2,a5
    4390:	00e41633          	sll	a2,s0,a4
    4394:	8fd1                	or	a5,a5,a2
    4396:	00e91933          	sll	s2,s2,a4
    439a:	2a974163          	blt	a4,s1,463c <__adddf3+0x384>
    439e:	40970533          	sub	a0,a4,s1
    43a2:	00150613          	addi	a2,a0,1
    43a6:	477d                	li	a4,31
    43a8:	38c74d63          	blt	a4,a2,4742 <__adddf3+0x48a>
    43ac:	02000713          	li	a4,32
    43b0:	8f11                	sub	a4,a4,a2
    43b2:	00c956b3          	srl	a3,s2,a2
    43b6:	00e91933          	sll	s2,s2,a4
    43ba:	00e79733          	sll	a4,a5,a4
    43be:	8f55                	or	a4,a4,a3
    43c0:	01203933          	snez	s2,s2
    43c4:	01276933          	or	s2,a4,s2
    43c8:	00c7d633          	srl	a2,a5,a2
    43cc:	4481                	li	s1,0
    43ce:	00797793          	andi	a5,s2,7
    43d2:	cf81                	beqz	a5,43ea <__adddf3+0x132>
    43d4:	00f97713          	andi	a4,s2,15
    43d8:	4791                	li	a5,4
    43da:	00f70863          	beq	a4,a5,43ea <__adddf3+0x132>
    43de:	00490713          	addi	a4,s2,4
    43e2:	01273933          	sltu	s2,a4,s2
    43e6:	964a                	add	a2,a2,s2
    43e8:	893a                	mv	s2,a4
    43ea:	00861793          	slli	a5,a2,0x8
    43ee:	1c07d663          	bgez	a5,45ba <__adddf3+0x302>
    43f2:	00148513          	addi	a0,s1,1
    43f6:	7ff00793          	li	a5,2047
    43fa:	85ce                	mv	a1,s3
    43fc:	20f50463          	beq	a0,a5,4604 <__adddf3+0x34c>
    4400:	ff8007b7          	lui	a5,0xff800
    4404:	17fd                	addi	a5,a5,-1
    4406:	8ff1                	and	a5,a5,a2
    4408:	01d79893          	slli	a7,a5,0x1d
    440c:	00395913          	srli	s2,s2,0x3
    4410:	07a6                	slli	a5,a5,0x9
    4412:	0128e8b3          	or	a7,a7,s2
    4416:	83b1                	srli	a5,a5,0xc
    4418:	7ff57513          	andi	a0,a0,2047
    441c:	00c79693          	slli	a3,a5,0xc
    4420:	0552                	slli	a0,a0,0x14
    4422:	40f2                	lw	ra,28(sp)
    4424:	4462                	lw	s0,24(sp)
    4426:	82b1                	srli	a3,a3,0xc
    4428:	05fe                	slli	a1,a1,0x1f
    442a:	8ec9                	or	a3,a3,a0
    442c:	8ecd                	or	a3,a3,a1
    442e:	44d2                	lw	s1,20(sp)
    4430:	4942                	lw	s2,16(sp)
    4432:	49b2                	lw	s3,12(sp)
    4434:	8546                	mv	a0,a7
    4436:	85b6                	mv	a1,a3
    4438:	6105                	addi	sp,sp,32
    443a:	8082                	ret
    443c:	0a0e1e63          	bnez	t3,44f8 <__adddf3+0x240>
    4440:	00148313          	addi	t1,s1,1
    4444:	7fe37313          	andi	t1,t1,2046
    4448:	22031763          	bnez	t1,4676 <__adddf3+0x3be>
    444c:	01e767b3          	or	a5,a4,t5
    4450:	01f868b3          	or	a7,a6,t6
    4454:	1a049d63          	bnez	s1,460e <__adddf3+0x356>
    4458:	40078763          	beqz	a5,4866 <__adddf3+0x5ae>
    445c:	44088663          	beqz	a7,48a8 <__adddf3+0x5f0>
    4460:	41ff0933          	sub	s2,t5,t6
    4464:	410707b3          	sub	a5,a4,a6
    4468:	012f3633          	sltu	a2,t5,s2
    446c:	40c78633          	sub	a2,a5,a2
    4470:	00861793          	slli	a5,a2,0x8
    4474:	4c07d663          	bgez	a5,4940 <__adddf3+0x688>
    4478:	41ef8933          	sub	s2,t6,t5
    447c:	40e807b3          	sub	a5,a6,a4
    4480:	012fb633          	sltu	a2,t6,s2
    4484:	40c78633          	sub	a2,a5,a2
    4488:	89f6                	mv	s3,t4
    448a:	b791                	j	43ce <__adddf3+0x116>
    448c:	0fc05063          	blez	t3,456c <__adddf3+0x2b4>
    4490:	0c030063          	beqz	t1,4550 <__adddf3+0x298>
    4494:	008006b7          	lui	a3,0x800
    4498:	7ff00793          	li	a5,2047
    449c:	00d86833          	or	a6,a6,a3
    44a0:	3af48a63          	beq	s1,a5,4854 <__adddf3+0x59c>
    44a4:	03800793          	li	a5,56
    44a8:	13c7cb63          	blt	a5,t3,45de <__adddf3+0x326>
    44ac:	47fd                	li	a5,31
    44ae:	35c7df63          	bge	a5,t3,480c <__adddf3+0x554>
    44b2:	fe0e0913          	addi	s2,t3,-32
    44b6:	02000793          	li	a5,32
    44ba:	012856b3          	srl	a3,a6,s2
    44be:	00fe0a63          	beq	t3,a5,44d2 <__adddf3+0x21a>
    44c2:	04000913          	li	s2,64
    44c6:	41c90933          	sub	s2,s2,t3
    44ca:	01281933          	sll	s2,a6,s2
    44ce:	012fefb3          	or	t6,t6,s2
    44d2:	01f03933          	snez	s2,t6
    44d6:	00d96933          	or	s2,s2,a3
    44da:	a231                	j	45e6 <__adddf3+0x32e>
    44dc:	01f867b3          	or	a5,a6,t6
    44e0:	1c078a63          	beqz	a5,46b4 <__adddf3+0x3fc>
    44e4:	fffe0793          	addi	a5,t3,-1
    44e8:	38078c63          	beqz	a5,4880 <__adddf3+0x5c8>
    44ec:	7ff00693          	li	a3,2047
    44f0:	1ade0963          	beq	t3,a3,46a2 <__adddf3+0x3ea>
    44f4:	8e3e                	mv	t3,a5
    44f6:	bd0d                	j	4328 <__adddf3+0x70>
    44f8:	409305b3          	sub	a1,t1,s1
    44fc:	22049163          	bnez	s1,471e <__adddf3+0x466>
    4500:	01e767b3          	or	a5,a4,t5
    4504:	32078763          	beqz	a5,4832 <__adddf3+0x57a>
    4508:	fff58793          	addi	a5,a1,-1 # 3effffff <__freertos_irq_stack_top+0x1eff7fff>
    450c:	44078163          	beqz	a5,494e <__adddf3+0x696>
    4510:	7ff00693          	li	a3,2047
    4514:	20d58c63          	beq	a1,a3,472c <__adddf3+0x474>
    4518:	85be                	mv	a1,a5
    451a:	03800793          	li	a5,56
    451e:	2ab7cc63          	blt	a5,a1,47d6 <__adddf3+0x51e>
    4522:	47fd                	li	a5,31
    4524:	3cb7cf63          	blt	a5,a1,4902 <__adddf3+0x64a>
    4528:	02000793          	li	a5,32
    452c:	8f8d                	sub	a5,a5,a1
    452e:	00f71933          	sll	s2,a4,a5
    4532:	00bf56b3          	srl	a3,t5,a1
    4536:	00ff17b3          	sll	a5,t5,a5
    453a:	00d96933          	or	s2,s2,a3
    453e:	00f037b3          	snez	a5,a5
    4542:	00b75733          	srl	a4,a4,a1
    4546:	00f96933          	or	s2,s2,a5
    454a:	40e80833          	sub	a6,a6,a4
    454e:	ac41                	j	47de <__adddf3+0x526>
    4550:	01f867b3          	or	a5,a6,t6
    4554:	34078063          	beqz	a5,4894 <__adddf3+0x5dc>
    4558:	fffe0793          	addi	a5,t3,-1
    455c:	20078a63          	beqz	a5,4770 <__adddf3+0x4b8>
    4560:	7ff00693          	li	a3,2047
    4564:	2ede0863          	beq	t3,a3,4854 <__adddf3+0x59c>
    4568:	8e3e                	mv	t3,a5
    456a:	bf2d                	j	44a4 <__adddf3+0x1ec>
    456c:	140e1e63          	bnez	t3,46c8 <__adddf3+0x410>
    4570:	00148693          	addi	a3,s1,1
    4574:	7fe6f793          	andi	a5,a3,2046
    4578:	34079163          	bnez	a5,48ba <__adddf3+0x602>
    457c:	01e767b3          	or	a5,a4,t5
    4580:	2c049563          	bnez	s1,484a <__adddf3+0x592>
    4584:	3e078063          	beqz	a5,4964 <__adddf3+0x6ac>
    4588:	01f867b3          	or	a5,a6,t6
    458c:	30078e63          	beqz	a5,48a8 <__adddf3+0x5f0>
    4590:	01ff0933          	add	s2,t5,t6
    4594:	010707b3          	add	a5,a4,a6
    4598:	01e93f33          	sltu	t5,s2,t5
    459c:	01e78633          	add	a2,a5,t5
    45a0:	00861793          	slli	a5,a2,0x8
    45a4:	0007d763          	bgez	a5,45b2 <__adddf3+0x2fa>
    45a8:	ff8007b7          	lui	a5,0xff800
    45ac:	17fd                	addi	a5,a5,-1
    45ae:	8e7d                	and	a2,a2,a5
    45b0:	4485                	li	s1,1
    45b2:	00797793          	andi	a5,s2,7
    45b6:	e0079fe3          	bnez	a5,43d4 <__adddf3+0x11c>
    45ba:	01d61793          	slli	a5,a2,0x1d
    45be:	00395893          	srli	a7,s2,0x3
    45c2:	00f8e8b3          	or	a7,a7,a5
    45c6:	00365793          	srli	a5,a2,0x3
    45ca:	7ff00713          	li	a4,2047
    45ce:	04e48d63          	beq	s1,a4,4628 <__adddf3+0x370>
    45d2:	07b2                	slli	a5,a5,0xc
    45d4:	83b1                	srli	a5,a5,0xc
    45d6:	7ff4f513          	andi	a0,s1,2047
    45da:	85ce                	mv	a1,s3
    45dc:	b581                	j	441c <__adddf3+0x164>
    45de:	01f86933          	or	s2,a6,t6
    45e2:	01203933          	snez	s2,s2
    45e6:	997a                	add	s2,s2,t5
    45e8:	01e937b3          	sltu	a5,s2,t5
    45ec:	00e78633          	add	a2,a5,a4
    45f0:	00861793          	slli	a5,a2,0x8
    45f4:	fa07dfe3          	bgez	a5,45b2 <__adddf3+0x2fa>
    45f8:	0485                	addi	s1,s1,1
    45fa:	7ff00793          	li	a5,2047
    45fe:	18f49663          	bne	s1,a5,478a <__adddf3+0x4d2>
    4602:	85ce                	mv	a1,s3
    4604:	7ff00513          	li	a0,2047
    4608:	4781                	li	a5,0
    460a:	4881                	li	a7,0
    460c:	bd01                	j	441c <__adddf3+0x164>
    460e:	ebc1                	bnez	a5,469e <__adddf3+0x3e6>
    4610:	3a088463          	beqz	a7,49b8 <__adddf3+0x700>
    4614:	00361693          	slli	a3,a2,0x3
    4618:	01d81793          	slli	a5,a6,0x1d
    461c:	828d                	srli	a3,a3,0x3
    461e:	00d7e8b3          	or	a7,a5,a3
    4622:	89f6                	mv	s3,t4
    4624:	00385793          	srli	a5,a6,0x3
    4628:	00f8e7b3          	or	a5,a7,a5
    462c:	dbf9                	beqz	a5,4602 <__adddf3+0x34a>
    462e:	4581                	li	a1,0
    4630:	7ff00513          	li	a0,2047
    4634:	000807b7          	lui	a5,0x80
    4638:	4881                	li	a7,0
    463a:	b3cd                	j	441c <__adddf3+0x164>
    463c:	ff800637          	lui	a2,0xff800
    4640:	167d                	addi	a2,a2,-1
    4642:	8e7d                	and	a2,a2,a5
    4644:	00797793          	andi	a5,s2,7
    4648:	8c99                	sub	s1,s1,a4
    464a:	d80795e3          	bnez	a5,43d4 <__adddf3+0x11c>
    464e:	b7b5                	j	45ba <__adddf3+0x302>
    4650:	854a                	mv	a0,s2
    4652:	293010ef          	jal	ra,60e4 <__clzsi2>
    4656:	01850713          	addi	a4,a0,24
    465a:	47fd                	li	a5,31
    465c:	d2e7d5e3          	bge	a5,a4,4386 <__adddf3+0xce>
    4660:	ff850613          	addi	a2,a0,-8
    4664:	00c917b3          	sll	a5,s2,a2
    4668:	4901                	li	s2,0
    466a:	bb05                	j	439a <__adddf3+0xe2>
    466c:	01f86933          	or	s2,a6,t6
    4670:	01203933          	snez	s2,s2
    4674:	b1dd                	j	435a <__adddf3+0xa2>
    4676:	41ff0933          	sub	s2,t5,t6
    467a:	41070633          	sub	a2,a4,a6
    467e:	012f3433          	sltu	s0,t5,s2
    4682:	40860433          	sub	s0,a2,s0
    4686:	00841793          	slli	a5,s0,0x8
    468a:	2407cd63          	bltz	a5,48e4 <__adddf3+0x62c>
    468e:	008968b3          	or	a7,s2,s0
    4692:	ce0893e3          	bnez	a7,4378 <__adddf3+0xc0>
    4696:	4781                	li	a5,0
    4698:	4981                	li	s3,0
    469a:	4481                	li	s1,0
    469c:	bf1d                	j	45d2 <__adddf3+0x31a>
    469e:	f80898e3          	bnez	a7,462e <__adddf3+0x376>
    46a2:	050e                	slli	a0,a0,0x3
    46a4:	01d71793          	slli	a5,a4,0x1d
    46a8:	810d                	srli	a0,a0,0x3
    46aa:	00a7e8b3          	or	a7,a5,a0
    46ae:	00375793          	srli	a5,a4,0x3
    46b2:	bf9d                	j	4628 <__adddf3+0x370>
    46b4:	050e                	slli	a0,a0,0x3
    46b6:	01d71793          	slli	a5,a4,0x1d
    46ba:	810d                	srli	a0,a0,0x3
    46bc:	00a7e8b3          	or	a7,a5,a0
    46c0:	84f2                	mv	s1,t3
    46c2:	00375793          	srli	a5,a4,0x3
    46c6:	b711                	j	45ca <__adddf3+0x312>
    46c8:	40930533          	sub	a0,t1,s1
    46cc:	12048263          	beqz	s1,47f0 <__adddf3+0x538>
    46d0:	008006b7          	lui	a3,0x800
    46d4:	7ff00793          	li	a5,2047
    46d8:	8f55                	or	a4,a4,a3
    46da:	2ef30d63          	beq	t1,a5,49d4 <__adddf3+0x71c>
    46de:	03800793          	li	a5,56
    46e2:	20a7cb63          	blt	a5,a0,48f8 <__adddf3+0x640>
    46e6:	47fd                	li	a5,31
    46e8:	2aa7c363          	blt	a5,a0,498e <__adddf3+0x6d6>
    46ec:	02000793          	li	a5,32
    46f0:	8f89                	sub	a5,a5,a0
    46f2:	00f71933          	sll	s2,a4,a5
    46f6:	00af56b3          	srl	a3,t5,a0
    46fa:	00ff17b3          	sll	a5,t5,a5
    46fe:	00d96933          	or	s2,s2,a3
    4702:	00f037b3          	snez	a5,a5
    4706:	00a75733          	srl	a4,a4,a0
    470a:	00f96933          	or	s2,s2,a5
    470e:	983a                	add	a6,a6,a4
    4710:	997e                	add	s2,s2,t6
    4712:	01f937b3          	sltu	a5,s2,t6
    4716:	01078633          	add	a2,a5,a6
    471a:	849a                	mv	s1,t1
    471c:	bdd1                	j	45f0 <__adddf3+0x338>
    471e:	008006b7          	lui	a3,0x800
    4722:	7ff00793          	li	a5,2047
    4726:	8f55                	or	a4,a4,a3
    4728:	def319e3          	bne	t1,a5,451a <__adddf3+0x262>
    472c:	00361793          	slli	a5,a2,0x3
    4730:	838d                	srli	a5,a5,0x3
    4732:	01d81893          	slli	a7,a6,0x1d
    4736:	0117e8b3          	or	a7,a5,a7
    473a:	89f6                	mv	s3,t4
    473c:	00385793          	srli	a5,a6,0x3
    4740:	b5e5                	j	4628 <__adddf3+0x370>
    4742:	fe150713          	addi	a4,a0,-31
    4746:	02000693          	li	a3,32
    474a:	00e7d733          	srl	a4,a5,a4
    474e:	00d60a63          	beq	a2,a3,4762 <__adddf3+0x4aa>
    4752:	04000693          	li	a3,64
    4756:	40c68633          	sub	a2,a3,a2
    475a:	00c79633          	sll	a2,a5,a2
    475e:	00c96933          	or	s2,s2,a2
    4762:	01203933          	snez	s2,s2
    4766:	00e96933          	or	s2,s2,a4
    476a:	4601                	li	a2,0
    476c:	4481                	li	s1,0
    476e:	b591                	j	45b2 <__adddf3+0x2fa>
    4770:	01ff0933          	add	s2,t5,t6
    4774:	010707b3          	add	a5,a4,a6
    4778:	01e93633          	sltu	a2,s2,t5
    477c:	963e                	add	a2,a2,a5
    477e:	00861793          	slli	a5,a2,0x8
    4782:	4485                	li	s1,1
    4784:	e207d7e3          	bgez	a5,45b2 <__adddf3+0x2fa>
    4788:	4489                	li	s1,2
    478a:	ff8007b7          	lui	a5,0xff800
    478e:	17fd                	addi	a5,a5,-1
    4790:	8ff1                	and	a5,a5,a2
    4792:	00195713          	srli	a4,s2,0x1
    4796:	00197913          	andi	s2,s2,1
    479a:	01276933          	or	s2,a4,s2
    479e:	01f79893          	slli	a7,a5,0x1f
    47a2:	0128e933          	or	s2,a7,s2
    47a6:	0017d613          	srli	a2,a5,0x1
    47aa:	b115                	j	43ce <__adddf3+0x116>
    47ac:	fe0e0913          	addi	s2,t3,-32
    47b0:	02000793          	li	a5,32
    47b4:	012856b3          	srl	a3,a6,s2
    47b8:	00fe0a63          	beq	t3,a5,47cc <__adddf3+0x514>
    47bc:	04000913          	li	s2,64
    47c0:	41c90933          	sub	s2,s2,t3
    47c4:	01281933          	sll	s2,a6,s2
    47c8:	012fefb3          	or	t6,t6,s2
    47cc:	01f03933          	snez	s2,t6
    47d0:	00d96933          	or	s2,s2,a3
    47d4:	b659                	j	435a <__adddf3+0xa2>
    47d6:	01e76933          	or	s2,a4,t5
    47da:	01203933          	snez	s2,s2
    47de:	412f8933          	sub	s2,t6,s2
    47e2:	012fb7b3          	sltu	a5,t6,s2
    47e6:	40f80633          	sub	a2,a6,a5
    47ea:	849a                	mv	s1,t1
    47ec:	89f6                	mv	s3,t4
    47ee:	bea5                	j	4366 <__adddf3+0xae>
    47f0:	01e767b3          	or	a5,a4,t5
    47f4:	18078263          	beqz	a5,4978 <__adddf3+0x6c0>
    47f8:	fff50793          	addi	a5,a0,-1
    47fc:	1c078463          	beqz	a5,49c4 <__adddf3+0x70c>
    4800:	7ff00693          	li	a3,2047
    4804:	12d50463          	beq	a0,a3,492c <__adddf3+0x674>
    4808:	853e                	mv	a0,a5
    480a:	bdd1                	j	46de <__adddf3+0x426>
    480c:	02000793          	li	a5,32
    4810:	41c787b3          	sub	a5,a5,t3
    4814:	00f816b3          	sll	a3,a6,a5
    4818:	00ff9933          	sll	s2,t6,a5
    481c:	01cfd633          	srl	a2,t6,t3
    4820:	8ed1                	or	a3,a3,a2
    4822:	01203933          	snez	s2,s2
    4826:	01c857b3          	srl	a5,a6,t3
    482a:	0126e933          	or	s2,a3,s2
    482e:	973e                	add	a4,a4,a5
    4830:	bb5d                	j	45e6 <__adddf3+0x32e>
    4832:	00361793          	slli	a5,a2,0x3
    4836:	838d                	srli	a5,a5,0x3
    4838:	01d81893          	slli	a7,a6,0x1d
    483c:	0117e8b3          	or	a7,a5,a7
    4840:	84ae                	mv	s1,a1
    4842:	00385793          	srli	a5,a6,0x3
    4846:	89f6                	mv	s3,t4
    4848:	b349                	j	45ca <__adddf3+0x312>
    484a:	c3ed                	beqz	a5,492c <__adddf3+0x674>
    484c:	01f86933          	or	s2,a6,t6
    4850:	dc091fe3          	bnez	s2,462e <__adddf3+0x376>
    4854:	050e                	slli	a0,a0,0x3
    4856:	01d71793          	slli	a5,a4,0x1d
    485a:	810d                	srli	a0,a0,0x3
    485c:	00f568b3          	or	a7,a0,a5
    4860:	00375793          	srli	a5,a4,0x3
    4864:	b3d1                	j	4628 <__adddf3+0x370>
    4866:	0e088163          	beqz	a7,4948 <__adddf3+0x690>
    486a:	00361693          	slli	a3,a2,0x3
    486e:	01d81793          	slli	a5,a6,0x1d
    4872:	828d                	srli	a3,a3,0x3
    4874:	00d7e8b3          	or	a7,a5,a3
    4878:	89f6                	mv	s3,t4
    487a:	00385793          	srli	a5,a6,0x3
    487e:	bb91                	j	45d2 <__adddf3+0x31a>
    4880:	41ff0933          	sub	s2,t5,t6
    4884:	410707b3          	sub	a5,a4,a6
    4888:	012f3f33          	sltu	t5,t5,s2
    488c:	41e78633          	sub	a2,a5,t5
    4890:	4485                	li	s1,1
    4892:	bcd1                	j	4366 <__adddf3+0xae>
    4894:	050e                	slli	a0,a0,0x3
    4896:	01d71793          	slli	a5,a4,0x1d
    489a:	810d                	srli	a0,a0,0x3
    489c:	00f568b3          	or	a7,a0,a5
    48a0:	84f2                	mv	s1,t3
    48a2:	00375793          	srli	a5,a4,0x3
    48a6:	b315                	j	45ca <__adddf3+0x312>
    48a8:	050e                	slli	a0,a0,0x3
    48aa:	01d71793          	slli	a5,a4,0x1d
    48ae:	810d                	srli	a0,a0,0x3
    48b0:	00a7e8b3          	or	a7,a5,a0
    48b4:	00375793          	srli	a5,a4,0x3
    48b8:	bb29                	j	45d2 <__adddf3+0x31a>
    48ba:	7ff00793          	li	a5,2047
    48be:	d4f682e3          	beq	a3,a5,4602 <__adddf3+0x34a>
    48c2:	01ff0933          	add	s2,t5,t6
    48c6:	01e93633          	sltu	a2,s2,t5
    48ca:	010707b3          	add	a5,a4,a6
    48ce:	97b2                	add	a5,a5,a2
    48d0:	01f79893          	slli	a7,a5,0x1f
    48d4:	00195913          	srli	s2,s2,0x1
    48d8:	0128e933          	or	s2,a7,s2
    48dc:	0017d613          	srli	a2,a5,0x1
    48e0:	84b6                	mv	s1,a3
    48e2:	b9c1                	j	45b2 <__adddf3+0x2fa>
    48e4:	41ef8933          	sub	s2,t6,t5
    48e8:	40e80733          	sub	a4,a6,a4
    48ec:	012fb633          	sltu	a2,t6,s2
    48f0:	40c70433          	sub	s0,a4,a2
    48f4:	89f6                	mv	s3,t4
    48f6:	b449                	j	4378 <__adddf3+0xc0>
    48f8:	01e76933          	or	s2,a4,t5
    48fc:	01203933          	snez	s2,s2
    4900:	bd01                	j	4710 <__adddf3+0x458>
    4902:	fe058793          	addi	a5,a1,-32
    4906:	02000693          	li	a3,32
    490a:	00f757b3          	srl	a5,a4,a5
    490e:	00d58a63          	beq	a1,a3,4922 <__adddf3+0x66a>
    4912:	04000693          	li	a3,64
    4916:	40b685b3          	sub	a1,a3,a1
    491a:	00b71733          	sll	a4,a4,a1
    491e:	00ef6f33          	or	t5,t5,a4
    4922:	01e03933          	snez	s2,t5
    4926:	00f96933          	or	s2,s2,a5
    492a:	bd55                	j	47de <__adddf3+0x526>
    492c:	00361793          	slli	a5,a2,0x3
    4930:	838d                	srli	a5,a5,0x3
    4932:	01d81893          	slli	a7,a6,0x1d
    4936:	0117e8b3          	or	a7,a5,a7
    493a:	00385793          	srli	a5,a6,0x3
    493e:	b1ed                	j	4628 <__adddf3+0x370>
    4940:	00c968b3          	or	a7,s2,a2
    4944:	c60897e3          	bnez	a7,45b2 <__adddf3+0x2fa>
    4948:	4781                	li	a5,0
    494a:	4981                	li	s3,0
    494c:	b159                	j	45d2 <__adddf3+0x31a>
    494e:	41ef8933          	sub	s2,t6,t5
    4952:	40e807b3          	sub	a5,a6,a4
    4956:	012fb633          	sltu	a2,t6,s2
    495a:	40c78633          	sub	a2,a5,a2
    495e:	89f6                	mv	s3,t4
    4960:	4485                	li	s1,1
    4962:	b411                	j	4366 <__adddf3+0xae>
    4964:	00361693          	slli	a3,a2,0x3
    4968:	01d81793          	slli	a5,a6,0x1d
    496c:	828d                	srli	a3,a3,0x3
    496e:	00d7e8b3          	or	a7,a5,a3
    4972:	00385793          	srli	a5,a6,0x3
    4976:	b9b1                	j	45d2 <__adddf3+0x31a>
    4978:	00361693          	slli	a3,a2,0x3
    497c:	01d81793          	slli	a5,a6,0x1d
    4980:	828d                	srli	a3,a3,0x3
    4982:	00d7e8b3          	or	a7,a5,a3
    4986:	84aa                	mv	s1,a0
    4988:	00385793          	srli	a5,a6,0x3
    498c:	b93d                	j	45ca <__adddf3+0x312>
    498e:	fe050793          	addi	a5,a0,-32
    4992:	02000693          	li	a3,32
    4996:	00f757b3          	srl	a5,a4,a5
    499a:	00d50a63          	beq	a0,a3,49ae <__adddf3+0x6f6>
    499e:	04000693          	li	a3,64
    49a2:	40a68533          	sub	a0,a3,a0
    49a6:	00a71733          	sll	a4,a4,a0
    49aa:	00ef6f33          	or	t5,t5,a4
    49ae:	01e03933          	snez	s2,t5
    49b2:	00f96933          	or	s2,s2,a5
    49b6:	bba9                	j	4710 <__adddf3+0x458>
    49b8:	4581                	li	a1,0
    49ba:	7ff00513          	li	a0,2047
    49be:	000807b7          	lui	a5,0x80
    49c2:	bca9                	j	441c <__adddf3+0x164>
    49c4:	01ff0933          	add	s2,t5,t6
    49c8:	010707b3          	add	a5,a4,a6
    49cc:	01f93633          	sltu	a2,s2,t6
    49d0:	963e                	add	a2,a2,a5
    49d2:	b375                	j	477e <__adddf3+0x4c6>
    49d4:	00361693          	slli	a3,a2,0x3
    49d8:	01d81793          	slli	a5,a6,0x1d
    49dc:	828d                	srli	a3,a3,0x3
    49de:	00d7e8b3          	or	a7,a5,a3
    49e2:	00385793          	srli	a5,a6,0x3
    49e6:	b189                	j	4628 <__adddf3+0x370>

000049e8 <__muldf3>:
    49e8:	7139                	addi	sp,sp,-64
    49ea:	d84a                	sw	s2,48(sp)
    49ec:	0145d913          	srli	s2,a1,0x14
    49f0:	d64e                	sw	s3,44(sp)
    49f2:	d452                	sw	s4,40(sp)
    49f4:	d256                	sw	s5,36(sp)
    49f6:	00c59993          	slli	s3,a1,0xc
    49fa:	de06                	sw	ra,60(sp)
    49fc:	dc22                	sw	s0,56(sp)
    49fe:	da26                	sw	s1,52(sp)
    4a00:	d05a                	sw	s6,32(sp)
    4a02:	ce5e                	sw	s7,28(sp)
    4a04:	7ff97913          	andi	s2,s2,2047
    4a08:	8a2a                	mv	s4,a0
    4a0a:	00c9d993          	srli	s3,s3,0xc
    4a0e:	01f5da93          	srli	s5,a1,0x1f
    4a12:	0e090d63          	beqz	s2,4b0c <__muldf3+0x124>
    4a16:	7ff00793          	li	a5,2047
    4a1a:	18f90663          	beq	s2,a5,4ba6 <__muldf3+0x1be>
    4a1e:	01d55413          	srli	s0,a0,0x1d
    4a22:	098e                	slli	s3,s3,0x3
    4a24:	013469b3          	or	s3,s0,s3
    4a28:	00800437          	lui	s0,0x800
    4a2c:	0089e433          	or	s0,s3,s0
    4a30:	00351493          	slli	s1,a0,0x3
    4a34:	c0190913          	addi	s2,s2,-1023
    4a38:	4981                	li	s3,0
    4a3a:	4b81                	li	s7,0
    4a3c:	0146d713          	srli	a4,a3,0x14
    4a40:	00c69a13          	slli	s4,a3,0xc
    4a44:	7ff77713          	andi	a4,a4,2047
    4a48:	85b2                	mv	a1,a2
    4a4a:	00ca5a13          	srli	s4,s4,0xc
    4a4e:	01f6db13          	srli	s6,a3,0x1f
    4a52:	10070b63          	beqz	a4,4b68 <__muldf3+0x180>
    4a56:	7ff00793          	li	a5,2047
    4a5a:	04f70363          	beq	a4,a5,4aa0 <__muldf3+0xb8>
    4a5e:	01d65793          	srli	a5,a2,0x1d
    4a62:	0a0e                	slli	s4,s4,0x3
    4a64:	0147ea33          	or	s4,a5,s4
    4a68:	c0170713          	addi	a4,a4,-1023 # 7ffc01 <_data_lma+0x7f80e5>
    4a6c:	008007b7          	lui	a5,0x800
    4a70:	00fa67b3          	or	a5,s4,a5
    4a74:	00361593          	slli	a1,a2,0x3
    4a78:	993a                	add	s2,s2,a4
    4a7a:	4881                	li	a7,0
    4a7c:	016ac733          	xor	a4,s5,s6
    4a80:	46bd                	li	a3,15
    4a82:	853a                	mv	a0,a4
    4a84:	00190813          	addi	a6,s2,1
    4a88:	1736e863          	bltu	a3,s3,4bf8 <__muldf3+0x210>
    4a8c:	00003617          	auipc	a2,0x3
    4a90:	df460613          	addi	a2,a2,-524 # 7880 <atanlo+0x10>
    4a94:	098a                	slli	s3,s3,0x2
    4a96:	99b2                	add	s3,s3,a2
    4a98:	0009a683          	lw	a3,0(s3)
    4a9c:	96b2                	add	a3,a3,a2
    4a9e:	8682                	jr	a3
    4aa0:	00ca67b3          	or	a5,s4,a2
    4aa4:	7ff90913          	addi	s2,s2,2047
    4aa8:	12079963          	bnez	a5,4bda <__muldf3+0x1f2>
    4aac:	0029e993          	ori	s3,s3,2
    4ab0:	4581                	li	a1,0
    4ab2:	4889                	li	a7,2
    4ab4:	b7e1                	j	4a7c <__muldf3+0x94>
    4ab6:	4701                	li	a4,0
    4ab8:	7ff00793          	li	a5,2047
    4abc:	00080437          	lui	s0,0x80
    4ac0:	4481                	li	s1,0
    4ac2:	0432                	slli	s0,s0,0xc
    4ac4:	07d2                	slli	a5,a5,0x14
    4ac6:	8031                	srli	s0,s0,0xc
    4ac8:	077e                	slli	a4,a4,0x1f
    4aca:	8c5d                	or	s0,s0,a5
    4acc:	8c59                	or	s0,s0,a4
    4ace:	85a2                	mv	a1,s0
    4ad0:	50f2                	lw	ra,60(sp)
    4ad2:	5462                	lw	s0,56(sp)
    4ad4:	8526                	mv	a0,s1
    4ad6:	5942                	lw	s2,48(sp)
    4ad8:	54d2                	lw	s1,52(sp)
    4ada:	59b2                	lw	s3,44(sp)
    4adc:	5a22                	lw	s4,40(sp)
    4ade:	5a92                	lw	s5,36(sp)
    4ae0:	5b02                	lw	s6,32(sp)
    4ae2:	4bf2                	lw	s7,28(sp)
    4ae4:	6121                	addi	sp,sp,64
    4ae6:	8082                	ret
    4ae8:	855a                	mv	a0,s6
    4aea:	843e                	mv	s0,a5
    4aec:	84ae                	mv	s1,a1
    4aee:	8bc6                	mv	s7,a7
    4af0:	4789                	li	a5,2
    4af2:	0efb8d63          	beq	s7,a5,4bec <__muldf3+0x204>
    4af6:	478d                	li	a5,3
    4af8:	fafb8fe3          	beq	s7,a5,4ab6 <__muldf3+0xce>
    4afc:	4785                	li	a5,1
    4afe:	872a                	mv	a4,a0
    4b00:	38fb9e63          	bne	s7,a5,4e9c <__muldf3+0x4b4>
    4b04:	4781                	li	a5,0
    4b06:	4401                	li	s0,0
    4b08:	4481                	li	s1,0
    4b0a:	bf65                	j	4ac2 <__muldf3+0xda>
    4b0c:	00a9e433          	or	s0,s3,a0
    4b10:	c061                	beqz	s0,4bd0 <__muldf3+0x1e8>
    4b12:	c636                	sw	a3,12(sp)
    4b14:	c432                	sw	a2,8(sp)
    4b16:	2a098c63          	beqz	s3,4dce <__muldf3+0x3e6>
    4b1a:	854e                	mv	a0,s3
    4b1c:	5c8010ef          	jal	ra,60e4 <__clzsi2>
    4b20:	4622                	lw	a2,8(sp)
    4b22:	46b2                	lw	a3,12(sp)
    4b24:	87aa                	mv	a5,a0
    4b26:	ff550713          	addi	a4,a0,-11
    4b2a:	4475                	li	s0,29
    4b2c:	ff878493          	addi	s1,a5,-8 # 7ffff8 <_data_lma+0x7f84dc>
    4b30:	8c19                	sub	s0,s0,a4
    4b32:	009999b3          	sll	s3,s3,s1
    4b36:	008a5433          	srl	s0,s4,s0
    4b3a:	01346433          	or	s0,s0,s3
    4b3e:	009a14b3          	sll	s1,s4,s1
    4b42:	0146d713          	srli	a4,a3,0x14
    4b46:	c0d00913          	li	s2,-1011
    4b4a:	00c69a13          	slli	s4,a3,0xc
    4b4e:	7ff77713          	andi	a4,a4,2047
    4b52:	40f90933          	sub	s2,s2,a5
    4b56:	4981                	li	s3,0
    4b58:	4b81                	li	s7,0
    4b5a:	85b2                	mv	a1,a2
    4b5c:	00ca5a13          	srli	s4,s4,0xc
    4b60:	01f6db13          	srli	s6,a3,0x1f
    4b64:	ee0719e3          	bnez	a4,4a56 <__muldf3+0x6e>
    4b68:	00ca67b3          	or	a5,s4,a2
    4b6c:	c7b1                	beqz	a5,4bb8 <__muldf3+0x1d0>
    4b6e:	220a0f63          	beqz	s4,4dac <__muldf3+0x3c4>
    4b72:	8552                	mv	a0,s4
    4b74:	c432                	sw	a2,8(sp)
    4b76:	56e010ef          	jal	ra,60e4 <__clzsi2>
    4b7a:	4622                	lw	a2,8(sp)
    4b7c:	872a                	mv	a4,a0
    4b7e:	ff550693          	addi	a3,a0,-11
    4b82:	47f5                	li	a5,29
    4b84:	ff870593          	addi	a1,a4,-8
    4b88:	8f95                	sub	a5,a5,a3
    4b8a:	00ba1a33          	sll	s4,s4,a1
    4b8e:	00f657b3          	srl	a5,a2,a5
    4b92:	0147e7b3          	or	a5,a5,s4
    4b96:	00b615b3          	sll	a1,a2,a1
    4b9a:	40e90933          	sub	s2,s2,a4
    4b9e:	c0d90913          	addi	s2,s2,-1011
    4ba2:	4881                	li	a7,0
    4ba4:	bde1                	j	4a7c <__muldf3+0x94>
    4ba6:	00a9e433          	or	s0,s3,a0
    4baa:	ec01                	bnez	s0,4bc2 <__muldf3+0x1da>
    4bac:	49a1                	li	s3,8
    4bae:	4481                	li	s1,0
    4bb0:	7ff00913          	li	s2,2047
    4bb4:	4b89                	li	s7,2
    4bb6:	b559                	j	4a3c <__muldf3+0x54>
    4bb8:	0019e993          	ori	s3,s3,1
    4bbc:	4581                	li	a1,0
    4bbe:	4885                	li	a7,1
    4bc0:	bd75                	j	4a7c <__muldf3+0x94>
    4bc2:	844e                	mv	s0,s3
    4bc4:	84aa                	mv	s1,a0
    4bc6:	49b1                	li	s3,12
    4bc8:	7ff00913          	li	s2,2047
    4bcc:	4b8d                	li	s7,3
    4bce:	b5bd                	j	4a3c <__muldf3+0x54>
    4bd0:	4991                	li	s3,4
    4bd2:	4481                	li	s1,0
    4bd4:	4901                	li	s2,0
    4bd6:	4b85                	li	s7,1
    4bd8:	b595                	j	4a3c <__muldf3+0x54>
    4bda:	0039e993          	ori	s3,s3,3
    4bde:	87d2                	mv	a5,s4
    4be0:	488d                	li	a7,3
    4be2:	bd69                	j	4a7c <__muldf3+0x94>
    4be4:	4789                	li	a5,2
    4be6:	8556                	mv	a0,s5
    4be8:	f0fb97e3          	bne	s7,a5,4af6 <__muldf3+0x10e>
    4bec:	872a                	mv	a4,a0
    4bee:	7ff00793          	li	a5,2047
    4bf2:	4401                	li	s0,0
    4bf4:	4481                	li	s1,0
    4bf6:	b5f1                	j	4ac2 <__muldf3+0xda>
    4bf8:	6ec1                	lui	t4,0x10
    4bfa:	fffe8613          	addi	a2,t4,-1 # ffff <_data_lma+0x84e3>
    4bfe:	0104d693          	srli	a3,s1,0x10
    4c02:	0105de13          	srli	t3,a1,0x10
    4c06:	8cf1                	and	s1,s1,a2
    4c08:	8df1                	and	a1,a1,a2
    4c0a:	02958633          	mul	a2,a1,s1
    4c0e:	02b68333          	mul	t1,a3,a1
    4c12:	01065893          	srli	a7,a2,0x10
    4c16:	029e0533          	mul	a0,t3,s1
    4c1a:	951a                	add	a0,a0,t1
    4c1c:	98aa                	add	a7,a7,a0
    4c1e:	03c682b3          	mul	t0,a3,t3
    4c22:	0068f363          	bgeu	a7,t1,4c28 <__muldf3+0x240>
    4c26:	92f6                	add	t0,t0,t4
    4c28:	6fc1                	lui	t6,0x10
    4c2a:	ffff8313          	addi	t1,t6,-1 # ffff <_data_lma+0x84e3>
    4c2e:	0067f533          	and	a0,a5,t1
    4c32:	0107d393          	srli	t2,a5,0x10
    4c36:	0068f7b3          	and	a5,a7,t1
    4c3a:	07c2                	slli	a5,a5,0x10
    4c3c:	00667333          	and	t1,a2,t1
    4c40:	933e                	add	t1,t1,a5
    4c42:	02950633          	mul	a2,a0,s1
    4c46:	0108d893          	srli	a7,a7,0x10
    4c4a:	02a687b3          	mul	a5,a3,a0
    4c4e:	01065f13          	srli	t5,a2,0x10
    4c52:	029384b3          	mul	s1,t2,s1
    4c56:	94be                	add	s1,s1,a5
    4c58:	94fa                	add	s1,s1,t5
    4c5a:	02768eb3          	mul	t4,a3,t2
    4c5e:	00f4f363          	bgeu	s1,a5,4c64 <__muldf3+0x27c>
    4c62:	9efe                	add	t4,t4,t6
    4c64:	6a41                	lui	s4,0x10
    4c66:	fffa0793          	addi	a5,s4,-1 # ffff <_data_lma+0x84e3>
    4c6a:	01045f93          	srli	t6,s0,0x10
    4c6e:	00f476b3          	and	a3,s0,a5
    4c72:	00f4f9b3          	and	s3,s1,a5
    4c76:	8e7d                	and	a2,a2,a5
    4c78:	80c1                	srli	s1,s1,0x10
    4c7a:	02d58433          	mul	s0,a1,a3
    4c7e:	09c2                	slli	s3,s3,0x10
    4c80:	01d48f33          	add	t5,s1,t4
    4c84:	99b2                	add	s3,s3,a2
    4c86:	98ce                	add	a7,a7,s3
    4c88:	02de07b3          	mul	a5,t3,a3
    4c8c:	01045e93          	srli	t4,s0,0x10
    4c90:	02bf85b3          	mul	a1,t6,a1
    4c94:	97ae                	add	a5,a5,a1
    4c96:	9ebe                	add	t4,t4,a5
    4c98:	03fe0e33          	mul	t3,t3,t6
    4c9c:	00bef363          	bgeu	t4,a1,4ca2 <__muldf3+0x2ba>
    4ca0:	9e52                	add	t3,t3,s4
    4ca2:	67c1                	lui	a5,0x10
    4ca4:	fff78593          	addi	a1,a5,-1 # ffff <_data_lma+0x84e3>
    4ca8:	00bef633          	and	a2,t4,a1
    4cac:	8c6d                	and	s0,s0,a1
    4cae:	0642                	slli	a2,a2,0x10
    4cb0:	9622                	add	a2,a2,s0
    4cb2:	010ede93          	srli	t4,t4,0x10
    4cb6:	02d505b3          	mul	a1,a0,a3
    4cba:	9e76                	add	t3,t3,t4
    4cbc:	02af8533          	mul	a0,t6,a0
    4cc0:	0105d413          	srli	s0,a1,0x10
    4cc4:	02d386b3          	mul	a3,t2,a3
    4cc8:	96aa                	add	a3,a3,a0
    4cca:	96a2                	add	a3,a3,s0
    4ccc:	03f38fb3          	mul	t6,t2,t6
    4cd0:	00a6f363          	bgeu	a3,a0,4cd6 <__muldf3+0x2ee>
    4cd4:	9fbe                	add	t6,t6,a5
    4cd6:	6541                	lui	a0,0x10
    4cd8:	157d                	addi	a0,a0,-1
    4cda:	00a6f7b3          	and	a5,a3,a0
    4cde:	07c2                	slli	a5,a5,0x10
    4ce0:	8d6d                	and	a0,a0,a1
    4ce2:	97aa                	add	a5,a5,a0
    4ce4:	005885b3          	add	a1,a7,t0
    4ce8:	0135b9b3          	sltu	s3,a1,s3
    4cec:	97fa                	add	a5,a5,t5
    4cee:	95b2                	add	a1,a1,a2
    4cf0:	01378433          	add	s0,a5,s3
    4cf4:	00c5b633          	sltu	a2,a1,a2
    4cf8:	01c40eb3          	add	t4,s0,t3
    4cfc:	00ce8533          	add	a0,t4,a2
    4d00:	01343433          	sltu	s0,s0,s3
    4d04:	01e7b7b3          	sltu	a5,a5,t5
    4d08:	8fc1                	or	a5,a5,s0
    4d0a:	01cebe33          	sltu	t3,t4,t3
    4d0e:	0106d413          	srli	s0,a3,0x10
    4d12:	00c53633          	sltu	a2,a0,a2
    4d16:	943e                	add	s0,s0,a5
    4d18:	00ce6633          	or	a2,t3,a2
    4d1c:	00959493          	slli	s1,a1,0x9
    4d20:	9432                	add	s0,s0,a2
    4d22:	947e                	add	s0,s0,t6
    4d24:	0064e4b3          	or	s1,s1,t1
    4d28:	0426                	slli	s0,s0,0x9
    4d2a:	01755693          	srli	a3,a0,0x17
    4d2e:	009034b3          	snez	s1,s1
    4d32:	81dd                	srli	a1,a1,0x17
    4d34:	00951793          	slli	a5,a0,0x9
    4d38:	8ccd                	or	s1,s1,a1
    4d3a:	8c55                	or	s0,s0,a3
    4d3c:	8cdd                	or	s1,s1,a5
    4d3e:	00741793          	slli	a5,s0,0x7
    4d42:	0007db63          	bgez	a5,4d58 <__muldf3+0x370>
    4d46:	0014d793          	srli	a5,s1,0x1
    4d4a:	8885                	andi	s1,s1,1
    4d4c:	01f41693          	slli	a3,s0,0x1f
    4d50:	8cdd                	or	s1,s1,a5
    4d52:	8cd5                	or	s1,s1,a3
    4d54:	8005                	srli	s0,s0,0x1
    4d56:	8942                	mv	s2,a6
    4d58:	3ff90793          	addi	a5,s2,1023
    4d5c:	08f05963          	blez	a5,4dee <__muldf3+0x406>
    4d60:	0074f693          	andi	a3,s1,7
    4d64:	ce81                	beqz	a3,4d7c <__muldf3+0x394>
    4d66:	00f4f693          	andi	a3,s1,15
    4d6a:	4611                	li	a2,4
    4d6c:	00c68863          	beq	a3,a2,4d7c <__muldf3+0x394>
    4d70:	00448693          	addi	a3,s1,4
    4d74:	0096b4b3          	sltu	s1,a3,s1
    4d78:	9426                	add	s0,s0,s1
    4d7a:	84b6                	mv	s1,a3
    4d7c:	00741693          	slli	a3,s0,0x7
    4d80:	0006d863          	bgez	a3,4d90 <__muldf3+0x3a8>
    4d84:	ff0007b7          	lui	a5,0xff000
    4d88:	17fd                	addi	a5,a5,-1
    4d8a:	8c7d                	and	s0,s0,a5
    4d8c:	40090793          	addi	a5,s2,1024
    4d90:	7fe00693          	li	a3,2046
    4d94:	0ef6cf63          	blt	a3,a5,4e92 <__muldf3+0x4aa>
    4d98:	0034d693          	srli	a3,s1,0x3
    4d9c:	01d41493          	slli	s1,s0,0x1d
    4da0:	0426                	slli	s0,s0,0x9
    4da2:	8cd5                	or	s1,s1,a3
    4da4:	8031                	srli	s0,s0,0xc
    4da6:	7ff7f793          	andi	a5,a5,2047
    4daa:	bb21                	j	4ac2 <__muldf3+0xda>
    4dac:	8532                	mv	a0,a2
    4dae:	c432                	sw	a2,8(sp)
    4db0:	334010ef          	jal	ra,60e4 <__clzsi2>
    4db4:	01550693          	addi	a3,a0,21 # 10015 <_data_lma+0x84f9>
    4db8:	47f1                	li	a5,28
    4dba:	02050713          	addi	a4,a0,32
    4dbe:	4622                	lw	a2,8(sp)
    4dc0:	dcd7d1e3          	bge	a5,a3,4b82 <__muldf3+0x19a>
    4dc4:	1561                	addi	a0,a0,-8
    4dc6:	00a617b3          	sll	a5,a2,a0
    4dca:	4581                	li	a1,0
    4dcc:	b3f9                	j	4b9a <__muldf3+0x1b2>
    4dce:	316010ef          	jal	ra,60e4 <__clzsi2>
    4dd2:	01550713          	addi	a4,a0,21
    4dd6:	45f1                	li	a1,28
    4dd8:	02050793          	addi	a5,a0,32
    4ddc:	4622                	lw	a2,8(sp)
    4dde:	46b2                	lw	a3,12(sp)
    4de0:	d4e5d5e3          	bge	a1,a4,4b2a <__muldf3+0x142>
    4de4:	1561                	addi	a0,a0,-8
    4de6:	00aa1433          	sll	s0,s4,a0
    4dea:	4481                	li	s1,0
    4dec:	bb99                	j	4b42 <__muldf3+0x15a>
    4dee:	4685                	li	a3,1
    4df0:	8e9d                	sub	a3,a3,a5
    4df2:	e7b1                	bnez	a5,4e3e <__muldf3+0x456>
    4df4:	41e90913          	addi	s2,s2,1054
    4df8:	012497b3          	sll	a5,s1,s2
    4dfc:	00d4d4b3          	srl	s1,s1,a3
    4e00:	01241933          	sll	s2,s0,s2
    4e04:	00f037b3          	snez	a5,a5
    4e08:	009964b3          	or	s1,s2,s1
    4e0c:	8cdd                	or	s1,s1,a5
    4e0e:	0074f793          	andi	a5,s1,7
    4e12:	00d456b3          	srl	a3,s0,a3
    4e16:	cf81                	beqz	a5,4e2e <__muldf3+0x446>
    4e18:	00f4f793          	andi	a5,s1,15
    4e1c:	4611                	li	a2,4
    4e1e:	00c78863          	beq	a5,a2,4e2e <__muldf3+0x446>
    4e22:	00448793          	addi	a5,s1,4
    4e26:	0097b4b3          	sltu	s1,a5,s1
    4e2a:	96a6                	add	a3,a3,s1
    4e2c:	84be                	mv	s1,a5
    4e2e:	00869793          	slli	a5,a3,0x8
    4e32:	0407d863          	bgez	a5,4e82 <__muldf3+0x49a>
    4e36:	4785                	li	a5,1
    4e38:	4401                	li	s0,0
    4e3a:	4481                	li	s1,0
    4e3c:	b159                	j	4ac2 <__muldf3+0xda>
    4e3e:	03800613          	li	a2,56
    4e42:	ccd641e3          	blt	a2,a3,4b04 <__muldf3+0x11c>
    4e46:	467d                	li	a2,31
    4e48:	fad656e3          	bge	a2,a3,4df4 <__muldf3+0x40c>
    4e4c:	5605                	li	a2,-31
    4e4e:	40f607b3          	sub	a5,a2,a5
    4e52:	02000593          	li	a1,32
    4e56:	00f45633          	srl	a2,s0,a5
    4e5a:	00b68763          	beq	a3,a1,4e68 <__muldf3+0x480>
    4e5e:	43e90913          	addi	s2,s2,1086
    4e62:	012417b3          	sll	a5,s0,s2
    4e66:	8cdd                	or	s1,s1,a5
    4e68:	009034b3          	snez	s1,s1
    4e6c:	8cd1                	or	s1,s1,a2
    4e6e:	0074f693          	andi	a3,s1,7
    4e72:	4401                	li	s0,0
    4e74:	ca99                	beqz	a3,4e8a <__muldf3+0x4a2>
    4e76:	00f4f793          	andi	a5,s1,15
    4e7a:	4611                	li	a2,4
    4e7c:	4681                	li	a3,0
    4e7e:	fac792e3          	bne	a5,a2,4e22 <__muldf3+0x43a>
    4e82:	00969413          	slli	s0,a3,0x9
    4e86:	8031                	srli	s0,s0,0xc
    4e88:	06f6                	slli	a3,a3,0x1d
    4e8a:	808d                	srli	s1,s1,0x3
    4e8c:	8cd5                	or	s1,s1,a3
    4e8e:	4781                	li	a5,0
    4e90:	b90d                	j	4ac2 <__muldf3+0xda>
    4e92:	7ff00793          	li	a5,2047
    4e96:	4401                	li	s0,0
    4e98:	4481                	li	s1,0
    4e9a:	b125                	j	4ac2 <__muldf3+0xda>
    4e9c:	8942                	mv	s2,a6
    4e9e:	bd6d                	j	4d58 <__muldf3+0x370>

00004ea0 <__fixunsdfsi>:
    4ea0:	0145d793          	srli	a5,a1,0x14
    4ea4:	001006b7          	lui	a3,0x100
    4ea8:	fff68713          	addi	a4,a3,-1 # fffff <_data_lma+0xf84e3>
    4eac:	7ff7f793          	andi	a5,a5,2047
    4eb0:	3fe00613          	li	a2,1022
    4eb4:	882a                	mv	a6,a0
    4eb6:	8f6d                	and	a4,a4,a1
    4eb8:	4501                	li	a0,0
    4eba:	81fd                	srli	a1,a1,0x1f
    4ebc:	00f65463          	bge	a2,a5,4ec4 <__fixunsdfsi+0x24>
    4ec0:	c199                	beqz	a1,4ec6 <__fixunsdfsi+0x26>
    4ec2:	8082                	ret
    4ec4:	8082                	ret
    4ec6:	41e00613          	li	a2,1054
    4eca:	557d                	li	a0,-1
    4ecc:	fef64be3          	blt	a2,a5,4ec2 <__fixunsdfsi+0x22>
    4ed0:	43300513          	li	a0,1075
    4ed4:	8d1d                	sub	a0,a0,a5
    4ed6:	467d                	li	a2,31
    4ed8:	8f55                	or	a4,a4,a3
    4eda:	00a64a63          	blt	a2,a0,4eee <__fixunsdfsi+0x4e>
    4ede:	bed78793          	addi	a5,a5,-1043 # fefffbed <__freertos_irq_stack_top+0xdeff7bed>
    4ee2:	00f71733          	sll	a4,a4,a5
    4ee6:	00a85533          	srl	a0,a6,a0
    4eea:	8d59                	or	a0,a0,a4
    4eec:	8082                	ret
    4eee:	41300513          	li	a0,1043
    4ef2:	40f507b3          	sub	a5,a0,a5
    4ef6:	00f75533          	srl	a0,a4,a5
    4efa:	8082                	ret

00004efc <__floatsidf>:
    4efc:	1141                	addi	sp,sp,-16
    4efe:	c606                	sw	ra,12(sp)
    4f00:	c422                	sw	s0,8(sp)
    4f02:	c226                	sw	s1,4(sp)
    4f04:	cd0d                	beqz	a0,4f3e <__floatsidf+0x42>
    4f06:	41f55793          	srai	a5,a0,0x1f
    4f0a:	00a7c4b3          	xor	s1,a5,a0
    4f0e:	8c9d                	sub	s1,s1,a5
    4f10:	842a                	mv	s0,a0
    4f12:	8526                	mv	a0,s1
    4f14:	1d0010ef          	jal	ra,60e4 <__clzsi2>
    4f18:	41e00693          	li	a3,1054
    4f1c:	8e89                	sub	a3,a3,a0
    4f1e:	47a9                	li	a5,10
    4f20:	807d                	srli	s0,s0,0x1f
    4f22:	7ff6f693          	andi	a3,a3,2047
    4f26:	02a7cd63          	blt	a5,a0,4f60 <__floatsidf+0x64>
    4f2a:	472d                	li	a4,11
    4f2c:	8f09                	sub	a4,a4,a0
    4f2e:	00e4d7b3          	srl	a5,s1,a4
    4f32:	0555                	addi	a0,a0,21
    4f34:	07b2                	slli	a5,a5,0xc
    4f36:	00a494b3          	sll	s1,s1,a0
    4f3a:	83b1                	srli	a5,a5,0xc
    4f3c:	a029                	j	4f46 <__floatsidf+0x4a>
    4f3e:	4401                	li	s0,0
    4f40:	4681                	li	a3,0
    4f42:	4781                	li	a5,0
    4f44:	4481                	li	s1,0
    4f46:	07b2                	slli	a5,a5,0xc
    4f48:	06d2                	slli	a3,a3,0x14
    4f4a:	83b1                	srli	a5,a5,0xc
    4f4c:	047e                	slli	s0,s0,0x1f
    4f4e:	8fd5                	or	a5,a5,a3
    4f50:	8fc1                	or	a5,a5,s0
    4f52:	40b2                	lw	ra,12(sp)
    4f54:	4422                	lw	s0,8(sp)
    4f56:	8526                	mv	a0,s1
    4f58:	85be                	mv	a1,a5
    4f5a:	4492                	lw	s1,4(sp)
    4f5c:	0141                	addi	sp,sp,16
    4f5e:	8082                	ret
    4f60:	1555                	addi	a0,a0,-11
    4f62:	00a497b3          	sll	a5,s1,a0
    4f66:	07b2                	slli	a5,a5,0xc
    4f68:	83b1                	srli	a5,a5,0xc
    4f6a:	4481                	li	s1,0
    4f6c:	bfe9                	j	4f46 <__floatsidf+0x4a>

00004f6e <__addsf3>:
    4f6e:	1141                	addi	sp,sp,-16
    4f70:	00800737          	lui	a4,0x800
    4f74:	177d                	addi	a4,a4,-1
    4f76:	0175d813          	srli	a6,a1,0x17
    4f7a:	c226                	sw	s1,4(sp)
    4f7c:	01755493          	srli	s1,a0,0x17
    4f80:	00a77333          	and	t1,a4,a0
    4f84:	0ff4f493          	andi	s1,s1,255
    4f88:	00b776b3          	and	a3,a4,a1
    4f8c:	c04a                	sw	s2,0(sp)
    4f8e:	0ff87813          	andi	a6,a6,255
    4f92:	01f55913          	srli	s2,a0,0x1f
    4f96:	c606                	sw	ra,12(sp)
    4f98:	c422                	sw	s0,8(sp)
    4f9a:	81fd                	srli	a1,a1,0x1f
    4f9c:	879a                	mv	a5,t1
    4f9e:	8526                	mv	a0,s1
    4fa0:	864a                	mv	a2,s2
    4fa2:	00331e13          	slli	t3,t1,0x3
    4fa6:	00369e93          	slli	t4,a3,0x3
    4faa:	410488b3          	sub	a7,s1,a6
    4fae:	0eb90a63          	beq	s2,a1,50a2 <__addsf3+0x134>
    4fb2:	0d105063          	blez	a7,5072 <__addsf3+0x104>
    4fb6:	14080463          	beqz	a6,50fe <__addsf3+0x190>
    4fba:	0ff00793          	li	a5,255
    4fbe:	14f48b63          	beq	s1,a5,5114 <__addsf3+0x1a6>
    4fc2:	040007b7          	lui	a5,0x4000
    4fc6:	00feeeb3          	or	t4,t4,a5
    4fca:	47ed                	li	a5,27
    4fcc:	2917c163          	blt	a5,a7,524e <__addsf3+0x2e0>
    4fd0:	02000793          	li	a5,32
    4fd4:	411787b3          	sub	a5,a5,a7
    4fd8:	00fe97b3          	sll	a5,t4,a5
    4fdc:	011ed8b3          	srl	a7,t4,a7
    4fe0:	00f037b3          	snez	a5,a5
    4fe4:	00f8e7b3          	or	a5,a7,a5
    4fe8:	40fe07b3          	sub	a5,t3,a5
    4fec:	00579713          	slli	a4,a5,0x5
    4ff0:	18075e63          	bgez	a4,518c <__addsf3+0x21e>
    4ff4:	04000437          	lui	s0,0x4000
    4ff8:	147d                	addi	s0,s0,-1
    4ffa:	8c7d                	and	s0,s0,a5
    4ffc:	8522                	mv	a0,s0
    4ffe:	0e6010ef          	jal	ra,60e4 <__clzsi2>
    5002:	156d                	addi	a0,a0,-5
    5004:	00a417b3          	sll	a5,s0,a0
    5008:	1a954863          	blt	a0,s1,51b8 <__addsf3+0x24a>
    500c:	8d05                	sub	a0,a0,s1
    500e:	00150413          	addi	s0,a0,1
    5012:	02000713          	li	a4,32
    5016:	8f01                	sub	a4,a4,s0
    5018:	00e79733          	sll	a4,a5,a4
    501c:	00e03733          	snez	a4,a4
    5020:	0087d7b3          	srl	a5,a5,s0
    5024:	8fd9                	or	a5,a5,a4
    5026:	4481                	li	s1,0
    5028:	0077f713          	andi	a4,a5,7
    502c:	c719                	beqz	a4,503a <__addsf3+0xcc>
    502e:	00f7f713          	andi	a4,a5,15
    5032:	4691                	li	a3,4
    5034:	00d70363          	beq	a4,a3,503a <__addsf3+0xcc>
    5038:	0791                	addi	a5,a5,4
    503a:	00579713          	slli	a4,a5,0x5
    503e:	14075b63          	bgez	a4,5194 <__addsf3+0x226>
    5042:	0485                	addi	s1,s1,1
    5044:	0ff00713          	li	a4,255
    5048:	864a                	mv	a2,s2
    504a:	16e48363          	beq	s1,a4,51b0 <__addsf3+0x242>
    504e:	079a                	slli	a5,a5,0x6
    5050:	83a5                	srli	a5,a5,0x9
    5052:	0ff4f513          	andi	a0,s1,255
    5056:	40b2                	lw	ra,12(sp)
    5058:	4422                	lw	s0,8(sp)
    505a:	07a6                	slli	a5,a5,0x9
    505c:	01751493          	slli	s1,a0,0x17
    5060:	0097d513          	srli	a0,a5,0x9
    5064:	8d45                	or	a0,a0,s1
    5066:	067e                	slli	a2,a2,0x1f
    5068:	4492                	lw	s1,4(sp)
    506a:	4902                	lw	s2,0(sp)
    506c:	8d51                	or	a0,a0,a2
    506e:	0141                	addi	sp,sp,16
    5070:	8082                	ret
    5072:	0a089963          	bnez	a7,5124 <__addsf3+0x1b6>
    5076:	00148713          	addi	a4,s1,1
    507a:	0fe77713          	andi	a4,a4,254
    507e:	14071763          	bnez	a4,51cc <__addsf3+0x25e>
    5082:	22049063          	bnez	s1,52a2 <__addsf3+0x334>
    5086:	1e0e0d63          	beqz	t3,5280 <__addsf3+0x312>
    508a:	fc0e86e3          	beqz	t4,5056 <__addsf3+0xe8>
    508e:	41de07b3          	sub	a5,t3,t4
    5092:	00579713          	slli	a4,a5,0x5
    5096:	22075063          	bgez	a4,52b6 <__addsf3+0x348>
    509a:	41ce87b3          	sub	a5,t4,t3
    509e:	892e                	mv	s2,a1
    50a0:	b761                	j	5028 <__addsf3+0xba>
    50a2:	0b105c63          	blez	a7,515a <__addsf3+0x1ec>
    50a6:	08080e63          	beqz	a6,5142 <__addsf3+0x1d4>
    50aa:	0ff00793          	li	a5,255
    50ae:	06f48363          	beq	s1,a5,5114 <__addsf3+0x1a6>
    50b2:	040007b7          	lui	a5,0x4000
    50b6:	00feeeb3          	or	t4,t4,a5
    50ba:	47ed                	li	a5,27
    50bc:	1f17c963          	blt	a5,a7,52ae <__addsf3+0x340>
    50c0:	02000793          	li	a5,32
    50c4:	411787b3          	sub	a5,a5,a7
    50c8:	00fe97b3          	sll	a5,t4,a5
    50cc:	011ed8b3          	srl	a7,t4,a7
    50d0:	00f037b3          	snez	a5,a5
    50d4:	00f8e7b3          	or	a5,a7,a5
    50d8:	97f2                	add	a5,a5,t3
    50da:	00579713          	slli	a4,a5,0x5
    50de:	0a075763          	bgez	a4,518c <__addsf3+0x21e>
    50e2:	0485                	addi	s1,s1,1
    50e4:	0ff00713          	li	a4,255
    50e8:	0ce48463          	beq	s1,a4,51b0 <__addsf3+0x242>
    50ec:	7e0006b7          	lui	a3,0x7e000
    50f0:	0017d713          	srli	a4,a5,0x1
    50f4:	16fd                	addi	a3,a3,-1
    50f6:	8b85                	andi	a5,a5,1
    50f8:	8f75                	and	a4,a4,a3
    50fa:	8fd9                	or	a5,a5,a4
    50fc:	b735                	j	5028 <__addsf3+0xba>
    50fe:	080e8d63          	beqz	t4,5198 <__addsf3+0x22a>
    5102:	18fd                	addi	a7,a7,-1
    5104:	41de07b3          	sub	a5,t3,t4
    5108:	ee0882e3          	beqz	a7,4fec <__addsf3+0x7e>
    510c:	0ff00793          	li	a5,255
    5110:	eaf49de3          	bne	s1,a5,4fca <__addsf3+0x5c>
    5114:	08030d63          	beqz	t1,51ae <__addsf3+0x240>
    5118:	4601                	li	a2,0
    511a:	0ff00513          	li	a0,255
    511e:	004007b7          	lui	a5,0x400
    5122:	bf15                	j	5056 <__addsf3+0xe8>
    5124:	40980733          	sub	a4,a6,s1
    5128:	e8ed                	bnez	s1,521a <__addsf3+0x2ac>
    512a:	140e0263          	beqz	t3,526e <__addsf3+0x300>
    512e:	177d                	addi	a4,a4,-1
    5130:	18070863          	beqz	a4,52c0 <__addsf3+0x352>
    5134:	0ff00793          	li	a5,255
    5138:	0ef81963          	bne	a6,a5,522a <__addsf3+0x2bc>
    513c:	892e                	mv	s2,a1
    513e:	8336                	mv	t1,a3
    5140:	bfd1                	j	5114 <__addsf3+0x1a6>
    5142:	040e8b63          	beqz	t4,5198 <__addsf3+0x22a>
    5146:	18fd                	addi	a7,a7,-1
    5148:	01de07b3          	add	a5,t3,t4
    514c:	f80887e3          	beqz	a7,50da <__addsf3+0x16c>
    5150:	0ff00793          	li	a5,255
    5154:	f6f493e3          	bne	s1,a5,50ba <__addsf3+0x14c>
    5158:	bf75                	j	5114 <__addsf3+0x1a6>
    515a:	08089563          	bnez	a7,51e4 <__addsf3+0x276>
    515e:	0485                	addi	s1,s1,1
    5160:	0fe4f713          	andi	a4,s1,254
    5164:	12071363          	bnez	a4,528a <__addsf3+0x31c>
    5168:	10051763          	bnez	a0,5276 <__addsf3+0x308>
    516c:	140e0f63          	beqz	t3,52ca <__addsf3+0x35c>
    5170:	ee0e83e3          	beqz	t4,5056 <__addsf3+0xe8>
    5174:	01de07b3          	add	a5,t3,t4
    5178:	00579713          	slli	a4,a5,0x5
    517c:	4481                	li	s1,0
    517e:	00075763          	bgez	a4,518c <__addsf3+0x21e>
    5182:	fc000737          	lui	a4,0xfc000
    5186:	177d                	addi	a4,a4,-1
    5188:	8ff9                	and	a5,a5,a4
    518a:	4485                	li	s1,1
    518c:	0077f713          	andi	a4,a5,7
    5190:	e8071fe3          	bnez	a4,502e <__addsf3+0xc0>
    5194:	0037d313          	srli	t1,a5,0x3
    5198:	0ff00793          	li	a5,255
    519c:	f6f48ce3          	beq	s1,a5,5114 <__addsf3+0x1a6>
    51a0:	00931793          	slli	a5,t1,0x9
    51a4:	83a5                	srli	a5,a5,0x9
    51a6:	0ff4f513          	andi	a0,s1,255
    51aa:	864a                	mv	a2,s2
    51ac:	b56d                	j	5056 <__addsf3+0xe8>
    51ae:	864a                	mv	a2,s2
    51b0:	0ff00513          	li	a0,255
    51b4:	4781                	li	a5,0
    51b6:	b545                	j	5056 <__addsf3+0xe8>
    51b8:	fc000737          	lui	a4,0xfc000
    51bc:	177d                	addi	a4,a4,-1
    51be:	8ff9                	and	a5,a5,a4
    51c0:	0077f713          	andi	a4,a5,7
    51c4:	8c89                	sub	s1,s1,a0
    51c6:	e60714e3          	bnez	a4,502e <__addsf3+0xc0>
    51ca:	b7e9                	j	5194 <__addsf3+0x226>
    51cc:	41de0433          	sub	s0,t3,t4
    51d0:	00541793          	slli	a5,s0,0x5
    51d4:	0c07c363          	bltz	a5,529a <__addsf3+0x32c>
    51d8:	e20412e3          	bnez	s0,4ffc <__addsf3+0x8e>
    51dc:	4601                	li	a2,0
    51de:	4501                	li	a0,0
    51e0:	4781                	li	a5,0
    51e2:	bd95                	j	5056 <__addsf3+0xe8>
    51e4:	40980733          	sub	a4,a6,s1
    51e8:	c4ad                	beqz	s1,5252 <__addsf3+0x2e4>
    51ea:	0ff00793          	li	a5,255
    51ee:	f4f808e3          	beq	a6,a5,513e <__addsf3+0x1d0>
    51f2:	040007b7          	lui	a5,0x4000
    51f6:	00fe6e33          	or	t3,t3,a5
    51fa:	47ed                	li	a5,27
    51fc:	0ce7cc63          	blt	a5,a4,52d4 <__addsf3+0x366>
    5200:	02000793          	li	a5,32
    5204:	8f99                	sub	a5,a5,a4
    5206:	00fe17b3          	sll	a5,t3,a5
    520a:	00ee5733          	srl	a4,t3,a4
    520e:	00f037b3          	snez	a5,a5
    5212:	8fd9                	or	a5,a5,a4
    5214:	97f6                	add	a5,a5,t4
    5216:	84c2                	mv	s1,a6
    5218:	b5c9                	j	50da <__addsf3+0x16c>
    521a:	0ff00793          	li	a5,255
    521e:	f0f80fe3          	beq	a6,a5,513c <__addsf3+0x1ce>
    5222:	040007b7          	lui	a5,0x4000
    5226:	00fe6e33          	or	t3,t3,a5
    522a:	47ed                	li	a5,27
    522c:	08e7c363          	blt	a5,a4,52b2 <__addsf3+0x344>
    5230:	02000693          	li	a3,32
    5234:	8e99                	sub	a3,a3,a4
    5236:	00de16b3          	sll	a3,t3,a3
    523a:	00ee57b3          	srl	a5,t3,a4
    523e:	00d03733          	snez	a4,a3
    5242:	8fd9                	or	a5,a5,a4
    5244:	40fe87b3          	sub	a5,t4,a5
    5248:	84c2                	mv	s1,a6
    524a:	892e                	mv	s2,a1
    524c:	b345                	j	4fec <__addsf3+0x7e>
    524e:	4785                	li	a5,1
    5250:	bb61                	j	4fe8 <__addsf3+0x7a>
    5252:	060e0e63          	beqz	t3,52ce <__addsf3+0x360>
    5256:	177d                	addi	a4,a4,-1
    5258:	01de07b3          	add	a5,t3,t4
    525c:	84c2                	mv	s1,a6
    525e:	e6070ee3          	beqz	a4,50da <__addsf3+0x16c>
    5262:	0ff00793          	li	a5,255
    5266:	f8f81ae3          	bne	a6,a5,51fa <__addsf3+0x28c>
    526a:	8336                	mv	t1,a3
    526c:	b565                	j	5114 <__addsf3+0x1a6>
    526e:	8336                	mv	t1,a3
    5270:	84c2                	mv	s1,a6
    5272:	892e                	mv	s2,a1
    5274:	b715                	j	5198 <__addsf3+0x22a>
    5276:	ec0e04e3          	beqz	t3,513e <__addsf3+0x1d0>
    527a:	e80e8de3          	beqz	t4,5114 <__addsf3+0x1a6>
    527e:	bd69                	j	5118 <__addsf3+0x1aa>
    5280:	020e8d63          	beqz	t4,52ba <__addsf3+0x34c>
    5284:	862e                	mv	a2,a1
    5286:	87b6                	mv	a5,a3
    5288:	b3f9                	j	5056 <__addsf3+0xe8>
    528a:	0ff00793          	li	a5,255
    528e:	f2f481e3          	beq	s1,a5,51b0 <__addsf3+0x242>
    5292:	01de07b3          	add	a5,t3,t4
    5296:	8385                	srli	a5,a5,0x1
    5298:	bdd5                	j	518c <__addsf3+0x21e>
    529a:	41ce8433          	sub	s0,t4,t3
    529e:	892e                	mv	s2,a1
    52a0:	bbb1                	j	4ffc <__addsf3+0x8e>
    52a2:	fc0e1ce3          	bnez	t3,527a <__addsf3+0x30c>
    52a6:	e60e89e3          	beqz	t4,5118 <__addsf3+0x1aa>
    52aa:	892e                	mv	s2,a1
    52ac:	bd49                	j	513e <__addsf3+0x1d0>
    52ae:	4785                	li	a5,1
    52b0:	b525                	j	50d8 <__addsf3+0x16a>
    52b2:	4785                	li	a5,1
    52b4:	bf41                	j	5244 <__addsf3+0x2d6>
    52b6:	ec079be3          	bnez	a5,518c <__addsf3+0x21e>
    52ba:	4601                	li	a2,0
    52bc:	4781                	li	a5,0
    52be:	bb61                	j	5056 <__addsf3+0xe8>
    52c0:	41ce87b3          	sub	a5,t4,t3
    52c4:	84c2                	mv	s1,a6
    52c6:	892e                	mv	s2,a1
    52c8:	b315                	j	4fec <__addsf3+0x7e>
    52ca:	87b6                	mv	a5,a3
    52cc:	b369                	j	5056 <__addsf3+0xe8>
    52ce:	8336                	mv	t1,a3
    52d0:	84c2                	mv	s1,a6
    52d2:	b5d9                	j	5198 <__addsf3+0x22a>
    52d4:	4785                	li	a5,1
    52d6:	bf3d                	j	5214 <__addsf3+0x2a6>

000052d8 <__divsf3>:
    52d8:	7139                	addi	sp,sp,-64
    52da:	01755793          	srli	a5,a0,0x17
    52de:	d84a                	sw	s2,48(sp)
    52e0:	d256                	sw	s5,36(sp)
    52e2:	ce5e                	sw	s7,28(sp)
    52e4:	00951a93          	slli	s5,a0,0x9
    52e8:	01f55913          	srli	s2,a0,0x1f
    52ec:	de06                	sw	ra,60(sp)
    52ee:	dc22                	sw	s0,56(sp)
    52f0:	da26                	sw	s1,52(sp)
    52f2:	d64e                	sw	s3,44(sp)
    52f4:	d452                	sw	s4,40(sp)
    52f6:	d05a                	sw	s6,32(sp)
    52f8:	0ff7f793          	andi	a5,a5,255
    52fc:	009ada93          	srli	s5,s5,0x9
    5300:	8bca                	mv	s7,s2
    5302:	12078263          	beqz	a5,5426 <__divsf3+0x14e>
    5306:	0ff00713          	li	a4,255
    530a:	12e78463          	beq	a5,a4,5432 <__divsf3+0x15a>
    530e:	0a8e                	slli	s5,s5,0x3
    5310:	04000737          	lui	a4,0x4000
    5314:	00eaeab3          	or	s5,s5,a4
    5318:	f8178a13          	addi	s4,a5,-127 # 3ffff81 <_data_lma+0x3ff8465>
    531c:	4401                	li	s0,0
    531e:	4b01                	li	s6,0
    5320:	0175d793          	srli	a5,a1,0x17
    5324:	00959493          	slli	s1,a1,0x9
    5328:	0ff7f793          	andi	a5,a5,255
    532c:	80a5                	srli	s1,s1,0x9
    532e:	01f5d993          	srli	s3,a1,0x1f
    5332:	c7fd                	beqz	a5,5420 <__divsf3+0x148>
    5334:	0ff00713          	li	a4,255
    5338:	02e78763          	beq	a5,a4,5366 <__divsf3+0x8e>
    533c:	048e                	slli	s1,s1,0x3
    533e:	f8178793          	addi	a5,a5,-127
    5342:	04000737          	lui	a4,0x4000
    5346:	8cd9                	or	s1,s1,a4
    5348:	40fa0a33          	sub	s4,s4,a5
    534c:	4681                	li	a3,0
    534e:	8c55                	or	s0,s0,a3
    5350:	00002717          	auipc	a4,0x2
    5354:	57070713          	addi	a4,a4,1392 # 78c0 <atanlo+0x50>
    5358:	040a                	slli	s0,s0,0x2
    535a:	943a                	add	s0,s0,a4
    535c:	401c                	lw	a5,0(s0)
    535e:	01394933          	xor	s2,s2,s3
    5362:	97ba                	add	a5,a5,a4
    5364:	8782                	jr	a5
    5366:	f01a0a13          	addi	s4,s4,-255
    536a:	e8f9                	bnez	s1,5440 <__divsf3+0x168>
    536c:	4689                	li	a3,2
    536e:	8c55                	or	s0,s0,a3
    5370:	00002717          	auipc	a4,0x2
    5374:	59070713          	addi	a4,a4,1424 # 7900 <atanlo+0x90>
    5378:	040a                	slli	s0,s0,0x2
    537a:	943a                	add	s0,s0,a4
    537c:	401c                	lw	a5,0(s0)
    537e:	01394933          	xor	s2,s2,s3
    5382:	97ba                	add	a5,a5,a4
    5384:	8782                	jr	a5
    5386:	4901                	li	s2,0
    5388:	0ff00713          	li	a4,255
    538c:	004007b7          	lui	a5,0x400
    5390:	00979513          	slli	a0,a5,0x9
    5394:	50f2                	lw	ra,60(sp)
    5396:	5462                	lw	s0,56(sp)
    5398:	01771793          	slli	a5,a4,0x17
    539c:	8125                	srli	a0,a0,0x9
    539e:	097e                	slli	s2,s2,0x1f
    53a0:	8d5d                	or	a0,a0,a5
    53a2:	01256533          	or	a0,a0,s2
    53a6:	54d2                	lw	s1,52(sp)
    53a8:	5942                	lw	s2,48(sp)
    53aa:	59b2                	lw	s3,44(sp)
    53ac:	5a22                	lw	s4,40(sp)
    53ae:	5a92                	lw	s5,36(sp)
    53b0:	5b02                	lw	s6,32(sp)
    53b2:	4bf2                	lw	s7,28(sp)
    53b4:	6121                	addi	sp,sp,64
    53b6:	8082                	ret
    53b8:	0ff00713          	li	a4,255
    53bc:	4781                	li	a5,0
    53be:	bfc9                	j	5390 <__divsf3+0xb8>
    53c0:	8aa6                	mv	s5,s1
    53c2:	8bce                	mv	s7,s3
    53c4:	8b36                	mv	s6,a3
    53c6:	4789                	li	a5,2
    53c8:	1afb0b63          	beq	s6,a5,557e <__divsf3+0x2a6>
    53cc:	478d                	li	a5,3
    53ce:	fafb0ce3          	beq	s6,a5,5386 <__divsf3+0xae>
    53d2:	4785                	li	a5,1
    53d4:	0afb0a63          	beq	s6,a5,5488 <__divsf3+0x1b0>
    53d8:	07fa0713          	addi	a4,s4,127
    53dc:	001bf913          	andi	s2,s7,1
    53e0:	12e05763          	blez	a4,550e <__divsf3+0x236>
    53e4:	007af793          	andi	a5,s5,7
    53e8:	c799                	beqz	a5,53f6 <__divsf3+0x11e>
    53ea:	00faf793          	andi	a5,s5,15
    53ee:	4691                	li	a3,4
    53f0:	00d78363          	beq	a5,a3,53f6 <__divsf3+0x11e>
    53f4:	0a91                	addi	s5,s5,4
    53f6:	004a9793          	slli	a5,s5,0x4
    53fa:	0007d963          	bgez	a5,540c <__divsf3+0x134>
    53fe:	f80007b7          	lui	a5,0xf8000
    5402:	17fd                	addi	a5,a5,-1
    5404:	00fafab3          	and	s5,s5,a5
    5408:	080a0713          	addi	a4,s4,128
    540c:	0fe00793          	li	a5,254
    5410:	fae7c4e3          	blt	a5,a4,53b8 <__divsf3+0xe0>
    5414:	006a9793          	slli	a5,s5,0x6
    5418:	83a5                	srli	a5,a5,0x9
    541a:	0ff77713          	andi	a4,a4,255
    541e:	bf8d                	j	5390 <__divsf3+0xb8>
    5420:	e4b9                	bnez	s1,546e <__divsf3+0x196>
    5422:	4685                	li	a3,1
    5424:	b7a9                	j	536e <__divsf3+0x96>
    5426:	020a9463          	bnez	s5,544e <__divsf3+0x176>
    542a:	4411                	li	s0,4
    542c:	4a01                	li	s4,0
    542e:	4b05                	li	s6,1
    5430:	bdc5                	j	5320 <__divsf3+0x48>
    5432:	000a9963          	bnez	s5,5444 <__divsf3+0x16c>
    5436:	4421                	li	s0,8
    5438:	0ff00a13          	li	s4,255
    543c:	4b09                	li	s6,2
    543e:	b5cd                	j	5320 <__divsf3+0x48>
    5440:	468d                	li	a3,3
    5442:	b731                	j	534e <__divsf3+0x76>
    5444:	4431                	li	s0,12
    5446:	0ff00a13          	li	s4,255
    544a:	4b0d                	li	s6,3
    544c:	bdd1                	j	5320 <__divsf3+0x48>
    544e:	8556                	mv	a0,s5
    5450:	c62e                	sw	a1,12(sp)
    5452:	493000ef          	jal	ra,60e4 <__clzsi2>
    5456:	ffb50793          	addi	a5,a0,-5
    545a:	00fa9ab3          	sll	s5,s5,a5
    545e:	f8a00793          	li	a5,-118
    5462:	40a78a33          	sub	s4,a5,a0
    5466:	4401                	li	s0,0
    5468:	4b01                	li	s6,0
    546a:	45b2                	lw	a1,12(sp)
    546c:	bd55                	j	5320 <__divsf3+0x48>
    546e:	8526                	mv	a0,s1
    5470:	475000ef          	jal	ra,60e4 <__clzsi2>
    5474:	ffb50713          	addi	a4,a0,-5
    5478:	00aa07b3          	add	a5,s4,a0
    547c:	00e494b3          	sll	s1,s1,a4
    5480:	07678a13          	addi	s4,a5,118 # f8000076 <__freertos_irq_stack_top+0xd7ff8076>
    5484:	4681                	li	a3,0
    5486:	b5e1                	j	534e <__divsf3+0x76>
    5488:	001bf913          	andi	s2,s7,1
    548c:	4701                	li	a4,0
    548e:	4781                	li	a5,0
    5490:	b701                	j	5390 <__divsf3+0xb8>
    5492:	6641                	lui	a2,0x10
    5494:	00549513          	slli	a0,s1,0x5
    5498:	167d                	addi	a2,a2,-1
    549a:	01055793          	srli	a5,a0,0x10
    549e:	8e69                	and	a2,a2,a0
    54a0:	0a9afa63          	bgeu	s5,s1,5554 <__divsf3+0x27c>
    54a4:	02fad5b3          	divu	a1,s5,a5
    54a8:	1a7d                	addi	s4,s4,-1
    54aa:	86d6                	mv	a3,s5
    54ac:	4701                	li	a4,0
    54ae:	02c58833          	mul	a6,a1,a2
    54b2:	02f6f6b3          	remu	a3,a3,a5
    54b6:	06c2                	slli	a3,a3,0x10
    54b8:	8f55                	or	a4,a4,a3
    54ba:	01077b63          	bgeu	a4,a6,54d0 <__divsf3+0x1f8>
    54be:	972a                	add	a4,a4,a0
    54c0:	fff58693          	addi	a3,a1,-1
    54c4:	0aa76863          	bltu	a4,a0,5574 <__divsf3+0x29c>
    54c8:	0b077663          	bgeu	a4,a6,5574 <__divsf3+0x29c>
    54cc:	15f9                	addi	a1,a1,-2
    54ce:	972a                	add	a4,a4,a0
    54d0:	41070733          	sub	a4,a4,a6
    54d4:	02f756b3          	divu	a3,a4,a5
    54d8:	02f77733          	remu	a4,a4,a5
    54dc:	02c68ab3          	mul	s5,a3,a2
    54e0:	01071793          	slli	a5,a4,0x10
    54e4:	0157fb63          	bgeu	a5,s5,54fa <__divsf3+0x222>
    54e8:	97aa                	add	a5,a5,a0
    54ea:	fff68713          	addi	a4,a3,-1 # 7dffffff <__freertos_irq_stack_top+0x5dff7fff>
    54ee:	08a7e163          	bltu	a5,a0,5570 <__divsf3+0x298>
    54f2:	0757ff63          	bgeu	a5,s5,5570 <__divsf3+0x298>
    54f6:	16f9                	addi	a3,a3,-2
    54f8:	97aa                	add	a5,a5,a0
    54fa:	05c2                	slli	a1,a1,0x10
    54fc:	41578ab3          	sub	s5,a5,s5
    5500:	8dd5                	or	a1,a1,a3
    5502:	01503ab3          	snez	s5,s5
    5506:	0155eab3          	or	s5,a1,s5
    550a:	8bca                	mv	s7,s2
    550c:	b5f1                	j	53d8 <__divsf3+0x100>
    550e:	4685                	li	a3,1
    5510:	8e99                	sub	a3,a3,a4
    5512:	c711                	beqz	a4,551e <__divsf3+0x246>
    5514:	466d                	li	a2,27
    5516:	4701                	li	a4,0
    5518:	4781                	li	a5,0
    551a:	e6d64be3          	blt	a2,a3,5390 <__divsf3+0xb8>
    551e:	09ea0a13          	addi	s4,s4,158
    5522:	014a9a33          	sll	s4,s5,s4
    5526:	00dad7b3          	srl	a5,s5,a3
    552a:	01403ab3          	snez	s5,s4
    552e:	0157e7b3          	or	a5,a5,s5
    5532:	0077f713          	andi	a4,a5,7
    5536:	c719                	beqz	a4,5544 <__divsf3+0x26c>
    5538:	00f7f713          	andi	a4,a5,15
    553c:	4691                	li	a3,4
    553e:	00d70363          	beq	a4,a3,5544 <__divsf3+0x26c>
    5542:	0791                	addi	a5,a5,4
    5544:	00579713          	slli	a4,a5,0x5
    5548:	02074863          	bltz	a4,5578 <__divsf3+0x2a0>
    554c:	079a                	slli	a5,a5,0x6
    554e:	83a5                	srli	a5,a5,0x9
    5550:	4701                	li	a4,0
    5552:	bd3d                	j	5390 <__divsf3+0xb8>
    5554:	001ad693          	srli	a3,s5,0x1
    5558:	02f6d5b3          	divu	a1,a3,a5
    555c:	01fa9713          	slli	a4,s5,0x1f
    5560:	8341                	srli	a4,a4,0x10
    5562:	02c58833          	mul	a6,a1,a2
    5566:	b7b1                	j	54b2 <__divsf3+0x1da>
    5568:	8bce                	mv	s7,s3
    556a:	8b36                	mv	s6,a3
    556c:	4a81                	li	s5,0
    556e:	bda1                	j	53c6 <__divsf3+0xee>
    5570:	86ba                	mv	a3,a4
    5572:	b761                	j	54fa <__divsf3+0x222>
    5574:	85b6                	mv	a1,a3
    5576:	bfa9                	j	54d0 <__divsf3+0x1f8>
    5578:	4705                	li	a4,1
    557a:	4781                	li	a5,0
    557c:	bd11                	j	5390 <__divsf3+0xb8>
    557e:	001bf913          	andi	s2,s7,1
    5582:	0ff00713          	li	a4,255
    5586:	4781                	li	a5,0
    5588:	b521                	j	5390 <__divsf3+0xb8>

0000558a <__eqsf2>:
    558a:	01755693          	srli	a3,a0,0x17
    558e:	008007b7          	lui	a5,0x800
    5592:	17fd                	addi	a5,a5,-1
    5594:	0175d613          	srli	a2,a1,0x17
    5598:	0ff6f693          	andi	a3,a3,255
    559c:	0ff00813          	li	a6,255
    55a0:	00a7f8b3          	and	a7,a5,a0
    55a4:	01f55713          	srli	a4,a0,0x1f
    55a8:	8fed                	and	a5,a5,a1
    55aa:	0ff67613          	andi	a2,a2,255
    55ae:	81fd                	srli	a1,a1,0x1f
    55b0:	03068463          	beq	a3,a6,55d8 <__eqsf2+0x4e>
    55b4:	0ff00513          	li	a0,255
    55b8:	02a60463          	beq	a2,a0,55e0 <__eqsf2+0x56>
    55bc:	4505                	li	a0,1
    55be:	00c68363          	beq	a3,a2,55c4 <__eqsf2+0x3a>
    55c2:	8082                	ret
    55c4:	fef89fe3          	bne	a7,a5,55c2 <__eqsf2+0x38>
    55c8:	4501                	li	a0,0
    55ca:	feb70ce3          	beq	a4,a1,55c2 <__eqsf2+0x38>
    55ce:	4505                	li	a0,1
    55d0:	faed                	bnez	a3,55c2 <__eqsf2+0x38>
    55d2:	01103533          	snez	a0,a7
    55d6:	8082                	ret
    55d8:	4505                	li	a0,1
    55da:	fc088de3          	beqz	a7,55b4 <__eqsf2+0x2a>
    55de:	8082                	ret
    55e0:	4505                	li	a0,1
    55e2:	dfe9                	beqz	a5,55bc <__eqsf2+0x32>
    55e4:	8082                	ret

000055e6 <__gesf2>:
    55e6:	01755693          	srli	a3,a0,0x17
    55ea:	008007b7          	lui	a5,0x800
    55ee:	17fd                	addi	a5,a5,-1
    55f0:	0175d613          	srli	a2,a1,0x17
    55f4:	0ff6f693          	andi	a3,a3,255
    55f8:	0ff00813          	li	a6,255
    55fc:	00a7f8b3          	and	a7,a5,a0
    5600:	01f55713          	srli	a4,a0,0x1f
    5604:	8fed                	and	a5,a5,a1
    5606:	0ff67613          	andi	a2,a2,255
    560a:	81fd                	srli	a1,a1,0x1f
    560c:	03068163          	beq	a3,a6,562e <__gesf2+0x48>
    5610:	01060c63          	beq	a2,a6,5628 <__gesf2+0x42>
    5614:	e28d                	bnez	a3,5636 <__gesf2+0x50>
    5616:	e211                	bnez	a2,561a <__gesf2+0x34>
    5618:	c3b1                	beqz	a5,565c <__gesf2+0x76>
    561a:	02088e63          	beqz	a7,5656 <__gesf2+0x70>
    561e:	04b70563          	beq	a4,a1,5668 <__gesf2+0x82>
    5622:	4505                	li	a0,1
    5624:	e71d                	bnez	a4,5652 <__gesf2+0x6c>
    5626:	8082                	ret
    5628:	d7f5                	beqz	a5,5614 <__gesf2+0x2e>
    562a:	5579                	li	a0,-2
    562c:	8082                	ret
    562e:	fe089ee3          	bnez	a7,562a <__gesf2+0x44>
    5632:	02d60963          	beq	a2,a3,5664 <__gesf2+0x7e>
    5636:	e211                	bnez	a2,563a <__gesf2+0x54>
    5638:	d7ed                	beqz	a5,5622 <__gesf2+0x3c>
    563a:	feb714e3          	bne	a4,a1,5622 <__gesf2+0x3c>
    563e:	fed642e3          	blt	a2,a3,5622 <__gesf2+0x3c>
    5642:	00c6c763          	blt	a3,a2,5650 <__gesf2+0x6a>
    5646:	fd17eee3          	bltu	a5,a7,5622 <__gesf2+0x3c>
    564a:	4501                	li	a0,0
    564c:	fcf8fde3          	bgeu	a7,a5,5626 <__gesf2+0x40>
    5650:	e701                	bnez	a4,5658 <__gesf2+0x72>
    5652:	557d                	li	a0,-1
    5654:	8082                	ret
    5656:	ddf5                	beqz	a1,5652 <__gesf2+0x6c>
    5658:	4505                	li	a0,1
    565a:	8082                	ret
    565c:	4501                	li	a0,0
    565e:	fc0892e3          	bnez	a7,5622 <__gesf2+0x3c>
    5662:	8082                	ret
    5664:	dbf9                	beqz	a5,563a <__gesf2+0x54>
    5666:	b7d1                	j	562a <__gesf2+0x44>
    5668:	4681                	li	a3,0
    566a:	bfe1                	j	5642 <__gesf2+0x5c>

0000566c <__lesf2>:
    566c:	01755693          	srli	a3,a0,0x17
    5670:	008007b7          	lui	a5,0x800
    5674:	17fd                	addi	a5,a5,-1
    5676:	0175d613          	srli	a2,a1,0x17
    567a:	0ff6f693          	andi	a3,a3,255
    567e:	0ff00813          	li	a6,255
    5682:	00a7f8b3          	and	a7,a5,a0
    5686:	01f55713          	srli	a4,a0,0x1f
    568a:	8fed                	and	a5,a5,a1
    568c:	0ff67613          	andi	a2,a2,255
    5690:	81fd                	srli	a1,a1,0x1f
    5692:	03068763          	beq	a3,a6,56c0 <__lesf2+0x54>
    5696:	01060963          	beq	a2,a6,56a8 <__lesf2+0x3c>
    569a:	ea85                	bnez	a3,56ca <__lesf2+0x5e>
    569c:	ea11                	bnez	a2,56b0 <__lesf2+0x44>
    569e:	eb89                	bnez	a5,56b0 <__lesf2+0x44>
    56a0:	4501                	li	a0,0
    56a2:	00089b63          	bnez	a7,56b8 <__lesf2+0x4c>
    56a6:	8082                	ret
    56a8:	4509                	li	a0,2
    56aa:	fff5                	bnez	a5,56a6 <__lesf2+0x3a>
    56ac:	dae5                	beqz	a3,569c <__lesf2+0x30>
    56ae:	a831                	j	56ca <__lesf2+0x5e>
    56b0:	02088c63          	beqz	a7,56e8 <__lesf2+0x7c>
    56b4:	04b70063          	beq	a4,a1,56f4 <__lesf2+0x88>
    56b8:	4505                	li	a0,1
    56ba:	d775                	beqz	a4,56a6 <__lesf2+0x3a>
    56bc:	557d                	li	a0,-1
    56be:	8082                	ret
    56c0:	4509                	li	a0,2
    56c2:	02089863          	bnez	a7,56f2 <__lesf2+0x86>
    56c6:	02d60463          	beq	a2,a3,56ee <__lesf2+0x82>
    56ca:	e211                	bnez	a2,56ce <__lesf2+0x62>
    56cc:	d7f5                	beqz	a5,56b8 <__lesf2+0x4c>
    56ce:	feb715e3          	bne	a4,a1,56b8 <__lesf2+0x4c>
    56d2:	fed643e3          	blt	a2,a3,56b8 <__lesf2+0x4c>
    56d6:	00c6c763          	blt	a3,a2,56e4 <__lesf2+0x78>
    56da:	fd17efe3          	bltu	a5,a7,56b8 <__lesf2+0x4c>
    56de:	4501                	li	a0,0
    56e0:	fcf8f3e3          	bgeu	a7,a5,56a6 <__lesf2+0x3a>
    56e4:	e319                	bnez	a4,56ea <__lesf2+0x7e>
    56e6:	bfd9                	j	56bc <__lesf2+0x50>
    56e8:	d9f1                	beqz	a1,56bc <__lesf2+0x50>
    56ea:	4505                	li	a0,1
    56ec:	8082                	ret
    56ee:	d3e5                	beqz	a5,56ce <__lesf2+0x62>
    56f0:	8082                	ret
    56f2:	8082                	ret
    56f4:	4681                	li	a3,0
    56f6:	b7c5                	j	56d6 <__lesf2+0x6a>

000056f8 <__mulsf3>:
    56f8:	7179                	addi	sp,sp,-48
    56fa:	d422                	sw	s0,40(sp)
    56fc:	01755413          	srli	s0,a0,0x17
    5700:	ce4e                	sw	s3,28(sp)
    5702:	cc52                	sw	s4,24(sp)
    5704:	00951993          	slli	s3,a0,0x9
    5708:	d606                	sw	ra,44(sp)
    570a:	d226                	sw	s1,36(sp)
    570c:	d04a                	sw	s2,32(sp)
    570e:	ca56                	sw	s5,20(sp)
    5710:	c85a                	sw	s6,16(sp)
    5712:	0ff47413          	andi	s0,s0,255
    5716:	0099d993          	srli	s3,s3,0x9
    571a:	01f55a13          	srli	s4,a0,0x1f
    571e:	c469                	beqz	s0,57e8 <__mulsf3+0xf0>
    5720:	0ff00793          	li	a5,255
    5724:	0ef40863          	beq	s0,a5,5814 <__mulsf3+0x11c>
    5728:	00399793          	slli	a5,s3,0x3
    572c:	04000737          	lui	a4,0x4000
    5730:	00e7e9b3          	or	s3,a5,a4
    5734:	f8140413          	addi	s0,s0,-127 # 3ffff81 <_data_lma+0x3ff8465>
    5738:	4481                	li	s1,0
    573a:	4b01                	li	s6,0
    573c:	0175d713          	srli	a4,a1,0x17
    5740:	00959a93          	slli	s5,a1,0x9
    5744:	0ff77713          	andi	a4,a4,255
    5748:	009ada93          	srli	s5,s5,0x9
    574c:	01f5d913          	srli	s2,a1,0x1f
    5750:	cf45                	beqz	a4,5808 <__mulsf3+0x110>
    5752:	0ff00793          	li	a5,255
    5756:	02f70c63          	beq	a4,a5,578e <__mulsf3+0x96>
    575a:	0a8e                	slli	s5,s5,0x3
    575c:	f8170713          	addi	a4,a4,-127 # 3ffff81 <_data_lma+0x3ff8465>
    5760:	040007b7          	lui	a5,0x4000
    5764:	00faeab3          	or	s5,s5,a5
    5768:	943a                	add	s0,s0,a4
    576a:	4601                	li	a2,0
    576c:	012a4533          	xor	a0,s4,s2
    5770:	47bd                	li	a5,15
    5772:	86aa                	mv	a3,a0
    5774:	00140593          	addi	a1,s0,1
    5778:	1097e263          	bltu	a5,s1,587c <__mulsf3+0x184>
    577c:	00002717          	auipc	a4,0x2
    5780:	1c470713          	addi	a4,a4,452 # 7940 <atanlo+0xd0>
    5784:	048a                	slli	s1,s1,0x2
    5786:	94ba                	add	s1,s1,a4
    5788:	409c                	lw	a5,0(s1)
    578a:	97ba                	add	a5,a5,a4
    578c:	8782                	jr	a5
    578e:	0ff40413          	addi	s0,s0,255
    5792:	0c0a9863          	bnez	s5,5862 <__mulsf3+0x16a>
    5796:	0024e493          	ori	s1,s1,2
    579a:	4609                	li	a2,2
    579c:	bfc1                	j	576c <__mulsf3+0x74>
    579e:	4501                	li	a0,0
    57a0:	0ff00713          	li	a4,255
    57a4:	004007b7          	lui	a5,0x400
    57a8:	50b2                	lw	ra,44(sp)
    57aa:	5422                	lw	s0,40(sp)
    57ac:	07a6                	slli	a5,a5,0x9
    57ae:	075e                	slli	a4,a4,0x17
    57b0:	83a5                	srli	a5,a5,0x9
    57b2:	057e                	slli	a0,a0,0x1f
    57b4:	8fd9                	or	a5,a5,a4
    57b6:	5492                	lw	s1,36(sp)
    57b8:	5902                	lw	s2,32(sp)
    57ba:	49f2                	lw	s3,28(sp)
    57bc:	4a62                	lw	s4,24(sp)
    57be:	4ad2                	lw	s5,20(sp)
    57c0:	4b42                	lw	s6,16(sp)
    57c2:	8d5d                	or	a0,a0,a5
    57c4:	6145                	addi	sp,sp,48
    57c6:	8082                	ret
    57c8:	86ca                	mv	a3,s2
    57ca:	89d6                	mv	s3,s5
    57cc:	8b32                	mv	s6,a2
    57ce:	4789                	li	a5,2
    57d0:	0afb0163          	beq	s6,a5,5872 <__mulsf3+0x17a>
    57d4:	478d                	li	a5,3
    57d6:	fcfb04e3          	beq	s6,a5,579e <__mulsf3+0xa6>
    57da:	4785                	li	a5,1
    57dc:	8536                	mv	a0,a3
    57de:	1afb1263          	bne	s6,a5,5982 <__mulsf3+0x28a>
    57e2:	4701                	li	a4,0
    57e4:	4781                	li	a5,0
    57e6:	b7c9                	j	57a8 <__mulsf3+0xb0>
    57e8:	04099e63          	bnez	s3,5844 <__mulsf3+0x14c>
    57ec:	0175d713          	srli	a4,a1,0x17
    57f0:	00959a93          	slli	s5,a1,0x9
    57f4:	0ff77713          	andi	a4,a4,255
    57f8:	4491                	li	s1,4
    57fa:	4401                	li	s0,0
    57fc:	4b05                	li	s6,1
    57fe:	009ada93          	srli	s5,s5,0x9
    5802:	01f5d913          	srli	s2,a1,0x1f
    5806:	f731                	bnez	a4,5752 <__mulsf3+0x5a>
    5808:	000a9d63          	bnez	s5,5822 <__mulsf3+0x12a>
    580c:	0014e493          	ori	s1,s1,1
    5810:	4605                	li	a2,1
    5812:	bfa9                	j	576c <__mulsf3+0x74>
    5814:	02099363          	bnez	s3,583a <__mulsf3+0x142>
    5818:	44a1                	li	s1,8
    581a:	0ff00413          	li	s0,255
    581e:	4b09                	li	s6,2
    5820:	bf31                	j	573c <__mulsf3+0x44>
    5822:	8556                	mv	a0,s5
    5824:	0c1000ef          	jal	ra,60e4 <__clzsi2>
    5828:	ffb50793          	addi	a5,a0,-5
    582c:	8c09                	sub	s0,s0,a0
    582e:	00fa9ab3          	sll	s5,s5,a5
    5832:	f8a40413          	addi	s0,s0,-118
    5836:	4601                	li	a2,0
    5838:	bf15                	j	576c <__mulsf3+0x74>
    583a:	44b1                	li	s1,12
    583c:	0ff00413          	li	s0,255
    5840:	4b0d                	li	s6,3
    5842:	bded                	j	573c <__mulsf3+0x44>
    5844:	854e                	mv	a0,s3
    5846:	c62e                	sw	a1,12(sp)
    5848:	09d000ef          	jal	ra,60e4 <__clzsi2>
    584c:	ffb50793          	addi	a5,a0,-5
    5850:	f8a00413          	li	s0,-118
    5854:	00f999b3          	sll	s3,s3,a5
    5858:	8c09                	sub	s0,s0,a0
    585a:	4481                	li	s1,0
    585c:	4b01                	li	s6,0
    585e:	45b2                	lw	a1,12(sp)
    5860:	bdf1                	j	573c <__mulsf3+0x44>
    5862:	0034e493          	ori	s1,s1,3
    5866:	460d                	li	a2,3
    5868:	b711                	j	576c <__mulsf3+0x74>
    586a:	4789                	li	a5,2
    586c:	86d2                	mv	a3,s4
    586e:	f6fb13e3          	bne	s6,a5,57d4 <__mulsf3+0xdc>
    5872:	8536                	mv	a0,a3
    5874:	0ff00713          	li	a4,255
    5878:	4781                	li	a5,0
    587a:	b73d                	j	57a8 <__mulsf3+0xb0>
    587c:	6341                	lui	t1,0x10
    587e:	fff30693          	addi	a3,t1,-1 # ffff <_data_lma+0x84e3>
    5882:	0109d613          	srli	a2,s3,0x10
    5886:	010ad893          	srli	a7,s5,0x10
    588a:	00d9f7b3          	and	a5,s3,a3
    588e:	00dafab3          	and	s5,s5,a3
    5892:	03578833          	mul	a6,a5,s5
    5896:	02f889b3          	mul	s3,a7,a5
    589a:	01085713          	srli	a4,a6,0x10
    589e:	03560ab3          	mul	s5,a2,s5
    58a2:	99d6                	add	s3,s3,s5
    58a4:	974e                	add	a4,a4,s3
    58a6:	03160633          	mul	a2,a2,a7
    58aa:	01577363          	bgeu	a4,s5,58b0 <__mulsf3+0x1b8>
    58ae:	961a                	add	a2,a2,t1
    58b0:	67c1                	lui	a5,0x10
    58b2:	17fd                	addi	a5,a5,-1
    58b4:	00f776b3          	and	a3,a4,a5
    58b8:	00f87833          	and	a6,a6,a5
    58bc:	06c2                	slli	a3,a3,0x10
    58be:	96c2                	add	a3,a3,a6
    58c0:	00669993          	slli	s3,a3,0x6
    58c4:	01075793          	srli	a5,a4,0x10
    58c8:	013039b3          	snez	s3,s3
    58cc:	82e9                	srli	a3,a3,0x1a
    58ce:	97b2                	add	a5,a5,a2
    58d0:	079a                	slli	a5,a5,0x6
    58d2:	00d9e6b3          	or	a3,s3,a3
    58d6:	00d7e9b3          	or	s3,a5,a3
    58da:	00499793          	slli	a5,s3,0x4
    58de:	0007d963          	bgez	a5,58f0 <__mulsf3+0x1f8>
    58e2:	0019d713          	srli	a4,s3,0x1
    58e6:	0019f793          	andi	a5,s3,1
    58ea:	00f769b3          	or	s3,a4,a5
    58ee:	842e                	mv	s0,a1
    58f0:	07f40713          	addi	a4,s0,127
    58f4:	04e05063          	blez	a4,5934 <__mulsf3+0x23c>
    58f8:	0079f793          	andi	a5,s3,7
    58fc:	c799                	beqz	a5,590a <__mulsf3+0x212>
    58fe:	00f9f793          	andi	a5,s3,15
    5902:	4691                	li	a3,4
    5904:	00d78363          	beq	a5,a3,590a <__mulsf3+0x212>
    5908:	0991                	addi	s3,s3,4
    590a:	00499793          	slli	a5,s3,0x4
    590e:	0007d963          	bgez	a5,5920 <__mulsf3+0x228>
    5912:	f80007b7          	lui	a5,0xf8000
    5916:	17fd                	addi	a5,a5,-1
    5918:	00f9f9b3          	and	s3,s3,a5
    591c:	08040713          	addi	a4,s0,128
    5920:	0fe00793          	li	a5,254
    5924:	04e7cb63          	blt	a5,a4,597a <__mulsf3+0x282>
    5928:	00699793          	slli	a5,s3,0x6
    592c:	83a5                	srli	a5,a5,0x9
    592e:	0ff77713          	andi	a4,a4,255
    5932:	bd9d                	j	57a8 <__mulsf3+0xb0>
    5934:	4785                	li	a5,1
    5936:	40e786b3          	sub	a3,a5,a4
    593a:	c711                	beqz	a4,5946 <__mulsf3+0x24e>
    593c:	466d                	li	a2,27
    593e:	4701                	li	a4,0
    5940:	4781                	li	a5,0
    5942:	e6d643e3          	blt	a2,a3,57a8 <__mulsf3+0xb0>
    5946:	09e40713          	addi	a4,s0,158
    594a:	00e99733          	sll	a4,s3,a4
    594e:	00e03733          	snez	a4,a4
    5952:	00d9d7b3          	srl	a5,s3,a3
    5956:	8fd9                	or	a5,a5,a4
    5958:	0077f713          	andi	a4,a5,7
    595c:	c719                	beqz	a4,596a <__mulsf3+0x272>
    595e:	00f7f713          	andi	a4,a5,15
    5962:	4691                	li	a3,4
    5964:	00d70363          	beq	a4,a3,596a <__mulsf3+0x272>
    5968:	0791                	addi	a5,a5,4
    596a:	00579713          	slli	a4,a5,0x5
    596e:	00074c63          	bltz	a4,5986 <__mulsf3+0x28e>
    5972:	079a                	slli	a5,a5,0x6
    5974:	83a5                	srli	a5,a5,0x9
    5976:	4701                	li	a4,0
    5978:	bd05                	j	57a8 <__mulsf3+0xb0>
    597a:	0ff00713          	li	a4,255
    597e:	4781                	li	a5,0
    5980:	b525                	j	57a8 <__mulsf3+0xb0>
    5982:	842e                	mv	s0,a1
    5984:	b7b5                	j	58f0 <__mulsf3+0x1f8>
    5986:	4705                	li	a4,1
    5988:	4781                	li	a5,0
    598a:	bd39                	j	57a8 <__mulsf3+0xb0>

0000598c <__subsf3>:
    598c:	00800737          	lui	a4,0x800
    5990:	1141                	addi	sp,sp,-16
    5992:	177d                	addi	a4,a4,-1
    5994:	01755693          	srli	a3,a0,0x17
    5998:	0175d813          	srli	a6,a1,0x17
    599c:	00a777b3          	and	a5,a4,a0
    59a0:	0ff6f693          	andi	a3,a3,255
    59a4:	01f55e93          	srli	t4,a0,0x1f
    59a8:	00b77633          	and	a2,a4,a1
    59ac:	c226                	sw	s1,4(sp)
    59ae:	c04a                	sw	s2,0(sp)
    59b0:	0ff87813          	andi	a6,a6,255
    59b4:	c606                	sw	ra,12(sp)
    59b6:	c422                	sw	s0,8(sp)
    59b8:	0ff00313          	li	t1,255
    59bc:	8e3e                	mv	t3,a5
    59be:	8936                	mv	s2,a3
    59c0:	84f6                	mv	s1,t4
    59c2:	00379f13          	slli	t5,a5,0x3
    59c6:	81fd                	srli	a1,a1,0x1f
    59c8:	00361513          	slli	a0,a2,0x3
    59cc:	410688b3          	sub	a7,a3,a6
    59d0:	10680263          	beq	a6,t1,5ad4 <__subsf3+0x148>
    59d4:	0015c593          	xori	a1,a1,1
    59d8:	10be8c63          	beq	t4,a1,5af0 <__subsf3+0x164>
    59dc:	0d105463          	blez	a7,5aa4 <__subsf3+0x118>
    59e0:	10081063          	bnez	a6,5ae0 <__subsf3+0x154>
    59e4:	1e050463          	beqz	a0,5bcc <__subsf3+0x240>
    59e8:	18fd                	addi	a7,a7,-1
    59ea:	40af07b3          	sub	a5,t5,a0
    59ee:	02088663          	beqz	a7,5a1a <__subsf3+0x8e>
    59f2:	0ff00793          	li	a5,255
    59f6:	16f68863          	beq	a3,a5,5b66 <__subsf3+0x1da>
    59fa:	47ed                	li	a5,27
    59fc:	2917c763          	blt	a5,a7,5c8a <__subsf3+0x2fe>
    5a00:	02000713          	li	a4,32
    5a04:	41170733          	sub	a4,a4,a7
    5a08:	00e51733          	sll	a4,a0,a4
    5a0c:	011557b3          	srl	a5,a0,a7
    5a10:	00e03733          	snez	a4,a4
    5a14:	8fd9                	or	a5,a5,a4
    5a16:	40ff07b3          	sub	a5,t5,a5
    5a1a:	00579713          	slli	a4,a5,0x5
    5a1e:	1a075163          	bgez	a4,5bc0 <__subsf3+0x234>
    5a22:	04000437          	lui	s0,0x4000
    5a26:	147d                	addi	s0,s0,-1
    5a28:	8c7d                	and	s0,s0,a5
    5a2a:	8522                	mv	a0,s0
    5a2c:	2d65                	jal	60e4 <__clzsi2>
    5a2e:	156d                	addi	a0,a0,-5
    5a30:	00a417b3          	sll	a5,s0,a0
    5a34:	1b254e63          	blt	a0,s2,5bf0 <__subsf3+0x264>
    5a38:	41250533          	sub	a0,a0,s2
    5a3c:	00150413          	addi	s0,a0,1
    5a40:	02000713          	li	a4,32
    5a44:	8f01                	sub	a4,a4,s0
    5a46:	00e79733          	sll	a4,a5,a4
    5a4a:	00e03733          	snez	a4,a4
    5a4e:	0087d7b3          	srl	a5,a5,s0
    5a52:	8fd9                	or	a5,a5,a4
    5a54:	4901                	li	s2,0
    5a56:	0077f713          	andi	a4,a5,7
    5a5a:	c719                	beqz	a4,5a68 <__subsf3+0xdc>
    5a5c:	00f7f713          	andi	a4,a5,15
    5a60:	4691                	li	a3,4
    5a62:	00d70363          	beq	a4,a3,5a68 <__subsf3+0xdc>
    5a66:	0791                	addi	a5,a5,4
    5a68:	00579713          	slli	a4,a5,0x5
    5a6c:	14075e63          	bgez	a4,5bc8 <__subsf3+0x23c>
    5a70:	00190693          	addi	a3,s2,1
    5a74:	0ff00713          	li	a4,255
    5a78:	0014fe93          	andi	t4,s1,1
    5a7c:	16e68663          	beq	a3,a4,5be8 <__subsf3+0x25c>
    5a80:	079a                	slli	a5,a5,0x6
    5a82:	83a5                	srli	a5,a5,0x9
    5a84:	0ff6f693          	andi	a3,a3,255
    5a88:	07a6                	slli	a5,a5,0x9
    5a8a:	40b2                	lw	ra,12(sp)
    5a8c:	4422                	lw	s0,8(sp)
    5a8e:	0097d513          	srli	a0,a5,0x9
    5a92:	06de                	slli	a3,a3,0x17
    5a94:	01fe9793          	slli	a5,t4,0x1f
    5a98:	8d55                	or	a0,a0,a3
    5a9a:	4492                	lw	s1,4(sp)
    5a9c:	4902                	lw	s2,0(sp)
    5a9e:	8d5d                	or	a0,a0,a5
    5aa0:	0141                	addi	sp,sp,16
    5aa2:	8082                	ret
    5aa4:	0a089263          	bnez	a7,5b48 <__subsf3+0x1bc>
    5aa8:	00168713          	addi	a4,a3,1
    5aac:	0fe77713          	andi	a4,a4,254
    5ab0:	14071b63          	bnez	a4,5c06 <__subsf3+0x27a>
    5ab4:	22069463          	bnez	a3,5cdc <__subsf3+0x350>
    5ab8:	200f0263          	beqz	t5,5cbc <__subsf3+0x330>
    5abc:	d571                	beqz	a0,5a88 <__subsf3+0xfc>
    5abe:	40af07b3          	sub	a5,t5,a0
    5ac2:	00579713          	slli	a4,a5,0x5
    5ac6:	22075563          	bgez	a4,5cf0 <__subsf3+0x364>
    5aca:	41e507b3          	sub	a5,a0,t5
    5ace:	4901                	li	s2,0
    5ad0:	84ae                	mv	s1,a1
    5ad2:	b751                	j	5a56 <__subsf3+0xca>
    5ad4:	f00500e3          	beqz	a0,59d4 <__subsf3+0x48>
    5ad8:	0abe8a63          	beq	t4,a1,5b8c <__subsf3+0x200>
    5adc:	fd1054e3          	blez	a7,5aa4 <__subsf3+0x118>
    5ae0:	0ff00793          	li	a5,255
    5ae4:	08f68163          	beq	a3,a5,5b66 <__subsf3+0x1da>
    5ae8:	040007b7          	lui	a5,0x4000
    5aec:	8d5d                	or	a0,a0,a5
    5aee:	b731                	j	59fa <__subsf3+0x6e>
    5af0:	09105e63          	blez	a7,5b8c <__subsf3+0x200>
    5af4:	08080163          	beqz	a6,5b76 <__subsf3+0x1ea>
    5af8:	0ff00793          	li	a5,255
    5afc:	06f68563          	beq	a3,a5,5b66 <__subsf3+0x1da>
    5b00:	040007b7          	lui	a5,0x4000
    5b04:	8d5d                	or	a0,a0,a5
    5b06:	47ed                	li	a5,27
    5b08:	1f17c063          	blt	a5,a7,5ce8 <__subsf3+0x35c>
    5b0c:	02000713          	li	a4,32
    5b10:	41170733          	sub	a4,a4,a7
    5b14:	00e51733          	sll	a4,a0,a4
    5b18:	011557b3          	srl	a5,a0,a7
    5b1c:	00e03733          	snez	a4,a4
    5b20:	8fd9                	or	a5,a5,a4
    5b22:	97fa                	add	a5,a5,t5
    5b24:	00579713          	slli	a4,a5,0x5
    5b28:	08075c63          	bgez	a4,5bc0 <__subsf3+0x234>
    5b2c:	0905                	addi	s2,s2,1
    5b2e:	0ff00713          	li	a4,255
    5b32:	0ae90b63          	beq	s2,a4,5be8 <__subsf3+0x25c>
    5b36:	7e0006b7          	lui	a3,0x7e000
    5b3a:	0017d713          	srli	a4,a5,0x1
    5b3e:	16fd                	addi	a3,a3,-1
    5b40:	8b85                	andi	a5,a5,1
    5b42:	8f75                	and	a4,a4,a3
    5b44:	8fd9                	or	a5,a5,a4
    5b46:	bf01                	j	5a56 <__subsf3+0xca>
    5b48:	40d80733          	sub	a4,a6,a3
    5b4c:	10069563          	bnez	a3,5c56 <__subsf3+0x2ca>
    5b50:	140f0d63          	beqz	t5,5caa <__subsf3+0x31e>
    5b54:	177d                	addi	a4,a4,-1
    5b56:	1a070363          	beqz	a4,5cfc <__subsf3+0x370>
    5b5a:	0ff00793          	li	a5,255
    5b5e:	10f81463          	bne	a6,a5,5c66 <__subsf3+0x2da>
    5b62:	84ae                	mv	s1,a1
    5b64:	8e32                	mv	t3,a2
    5b66:	060e0f63          	beqz	t3,5be4 <__subsf3+0x258>
    5b6a:	4e81                	li	t4,0
    5b6c:	0ff00693          	li	a3,255
    5b70:	004007b7          	lui	a5,0x400
    5b74:	bf11                	j	5a88 <__subsf3+0xfc>
    5b76:	c939                	beqz	a0,5bcc <__subsf3+0x240>
    5b78:	18fd                	addi	a7,a7,-1
    5b7a:	00af07b3          	add	a5,t5,a0
    5b7e:	fa0883e3          	beqz	a7,5b24 <__subsf3+0x198>
    5b82:	0ff00793          	li	a5,255
    5b86:	f8f690e3          	bne	a3,a5,5b06 <__subsf3+0x17a>
    5b8a:	bff1                	j	5b66 <__subsf3+0x1da>
    5b8c:	08089963          	bnez	a7,5c1e <__subsf3+0x292>
    5b90:	00168913          	addi	s2,a3,1 # 7e000001 <__freertos_irq_stack_top+0x5dff8001>
    5b94:	0fe97713          	andi	a4,s2,254
    5b98:	12071663          	bnez	a4,5cc4 <__subsf3+0x338>
    5b9c:	10069b63          	bnez	a3,5cb2 <__subsf3+0x326>
    5ba0:	160f0363          	beqz	t5,5d06 <__subsf3+0x37a>
    5ba4:	ee0502e3          	beqz	a0,5a88 <__subsf3+0xfc>
    5ba8:	00af07b3          	add	a5,t5,a0
    5bac:	00579713          	slli	a4,a5,0x5
    5bb0:	4901                	li	s2,0
    5bb2:	00075763          	bgez	a4,5bc0 <__subsf3+0x234>
    5bb6:	fc000737          	lui	a4,0xfc000
    5bba:	177d                	addi	a4,a4,-1
    5bbc:	8ff9                	and	a5,a5,a4
    5bbe:	4905                	li	s2,1
    5bc0:	0077f713          	andi	a4,a5,7
    5bc4:	e8071ce3          	bnez	a4,5a5c <__subsf3+0xd0>
    5bc8:	0037de13          	srli	t3,a5,0x3
    5bcc:	0ff00793          	li	a5,255
    5bd0:	f8f90be3          	beq	s2,a5,5b66 <__subsf3+0x1da>
    5bd4:	009e1793          	slli	a5,t3,0x9
    5bd8:	83a5                	srli	a5,a5,0x9
    5bda:	0ff97693          	andi	a3,s2,255
    5bde:	0014fe93          	andi	t4,s1,1
    5be2:	b55d                	j	5a88 <__subsf3+0xfc>
    5be4:	0014fe93          	andi	t4,s1,1
    5be8:	0ff00693          	li	a3,255
    5bec:	4781                	li	a5,0
    5bee:	bd69                	j	5a88 <__subsf3+0xfc>
    5bf0:	fc000737          	lui	a4,0xfc000
    5bf4:	177d                	addi	a4,a4,-1
    5bf6:	8ff9                	and	a5,a5,a4
    5bf8:	0077f713          	andi	a4,a5,7
    5bfc:	40a90933          	sub	s2,s2,a0
    5c00:	e4071ee3          	bnez	a4,5a5c <__subsf3+0xd0>
    5c04:	b7d1                	j	5bc8 <__subsf3+0x23c>
    5c06:	40af0433          	sub	s0,t5,a0
    5c0a:	00541793          	slli	a5,s0,0x5
    5c0e:	0c07c363          	bltz	a5,5cd4 <__subsf3+0x348>
    5c12:	e0041ce3          	bnez	s0,5a2a <__subsf3+0x9e>
    5c16:	4e81                	li	t4,0
    5c18:	4681                	li	a3,0
    5c1a:	4781                	li	a5,0
    5c1c:	b5b5                	j	5a88 <__subsf3+0xfc>
    5c1e:	40d80733          	sub	a4,a6,a3
    5c22:	c6b5                	beqz	a3,5c8e <__subsf3+0x302>
    5c24:	0ff00793          	li	a5,255
    5c28:	f2f80ee3          	beq	a6,a5,5b64 <__subsf3+0x1d8>
    5c2c:	040007b7          	lui	a5,0x4000
    5c30:	00ff6f33          	or	t5,t5,a5
    5c34:	47ed                	li	a5,27
    5c36:	0ce7cd63          	blt	a5,a4,5d10 <__subsf3+0x384>
    5c3a:	02000793          	li	a5,32
    5c3e:	8f99                	sub	a5,a5,a4
    5c40:	00ff17b3          	sll	a5,t5,a5
    5c44:	00ef5733          	srl	a4,t5,a4
    5c48:	00f037b3          	snez	a5,a5
    5c4c:	8f5d                	or	a4,a4,a5
    5c4e:	00a707b3          	add	a5,a4,a0
    5c52:	8942                	mv	s2,a6
    5c54:	bdc1                	j	5b24 <__subsf3+0x198>
    5c56:	0ff00793          	li	a5,255
    5c5a:	f0f804e3          	beq	a6,a5,5b62 <__subsf3+0x1d6>
    5c5e:	040007b7          	lui	a5,0x4000
    5c62:	00ff6f33          	or	t5,t5,a5
    5c66:	47ed                	li	a5,27
    5c68:	08e7c263          	blt	a5,a4,5cec <__subsf3+0x360>
    5c6c:	02000793          	li	a5,32
    5c70:	8f99                	sub	a5,a5,a4
    5c72:	00ff17b3          	sll	a5,t5,a5
    5c76:	00ef5733          	srl	a4,t5,a4
    5c7a:	00f037b3          	snez	a5,a5
    5c7e:	8fd9                	or	a5,a5,a4
    5c80:	40f507b3          	sub	a5,a0,a5
    5c84:	8942                	mv	s2,a6
    5c86:	84ae                	mv	s1,a1
    5c88:	bb49                	j	5a1a <__subsf3+0x8e>
    5c8a:	4785                	li	a5,1
    5c8c:	b369                	j	5a16 <__subsf3+0x8a>
    5c8e:	060f0e63          	beqz	t5,5d0a <__subsf3+0x37e>
    5c92:	177d                	addi	a4,a4,-1
    5c94:	00af07b3          	add	a5,t5,a0
    5c98:	8942                	mv	s2,a6
    5c9a:	e80705e3          	beqz	a4,5b24 <__subsf3+0x198>
    5c9e:	0ff00793          	li	a5,255
    5ca2:	f8f819e3          	bne	a6,a5,5c34 <__subsf3+0x2a8>
    5ca6:	8e32                	mv	t3,a2
    5ca8:	bd7d                	j	5b66 <__subsf3+0x1da>
    5caa:	8e32                	mv	t3,a2
    5cac:	8942                	mv	s2,a6
    5cae:	84ae                	mv	s1,a1
    5cb0:	bf31                	j	5bcc <__subsf3+0x240>
    5cb2:	ea0f09e3          	beqz	t5,5b64 <__subsf3+0x1d8>
    5cb6:	ea0508e3          	beqz	a0,5b66 <__subsf3+0x1da>
    5cba:	bd45                	j	5b6a <__subsf3+0x1de>
    5cbc:	cd0d                	beqz	a0,5cf6 <__subsf3+0x36a>
    5cbe:	8eae                	mv	t4,a1
    5cc0:	87b2                	mv	a5,a2
    5cc2:	b3d9                	j	5a88 <__subsf3+0xfc>
    5cc4:	0ff00793          	li	a5,255
    5cc8:	f2f900e3          	beq	s2,a5,5be8 <__subsf3+0x25c>
    5ccc:	00af07b3          	add	a5,t5,a0
    5cd0:	8385                	srli	a5,a5,0x1
    5cd2:	b5fd                	j	5bc0 <__subsf3+0x234>
    5cd4:	41e50433          	sub	s0,a0,t5
    5cd8:	84ae                	mv	s1,a1
    5cda:	bb81                	j	5a2a <__subsf3+0x9e>
    5cdc:	fc0f1de3          	bnez	t5,5cb6 <__subsf3+0x32a>
    5ce0:	e80505e3          	beqz	a0,5b6a <__subsf3+0x1de>
    5ce4:	84ae                	mv	s1,a1
    5ce6:	bdbd                	j	5b64 <__subsf3+0x1d8>
    5ce8:	4785                	li	a5,1
    5cea:	bd25                	j	5b22 <__subsf3+0x196>
    5cec:	4785                	li	a5,1
    5cee:	bf49                	j	5c80 <__subsf3+0x2f4>
    5cf0:	4901                	li	s2,0
    5cf2:	ec0797e3          	bnez	a5,5bc0 <__subsf3+0x234>
    5cf6:	4e81                	li	t4,0
    5cf8:	4781                	li	a5,0
    5cfa:	b379                	j	5a88 <__subsf3+0xfc>
    5cfc:	41e507b3          	sub	a5,a0,t5
    5d00:	8942                	mv	s2,a6
    5d02:	84ae                	mv	s1,a1
    5d04:	bb19                	j	5a1a <__subsf3+0x8e>
    5d06:	87b2                	mv	a5,a2
    5d08:	b341                	j	5a88 <__subsf3+0xfc>
    5d0a:	8e32                	mv	t3,a2
    5d0c:	8942                	mv	s2,a6
    5d0e:	bd7d                	j	5bcc <__subsf3+0x240>
    5d10:	4705                	li	a4,1
    5d12:	bf35                	j	5c4e <__subsf3+0x2c2>

00005d14 <__unordsf2>:
    5d14:	01755693          	srli	a3,a0,0x17
    5d18:	008007b7          	lui	a5,0x800
    5d1c:	17fd                	addi	a5,a5,-1
    5d1e:	0175d613          	srli	a2,a1,0x17
    5d22:	0ff6f693          	andi	a3,a3,255
    5d26:	0ff00813          	li	a6,255
    5d2a:	00a7f733          	and	a4,a5,a0
    5d2e:	0ff67613          	andi	a2,a2,255
    5d32:	8fed                	and	a5,a5,a1
    5d34:	01068b63          	beq	a3,a6,5d4a <__unordsf2+0x36>
    5d38:	0ff00713          	li	a4,255
    5d3c:	4501                	li	a0,0
    5d3e:	00e60363          	beq	a2,a4,5d44 <__unordsf2+0x30>
    5d42:	8082                	ret
    5d44:	00f03533          	snez	a0,a5
    5d48:	8082                	ret
    5d4a:	4505                	li	a0,1
    5d4c:	d775                	beqz	a4,5d38 <__unordsf2+0x24>
    5d4e:	8082                	ret

00005d50 <__fixsfsi>:
    5d50:	00800637          	lui	a2,0x800
    5d54:	01755713          	srli	a4,a0,0x17
    5d58:	fff60793          	addi	a5,a2,-1 # 7fffff <_data_lma+0x7f84e3>
    5d5c:	0ff77713          	andi	a4,a4,255
    5d60:	07e00593          	li	a1,126
    5d64:	00a7f6b3          	and	a3,a5,a0
    5d68:	01f55793          	srli	a5,a0,0x1f
    5d6c:	00e5fc63          	bgeu	a1,a4,5d84 <__fixsfsi+0x34>
    5d70:	09d00593          	li	a1,157
    5d74:	00e5fa63          	bgeu	a1,a4,5d88 <__fixsfsi+0x38>
    5d78:	80000537          	lui	a0,0x80000
    5d7c:	fff54513          	not	a0,a0
    5d80:	953e                	add	a0,a0,a5
    5d82:	8082                	ret
    5d84:	4501                	li	a0,0
    5d86:	8082                	ret
    5d88:	09500593          	li	a1,149
    5d8c:	8ed1                	or	a3,a3,a2
    5d8e:	00e5cd63          	blt	a1,a4,5da8 <__fixsfsi+0x58>
    5d92:	09600613          	li	a2,150
    5d96:	40e60733          	sub	a4,a2,a4
    5d9a:	00e6d733          	srl	a4,a3,a4
    5d9e:	40e00533          	neg	a0,a4
    5da2:	f3f5                	bnez	a5,5d86 <__fixsfsi+0x36>
    5da4:	853a                	mv	a0,a4
    5da6:	8082                	ret
    5da8:	f6a70713          	addi	a4,a4,-150 # fbffff6a <__freertos_irq_stack_top+0xdbff7f6a>
    5dac:	00e69733          	sll	a4,a3,a4
    5db0:	b7fd                	j	5d9e <__fixsfsi+0x4e>

00005db2 <__fixunssfsi>:
    5db2:	01755713          	srli	a4,a0,0x17
    5db6:	00800637          	lui	a2,0x800
    5dba:	fff60793          	addi	a5,a2,-1 # 7fffff <_data_lma+0x7f84e3>
    5dbe:	0ff77713          	andi	a4,a4,255
    5dc2:	07e00593          	li	a1,126
    5dc6:	00a7f6b3          	and	a3,a5,a0
    5dca:	01f55793          	srli	a5,a0,0x1f
    5dce:	4501                	li	a0,0
    5dd0:	00e5f463          	bgeu	a1,a4,5dd8 <__fixunssfsi+0x26>
    5dd4:	c399                	beqz	a5,5dda <__fixunssfsi+0x28>
    5dd6:	8082                	ret
    5dd8:	8082                	ret
    5dda:	09e00793          	li	a5,158
    5dde:	557d                	li	a0,-1
    5de0:	fee7ebe3          	bltu	a5,a4,5dd6 <__fixunssfsi+0x24>
    5de4:	09500593          	li	a1,149
    5de8:	00c6e7b3          	or	a5,a3,a2
    5dec:	00e5d763          	bge	a1,a4,5dfa <__fixunssfsi+0x48>
    5df0:	f6a70713          	addi	a4,a4,-150
    5df4:	00e79533          	sll	a0,a5,a4
    5df8:	8082                	ret
    5dfa:	09600513          	li	a0,150
    5dfe:	40e50733          	sub	a4,a0,a4
    5e02:	00e7d533          	srl	a0,a5,a4
    5e06:	8082                	ret

00005e08 <__floatsisf>:
    5e08:	1141                	addi	sp,sp,-16
    5e0a:	c606                	sw	ra,12(sp)
    5e0c:	c422                	sw	s0,8(sp)
    5e0e:	c226                	sw	s1,4(sp)
    5e10:	cd0d                	beqz	a0,5e4a <__floatsisf+0x42>
    5e12:	41f55793          	srai	a5,a0,0x1f
    5e16:	00a7c433          	xor	s0,a5,a0
    5e1a:	8c1d                	sub	s0,s0,a5
    5e1c:	84aa                	mv	s1,a0
    5e1e:	8522                	mv	a0,s0
    5e20:	24d1                	jal	60e4 <__clzsi2>
    5e22:	09e00793          	li	a5,158
    5e26:	40a78733          	sub	a4,a5,a0
    5e2a:	09600793          	li	a5,150
    5e2e:	80fd                	srli	s1,s1,0x1f
    5e30:	02e7cc63          	blt	a5,a4,5e68 <__floatsisf+0x60>
    5e34:	46a1                	li	a3,8
    5e36:	0ff77793          	andi	a5,a4,255
    5e3a:	00a6d563          	bge	a3,a0,5e44 <__floatsisf+0x3c>
    5e3e:	1561                	addi	a0,a0,-8
    5e40:	00a41433          	sll	s0,s0,a0
    5e44:	0426                	slli	s0,s0,0x9
    5e46:	8025                	srli	s0,s0,0x9
    5e48:	a021                	j	5e50 <__floatsisf+0x48>
    5e4a:	4481                	li	s1,0
    5e4c:	4781                	li	a5,0
    5e4e:	4401                	li	s0,0
    5e50:	0426                	slli	s0,s0,0x9
    5e52:	00945513          	srli	a0,s0,0x9
    5e56:	40b2                	lw	ra,12(sp)
    5e58:	4422                	lw	s0,8(sp)
    5e5a:	07de                	slli	a5,a5,0x17
    5e5c:	04fe                	slli	s1,s1,0x1f
    5e5e:	8d5d                	or	a0,a0,a5
    5e60:	8d45                	or	a0,a0,s1
    5e62:	4492                	lw	s1,4(sp)
    5e64:	0141                	addi	sp,sp,16
    5e66:	8082                	ret
    5e68:	09900793          	li	a5,153
    5e6c:	00e7dd63          	bge	a5,a4,5e86 <__floatsisf+0x7e>
    5e70:	01b50793          	addi	a5,a0,27 # 8000001b <__freertos_irq_stack_top+0x5fff801b>
    5e74:	4695                	li	a3,5
    5e76:	00f417b3          	sll	a5,s0,a5
    5e7a:	8e89                	sub	a3,a3,a0
    5e7c:	00d45433          	srl	s0,s0,a3
    5e80:	00f037b3          	snez	a5,a5
    5e84:	8c5d                	or	s0,s0,a5
    5e86:	4795                	li	a5,5
    5e88:	00a7d663          	bge	a5,a0,5e94 <__floatsisf+0x8c>
    5e8c:	ffb50793          	addi	a5,a0,-5
    5e90:	00f41433          	sll	s0,s0,a5
    5e94:	fc0006b7          	lui	a3,0xfc000
    5e98:	16fd                	addi	a3,a3,-1
    5e9a:	00747793          	andi	a5,s0,7
    5e9e:	00d47633          	and	a2,s0,a3
    5ea2:	c385                	beqz	a5,5ec2 <__floatsisf+0xba>
    5ea4:	00f47793          	andi	a5,s0,15
    5ea8:	4591                	li	a1,4
    5eaa:	00b78c63          	beq	a5,a1,5ec2 <__floatsisf+0xba>
    5eae:	0611                	addi	a2,a2,4
    5eb0:	00561793          	slli	a5,a2,0x5
    5eb4:	0007d763          	bgez	a5,5ec2 <__floatsisf+0xba>
    5eb8:	09f00793          	li	a5,159
    5ebc:	8e75                	and	a2,a2,a3
    5ebe:	40a78733          	sub	a4,a5,a0
    5ec2:	00661413          	slli	s0,a2,0x6
    5ec6:	8025                	srli	s0,s0,0x9
    5ec8:	0ff77793          	andi	a5,a4,255
    5ecc:	b751                	j	5e50 <__floatsisf+0x48>

00005ece <__extendsfdf2>:
    5ece:	01755713          	srli	a4,a0,0x17
    5ed2:	0ff77713          	andi	a4,a4,255
    5ed6:	1141                	addi	sp,sp,-16
    5ed8:	00170793          	addi	a5,a4,1
    5edc:	c422                	sw	s0,8(sp)
    5ede:	c226                	sw	s1,4(sp)
    5ee0:	00951413          	slli	s0,a0,0x9
    5ee4:	c606                	sw	ra,12(sp)
    5ee6:	0fe7f793          	andi	a5,a5,254
    5eea:	8025                	srli	s0,s0,0x9
    5eec:	01f55493          	srli	s1,a0,0x1f
    5ef0:	c785                	beqz	a5,5f18 <__extendsfdf2+0x4a>
    5ef2:	00345793          	srli	a5,s0,0x3
    5ef6:	38070713          	addi	a4,a4,896
    5efa:	0476                	slli	s0,s0,0x1d
    5efc:	07b2                	slli	a5,a5,0xc
    5efe:	0752                	slli	a4,a4,0x14
    5f00:	83b1                	srli	a5,a5,0xc
    5f02:	01f49513          	slli	a0,s1,0x1f
    5f06:	8fd9                	or	a5,a5,a4
    5f08:	8fc9                	or	a5,a5,a0
    5f0a:	40b2                	lw	ra,12(sp)
    5f0c:	8522                	mv	a0,s0
    5f0e:	4422                	lw	s0,8(sp)
    5f10:	4492                	lw	s1,4(sp)
    5f12:	85be                	mv	a1,a5
    5f14:	0141                	addi	sp,sp,16
    5f16:	8082                	ret
    5f18:	eb05                	bnez	a4,5f48 <__extendsfdf2+0x7a>
    5f1a:	c439                	beqz	s0,5f68 <__extendsfdf2+0x9a>
    5f1c:	8522                	mv	a0,s0
    5f1e:	22d9                	jal	60e4 <__clzsi2>
    5f20:	47a9                	li	a5,10
    5f22:	04a7c663          	blt	a5,a0,5f6e <__extendsfdf2+0xa0>
    5f26:	472d                	li	a4,11
    5f28:	8f09                	sub	a4,a4,a0
    5f2a:	01550793          	addi	a5,a0,21
    5f2e:	00e45733          	srl	a4,s0,a4
    5f32:	00f41433          	sll	s0,s0,a5
    5f36:	00c71793          	slli	a5,a4,0xc
    5f3a:	38900713          	li	a4,905
    5f3e:	8f09                	sub	a4,a4,a0
    5f40:	83b1                	srli	a5,a5,0xc
    5f42:	7ff77713          	andi	a4,a4,2047
    5f46:	bf5d                	j	5efc <__extendsfdf2+0x2e>
    5f48:	cc01                	beqz	s0,5f60 <__extendsfdf2+0x92>
    5f4a:	00345713          	srli	a4,s0,0x3
    5f4e:	000807b7          	lui	a5,0x80
    5f52:	8fd9                	or	a5,a5,a4
    5f54:	07b2                	slli	a5,a5,0xc
    5f56:	0476                	slli	s0,s0,0x1d
    5f58:	83b1                	srli	a5,a5,0xc
    5f5a:	7ff00713          	li	a4,2047
    5f5e:	bf79                	j	5efc <__extendsfdf2+0x2e>
    5f60:	7ff00713          	li	a4,2047
    5f64:	4781                	li	a5,0
    5f66:	bf59                	j	5efc <__extendsfdf2+0x2e>
    5f68:	4701                	li	a4,0
    5f6a:	4781                	li	a5,0
    5f6c:	bf41                	j	5efc <__extendsfdf2+0x2e>
    5f6e:	ff550713          	addi	a4,a0,-11
    5f72:	00e41733          	sll	a4,s0,a4
    5f76:	4401                	li	s0,0
    5f78:	bf7d                	j	5f36 <__extendsfdf2+0x68>

00005f7a <__truncdfsf2>:
    5f7a:	0145d693          	srli	a3,a1,0x14
    5f7e:	00c59793          	slli	a5,a1,0xc
    5f82:	7ff6f693          	andi	a3,a3,2047
    5f86:	83b1                	srli	a5,a5,0xc
    5f88:	00168613          	addi	a2,a3,1 # fc000001 <__freertos_irq_stack_top+0xdbff8001>
    5f8c:	078e                	slli	a5,a5,0x3
    5f8e:	01d55713          	srli	a4,a0,0x1d
    5f92:	7fe67613          	andi	a2,a2,2046
    5f96:	81fd                	srli	a1,a1,0x1f
    5f98:	8f5d                	or	a4,a4,a5
    5f9a:	00351893          	slli	a7,a0,0x3
    5f9e:	ce35                	beqz	a2,601a <__truncdfsf2+0xa0>
    5fa0:	c8068813          	addi	a6,a3,-896
    5fa4:	0fe00793          	li	a5,254
    5fa8:	0107dd63          	bge	a5,a6,5fc2 <__truncdfsf2+0x48>
    5fac:	4781                	li	a5,0
    5fae:	00979513          	slli	a0,a5,0x9
    5fb2:	0ff00693          	li	a3,255
    5fb6:	06de                	slli	a3,a3,0x17
    5fb8:	8125                	srli	a0,a0,0x9
    5fba:	05fe                	slli	a1,a1,0x1f
    5fbc:	8d55                	or	a0,a0,a3
    5fbe:	8d4d                	or	a0,a0,a1
    5fc0:	8082                	ret
    5fc2:	0b005563          	blez	a6,606c <__truncdfsf2+0xf2>
    5fc6:	00651793          	slli	a5,a0,0x6
    5fca:	070e                	slli	a4,a4,0x3
    5fcc:	00f037b3          	snez	a5,a5
    5fd0:	8fd9                	or	a5,a5,a4
    5fd2:	01d8d893          	srli	a7,a7,0x1d
    5fd6:	0117e7b3          	or	a5,a5,a7
    5fda:	0077f713          	andi	a4,a5,7
    5fde:	10070163          	beqz	a4,60e0 <__truncdfsf2+0x166>
    5fe2:	00f7f713          	andi	a4,a5,15
    5fe6:	4691                	li	a3,4
    5fe8:	00d70363          	beq	a4,a3,5fee <__truncdfsf2+0x74>
    5fec:	0791                	addi	a5,a5,4
    5fee:	04000737          	lui	a4,0x4000
    5ff2:	8f7d                	and	a4,a4,a5
    5ff4:	c775                	beqz	a4,60e0 <__truncdfsf2+0x166>
    5ff6:	00180713          	addi	a4,a6,1 # 100001 <_data_lma+0xf84e5>
    5ffa:	0ff00613          	li	a2,255
    5ffe:	0ff77693          	andi	a3,a4,255
    6002:	fac705e3          	beq	a4,a2,5fac <__truncdfsf2+0x32>
    6006:	079a                	slli	a5,a5,0x6
    6008:	83a5                	srli	a5,a5,0x9
    600a:	00979513          	slli	a0,a5,0x9
    600e:	06de                	slli	a3,a3,0x17
    6010:	8125                	srli	a0,a0,0x9
    6012:	05fe                	slli	a1,a1,0x1f
    6014:	8d55                	or	a0,a0,a3
    6016:	8d4d                	or	a0,a0,a1
    6018:	8082                	ret
    601a:	011767b3          	or	a5,a4,a7
    601e:	ee99                	bnez	a3,603c <__truncdfsf2+0xc2>
    6020:	cf85                	beqz	a5,6058 <__truncdfsf2+0xde>
    6022:	4795                	li	a5,5
    6024:	079a                	slli	a5,a5,0x6
    6026:	83a5                	srli	a5,a5,0x9
    6028:	00979513          	slli	a0,a5,0x9
    602c:	0ff6f693          	andi	a3,a3,255
    6030:	06de                	slli	a3,a3,0x17
    6032:	8125                	srli	a0,a0,0x9
    6034:	05fe                	slli	a1,a1,0x1f
    6036:	8d55                	or	a0,a0,a3
    6038:	8d4d                	or	a0,a0,a1
    603a:	8082                	ret
    603c:	dba5                	beqz	a5,5fac <__truncdfsf2+0x32>
    603e:	004007b7          	lui	a5,0x400
    6042:	00979513          	slli	a0,a5,0x9
    6046:	0ff00693          	li	a3,255
    604a:	06de                	slli	a3,a3,0x17
    604c:	4581                	li	a1,0
    604e:	8125                	srli	a0,a0,0x9
    6050:	05fe                	slli	a1,a1,0x1f
    6052:	8d55                	or	a0,a0,a3
    6054:	8d4d                	or	a0,a0,a1
    6056:	8082                	ret
    6058:	4781                	li	a5,0
    605a:	00979513          	slli	a0,a5,0x9
    605e:	4681                	li	a3,0
    6060:	06de                	slli	a3,a3,0x17
    6062:	8125                	srli	a0,a0,0x9
    6064:	05fe                	slli	a1,a1,0x1f
    6066:	8d55                	or	a0,a0,a3
    6068:	8d4d                	or	a0,a0,a1
    606a:	8082                	ret
    606c:	57a5                	li	a5,-23
    606e:	04f84863          	blt	a6,a5,60be <__truncdfsf2+0x144>
    6072:	47f9                	li	a5,30
    6074:	00800637          	lui	a2,0x800
    6078:	410787b3          	sub	a5,a5,a6
    607c:	457d                	li	a0,31
    607e:	8e59                	or	a2,a2,a4
    6080:	04f55163          	bge	a0,a5,60c2 <__truncdfsf2+0x148>
    6084:	5779                	li	a4,-2
    6086:	41070733          	sub	a4,a4,a6
    608a:	02000513          	li	a0,32
    608e:	00e65733          	srl	a4,a2,a4
    6092:	00a78863          	beq	a5,a0,60a2 <__truncdfsf2+0x128>
    6096:	ca268693          	addi	a3,a3,-862
    609a:	00d616b3          	sll	a3,a2,a3
    609e:	00d8e8b3          	or	a7,a7,a3
    60a2:	011037b3          	snez	a5,a7
    60a6:	8fd9                	or	a5,a5,a4
    60a8:	0077f713          	andi	a4,a5,7
    60ac:	4801                	li	a6,0
    60ae:	fb15                	bnez	a4,5fe2 <__truncdfsf2+0x68>
    60b0:	00579713          	slli	a4,a5,0x5
    60b4:	4685                	li	a3,1
    60b6:	f40748e3          	bltz	a4,6006 <__truncdfsf2+0x8c>
    60ba:	4681                	li	a3,0
    60bc:	b7a5                	j	6024 <__truncdfsf2+0xaa>
    60be:	4681                	li	a3,0
    60c0:	b78d                	j	6022 <__truncdfsf2+0xa8>
    60c2:	c8268693          	addi	a3,a3,-894
    60c6:	00d89733          	sll	a4,a7,a3
    60ca:	00e03733          	snez	a4,a4
    60ce:	00d616b3          	sll	a3,a2,a3
    60d2:	00f8d8b3          	srl	a7,a7,a5
    60d6:	00d767b3          	or	a5,a4,a3
    60da:	00f8e7b3          	or	a5,a7,a5
    60de:	b7e9                	j	60a8 <__truncdfsf2+0x12e>
    60e0:	86c2                	mv	a3,a6
    60e2:	b789                	j	6024 <__truncdfsf2+0xaa>

000060e4 <__clzsi2>:
    60e4:	67c1                	lui	a5,0x10
    60e6:	02f57c63          	bgeu	a0,a5,611e <__clzsi2+0x3a>
    60ea:	0ff00793          	li	a5,255
    60ee:	02000713          	li	a4,32
    60f2:	00a7eb63          	bltu	a5,a0,6108 <__clzsi2+0x24>
    60f6:	00002797          	auipc	a5,0x2
    60fa:	88a78793          	addi	a5,a5,-1910 # 7980 <__clz_tab>
    60fe:	97aa                	add	a5,a5,a0
    6100:	2388                	lbu	a0,0(a5)
    6102:	40a70533          	sub	a0,a4,a0
    6106:	8082                	ret
    6108:	8121                	srli	a0,a0,0x8
    610a:	00002797          	auipc	a5,0x2
    610e:	87678793          	addi	a5,a5,-1930 # 7980 <__clz_tab>
    6112:	97aa                	add	a5,a5,a0
    6114:	2388                	lbu	a0,0(a5)
    6116:	4761                	li	a4,24
    6118:	40a70533          	sub	a0,a4,a0
    611c:	8082                	ret
    611e:	010007b7          	lui	a5,0x1000
    6122:	00f56d63          	bltu	a0,a5,613c <__clzsi2+0x58>
    6126:	8161                	srli	a0,a0,0x18
    6128:	00002797          	auipc	a5,0x2
    612c:	85878793          	addi	a5,a5,-1960 # 7980 <__clz_tab>
    6130:	97aa                	add	a5,a5,a0
    6132:	2388                	lbu	a0,0(a5)
    6134:	4721                	li	a4,8
    6136:	40a70533          	sub	a0,a4,a0
    613a:	8082                	ret
    613c:	8141                	srli	a0,a0,0x10
    613e:	00002797          	auipc	a5,0x2
    6142:	84278793          	addi	a5,a5,-1982 # 7980 <__clz_tab>
    6146:	97aa                	add	a5,a5,a0
    6148:	2388                	lbu	a0,0(a5)
    614a:	4741                	li	a4,16
    614c:	40a70533          	sub	a0,a4,a0
    6150:	8082                	ret

00006152 <__errno>:
    6152:	82418793          	addi	a5,gp,-2012 # 200000f4 <_impure_ptr>
    6156:	4388                	lw	a0,0(a5)
    6158:	8082                	ret

0000615a <memcpy>:
    615a:	00a5c7b3          	xor	a5,a1,a0
    615e:	8b8d                	andi	a5,a5,3
    6160:	00c50733          	add	a4,a0,a2
    6164:	e781                	bnez	a5,616c <memcpy+0x12>
    6166:	478d                	li	a5,3
    6168:	00c7ed63          	bltu	a5,a2,6182 <memcpy+0x28>
    616c:	87aa                	mv	a5,a0
    616e:	08e57e63          	bgeu	a0,a4,620a <memcpy+0xb0>
    6172:	2194                	lbu	a3,0(a1)
    6174:	0785                	addi	a5,a5,1
    6176:	0585                	addi	a1,a1,1
    6178:	fed78fa3          	sb	a3,-1(a5)
    617c:	fee7ebe3          	bltu	a5,a4,6172 <memcpy+0x18>
    6180:	8082                	ret
    6182:	00357693          	andi	a3,a0,3
    6186:	87aa                	mv	a5,a0
    6188:	ca89                	beqz	a3,619a <memcpy+0x40>
    618a:	2194                	lbu	a3,0(a1)
    618c:	0785                	addi	a5,a5,1
    618e:	0585                	addi	a1,a1,1
    6190:	fed78fa3          	sb	a3,-1(a5)
    6194:	0037f693          	andi	a3,a5,3
    6198:	bfc5                	j	6188 <memcpy+0x2e>
    619a:	ffc77693          	andi	a3,a4,-4
    619e:	fe068613          	addi	a2,a3,-32
    61a2:	06c7f063          	bgeu	a5,a2,6202 <memcpy+0xa8>
    61a6:	0005a383          	lw	t2,0(a1)
    61aa:	0045a283          	lw	t0,4(a1)
    61ae:	0085af83          	lw	t6,8(a1)
    61b2:	00c5af03          	lw	t5,12(a1)
    61b6:	0105ae83          	lw	t4,16(a1)
    61ba:	0145ae03          	lw	t3,20(a1)
    61be:	0185a303          	lw	t1,24(a1)
    61c2:	01c5a883          	lw	a7,28(a1)
    61c6:	02458593          	addi	a1,a1,36
    61ca:	0077a023          	sw	t2,0(a5)
    61ce:	ffc5a803          	lw	a6,-4(a1)
    61d2:	0057a223          	sw	t0,4(a5)
    61d6:	01f7a423          	sw	t6,8(a5)
    61da:	01e7a623          	sw	t5,12(a5)
    61de:	01d7a823          	sw	t4,16(a5)
    61e2:	01c7aa23          	sw	t3,20(a5)
    61e6:	0067ac23          	sw	t1,24(a5)
    61ea:	0117ae23          	sw	a7,28(a5)
    61ee:	02478793          	addi	a5,a5,36
    61f2:	ff07ae23          	sw	a6,-4(a5)
    61f6:	b775                	j	61a2 <memcpy+0x48>
    61f8:	4190                	lw	a2,0(a1)
    61fa:	0791                	addi	a5,a5,4
    61fc:	0591                	addi	a1,a1,4
    61fe:	fec7ae23          	sw	a2,-4(a5)
    6202:	fed7ebe3          	bltu	a5,a3,61f8 <memcpy+0x9e>
    6206:	f6e7e6e3          	bltu	a5,a4,6172 <memcpy+0x18>
    620a:	8082                	ret

0000620c <iprintf>:
    620c:	7139                	addi	sp,sp,-64
    620e:	da3e                	sw	a5,52(sp)
    6210:	d22e                	sw	a1,36(sp)
    6212:	d432                	sw	a2,40(sp)
    6214:	d636                	sw	a3,44(sp)
    6216:	d83a                	sw	a4,48(sp)
    6218:	dc42                	sw	a6,56(sp)
    621a:	de46                	sw	a7,60(sp)
    621c:	82418793          	addi	a5,gp,-2012 # 200000f4 <_impure_ptr>
    6220:	cc22                	sw	s0,24(sp)
    6222:	4380                	lw	s0,0(a5)
    6224:	ca26                	sw	s1,20(sp)
    6226:	ce06                	sw	ra,28(sp)
    6228:	84aa                	mv	s1,a0
    622a:	c409                	beqz	s0,6234 <iprintf+0x28>
    622c:	4c1c                	lw	a5,24(s0)
    622e:	e399                	bnez	a5,6234 <iprintf+0x28>
    6230:	8522                	mv	a0,s0
    6232:	29fd                	jal	6730 <__sinit>
    6234:	440c                	lw	a1,8(s0)
    6236:	1054                	addi	a3,sp,36
    6238:	8626                	mv	a2,s1
    623a:	8522                	mv	a0,s0
    623c:	c636                	sw	a3,12(sp)
    623e:	151000ef          	jal	ra,6b8e <_vfiprintf_r>
    6242:	40f2                	lw	ra,28(sp)
    6244:	4462                	lw	s0,24(sp)
    6246:	44d2                	lw	s1,20(sp)
    6248:	6121                	addi	sp,sp,64
    624a:	8082                	ret

0000624c <_puts_r>:
    624c:	1101                	addi	sp,sp,-32
    624e:	ca26                	sw	s1,20(sp)
    6250:	c84a                	sw	s2,16(sp)
    6252:	ce06                	sw	ra,28(sp)
    6254:	cc22                	sw	s0,24(sp)
    6256:	c64e                	sw	s3,12(sp)
    6258:	c452                	sw	s4,8(sp)
    625a:	84aa                	mv	s1,a0
    625c:	892e                	mv	s2,a1
    625e:	c501                	beqz	a0,6266 <_puts_r+0x1a>
    6260:	4d1c                	lw	a5,24(a0)
    6262:	e391                	bnez	a5,6266 <_puts_r+0x1a>
    6264:	21f1                	jal	6730 <__sinit>
    6266:	4c9c                	lw	a5,24(s1)
    6268:	4480                	lw	s0,8(s1)
    626a:	e399                	bnez	a5,6270 <_puts_r+0x24>
    626c:	8526                	mv	a0,s1
    626e:	21c9                	jal	6730 <__sinit>
    6270:	00002797          	auipc	a5,0x2
    6274:	83078793          	addi	a5,a5,-2000 # 7aa0 <__sf_fake_stdin>
    6278:	02f41b63          	bne	s0,a5,62ae <_puts_r+0x62>
    627c:	40c0                	lw	s0,4(s1)
    627e:	245e                	lhu	a5,12(s0)
    6280:	8ba1                	andi	a5,a5,8
    6282:	c7b1                	beqz	a5,62ce <_puts_r+0x82>
    6284:	481c                	lw	a5,16(s0)
    6286:	c7a1                	beqz	a5,62ce <_puts_r+0x82>
    6288:	59fd                	li	s3,-1
    628a:	4a29                	li	s4,10
    628c:	441c                	lw	a5,8(s0)
    628e:	00094583          	lbu	a1,0(s2)
    6292:	17fd                	addi	a5,a5,-1
    6294:	e9b1                	bnez	a1,62e8 <_puts_r+0x9c>
    6296:	c41c                	sw	a5,8(s0)
    6298:	0607dd63          	bgez	a5,6312 <_puts_r+0xc6>
    629c:	8622                	mv	a2,s0
    629e:	45a9                	li	a1,10
    62a0:	8526                	mv	a0,s1
    62a2:	2069                	jal	632c <__swbuf_r>
    62a4:	57fd                	li	a5,-1
    62a6:	02f50863          	beq	a0,a5,62d6 <_puts_r+0x8a>
    62aa:	4529                	li	a0,10
    62ac:	a035                	j	62d8 <_puts_r+0x8c>
    62ae:	00002797          	auipc	a5,0x2
    62b2:	81278793          	addi	a5,a5,-2030 # 7ac0 <__sf_fake_stdout>
    62b6:	00f41463          	bne	s0,a5,62be <_puts_r+0x72>
    62ba:	4480                	lw	s0,8(s1)
    62bc:	b7c9                	j	627e <_puts_r+0x32>
    62be:	00001797          	auipc	a5,0x1
    62c2:	7c278793          	addi	a5,a5,1986 # 7a80 <__sf_fake_stderr>
    62c6:	faf41ce3          	bne	s0,a5,627e <_puts_r+0x32>
    62ca:	44c0                	lw	s0,12(s1)
    62cc:	bf4d                	j	627e <_puts_r+0x32>
    62ce:	85a2                	mv	a1,s0
    62d0:	8526                	mv	a0,s1
    62d2:	2a19                	jal	63e8 <__swsetup_r>
    62d4:	d955                	beqz	a0,6288 <_puts_r+0x3c>
    62d6:	557d                	li	a0,-1
    62d8:	40f2                	lw	ra,28(sp)
    62da:	4462                	lw	s0,24(sp)
    62dc:	44d2                	lw	s1,20(sp)
    62de:	4942                	lw	s2,16(sp)
    62e0:	49b2                	lw	s3,12(sp)
    62e2:	4a22                	lw	s4,8(sp)
    62e4:	6105                	addi	sp,sp,32
    62e6:	8082                	ret
    62e8:	c41c                	sw	a5,8(s0)
    62ea:	0905                	addi	s2,s2,1
    62ec:	0007d763          	bgez	a5,62fa <_puts_r+0xae>
    62f0:	4c18                	lw	a4,24(s0)
    62f2:	00e7ca63          	blt	a5,a4,6306 <_puts_r+0xba>
    62f6:	01458863          	beq	a1,s4,6306 <_puts_r+0xba>
    62fa:	401c                	lw	a5,0(s0)
    62fc:	00178713          	addi	a4,a5,1
    6300:	c018                	sw	a4,0(s0)
    6302:	a38c                	sb	a1,0(a5)
    6304:	b761                	j	628c <_puts_r+0x40>
    6306:	8622                	mv	a2,s0
    6308:	8526                	mv	a0,s1
    630a:	200d                	jal	632c <__swbuf_r>
    630c:	f93510e3          	bne	a0,s3,628c <_puts_r+0x40>
    6310:	b7d9                	j	62d6 <_puts_r+0x8a>
    6312:	401c                	lw	a5,0(s0)
    6314:	00178713          	addi	a4,a5,1
    6318:	c018                	sw	a4,0(s0)
    631a:	4729                	li	a4,10
    631c:	a398                	sb	a4,0(a5)
    631e:	b771                	j	62aa <_puts_r+0x5e>

00006320 <puts>:
    6320:	82418793          	addi	a5,gp,-2012 # 200000f4 <_impure_ptr>
    6324:	85aa                	mv	a1,a0
    6326:	4388                	lw	a0,0(a5)
    6328:	f25ff06f          	j	624c <_puts_r>

0000632c <__swbuf_r>:
    632c:	1101                	addi	sp,sp,-32
    632e:	cc22                	sw	s0,24(sp)
    6330:	ca26                	sw	s1,20(sp)
    6332:	c84a                	sw	s2,16(sp)
    6334:	ce06                	sw	ra,28(sp)
    6336:	c64e                	sw	s3,12(sp)
    6338:	84aa                	mv	s1,a0
    633a:	892e                	mv	s2,a1
    633c:	8432                	mv	s0,a2
    633e:	c501                	beqz	a0,6346 <__swbuf_r+0x1a>
    6340:	4d1c                	lw	a5,24(a0)
    6342:	e391                	bnez	a5,6346 <__swbuf_r+0x1a>
    6344:	26f5                	jal	6730 <__sinit>
    6346:	00001797          	auipc	a5,0x1
    634a:	75a78793          	addi	a5,a5,1882 # 7aa0 <__sf_fake_stdin>
    634e:	06f41763          	bne	s0,a5,63bc <__swbuf_r+0x90>
    6352:	40c0                	lw	s0,4(s1)
    6354:	4c1c                	lw	a5,24(s0)
    6356:	c41c                	sw	a5,8(s0)
    6358:	245e                	lhu	a5,12(s0)
    635a:	8ba1                	andi	a5,a5,8
    635c:	c3c1                	beqz	a5,63dc <__swbuf_r+0xb0>
    635e:	481c                	lw	a5,16(s0)
    6360:	cfb5                	beqz	a5,63dc <__swbuf_r+0xb0>
    6362:	481c                	lw	a5,16(s0)
    6364:	4008                	lw	a0,0(s0)
    6366:	0ff97993          	andi	s3,s2,255
    636a:	0ff97913          	andi	s2,s2,255
    636e:	8d1d                	sub	a0,a0,a5
    6370:	485c                	lw	a5,20(s0)
    6372:	00f54663          	blt	a0,a5,637e <__swbuf_r+0x52>
    6376:	85a2                	mv	a1,s0
    6378:	8526                	mv	a0,s1
    637a:	2c69                	jal	6614 <_fflush_r>
    637c:	e525                	bnez	a0,63e4 <__swbuf_r+0xb8>
    637e:	441c                	lw	a5,8(s0)
    6380:	0505                	addi	a0,a0,1
    6382:	17fd                	addi	a5,a5,-1
    6384:	c41c                	sw	a5,8(s0)
    6386:	401c                	lw	a5,0(s0)
    6388:	00178713          	addi	a4,a5,1
    638c:	c018                	sw	a4,0(s0)
    638e:	01378023          	sb	s3,0(a5)
    6392:	485c                	lw	a5,20(s0)
    6394:	00a78863          	beq	a5,a0,63a4 <__swbuf_r+0x78>
    6398:	245e                	lhu	a5,12(s0)
    639a:	8b85                	andi	a5,a5,1
    639c:	cb81                	beqz	a5,63ac <__swbuf_r+0x80>
    639e:	47a9                	li	a5,10
    63a0:	00f91663          	bne	s2,a5,63ac <__swbuf_r+0x80>
    63a4:	85a2                	mv	a1,s0
    63a6:	8526                	mv	a0,s1
    63a8:	24b5                	jal	6614 <_fflush_r>
    63aa:	ed0d                	bnez	a0,63e4 <__swbuf_r+0xb8>
    63ac:	40f2                	lw	ra,28(sp)
    63ae:	4462                	lw	s0,24(sp)
    63b0:	854a                	mv	a0,s2
    63b2:	44d2                	lw	s1,20(sp)
    63b4:	4942                	lw	s2,16(sp)
    63b6:	49b2                	lw	s3,12(sp)
    63b8:	6105                	addi	sp,sp,32
    63ba:	8082                	ret
    63bc:	00001797          	auipc	a5,0x1
    63c0:	70478793          	addi	a5,a5,1796 # 7ac0 <__sf_fake_stdout>
    63c4:	00f41463          	bne	s0,a5,63cc <__swbuf_r+0xa0>
    63c8:	4480                	lw	s0,8(s1)
    63ca:	b769                	j	6354 <__swbuf_r+0x28>
    63cc:	00001797          	auipc	a5,0x1
    63d0:	6b478793          	addi	a5,a5,1716 # 7a80 <__sf_fake_stderr>
    63d4:	f8f410e3          	bne	s0,a5,6354 <__swbuf_r+0x28>
    63d8:	44c0                	lw	s0,12(s1)
    63da:	bfad                	j	6354 <__swbuf_r+0x28>
    63dc:	85a2                	mv	a1,s0
    63de:	8526                	mv	a0,s1
    63e0:	2021                	jal	63e8 <__swsetup_r>
    63e2:	d141                	beqz	a0,6362 <__swbuf_r+0x36>
    63e4:	597d                	li	s2,-1
    63e6:	b7d9                	j	63ac <__swbuf_r+0x80>

000063e8 <__swsetup_r>:
    63e8:	1141                	addi	sp,sp,-16
    63ea:	82418793          	addi	a5,gp,-2012 # 200000f4 <_impure_ptr>
    63ee:	c226                	sw	s1,4(sp)
    63f0:	4384                	lw	s1,0(a5)
    63f2:	c422                	sw	s0,8(sp)
    63f4:	c04a                	sw	s2,0(sp)
    63f6:	c606                	sw	ra,12(sp)
    63f8:	892a                	mv	s2,a0
    63fa:	842e                	mv	s0,a1
    63fc:	c489                	beqz	s1,6406 <__swsetup_r+0x1e>
    63fe:	4c9c                	lw	a5,24(s1)
    6400:	e399                	bnez	a5,6406 <__swsetup_r+0x1e>
    6402:	8526                	mv	a0,s1
    6404:	2635                	jal	6730 <__sinit>
    6406:	00001797          	auipc	a5,0x1
    640a:	69a78793          	addi	a5,a5,1690 # 7aa0 <__sf_fake_stdin>
    640e:	02f41b63          	bne	s0,a5,6444 <__swsetup_r+0x5c>
    6412:	40c0                	lw	s0,4(s1)
    6414:	00c41703          	lh	a4,12(s0) # 400000c <_data_lma+0x3ff84f0>
    6418:	01071793          	slli	a5,a4,0x10
    641c:	83c1                	srli	a5,a5,0x10
    641e:	0087f693          	andi	a3,a5,8
    6422:	eaad                	bnez	a3,6494 <__swsetup_r+0xac>
    6424:	0107f693          	andi	a3,a5,16
    6428:	ee95                	bnez	a3,6464 <__swsetup_r+0x7c>
    642a:	47a5                	li	a5,9
    642c:	00f92023          	sw	a5,0(s2)
    6430:	04076713          	ori	a4,a4,64
    6434:	a45a                	sh	a4,12(s0)
    6436:	557d                	li	a0,-1
    6438:	40b2                	lw	ra,12(sp)
    643a:	4422                	lw	s0,8(sp)
    643c:	4492                	lw	s1,4(sp)
    643e:	4902                	lw	s2,0(sp)
    6440:	0141                	addi	sp,sp,16
    6442:	8082                	ret
    6444:	00001797          	auipc	a5,0x1
    6448:	67c78793          	addi	a5,a5,1660 # 7ac0 <__sf_fake_stdout>
    644c:	00f41463          	bne	s0,a5,6454 <__swsetup_r+0x6c>
    6450:	4480                	lw	s0,8(s1)
    6452:	b7c9                	j	6414 <__swsetup_r+0x2c>
    6454:	00001797          	auipc	a5,0x1
    6458:	62c78793          	addi	a5,a5,1580 # 7a80 <__sf_fake_stderr>
    645c:	faf41ce3          	bne	s0,a5,6414 <__swsetup_r+0x2c>
    6460:	44c0                	lw	s0,12(s1)
    6462:	bf4d                	j	6414 <__swsetup_r+0x2c>
    6464:	8b91                	andi	a5,a5,4
    6466:	c39d                	beqz	a5,648c <__swsetup_r+0xa4>
    6468:	584c                	lw	a1,52(s0)
    646a:	c989                	beqz	a1,647c <__swsetup_r+0x94>
    646c:	04440793          	addi	a5,s0,68
    6470:	00f58463          	beq	a1,a5,6478 <__swsetup_r+0x90>
    6474:	854a                	mv	a0,s2
    6476:	2b29                	jal	6990 <_free_r>
    6478:	02042a23          	sw	zero,52(s0)
    647c:	245e                	lhu	a5,12(s0)
    647e:	00042223          	sw	zero,4(s0)
    6482:	fdb7f793          	andi	a5,a5,-37
    6486:	a45e                	sh	a5,12(s0)
    6488:	481c                	lw	a5,16(s0)
    648a:	c01c                	sw	a5,0(s0)
    648c:	245e                	lhu	a5,12(s0)
    648e:	0087e793          	ori	a5,a5,8
    6492:	a45e                	sh	a5,12(s0)
    6494:	481c                	lw	a5,16(s0)
    6496:	eb99                	bnez	a5,64ac <__swsetup_r+0xc4>
    6498:	245e                	lhu	a5,12(s0)
    649a:	20000713          	li	a4,512
    649e:	2807f793          	andi	a5,a5,640
    64a2:	00e78563          	beq	a5,a4,64ac <__swsetup_r+0xc4>
    64a6:	85a2                	mv	a1,s0
    64a8:	854a                	mv	a0,s2
    64aa:	2991                	jal	68fe <__smakebuf_r>
    64ac:	245e                	lhu	a5,12(s0)
    64ae:	0017f713          	andi	a4,a5,1
    64b2:	c31d                	beqz	a4,64d8 <__swsetup_r+0xf0>
    64b4:	485c                	lw	a5,20(s0)
    64b6:	00042423          	sw	zero,8(s0)
    64ba:	40f007b3          	neg	a5,a5
    64be:	cc1c                	sw	a5,24(s0)
    64c0:	481c                	lw	a5,16(s0)
    64c2:	4501                	li	a0,0
    64c4:	fbb5                	bnez	a5,6438 <__swsetup_r+0x50>
    64c6:	00c41783          	lh	a5,12(s0)
    64ca:	0807f713          	andi	a4,a5,128
    64ce:	d72d                	beqz	a4,6438 <__swsetup_r+0x50>
    64d0:	0407e793          	ori	a5,a5,64
    64d4:	a45e                	sh	a5,12(s0)
    64d6:	b785                	j	6436 <__swsetup_r+0x4e>
    64d8:	8b89                	andi	a5,a5,2
    64da:	4701                	li	a4,0
    64dc:	e391                	bnez	a5,64e0 <__swsetup_r+0xf8>
    64de:	4858                	lw	a4,20(s0)
    64e0:	c418                	sw	a4,8(s0)
    64e2:	bff9                	j	64c0 <__swsetup_r+0xd8>

000064e4 <__sflush_r>:
    64e4:	25de                	lhu	a5,12(a1)
    64e6:	1101                	addi	sp,sp,-32
    64e8:	cc22                	sw	s0,24(sp)
    64ea:	ca26                	sw	s1,20(sp)
    64ec:	ce06                	sw	ra,28(sp)
    64ee:	c84a                	sw	s2,16(sp)
    64f0:	c64e                	sw	s3,12(sp)
    64f2:	0087f713          	andi	a4,a5,8
    64f6:	84aa                	mv	s1,a0
    64f8:	842e                	mv	s0,a1
    64fa:	eb79                	bnez	a4,65d0 <__sflush_r+0xec>
    64fc:	41d8                	lw	a4,4(a1)
    64fe:	00e04d63          	bgtz	a4,6518 <__sflush_r+0x34>
    6502:	41b8                	lw	a4,64(a1)
    6504:	00e04a63          	bgtz	a4,6518 <__sflush_r+0x34>
    6508:	4501                	li	a0,0
    650a:	40f2                	lw	ra,28(sp)
    650c:	4462                	lw	s0,24(sp)
    650e:	44d2                	lw	s1,20(sp)
    6510:	4942                	lw	s2,16(sp)
    6512:	49b2                	lw	s3,12(sp)
    6514:	6105                	addi	sp,sp,32
    6516:	8082                	ret
    6518:	5458                	lw	a4,44(s0)
    651a:	d77d                	beqz	a4,6508 <__sflush_r+0x24>
    651c:	0004a903          	lw	s2,0(s1)
    6520:	01379693          	slli	a3,a5,0x13
    6524:	0004a023          	sw	zero,0(s1)
    6528:	0606db63          	bgez	a3,659e <__sflush_r+0xba>
    652c:	4870                	lw	a2,84(s0)
    652e:	245e                	lhu	a5,12(s0)
    6530:	8b91                	andi	a5,a5,4
    6532:	c799                	beqz	a5,6540 <__sflush_r+0x5c>
    6534:	405c                	lw	a5,4(s0)
    6536:	8e1d                	sub	a2,a2,a5
    6538:	585c                	lw	a5,52(s0)
    653a:	c399                	beqz	a5,6540 <__sflush_r+0x5c>
    653c:	403c                	lw	a5,64(s0)
    653e:	8e1d                	sub	a2,a2,a5
    6540:	545c                	lw	a5,44(s0)
    6542:	500c                	lw	a1,32(s0)
    6544:	4681                	li	a3,0
    6546:	8526                	mv	a0,s1
    6548:	9782                	jalr	a5
    654a:	57fd                	li	a5,-1
    654c:	245a                	lhu	a4,12(s0)
    654e:	00f51d63          	bne	a0,a5,6568 <__sflush_r+0x84>
    6552:	4094                	lw	a3,0(s1)
    6554:	47f5                	li	a5,29
    6556:	06d7e863          	bltu	a5,a3,65c6 <__sflush_r+0xe2>
    655a:	204007b7          	lui	a5,0x20400
    655e:	0785                	addi	a5,a5,1
    6560:	00d7d7b3          	srl	a5,a5,a3
    6564:	8b85                	andi	a5,a5,1
    6566:	c3a5                	beqz	a5,65c6 <__sflush_r+0xe2>
    6568:	481c                	lw	a5,16(s0)
    656a:	00042223          	sw	zero,4(s0)
    656e:	c01c                	sw	a5,0(s0)
    6570:	01371793          	slli	a5,a4,0x13
    6574:	0007d863          	bgez	a5,6584 <__sflush_r+0xa0>
    6578:	57fd                	li	a5,-1
    657a:	00f51463          	bne	a0,a5,6582 <__sflush_r+0x9e>
    657e:	409c                	lw	a5,0(s1)
    6580:	e391                	bnez	a5,6584 <__sflush_r+0xa0>
    6582:	c868                	sw	a0,84(s0)
    6584:	584c                	lw	a1,52(s0)
    6586:	0124a023          	sw	s2,0(s1)
    658a:	ddbd                	beqz	a1,6508 <__sflush_r+0x24>
    658c:	04440793          	addi	a5,s0,68
    6590:	00f58463          	beq	a1,a5,6598 <__sflush_r+0xb4>
    6594:	8526                	mv	a0,s1
    6596:	2eed                	jal	6990 <_free_r>
    6598:	02042a23          	sw	zero,52(s0)
    659c:	b7b5                	j	6508 <__sflush_r+0x24>
    659e:	500c                	lw	a1,32(s0)
    65a0:	4601                	li	a2,0
    65a2:	4685                	li	a3,1
    65a4:	8526                	mv	a0,s1
    65a6:	9702                	jalr	a4
    65a8:	57fd                	li	a5,-1
    65aa:	862a                	mv	a2,a0
    65ac:	f8f511e3          	bne	a0,a5,652e <__sflush_r+0x4a>
    65b0:	409c                	lw	a5,0(s1)
    65b2:	dfb5                	beqz	a5,652e <__sflush_r+0x4a>
    65b4:	4775                	li	a4,29
    65b6:	00e78563          	beq	a5,a4,65c0 <__sflush_r+0xdc>
    65ba:	4759                	li	a4,22
    65bc:	04e79363          	bne	a5,a4,6602 <__sflush_r+0x11e>
    65c0:	0124a023          	sw	s2,0(s1)
    65c4:	b791                	j	6508 <__sflush_r+0x24>
    65c6:	04076713          	ori	a4,a4,64
    65ca:	a45a                	sh	a4,12(s0)
    65cc:	557d                	li	a0,-1
    65ce:	bf35                	j	650a <__sflush_r+0x26>
    65d0:	0105a983          	lw	s3,16(a1)
    65d4:	f2098ae3          	beqz	s3,6508 <__sflush_r+0x24>
    65d8:	0005a903          	lw	s2,0(a1)
    65dc:	8b8d                	andi	a5,a5,3
    65de:	0135a023          	sw	s3,0(a1)
    65e2:	41390933          	sub	s2,s2,s3
    65e6:	4701                	li	a4,0
    65e8:	e391                	bnez	a5,65ec <__sflush_r+0x108>
    65ea:	49d8                	lw	a4,20(a1)
    65ec:	c418                	sw	a4,8(s0)
    65ee:	f1205de3          	blez	s2,6508 <__sflush_r+0x24>
    65f2:	541c                	lw	a5,40(s0)
    65f4:	500c                	lw	a1,32(s0)
    65f6:	86ca                	mv	a3,s2
    65f8:	864e                	mv	a2,s3
    65fa:	8526                	mv	a0,s1
    65fc:	9782                	jalr	a5
    65fe:	00a04763          	bgtz	a0,660c <__sflush_r+0x128>
    6602:	245e                	lhu	a5,12(s0)
    6604:	0407e793          	ori	a5,a5,64
    6608:	a45e                	sh	a5,12(s0)
    660a:	b7c9                	j	65cc <__sflush_r+0xe8>
    660c:	99aa                	add	s3,s3,a0
    660e:	40a90933          	sub	s2,s2,a0
    6612:	bff1                	j	65ee <__sflush_r+0x10a>

00006614 <_fflush_r>:
    6614:	499c                	lw	a5,16(a1)
    6616:	c3a5                	beqz	a5,6676 <_fflush_r+0x62>
    6618:	1101                	addi	sp,sp,-32
    661a:	cc22                	sw	s0,24(sp)
    661c:	ce06                	sw	ra,28(sp)
    661e:	842a                	mv	s0,a0
    6620:	c511                	beqz	a0,662c <_fflush_r+0x18>
    6622:	4d1c                	lw	a5,24(a0)
    6624:	e781                	bnez	a5,662c <_fflush_r+0x18>
    6626:	c62e                	sw	a1,12(sp)
    6628:	2221                	jal	6730 <__sinit>
    662a:	45b2                	lw	a1,12(sp)
    662c:	00001797          	auipc	a5,0x1
    6630:	47478793          	addi	a5,a5,1140 # 7aa0 <__sf_fake_stdin>
    6634:	00f59c63          	bne	a1,a5,664c <_fflush_r+0x38>
    6638:	404c                	lw	a1,4(s0)
    663a:	00c59783          	lh	a5,12(a1)
    663e:	c79d                	beqz	a5,666c <_fflush_r+0x58>
    6640:	8522                	mv	a0,s0
    6642:	4462                	lw	s0,24(sp)
    6644:	40f2                	lw	ra,28(sp)
    6646:	6105                	addi	sp,sp,32
    6648:	e9dff06f          	j	64e4 <__sflush_r>
    664c:	00001797          	auipc	a5,0x1
    6650:	47478793          	addi	a5,a5,1140 # 7ac0 <__sf_fake_stdout>
    6654:	00f59463          	bne	a1,a5,665c <_fflush_r+0x48>
    6658:	440c                	lw	a1,8(s0)
    665a:	b7c5                	j	663a <_fflush_r+0x26>
    665c:	00001797          	auipc	a5,0x1
    6660:	42478793          	addi	a5,a5,1060 # 7a80 <__sf_fake_stderr>
    6664:	fcf59be3          	bne	a1,a5,663a <_fflush_r+0x26>
    6668:	444c                	lw	a1,12(s0)
    666a:	bfc1                	j	663a <_fflush_r+0x26>
    666c:	40f2                	lw	ra,28(sp)
    666e:	4462                	lw	s0,24(sp)
    6670:	4501                	li	a0,0
    6672:	6105                	addi	sp,sp,32
    6674:	8082                	ret
    6676:	4501                	li	a0,0
    6678:	8082                	ret

0000667a <std>:
    667a:	1141                	addi	sp,sp,-16
    667c:	c422                	sw	s0,8(sp)
    667e:	c606                	sw	ra,12(sp)
    6680:	842a                	mv	s0,a0
    6682:	a54e                	sh	a1,12(a0)
    6684:	a572                	sh	a2,14(a0)
    6686:	00052023          	sw	zero,0(a0)
    668a:	00052223          	sw	zero,4(a0)
    668e:	00052423          	sw	zero,8(a0)
    6692:	06052223          	sw	zero,100(a0)
    6696:	00052823          	sw	zero,16(a0)
    669a:	00052a23          	sw	zero,20(a0)
    669e:	00052c23          	sw	zero,24(a0)
    66a2:	4621                	li	a2,8
    66a4:	4581                	li	a1,0
    66a6:	05c50513          	addi	a0,a0,92
    66aa:	e9df90ef          	jal	ra,546 <memset>
    66ae:	00001797          	auipc	a5,0x1
    66b2:	b4878793          	addi	a5,a5,-1208 # 71f6 <__sread>
    66b6:	d05c                	sw	a5,36(s0)
    66b8:	00001797          	auipc	a5,0x1
    66bc:	b6a78793          	addi	a5,a5,-1174 # 7222 <__swrite>
    66c0:	d41c                	sw	a5,40(s0)
    66c2:	00001797          	auipc	a5,0x1
    66c6:	ba878793          	addi	a5,a5,-1112 # 726a <__sseek>
    66ca:	d45c                	sw	a5,44(s0)
    66cc:	00001797          	auipc	a5,0x1
    66d0:	bce78793          	addi	a5,a5,-1074 # 729a <__sclose>
    66d4:	d000                	sw	s0,32(s0)
    66d6:	d81c                	sw	a5,48(s0)
    66d8:	40b2                	lw	ra,12(sp)
    66da:	4422                	lw	s0,8(sp)
    66dc:	0141                	addi	sp,sp,16
    66de:	8082                	ret

000066e0 <_cleanup_r>:
    66e0:	00000597          	auipc	a1,0x0
    66e4:	f3458593          	addi	a1,a1,-204 # 6614 <_fflush_r>
    66e8:	aa91                	j	683c <_fwalk_reent>

000066ea <__sfmoreglue>:
    66ea:	1141                	addi	sp,sp,-16
    66ec:	c226                	sw	s1,4(sp)
    66ee:	06800613          	li	a2,104
    66f2:	fff58493          	addi	s1,a1,-1
    66f6:	02c484b3          	mul	s1,s1,a2
    66fa:	c04a                	sw	s2,0(sp)
    66fc:	892e                	mv	s2,a1
    66fe:	c422                	sw	s0,8(sp)
    6700:	c606                	sw	ra,12(sp)
    6702:	07448593          	addi	a1,s1,116
    6706:	2e2d                	jal	6a40 <_malloc_r>
    6708:	842a                	mv	s0,a0
    670a:	cd01                	beqz	a0,6722 <__sfmoreglue+0x38>
    670c:	00052023          	sw	zero,0(a0)
    6710:	01252223          	sw	s2,4(a0)
    6714:	0531                	addi	a0,a0,12
    6716:	c408                	sw	a0,8(s0)
    6718:	06848613          	addi	a2,s1,104
    671c:	4581                	li	a1,0
    671e:	e29f90ef          	jal	ra,546 <memset>
    6722:	8522                	mv	a0,s0
    6724:	40b2                	lw	ra,12(sp)
    6726:	4422                	lw	s0,8(sp)
    6728:	4492                	lw	s1,4(sp)
    672a:	4902                	lw	s2,0(sp)
    672c:	0141                	addi	sp,sp,16
    672e:	8082                	ret

00006730 <__sinit>:
    6730:	4d1c                	lw	a5,24(a0)
    6732:	e7a5                	bnez	a5,679a <__sinit+0x6a>
    6734:	1141                	addi	sp,sp,-16
    6736:	c606                	sw	ra,12(sp)
    6738:	c422                	sw	s0,8(sp)
    673a:	00000797          	auipc	a5,0x0
    673e:	fa678793          	addi	a5,a5,-90 # 66e0 <_cleanup_r>
    6742:	d51c                	sw	a5,40(a0)
    6744:	82c18793          	addi	a5,gp,-2004 # 200000fc <_global_impure_ptr>
    6748:	439c                	lw	a5,0(a5)
    674a:	04052423          	sw	zero,72(a0)
    674e:	04052623          	sw	zero,76(a0)
    6752:	04052823          	sw	zero,80(a0)
    6756:	00f51463          	bne	a0,a5,675e <__sinit+0x2e>
    675a:	4785                	li	a5,1
    675c:	cd1c                	sw	a5,24(a0)
    675e:	842a                	mv	s0,a0
    6760:	2835                	jal	679c <__sfp>
    6762:	c048                	sw	a0,4(s0)
    6764:	8522                	mv	a0,s0
    6766:	281d                	jal	679c <__sfp>
    6768:	c408                	sw	a0,8(s0)
    676a:	8522                	mv	a0,s0
    676c:	2805                	jal	679c <__sfp>
    676e:	c448                	sw	a0,12(s0)
    6770:	4048                	lw	a0,4(s0)
    6772:	4601                	li	a2,0
    6774:	4591                	li	a1,4
    6776:	f05ff0ef          	jal	ra,667a <std>
    677a:	4408                	lw	a0,8(s0)
    677c:	4605                	li	a2,1
    677e:	45a5                	li	a1,9
    6780:	efbff0ef          	jal	ra,667a <std>
    6784:	4448                	lw	a0,12(s0)
    6786:	4609                	li	a2,2
    6788:	45c9                	li	a1,18
    678a:	ef1ff0ef          	jal	ra,667a <std>
    678e:	4785                	li	a5,1
    6790:	cc1c                	sw	a5,24(s0)
    6792:	40b2                	lw	ra,12(sp)
    6794:	4422                	lw	s0,8(sp)
    6796:	0141                	addi	sp,sp,16
    6798:	8082                	ret
    679a:	8082                	ret

0000679c <__sfp>:
    679c:	1141                	addi	sp,sp,-16
    679e:	82c18793          	addi	a5,gp,-2004 # 200000fc <_global_impure_ptr>
    67a2:	c226                	sw	s1,4(sp)
    67a4:	4384                	lw	s1,0(a5)
    67a6:	c04a                	sw	s2,0(sp)
    67a8:	c606                	sw	ra,12(sp)
    67aa:	4c9c                	lw	a5,24(s1)
    67ac:	c422                	sw	s0,8(sp)
    67ae:	892a                	mv	s2,a0
    67b0:	e781                	bnez	a5,67b8 <__sfp+0x1c>
    67b2:	8526                	mv	a0,s1
    67b4:	f7dff0ef          	jal	ra,6730 <__sinit>
    67b8:	04848493          	addi	s1,s1,72
    67bc:	4480                	lw	s0,8(s1)
    67be:	40dc                	lw	a5,4(s1)
    67c0:	17fd                	addi	a5,a5,-1
    67c2:	0007d663          	bgez	a5,67ce <__sfp+0x32>
    67c6:	409c                	lw	a5,0(s1)
    67c8:	cfb9                	beqz	a5,6826 <__sfp+0x8a>
    67ca:	4084                	lw	s1,0(s1)
    67cc:	bfc5                	j	67bc <__sfp+0x20>
    67ce:	00c41703          	lh	a4,12(s0)
    67d2:	e739                	bnez	a4,6820 <__sfp+0x84>
    67d4:	77c1                	lui	a5,0xffff0
    67d6:	0785                	addi	a5,a5,1
    67d8:	06042223          	sw	zero,100(s0)
    67dc:	00042023          	sw	zero,0(s0)
    67e0:	00042223          	sw	zero,4(s0)
    67e4:	00042423          	sw	zero,8(s0)
    67e8:	c45c                	sw	a5,12(s0)
    67ea:	00042823          	sw	zero,16(s0)
    67ee:	00042a23          	sw	zero,20(s0)
    67f2:	00042c23          	sw	zero,24(s0)
    67f6:	4621                	li	a2,8
    67f8:	4581                	li	a1,0
    67fa:	05c40513          	addi	a0,s0,92
    67fe:	d49f90ef          	jal	ra,546 <memset>
    6802:	02042a23          	sw	zero,52(s0)
    6806:	02042c23          	sw	zero,56(s0)
    680a:	04042423          	sw	zero,72(s0)
    680e:	04042623          	sw	zero,76(s0)
    6812:	8522                	mv	a0,s0
    6814:	40b2                	lw	ra,12(sp)
    6816:	4422                	lw	s0,8(sp)
    6818:	4492                	lw	s1,4(sp)
    681a:	4902                	lw	s2,0(sp)
    681c:	0141                	addi	sp,sp,16
    681e:	8082                	ret
    6820:	06840413          	addi	s0,s0,104
    6824:	bf71                	j	67c0 <__sfp+0x24>
    6826:	4591                	li	a1,4
    6828:	854a                	mv	a0,s2
    682a:	ec1ff0ef          	jal	ra,66ea <__sfmoreglue>
    682e:	c088                	sw	a0,0(s1)
    6830:	fd49                	bnez	a0,67ca <__sfp+0x2e>
    6832:	47b1                	li	a5,12
    6834:	00f92023          	sw	a5,0(s2)
    6838:	4401                	li	s0,0
    683a:	bfe1                	j	6812 <__sfp+0x76>

0000683c <_fwalk_reent>:
    683c:	7179                	addi	sp,sp,-48
    683e:	d422                	sw	s0,40(sp)
    6840:	d04a                	sw	s2,32(sp)
    6842:	cc52                	sw	s4,24(sp)
    6844:	ca56                	sw	s5,20(sp)
    6846:	c85a                	sw	s6,16(sp)
    6848:	c65e                	sw	s7,12(sp)
    684a:	d606                	sw	ra,44(sp)
    684c:	d226                	sw	s1,36(sp)
    684e:	ce4e                	sw	s3,28(sp)
    6850:	8a2a                	mv	s4,a0
    6852:	8aae                	mv	s5,a1
    6854:	04850413          	addi	s0,a0,72
    6858:	4901                	li	s2,0
    685a:	4b05                	li	s6,1
    685c:	5bfd                	li	s7,-1
    685e:	ec09                	bnez	s0,6878 <_fwalk_reent+0x3c>
    6860:	50b2                	lw	ra,44(sp)
    6862:	5422                	lw	s0,40(sp)
    6864:	854a                	mv	a0,s2
    6866:	5492                	lw	s1,36(sp)
    6868:	5902                	lw	s2,32(sp)
    686a:	49f2                	lw	s3,28(sp)
    686c:	4a62                	lw	s4,24(sp)
    686e:	4ad2                	lw	s5,20(sp)
    6870:	4b42                	lw	s6,16(sp)
    6872:	4bb2                	lw	s7,12(sp)
    6874:	6145                	addi	sp,sp,48
    6876:	8082                	ret
    6878:	4404                	lw	s1,8(s0)
    687a:	00442983          	lw	s3,4(s0)
    687e:	19fd                	addi	s3,s3,-1
    6880:	0009d463          	bgez	s3,6888 <_fwalk_reent+0x4c>
    6884:	4000                	lw	s0,0(s0)
    6886:	bfe1                	j	685e <_fwalk_reent+0x22>
    6888:	24de                	lhu	a5,12(s1)
    688a:	00fb7b63          	bgeu	s6,a5,68a0 <_fwalk_reent+0x64>
    688e:	00e49783          	lh	a5,14(s1)
    6892:	01778763          	beq	a5,s7,68a0 <_fwalk_reent+0x64>
    6896:	85a6                	mv	a1,s1
    6898:	8552                	mv	a0,s4
    689a:	9a82                	jalr	s5
    689c:	00a96933          	or	s2,s2,a0
    68a0:	06848493          	addi	s1,s1,104
    68a4:	bfe9                	j	687e <_fwalk_reent+0x42>

000068a6 <__swhatbuf_r>:
    68a6:	7119                	addi	sp,sp,-128
    68a8:	daa6                	sw	s1,116(sp)
    68aa:	84ae                	mv	s1,a1
    68ac:	00e59583          	lh	a1,14(a1)
    68b0:	dca2                	sw	s0,120(sp)
    68b2:	de86                	sw	ra,124(sp)
    68b4:	8432                	mv	s0,a2
    68b6:	0005db63          	bgez	a1,68cc <__swhatbuf_r+0x26>
    68ba:	24de                	lhu	a5,12(s1)
    68bc:	0006a023          	sw	zero,0(a3)
    68c0:	0807f793          	andi	a5,a5,128
    68c4:	e785                	bnez	a5,68ec <__swhatbuf_r+0x46>
    68c6:	40000793          	li	a5,1024
    68ca:	a01d                	j	68f0 <__swhatbuf_r+0x4a>
    68cc:	0830                	addi	a2,sp,24
    68ce:	c636                	sw	a3,12(sp)
    68d0:	237000ef          	jal	ra,7306 <_fstat_r>
    68d4:	46b2                	lw	a3,12(sp)
    68d6:	fe0542e3          	bltz	a0,68ba <__swhatbuf_r+0x14>
    68da:	4772                	lw	a4,28(sp)
    68dc:	67bd                	lui	a5,0xf
    68de:	8ff9                	and	a5,a5,a4
    68e0:	7779                	lui	a4,0xffffe
    68e2:	97ba                	add	a5,a5,a4
    68e4:	0017b793          	seqz	a5,a5
    68e8:	c29c                	sw	a5,0(a3)
    68ea:	bff1                	j	68c6 <__swhatbuf_r+0x20>
    68ec:	04000793          	li	a5,64
    68f0:	c01c                	sw	a5,0(s0)
    68f2:	50f6                	lw	ra,124(sp)
    68f4:	5466                	lw	s0,120(sp)
    68f6:	54d6                	lw	s1,116(sp)
    68f8:	4501                	li	a0,0
    68fa:	6109                	addi	sp,sp,128
    68fc:	8082                	ret

000068fe <__smakebuf_r>:
    68fe:	25de                	lhu	a5,12(a1)
    6900:	1101                	addi	sp,sp,-32
    6902:	cc22                	sw	s0,24(sp)
    6904:	ce06                	sw	ra,28(sp)
    6906:	ca26                	sw	s1,20(sp)
    6908:	c84a                	sw	s2,16(sp)
    690a:	8b89                	andi	a5,a5,2
    690c:	842e                	mv	s0,a1
    690e:	cf89                	beqz	a5,6928 <__smakebuf_r+0x2a>
    6910:	04740793          	addi	a5,s0,71
    6914:	c01c                	sw	a5,0(s0)
    6916:	c81c                	sw	a5,16(s0)
    6918:	4785                	li	a5,1
    691a:	c85c                	sw	a5,20(s0)
    691c:	40f2                	lw	ra,28(sp)
    691e:	4462                	lw	s0,24(sp)
    6920:	44d2                	lw	s1,20(sp)
    6922:	4942                	lw	s2,16(sp)
    6924:	6105                	addi	sp,sp,32
    6926:	8082                	ret
    6928:	0074                	addi	a3,sp,12
    692a:	0030                	addi	a2,sp,8
    692c:	84aa                	mv	s1,a0
    692e:	f79ff0ef          	jal	ra,68a6 <__swhatbuf_r>
    6932:	45a2                	lw	a1,8(sp)
    6934:	892a                	mv	s2,a0
    6936:	8526                	mv	a0,s1
    6938:	2221                	jal	6a40 <_malloc_r>
    693a:	e919                	bnez	a0,6950 <__smakebuf_r+0x52>
    693c:	00c41783          	lh	a5,12(s0)
    6940:	2007f713          	andi	a4,a5,512
    6944:	ff61                	bnez	a4,691c <__smakebuf_r+0x1e>
    6946:	9bf1                	andi	a5,a5,-4
    6948:	0027e793          	ori	a5,a5,2
    694c:	a45e                	sh	a5,12(s0)
    694e:	b7c9                	j	6910 <__smakebuf_r+0x12>
    6950:	00000797          	auipc	a5,0x0
    6954:	d9078793          	addi	a5,a5,-624 # 66e0 <_cleanup_r>
    6958:	d49c                	sw	a5,40(s1)
    695a:	245e                	lhu	a5,12(s0)
    695c:	c008                	sw	a0,0(s0)
    695e:	c808                	sw	a0,16(s0)
    6960:	0807e793          	ori	a5,a5,128
    6964:	a45e                	sh	a5,12(s0)
    6966:	47a2                	lw	a5,8(sp)
    6968:	c85c                	sw	a5,20(s0)
    696a:	47b2                	lw	a5,12(sp)
    696c:	cf81                	beqz	a5,6984 <__smakebuf_r+0x86>
    696e:	00e41583          	lh	a1,14(s0)
    6972:	8526                	mv	a0,s1
    6974:	1c5000ef          	jal	ra,7338 <_isatty_r>
    6978:	c511                	beqz	a0,6984 <__smakebuf_r+0x86>
    697a:	245e                	lhu	a5,12(s0)
    697c:	9bf1                	andi	a5,a5,-4
    697e:	0017e793          	ori	a5,a5,1
    6982:	a45e                	sh	a5,12(s0)
    6984:	245e                	lhu	a5,12(s0)
    6986:	00f96933          	or	s2,s2,a5
    698a:	01241623          	sh	s2,12(s0)
    698e:	b779                	j	691c <__smakebuf_r+0x1e>

00006990 <_free_r>:
    6990:	c5dd                	beqz	a1,6a3e <_free_r+0xae>
    6992:	ffc5a783          	lw	a5,-4(a1)
    6996:	1141                	addi	sp,sp,-16
    6998:	c422                	sw	s0,8(sp)
    699a:	c606                	sw	ra,12(sp)
    699c:	c226                	sw	s1,4(sp)
    699e:	ffc58413          	addi	s0,a1,-4
    69a2:	0007d363          	bgez	a5,69a8 <_free_r+0x18>
    69a6:	943e                	add	s0,s0,a5
    69a8:	84aa                	mv	s1,a0
    69aa:	20b000ef          	jal	ra,73b4 <__malloc_lock>
    69ae:	1fff9797          	auipc	a5,0x1fff9
    69b2:	7f278793          	addi	a5,a5,2034 # 200001a0 <__malloc_free_list>
    69b6:	439c                	lw	a5,0(a5)
    69b8:	ef91                	bnez	a5,69d4 <_free_r+0x44>
    69ba:	00042223          	sw	zero,4(s0)
    69be:	1fff9797          	auipc	a5,0x1fff9
    69c2:	7e87a123          	sw	s0,2018(a5) # 200001a0 <__malloc_free_list>
    69c6:	4422                	lw	s0,8(sp)
    69c8:	40b2                	lw	ra,12(sp)
    69ca:	8526                	mv	a0,s1
    69cc:	4492                	lw	s1,4(sp)
    69ce:	0141                	addi	sp,sp,16
    69d0:	1e70006f          	j	73b6 <__malloc_unlock>
    69d4:	00f47e63          	bgeu	s0,a5,69f0 <_free_r+0x60>
    69d8:	4014                	lw	a3,0(s0)
    69da:	00d40733          	add	a4,s0,a3
    69de:	00e79663          	bne	a5,a4,69ea <_free_r+0x5a>
    69e2:	4398                	lw	a4,0(a5)
    69e4:	43dc                	lw	a5,4(a5)
    69e6:	9736                	add	a4,a4,a3
    69e8:	c018                	sw	a4,0(s0)
    69ea:	c05c                	sw	a5,4(s0)
    69ec:	bfc9                	j	69be <_free_r+0x2e>
    69ee:	87ba                	mv	a5,a4
    69f0:	43d8                	lw	a4,4(a5)
    69f2:	c319                	beqz	a4,69f8 <_free_r+0x68>
    69f4:	fee47de3          	bgeu	s0,a4,69ee <_free_r+0x5e>
    69f8:	4394                	lw	a3,0(a5)
    69fa:	00d78633          	add	a2,a5,a3
    69fe:	00861f63          	bne	a2,s0,6a1c <_free_r+0x8c>
    6a02:	4010                	lw	a2,0(s0)
    6a04:	96b2                	add	a3,a3,a2
    6a06:	c394                	sw	a3,0(a5)
    6a08:	00d78633          	add	a2,a5,a3
    6a0c:	fac71de3          	bne	a4,a2,69c6 <_free_r+0x36>
    6a10:	4310                	lw	a2,0(a4)
    6a12:	4358                	lw	a4,4(a4)
    6a14:	96b2                	add	a3,a3,a2
    6a16:	c394                	sw	a3,0(a5)
    6a18:	c3d8                	sw	a4,4(a5)
    6a1a:	b775                	j	69c6 <_free_r+0x36>
    6a1c:	00c47563          	bgeu	s0,a2,6a26 <_free_r+0x96>
    6a20:	47b1                	li	a5,12
    6a22:	c09c                	sw	a5,0(s1)
    6a24:	b74d                	j	69c6 <_free_r+0x36>
    6a26:	4010                	lw	a2,0(s0)
    6a28:	00c406b3          	add	a3,s0,a2
    6a2c:	00d71663          	bne	a4,a3,6a38 <_free_r+0xa8>
    6a30:	4314                	lw	a3,0(a4)
    6a32:	4358                	lw	a4,4(a4)
    6a34:	96b2                	add	a3,a3,a2
    6a36:	c014                	sw	a3,0(s0)
    6a38:	c058                	sw	a4,4(s0)
    6a3a:	c3c0                	sw	s0,4(a5)
    6a3c:	b769                	j	69c6 <_free_r+0x36>
    6a3e:	8082                	ret

00006a40 <_malloc_r>:
    6a40:	1101                	addi	sp,sp,-32
    6a42:	ca26                	sw	s1,20(sp)
    6a44:	00358493          	addi	s1,a1,3
    6a48:	98f1                	andi	s1,s1,-4
    6a4a:	ce06                	sw	ra,28(sp)
    6a4c:	cc22                	sw	s0,24(sp)
    6a4e:	c84a                	sw	s2,16(sp)
    6a50:	c64e                	sw	s3,12(sp)
    6a52:	04a1                	addi	s1,s1,8
    6a54:	47b1                	li	a5,12
    6a56:	04f4f963          	bgeu	s1,a5,6aa8 <_malloc_r+0x68>
    6a5a:	44b1                	li	s1,12
    6a5c:	04b4e863          	bltu	s1,a1,6aac <_malloc_r+0x6c>
    6a60:	892a                	mv	s2,a0
    6a62:	153000ef          	jal	ra,73b4 <__malloc_lock>
    6a66:	1fff9797          	auipc	a5,0x1fff9
    6a6a:	73a78793          	addi	a5,a5,1850 # 200001a0 <__malloc_free_list>
    6a6e:	4398                	lw	a4,0(a5)
    6a70:	843a                	mv	s0,a4
    6a72:	e439                	bnez	s0,6ac0 <_malloc_r+0x80>
    6a74:	1fff9797          	auipc	a5,0x1fff9
    6a78:	73078793          	addi	a5,a5,1840 # 200001a4 <__malloc_sbrk_start>
    6a7c:	439c                	lw	a5,0(a5)
    6a7e:	eb81                	bnez	a5,6a8e <_malloc_r+0x4e>
    6a80:	4581                	li	a1,0
    6a82:	854a                	mv	a0,s2
    6a84:	2781                	jal	71c4 <_sbrk_r>
    6a86:	1fff9797          	auipc	a5,0x1fff9
    6a8a:	70a7af23          	sw	a0,1822(a5) # 200001a4 <__malloc_sbrk_start>
    6a8e:	85a6                	mv	a1,s1
    6a90:	854a                	mv	a0,s2
    6a92:	2f0d                	jal	71c4 <_sbrk_r>
    6a94:	59fd                	li	s3,-1
    6a96:	07351b63          	bne	a0,s3,6b0c <_malloc_r+0xcc>
    6a9a:	47b1                	li	a5,12
    6a9c:	00f92023          	sw	a5,0(s2)
    6aa0:	854a                	mv	a0,s2
    6aa2:	115000ef          	jal	ra,73b6 <__malloc_unlock>
    6aa6:	a029                	j	6ab0 <_malloc_r+0x70>
    6aa8:	fa04dae3          	bgez	s1,6a5c <_malloc_r+0x1c>
    6aac:	47b1                	li	a5,12
    6aae:	c11c                	sw	a5,0(a0)
    6ab0:	4501                	li	a0,0
    6ab2:	40f2                	lw	ra,28(sp)
    6ab4:	4462                	lw	s0,24(sp)
    6ab6:	44d2                	lw	s1,20(sp)
    6ab8:	4942                	lw	s2,16(sp)
    6aba:	49b2                	lw	s3,12(sp)
    6abc:	6105                	addi	sp,sp,32
    6abe:	8082                	ret
    6ac0:	401c                	lw	a5,0(s0)
    6ac2:	8f85                	sub	a5,a5,s1
    6ac4:	0407c163          	bltz	a5,6b06 <_malloc_r+0xc6>
    6ac8:	46ad                	li	a3,11
    6aca:	00f6f663          	bgeu	a3,a5,6ad6 <_malloc_r+0x96>
    6ace:	c01c                	sw	a5,0(s0)
    6ad0:	943e                	add	s0,s0,a5
    6ad2:	c004                	sw	s1,0(s0)
    6ad4:	a801                	j	6ae4 <_malloc_r+0xa4>
    6ad6:	405c                	lw	a5,4(s0)
    6ad8:	02871563          	bne	a4,s0,6b02 <_malloc_r+0xc2>
    6adc:	1fff9717          	auipc	a4,0x1fff9
    6ae0:	6cf72223          	sw	a5,1732(a4) # 200001a0 <__malloc_free_list>
    6ae4:	854a                	mv	a0,s2
    6ae6:	0d1000ef          	jal	ra,73b6 <__malloc_unlock>
    6aea:	00b40513          	addi	a0,s0,11
    6aee:	00440793          	addi	a5,s0,4
    6af2:	9961                	andi	a0,a0,-8
    6af4:	40f50733          	sub	a4,a0,a5
    6af8:	df4d                	beqz	a4,6ab2 <_malloc_r+0x72>
    6afa:	943a                	add	s0,s0,a4
    6afc:	8f89                	sub	a5,a5,a0
    6afe:	c01c                	sw	a5,0(s0)
    6b00:	bf4d                	j	6ab2 <_malloc_r+0x72>
    6b02:	c35c                	sw	a5,4(a4)
    6b04:	b7c5                	j	6ae4 <_malloc_r+0xa4>
    6b06:	8722                	mv	a4,s0
    6b08:	4040                	lw	s0,4(s0)
    6b0a:	b7a5                	j	6a72 <_malloc_r+0x32>
    6b0c:	00350413          	addi	s0,a0,3
    6b10:	9871                	andi	s0,s0,-4
    6b12:	fc8500e3          	beq	a0,s0,6ad2 <_malloc_r+0x92>
    6b16:	40a405b3          	sub	a1,s0,a0
    6b1a:	854a                	mv	a0,s2
    6b1c:	2565                	jal	71c4 <_sbrk_r>
    6b1e:	fb351ae3          	bne	a0,s3,6ad2 <_malloc_r+0x92>
    6b22:	bfa5                	j	6a9a <_malloc_r+0x5a>

00006b24 <__sfputc_r>:
    6b24:	461c                	lw	a5,8(a2)
    6b26:	17fd                	addi	a5,a5,-1
    6b28:	c61c                	sw	a5,8(a2)
    6b2a:	0007da63          	bgez	a5,6b3e <__sfputc_r+0x1a>
    6b2e:	4e18                	lw	a4,24(a2)
    6b30:	00e7c563          	blt	a5,a4,6b3a <__sfputc_r+0x16>
    6b34:	47a9                	li	a5,10
    6b36:	00f59463          	bne	a1,a5,6b3e <__sfputc_r+0x1a>
    6b3a:	ff2ff06f          	j	632c <__swbuf_r>
    6b3e:	421c                	lw	a5,0(a2)
    6b40:	852e                	mv	a0,a1
    6b42:	00178713          	addi	a4,a5,1
    6b46:	c218                	sw	a4,0(a2)
    6b48:	a38c                	sb	a1,0(a5)
    6b4a:	8082                	ret

00006b4c <__sfputs_r>:
    6b4c:	1101                	addi	sp,sp,-32
    6b4e:	cc22                	sw	s0,24(sp)
    6b50:	ca26                	sw	s1,20(sp)
    6b52:	c84a                	sw	s2,16(sp)
    6b54:	c64e                	sw	s3,12(sp)
    6b56:	c452                	sw	s4,8(sp)
    6b58:	ce06                	sw	ra,28(sp)
    6b5a:	892a                	mv	s2,a0
    6b5c:	89ae                	mv	s3,a1
    6b5e:	8432                	mv	s0,a2
    6b60:	00d604b3          	add	s1,a2,a3
    6b64:	5a7d                	li	s4,-1
    6b66:	00941463          	bne	s0,s1,6b6e <__sfputs_r+0x22>
    6b6a:	4501                	li	a0,0
    6b6c:	a809                	j	6b7e <__sfputs_r+0x32>
    6b6e:	200c                	lbu	a1,0(s0)
    6b70:	864e                	mv	a2,s3
    6b72:	854a                	mv	a0,s2
    6b74:	fb1ff0ef          	jal	ra,6b24 <__sfputc_r>
    6b78:	0405                	addi	s0,s0,1
    6b7a:	ff4516e3          	bne	a0,s4,6b66 <__sfputs_r+0x1a>
    6b7e:	40f2                	lw	ra,28(sp)
    6b80:	4462                	lw	s0,24(sp)
    6b82:	44d2                	lw	s1,20(sp)
    6b84:	4942                	lw	s2,16(sp)
    6b86:	49b2                	lw	s3,12(sp)
    6b88:	4a22                	lw	s4,8(sp)
    6b8a:	6105                	addi	sp,sp,32
    6b8c:	8082                	ret

00006b8e <_vfiprintf_r>:
    6b8e:	7135                	addi	sp,sp,-160
    6b90:	cd22                	sw	s0,152(sp)
    6b92:	cb26                	sw	s1,148(sp)
    6b94:	c94a                	sw	s2,144(sp)
    6b96:	c74e                	sw	s3,140(sp)
    6b98:	cf06                	sw	ra,156(sp)
    6b9a:	c552                	sw	s4,136(sp)
    6b9c:	c356                	sw	s5,132(sp)
    6b9e:	c15a                	sw	s6,128(sp)
    6ba0:	dede                	sw	s7,124(sp)
    6ba2:	dce2                	sw	s8,120(sp)
    6ba4:	dae6                	sw	s9,116(sp)
    6ba6:	89aa                	mv	s3,a0
    6ba8:	84ae                	mv	s1,a1
    6baa:	8932                	mv	s2,a2
    6bac:	8436                	mv	s0,a3
    6bae:	c509                	beqz	a0,6bb8 <_vfiprintf_r+0x2a>
    6bb0:	4d1c                	lw	a5,24(a0)
    6bb2:	e399                	bnez	a5,6bb8 <_vfiprintf_r+0x2a>
    6bb4:	b7dff0ef          	jal	ra,6730 <__sinit>
    6bb8:	00001797          	auipc	a5,0x1
    6bbc:	ee878793          	addi	a5,a5,-280 # 7aa0 <__sf_fake_stdin>
    6bc0:	0cf49863          	bne	s1,a5,6c90 <_vfiprintf_r+0x102>
    6bc4:	0049a483          	lw	s1,4(s3)
    6bc8:	24de                	lhu	a5,12(s1)
    6bca:	8ba1                	andi	a5,a5,8
    6bcc:	c7e5                	beqz	a5,6cb4 <_vfiprintf_r+0x126>
    6bce:	489c                	lw	a5,16(s1)
    6bd0:	c3f5                	beqz	a5,6cb4 <_vfiprintf_r+0x126>
    6bd2:	02000793          	li	a5,32
    6bd6:	02f104a3          	sb	a5,41(sp)
    6bda:	03000793          	li	a5,48
    6bde:	d202                	sw	zero,36(sp)
    6be0:	02f10523          	sb	a5,42(sp)
    6be4:	c622                	sw	s0,12(sp)
    6be6:	02500b93          	li	s7,37
    6bea:	00001a97          	auipc	s5,0x1
    6bee:	ef6a8a93          	addi	s5,s5,-266 # 7ae0 <__sf_fake_stdout+0x20>
    6bf2:	4c05                	li	s8,1
    6bf4:	4b29                	li	s6,10
    6bf6:	844a                	mv	s0,s2
    6bf8:	201c                	lbu	a5,0(s0)
    6bfa:	c399                	beqz	a5,6c00 <_vfiprintf_r+0x72>
    6bfc:	0d779f63          	bne	a5,s7,6cda <_vfiprintf_r+0x14c>
    6c00:	41240cb3          	sub	s9,s0,s2
    6c04:	000c8e63          	beqz	s9,6c20 <_vfiprintf_r+0x92>
    6c08:	86e6                	mv	a3,s9
    6c0a:	864a                	mv	a2,s2
    6c0c:	85a6                	mv	a1,s1
    6c0e:	854e                	mv	a0,s3
    6c10:	f3dff0ef          	jal	ra,6b4c <__sfputs_r>
    6c14:	57fd                	li	a5,-1
    6c16:	1cf50f63          	beq	a0,a5,6df4 <_vfiprintf_r+0x266>
    6c1a:	5692                	lw	a3,36(sp)
    6c1c:	96e6                	add	a3,a3,s9
    6c1e:	d236                	sw	a3,36(sp)
    6c20:	201c                	lbu	a5,0(s0)
    6c22:	1c078963          	beqz	a5,6df4 <_vfiprintf_r+0x266>
    6c26:	57fd                	li	a5,-1
    6c28:	00140913          	addi	s2,s0,1
    6c2c:	c802                	sw	zero,16(sp)
    6c2e:	ce02                	sw	zero,28(sp)
    6c30:	ca3e                	sw	a5,20(sp)
    6c32:	cc02                	sw	zero,24(sp)
    6c34:	040109a3          	sb	zero,83(sp)
    6c38:	d482                	sw	zero,104(sp)
    6c3a:	00094583          	lbu	a1,0(s2)
    6c3e:	4615                	li	a2,5
    6c40:	8556                	mv	a0,s5
    6c42:	2fa9                	jal	739c <memchr>
    6c44:	00190413          	addi	s0,s2,1
    6c48:	47c2                	lw	a5,16(sp)
    6c4a:	e951                	bnez	a0,6cde <_vfiprintf_r+0x150>
    6c4c:	0107f713          	andi	a4,a5,16
    6c50:	c709                	beqz	a4,6c5a <_vfiprintf_r+0xcc>
    6c52:	02000713          	li	a4,32
    6c56:	04e109a3          	sb	a4,83(sp)
    6c5a:	0087f713          	andi	a4,a5,8
    6c5e:	c709                	beqz	a4,6c68 <_vfiprintf_r+0xda>
    6c60:	02b00713          	li	a4,43
    6c64:	04e109a3          	sb	a4,83(sp)
    6c68:	00094683          	lbu	a3,0(s2)
    6c6c:	02a00713          	li	a4,42
    6c70:	06e68f63          	beq	a3,a4,6cee <_vfiprintf_r+0x160>
    6c74:	47f2                	lw	a5,28(sp)
    6c76:	844a                	mv	s0,s2
    6c78:	4681                	li	a3,0
    6c7a:	4625                	li	a2,9
    6c7c:	2018                	lbu	a4,0(s0)
    6c7e:	00140593          	addi	a1,s0,1
    6c82:	fd070713          	addi	a4,a4,-48
    6c86:	0ae67763          	bgeu	a2,a4,6d34 <_vfiprintf_r+0x1a6>
    6c8a:	cab5                	beqz	a3,6cfe <_vfiprintf_r+0x170>
    6c8c:	ce3e                	sw	a5,28(sp)
    6c8e:	a885                	j	6cfe <_vfiprintf_r+0x170>
    6c90:	00001797          	auipc	a5,0x1
    6c94:	e3078793          	addi	a5,a5,-464 # 7ac0 <__sf_fake_stdout>
    6c98:	00f49563          	bne	s1,a5,6ca2 <_vfiprintf_r+0x114>
    6c9c:	0089a483          	lw	s1,8(s3)
    6ca0:	b725                	j	6bc8 <_vfiprintf_r+0x3a>
    6ca2:	00001797          	auipc	a5,0x1
    6ca6:	dde78793          	addi	a5,a5,-546 # 7a80 <__sf_fake_stderr>
    6caa:	f0f49fe3          	bne	s1,a5,6bc8 <_vfiprintf_r+0x3a>
    6cae:	00c9a483          	lw	s1,12(s3)
    6cb2:	bf19                	j	6bc8 <_vfiprintf_r+0x3a>
    6cb4:	85a6                	mv	a1,s1
    6cb6:	854e                	mv	a0,s3
    6cb8:	f30ff0ef          	jal	ra,63e8 <__swsetup_r>
    6cbc:	d919                	beqz	a0,6bd2 <_vfiprintf_r+0x44>
    6cbe:	557d                	li	a0,-1
    6cc0:	40fa                	lw	ra,156(sp)
    6cc2:	446a                	lw	s0,152(sp)
    6cc4:	44da                	lw	s1,148(sp)
    6cc6:	494a                	lw	s2,144(sp)
    6cc8:	49ba                	lw	s3,140(sp)
    6cca:	4a2a                	lw	s4,136(sp)
    6ccc:	4a9a                	lw	s5,132(sp)
    6cce:	4b0a                	lw	s6,128(sp)
    6cd0:	5bf6                	lw	s7,124(sp)
    6cd2:	5c66                	lw	s8,120(sp)
    6cd4:	5cd6                	lw	s9,116(sp)
    6cd6:	610d                	addi	sp,sp,160
    6cd8:	8082                	ret
    6cda:	0405                	addi	s0,s0,1
    6cdc:	bf31                	j	6bf8 <_vfiprintf_r+0x6a>
    6cde:	41550533          	sub	a0,a0,s5
    6ce2:	00ac1533          	sll	a0,s8,a0
    6ce6:	8fc9                	or	a5,a5,a0
    6ce8:	c83e                	sw	a5,16(sp)
    6cea:	8922                	mv	s2,s0
    6cec:	b7b9                	j	6c3a <_vfiprintf_r+0xac>
    6cee:	4732                	lw	a4,12(sp)
    6cf0:	00470693          	addi	a3,a4,4
    6cf4:	4318                	lw	a4,0(a4)
    6cf6:	c636                	sw	a3,12(sp)
    6cf8:	02074763          	bltz	a4,6d26 <_vfiprintf_r+0x198>
    6cfc:	ce3a                	sw	a4,28(sp)
    6cfe:	2018                	lbu	a4,0(s0)
    6d00:	02e00793          	li	a5,46
    6d04:	04f71d63          	bne	a4,a5,6d5e <_vfiprintf_r+0x1d0>
    6d08:	3018                	lbu	a4,1(s0)
    6d0a:	02a00793          	li	a5,42
    6d0e:	02f71b63          	bne	a4,a5,6d44 <_vfiprintf_r+0x1b6>
    6d12:	47b2                	lw	a5,12(sp)
    6d14:	0409                	addi	s0,s0,2
    6d16:	00478713          	addi	a4,a5,4
    6d1a:	439c                	lw	a5,0(a5)
    6d1c:	c63a                	sw	a4,12(sp)
    6d1e:	0207c163          	bltz	a5,6d40 <_vfiprintf_r+0x1b2>
    6d22:	ca3e                	sw	a5,20(sp)
    6d24:	a82d                	j	6d5e <_vfiprintf_r+0x1d0>
    6d26:	40e00733          	neg	a4,a4
    6d2a:	0027e793          	ori	a5,a5,2
    6d2e:	ce3a                	sw	a4,28(sp)
    6d30:	c83e                	sw	a5,16(sp)
    6d32:	b7f1                	j	6cfe <_vfiprintf_r+0x170>
    6d34:	036787b3          	mul	a5,a5,s6
    6d38:	4685                	li	a3,1
    6d3a:	842e                	mv	s0,a1
    6d3c:	97ba                	add	a5,a5,a4
    6d3e:	bf3d                	j	6c7c <_vfiprintf_r+0xee>
    6d40:	57fd                	li	a5,-1
    6d42:	b7c5                	j	6d22 <_vfiprintf_r+0x194>
    6d44:	0405                	addi	s0,s0,1
    6d46:	ca02                	sw	zero,20(sp)
    6d48:	4681                	li	a3,0
    6d4a:	4781                	li	a5,0
    6d4c:	4625                	li	a2,9
    6d4e:	2018                	lbu	a4,0(s0)
    6d50:	00140593          	addi	a1,s0,1
    6d54:	fd070713          	addi	a4,a4,-48
    6d58:	06e67463          	bgeu	a2,a4,6dc0 <_vfiprintf_r+0x232>
    6d5c:	f2f9                	bnez	a3,6d22 <_vfiprintf_r+0x194>
    6d5e:	200c                	lbu	a1,0(s0)
    6d60:	460d                	li	a2,3
    6d62:	00001517          	auipc	a0,0x1
    6d66:	d8650513          	addi	a0,a0,-634 # 7ae8 <__sf_fake_stdout+0x28>
    6d6a:	2d0d                	jal	739c <memchr>
    6d6c:	cd11                	beqz	a0,6d88 <_vfiprintf_r+0x1fa>
    6d6e:	00001797          	auipc	a5,0x1
    6d72:	d7a78793          	addi	a5,a5,-646 # 7ae8 <__sf_fake_stdout+0x28>
    6d76:	8d1d                	sub	a0,a0,a5
    6d78:	04000793          	li	a5,64
    6d7c:	00a797b3          	sll	a5,a5,a0
    6d80:	4542                	lw	a0,16(sp)
    6d82:	0405                	addi	s0,s0,1
    6d84:	8d5d                	or	a0,a0,a5
    6d86:	c82a                	sw	a0,16(sp)
    6d88:	200c                	lbu	a1,0(s0)
    6d8a:	4619                	li	a2,6
    6d8c:	00001517          	auipc	a0,0x1
    6d90:	d6050513          	addi	a0,a0,-672 # 7aec <__sf_fake_stdout+0x2c>
    6d94:	00140913          	addi	s2,s0,1
    6d98:	02b10423          	sb	a1,40(sp)
    6d9c:	2501                	jal	739c <memchr>
    6d9e:	c135                	beqz	a0,6e02 <_vfiprintf_r+0x274>
    6da0:	ffff9797          	auipc	a5,0xffff9
    6da4:	26078793          	addi	a5,a5,608 # 0 <_sinit>
    6da8:	e795                	bnez	a5,6dd4 <_vfiprintf_r+0x246>
    6daa:	4742                	lw	a4,16(sp)
    6dac:	47b2                	lw	a5,12(sp)
    6dae:	10077713          	andi	a4,a4,256
    6db2:	cf09                	beqz	a4,6dcc <_vfiprintf_r+0x23e>
    6db4:	0791                	addi	a5,a5,4
    6db6:	c63e                	sw	a5,12(sp)
    6db8:	5792                	lw	a5,36(sp)
    6dba:	97d2                	add	a5,a5,s4
    6dbc:	d23e                	sw	a5,36(sp)
    6dbe:	bd25                	j	6bf6 <_vfiprintf_r+0x68>
    6dc0:	036787b3          	mul	a5,a5,s6
    6dc4:	4685                	li	a3,1
    6dc6:	842e                	mv	s0,a1
    6dc8:	97ba                	add	a5,a5,a4
    6dca:	b751                	j	6d4e <_vfiprintf_r+0x1c0>
    6dcc:	079d                	addi	a5,a5,7
    6dce:	9be1                	andi	a5,a5,-8
    6dd0:	07a1                	addi	a5,a5,8
    6dd2:	b7d5                	j	6db6 <_vfiprintf_r+0x228>
    6dd4:	0078                	addi	a4,sp,12
    6dd6:	00000697          	auipc	a3,0x0
    6dda:	d7668693          	addi	a3,a3,-650 # 6b4c <__sfputs_r>
    6dde:	8626                	mv	a2,s1
    6de0:	080c                	addi	a1,sp,16
    6de2:	854e                	mv	a0,s3
    6de4:	00000097          	auipc	ra,0x0
    6de8:	000000e7          	jalr	zero # 0 <_sinit>
    6dec:	57fd                	li	a5,-1
    6dee:	8a2a                	mv	s4,a0
    6df0:	fcf514e3          	bne	a0,a5,6db8 <_vfiprintf_r+0x22a>
    6df4:	24de                	lhu	a5,12(s1)
    6df6:	0407f793          	andi	a5,a5,64
    6dfa:	ec0792e3          	bnez	a5,6cbe <_vfiprintf_r+0x130>
    6dfe:	5512                	lw	a0,36(sp)
    6e00:	b5c1                	j	6cc0 <_vfiprintf_r+0x132>
    6e02:	0078                	addi	a4,sp,12
    6e04:	00000697          	auipc	a3,0x0
    6e08:	d4868693          	addi	a3,a3,-696 # 6b4c <__sfputs_r>
    6e0c:	8626                	mv	a2,s1
    6e0e:	080c                	addi	a1,sp,16
    6e10:	854e                	mv	a0,s3
    6e12:	2a01                	jal	6f22 <_printf_i>
    6e14:	bfe1                	j	6dec <_vfiprintf_r+0x25e>

00006e16 <_printf_common>:
    6e16:	7179                	addi	sp,sp,-48
    6e18:	ca56                	sw	s5,20(sp)
    6e1a:	499c                	lw	a5,16(a1)
    6e1c:	8aba                	mv	s5,a4
    6e1e:	4598                	lw	a4,8(a1)
    6e20:	d422                	sw	s0,40(sp)
    6e22:	d226                	sw	s1,36(sp)
    6e24:	ce4e                	sw	s3,28(sp)
    6e26:	cc52                	sw	s4,24(sp)
    6e28:	d606                	sw	ra,44(sp)
    6e2a:	d04a                	sw	s2,32(sp)
    6e2c:	c85a                	sw	s6,16(sp)
    6e2e:	c65e                	sw	s7,12(sp)
    6e30:	89aa                	mv	s3,a0
    6e32:	842e                	mv	s0,a1
    6e34:	84b2                	mv	s1,a2
    6e36:	8a36                	mv	s4,a3
    6e38:	00e7d363          	bge	a5,a4,6e3e <_printf_common+0x28>
    6e3c:	87ba                	mv	a5,a4
    6e3e:	c09c                	sw	a5,0(s1)
    6e40:	04344703          	lbu	a4,67(s0)
    6e44:	c319                	beqz	a4,6e4a <_printf_common+0x34>
    6e46:	0785                	addi	a5,a5,1
    6e48:	c09c                	sw	a5,0(s1)
    6e4a:	401c                	lw	a5,0(s0)
    6e4c:	0207f793          	andi	a5,a5,32
    6e50:	c781                	beqz	a5,6e58 <_printf_common+0x42>
    6e52:	409c                	lw	a5,0(s1)
    6e54:	0789                	addi	a5,a5,2
    6e56:	c09c                	sw	a5,0(s1)
    6e58:	00042903          	lw	s2,0(s0)
    6e5c:	00697913          	andi	s2,s2,6
    6e60:	00091a63          	bnez	s2,6e74 <_printf_common+0x5e>
    6e64:	01940b13          	addi	s6,s0,25
    6e68:	5bfd                	li	s7,-1
    6e6a:	445c                	lw	a5,12(s0)
    6e6c:	4098                	lw	a4,0(s1)
    6e6e:	8f99                	sub	a5,a5,a4
    6e70:	04f94c63          	blt	s2,a5,6ec8 <_printf_common+0xb2>
    6e74:	401c                	lw	a5,0(s0)
    6e76:	04344683          	lbu	a3,67(s0)
    6e7a:	0207f793          	andi	a5,a5,32
    6e7e:	00d036b3          	snez	a3,a3
    6e82:	eba5                	bnez	a5,6ef2 <_printf_common+0xdc>
    6e84:	04340613          	addi	a2,s0,67
    6e88:	85d2                	mv	a1,s4
    6e8a:	854e                	mv	a0,s3
    6e8c:	9a82                	jalr	s5
    6e8e:	57fd                	li	a5,-1
    6e90:	04f50363          	beq	a0,a5,6ed6 <_printf_common+0xc0>
    6e94:	401c                	lw	a5,0(s0)
    6e96:	4611                	li	a2,4
    6e98:	4098                	lw	a4,0(s1)
    6e9a:	8b99                	andi	a5,a5,6
    6e9c:	4454                	lw	a3,12(s0)
    6e9e:	4481                	li	s1,0
    6ea0:	00c79763          	bne	a5,a2,6eae <_printf_common+0x98>
    6ea4:	40e684b3          	sub	s1,a3,a4
    6ea8:	0004d363          	bgez	s1,6eae <_printf_common+0x98>
    6eac:	4481                	li	s1,0
    6eae:	441c                	lw	a5,8(s0)
    6eb0:	4818                	lw	a4,16(s0)
    6eb2:	00f75463          	bge	a4,a5,6eba <_printf_common+0xa4>
    6eb6:	8f99                	sub	a5,a5,a4
    6eb8:	94be                	add	s1,s1,a5
    6eba:	4901                	li	s2,0
    6ebc:	0469                	addi	s0,s0,26
    6ebe:	5b7d                	li	s6,-1
    6ec0:	05249863          	bne	s1,s2,6f10 <_printf_common+0xfa>
    6ec4:	4501                	li	a0,0
    6ec6:	a809                	j	6ed8 <_printf_common+0xc2>
    6ec8:	4685                	li	a3,1
    6eca:	865a                	mv	a2,s6
    6ecc:	85d2                	mv	a1,s4
    6ece:	854e                	mv	a0,s3
    6ed0:	9a82                	jalr	s5
    6ed2:	01751e63          	bne	a0,s7,6eee <_printf_common+0xd8>
    6ed6:	557d                	li	a0,-1
    6ed8:	50b2                	lw	ra,44(sp)
    6eda:	5422                	lw	s0,40(sp)
    6edc:	5492                	lw	s1,36(sp)
    6ede:	5902                	lw	s2,32(sp)
    6ee0:	49f2                	lw	s3,28(sp)
    6ee2:	4a62                	lw	s4,24(sp)
    6ee4:	4ad2                	lw	s5,20(sp)
    6ee6:	4b42                	lw	s6,16(sp)
    6ee8:	4bb2                	lw	s7,12(sp)
    6eea:	6145                	addi	sp,sp,48
    6eec:	8082                	ret
    6eee:	0905                	addi	s2,s2,1
    6ef0:	bfad                	j	6e6a <_printf_common+0x54>
    6ef2:	00d40733          	add	a4,s0,a3
    6ef6:	03000613          	li	a2,48
    6efa:	04c701a3          	sb	a2,67(a4)
    6efe:	04544703          	lbu	a4,69(s0)
    6f02:	00168793          	addi	a5,a3,1
    6f06:	97a2                	add	a5,a5,s0
    6f08:	0689                	addi	a3,a3,2
    6f0a:	04e781a3          	sb	a4,67(a5)
    6f0e:	bf9d                	j	6e84 <_printf_common+0x6e>
    6f10:	4685                	li	a3,1
    6f12:	8622                	mv	a2,s0
    6f14:	85d2                	mv	a1,s4
    6f16:	854e                	mv	a0,s3
    6f18:	9a82                	jalr	s5
    6f1a:	fb650ee3          	beq	a0,s6,6ed6 <_printf_common+0xc0>
    6f1e:	0905                	addi	s2,s2,1
    6f20:	b745                	j	6ec0 <_printf_common+0xaa>

00006f22 <_printf_i>:
    6f22:	7179                	addi	sp,sp,-48
    6f24:	d422                	sw	s0,40(sp)
    6f26:	d226                	sw	s1,36(sp)
    6f28:	d04a                	sw	s2,32(sp)
    6f2a:	ce4e                	sw	s3,28(sp)
    6f2c:	d606                	sw	ra,44(sp)
    6f2e:	cc52                	sw	s4,24(sp)
    6f30:	ca56                	sw	s5,20(sp)
    6f32:	c85a                	sw	s6,16(sp)
    6f34:	89b6                	mv	s3,a3
    6f36:	2d94                	lbu	a3,24(a1)
    6f38:	06900793          	li	a5,105
    6f3c:	8932                	mv	s2,a2
    6f3e:	84aa                	mv	s1,a0
    6f40:	842e                	mv	s0,a1
    6f42:	04358613          	addi	a2,a1,67
    6f46:	02f68d63          	beq	a3,a5,6f80 <_printf_i+0x5e>
    6f4a:	06d7e263          	bltu	a5,a3,6fae <_printf_i+0x8c>
    6f4e:	05800793          	li	a5,88
    6f52:	18f68663          	beq	a3,a5,70de <_printf_i+0x1bc>
    6f56:	00d7ed63          	bltu	a5,a3,6f70 <_printf_i+0x4e>
    6f5a:	20068e63          	beqz	a3,7176 <_printf_i+0x254>
    6f5e:	04300793          	li	a5,67
    6f62:	0af68e63          	beq	a3,a5,701e <_printf_i+0xfc>
    6f66:	04240a93          	addi	s5,s0,66
    6f6a:	04d40123          	sb	a3,66(s0)
    6f6e:	a0c9                	j	7030 <_printf_i+0x10e>
    6f70:	06300793          	li	a5,99
    6f74:	0af68563          	beq	a3,a5,701e <_printf_i+0xfc>
    6f78:	06400793          	li	a5,100
    6f7c:	fef695e3          	bne	a3,a5,6f66 <_printf_i+0x44>
    6f80:	401c                	lw	a5,0(s0)
    6f82:	4308                	lw	a0,0(a4)
    6f84:	0807f693          	andi	a3,a5,128
    6f88:	00450593          	addi	a1,a0,4
    6f8c:	c6c5                	beqz	a3,7034 <_printf_i+0x112>
    6f8e:	411c                	lw	a5,0(a0)
    6f90:	c30c                	sw	a1,0(a4)
    6f92:	0007d863          	bgez	a5,6fa2 <_printf_i+0x80>
    6f96:	02d00713          	li	a4,45
    6f9a:	40f007b3          	neg	a5,a5
    6f9e:	04e401a3          	sb	a4,67(s0)
    6fa2:	00001697          	auipc	a3,0x1
    6fa6:	b5268693          	addi	a3,a3,-1198 # 7af4 <__sf_fake_stdout+0x34>
    6faa:	4729                	li	a4,10
    6fac:	a865                	j	7064 <_printf_i+0x142>
    6fae:	07000793          	li	a5,112
    6fb2:	16f68263          	beq	a3,a5,7116 <_printf_i+0x1f4>
    6fb6:	02d7e563          	bltu	a5,a3,6fe0 <_printf_i+0xbe>
    6fba:	06e00793          	li	a5,110
    6fbe:	18f68963          	beq	a3,a5,7150 <_printf_i+0x22e>
    6fc2:	06f00793          	li	a5,111
    6fc6:	faf690e3          	bne	a3,a5,6f66 <_printf_i+0x44>
    6fca:	400c                	lw	a1,0(s0)
    6fcc:	431c                	lw	a5,0(a4)
    6fce:	0805f813          	andi	a6,a1,128
    6fd2:	00478513          	addi	a0,a5,4
    6fd6:	06080763          	beqz	a6,7044 <_printf_i+0x122>
    6fda:	c308                	sw	a0,0(a4)
    6fdc:	439c                	lw	a5,0(a5)
    6fde:	a885                	j	704e <_printf_i+0x12c>
    6fe0:	07500793          	li	a5,117
    6fe4:	fef683e3          	beq	a3,a5,6fca <_printf_i+0xa8>
    6fe8:	07800793          	li	a5,120
    6fec:	12f68963          	beq	a3,a5,711e <_printf_i+0x1fc>
    6ff0:	07300793          	li	a5,115
    6ff4:	f6f699e3          	bne	a3,a5,6f66 <_printf_i+0x44>
    6ff8:	431c                	lw	a5,0(a4)
    6ffa:	41d0                	lw	a2,4(a1)
    6ffc:	4581                	li	a1,0
    6ffe:	00478693          	addi	a3,a5,4
    7002:	c314                	sw	a3,0(a4)
    7004:	0007aa83          	lw	s5,0(a5)
    7008:	8556                	mv	a0,s5
    700a:	2e49                	jal	739c <memchr>
    700c:	c501                	beqz	a0,7014 <_printf_i+0xf2>
    700e:	41550533          	sub	a0,a0,s5
    7012:	c048                	sw	a0,4(s0)
    7014:	405c                	lw	a5,4(s0)
    7016:	c81c                	sw	a5,16(s0)
    7018:	040401a3          	sb	zero,67(s0)
    701c:	a861                	j	70b4 <_printf_i+0x192>
    701e:	431c                	lw	a5,0(a4)
    7020:	04240a93          	addi	s5,s0,66
    7024:	00478693          	addi	a3,a5,4
    7028:	439c                	lw	a5,0(a5)
    702a:	c314                	sw	a3,0(a4)
    702c:	04f40123          	sb	a5,66(s0)
    7030:	4785                	li	a5,1
    7032:	b7d5                	j	7016 <_printf_i+0xf4>
    7034:	0407f693          	andi	a3,a5,64
    7038:	411c                	lw	a5,0(a0)
    703a:	c30c                	sw	a1,0(a4)
    703c:	dab9                	beqz	a3,6f92 <_printf_i+0x70>
    703e:	07c2                	slli	a5,a5,0x10
    7040:	87c1                	srai	a5,a5,0x10
    7042:	bf81                	j	6f92 <_printf_i+0x70>
    7044:	0405f593          	andi	a1,a1,64
    7048:	c308                	sw	a0,0(a4)
    704a:	d9c9                	beqz	a1,6fdc <_printf_i+0xba>
    704c:	239e                	lhu	a5,0(a5)
    704e:	06f00713          	li	a4,111
    7052:	0ee68763          	beq	a3,a4,7140 <_printf_i+0x21e>
    7056:	00001697          	auipc	a3,0x1
    705a:	a9e68693          	addi	a3,a3,-1378 # 7af4 <__sf_fake_stdout+0x34>
    705e:	4729                	li	a4,10
    7060:	040401a3          	sb	zero,67(s0)
    7064:	404c                	lw	a1,4(s0)
    7066:	c40c                	sw	a1,8(s0)
    7068:	0005c563          	bltz	a1,7072 <_printf_i+0x150>
    706c:	4008                	lw	a0,0(s0)
    706e:	996d                	andi	a0,a0,-5
    7070:	c008                	sw	a0,0(s0)
    7072:	e399                	bnez	a5,7078 <_printf_i+0x156>
    7074:	8ab2                	mv	s5,a2
    7076:	cd89                	beqz	a1,7090 <_printf_i+0x16e>
    7078:	8ab2                	mv	s5,a2
    707a:	02e7f5b3          	remu	a1,a5,a4
    707e:	1afd                	addi	s5,s5,-1
    7080:	95b6                	add	a1,a1,a3
    7082:	218c                	lbu	a1,0(a1)
    7084:	00ba8023          	sb	a1,0(s5)
    7088:	02e7d5b3          	divu	a1,a5,a4
    708c:	0ce7f063          	bgeu	a5,a4,714c <_printf_i+0x22a>
    7090:	47a1                	li	a5,8
    7092:	00f71e63          	bne	a4,a5,70ae <_printf_i+0x18c>
    7096:	401c                	lw	a5,0(s0)
    7098:	8b85                	andi	a5,a5,1
    709a:	cb91                	beqz	a5,70ae <_printf_i+0x18c>
    709c:	4058                	lw	a4,4(s0)
    709e:	481c                	lw	a5,16(s0)
    70a0:	00e7c763          	blt	a5,a4,70ae <_printf_i+0x18c>
    70a4:	03000793          	li	a5,48
    70a8:	fefa8fa3          	sb	a5,-1(s5)
    70ac:	1afd                	addi	s5,s5,-1
    70ae:	41560633          	sub	a2,a2,s5
    70b2:	c810                	sw	a2,16(s0)
    70b4:	874e                	mv	a4,s3
    70b6:	86ca                	mv	a3,s2
    70b8:	0070                	addi	a2,sp,12
    70ba:	85a2                	mv	a1,s0
    70bc:	8526                	mv	a0,s1
    70be:	d59ff0ef          	jal	ra,6e16 <_printf_common>
    70c2:	5a7d                	li	s4,-1
    70c4:	0b451d63          	bne	a0,s4,717e <_printf_i+0x25c>
    70c8:	557d                	li	a0,-1
    70ca:	50b2                	lw	ra,44(sp)
    70cc:	5422                	lw	s0,40(sp)
    70ce:	5492                	lw	s1,36(sp)
    70d0:	5902                	lw	s2,32(sp)
    70d2:	49f2                	lw	s3,28(sp)
    70d4:	4a62                	lw	s4,24(sp)
    70d6:	4ad2                	lw	s5,20(sp)
    70d8:	4b42                	lw	s6,16(sp)
    70da:	6145                	addi	sp,sp,48
    70dc:	8082                	ret
    70de:	04d582a3          	sb	a3,69(a1)
    70e2:	00001697          	auipc	a3,0x1
    70e6:	a1268693          	addi	a3,a3,-1518 # 7af4 <__sf_fake_stdout+0x34>
    70ea:	400c                	lw	a1,0(s0)
    70ec:	4308                	lw	a0,0(a4)
    70ee:	0805f813          	andi	a6,a1,128
    70f2:	411c                	lw	a5,0(a0)
    70f4:	0511                	addi	a0,a0,4
    70f6:	02080d63          	beqz	a6,7130 <_printf_i+0x20e>
    70fa:	c308                	sw	a0,0(a4)
    70fc:	0015f713          	andi	a4,a1,1
    7100:	c701                	beqz	a4,7108 <_printf_i+0x1e6>
    7102:	0205e593          	ori	a1,a1,32
    7106:	c00c                	sw	a1,0(s0)
    7108:	4741                	li	a4,16
    710a:	fbb9                	bnez	a5,7060 <_printf_i+0x13e>
    710c:	400c                	lw	a1,0(s0)
    710e:	fdf5f593          	andi	a1,a1,-33
    7112:	c00c                	sw	a1,0(s0)
    7114:	b7b1                	j	7060 <_printf_i+0x13e>
    7116:	419c                	lw	a5,0(a1)
    7118:	0207e793          	ori	a5,a5,32
    711c:	c19c                	sw	a5,0(a1)
    711e:	07800793          	li	a5,120
    7122:	04f402a3          	sb	a5,69(s0)
    7126:	00001697          	auipc	a3,0x1
    712a:	9e268693          	addi	a3,a3,-1566 # 7b08 <__sf_fake_stdout+0x48>
    712e:	bf75                	j	70ea <_printf_i+0x1c8>
    7130:	0405f813          	andi	a6,a1,64
    7134:	c308                	sw	a0,0(a4)
    7136:	fc0803e3          	beqz	a6,70fc <_printf_i+0x1da>
    713a:	07c2                	slli	a5,a5,0x10
    713c:	83c1                	srli	a5,a5,0x10
    713e:	bf7d                	j	70fc <_printf_i+0x1da>
    7140:	00001697          	auipc	a3,0x1
    7144:	9b468693          	addi	a3,a3,-1612 # 7af4 <__sf_fake_stdout+0x34>
    7148:	4721                	li	a4,8
    714a:	bf19                	j	7060 <_printf_i+0x13e>
    714c:	87ae                	mv	a5,a1
    714e:	b735                	j	707a <_printf_i+0x158>
    7150:	4194                	lw	a3,0(a1)
    7152:	431c                	lw	a5,0(a4)
    7154:	49cc                	lw	a1,20(a1)
    7156:	0806f813          	andi	a6,a3,128
    715a:	00478513          	addi	a0,a5,4
    715e:	00080663          	beqz	a6,716a <_printf_i+0x248>
    7162:	c308                	sw	a0,0(a4)
    7164:	439c                	lw	a5,0(a5)
    7166:	c38c                	sw	a1,0(a5)
    7168:	a039                	j	7176 <_printf_i+0x254>
    716a:	c308                	sw	a0,0(a4)
    716c:	0406f693          	andi	a3,a3,64
    7170:	439c                	lw	a5,0(a5)
    7172:	daf5                	beqz	a3,7166 <_printf_i+0x244>
    7174:	a38e                	sh	a1,0(a5)
    7176:	00042823          	sw	zero,16(s0)
    717a:	8ab2                	mv	s5,a2
    717c:	bf25                	j	70b4 <_printf_i+0x192>
    717e:	4814                	lw	a3,16(s0)
    7180:	8656                	mv	a2,s5
    7182:	85ca                	mv	a1,s2
    7184:	8526                	mv	a0,s1
    7186:	9982                	jalr	s3
    7188:	f54500e3          	beq	a0,s4,70c8 <_printf_i+0x1a6>
    718c:	401c                	lw	a5,0(s0)
    718e:	8b89                	andi	a5,a5,2
    7190:	e78d                	bnez	a5,71ba <_printf_i+0x298>
    7192:	47b2                	lw	a5,12(sp)
    7194:	4448                	lw	a0,12(s0)
    7196:	f2f55ae3          	bge	a0,a5,70ca <_printf_i+0x1a8>
    719a:	853e                	mv	a0,a5
    719c:	b73d                	j	70ca <_printf_i+0x1a8>
    719e:	4685                	li	a3,1
    71a0:	8656                	mv	a2,s5
    71a2:	85ca                	mv	a1,s2
    71a4:	8526                	mv	a0,s1
    71a6:	9982                	jalr	s3
    71a8:	f36500e3          	beq	a0,s6,70c8 <_printf_i+0x1a6>
    71ac:	0a05                	addi	s4,s4,1
    71ae:	445c                	lw	a5,12(s0)
    71b0:	4732                	lw	a4,12(sp)
    71b2:	8f99                	sub	a5,a5,a4
    71b4:	fefa45e3          	blt	s4,a5,719e <_printf_i+0x27c>
    71b8:	bfe9                	j	7192 <_printf_i+0x270>
    71ba:	4a01                	li	s4,0
    71bc:	01940a93          	addi	s5,s0,25
    71c0:	5b7d                	li	s6,-1
    71c2:	b7f5                	j	71ae <_printf_i+0x28c>

000071c4 <_sbrk_r>:
    71c4:	1141                	addi	sp,sp,-16
    71c6:	c422                	sw	s0,8(sp)
    71c8:	842a                	mv	s0,a0
    71ca:	852e                	mv	a0,a1
    71cc:	1fffc797          	auipc	a5,0x1fffc
    71d0:	5c07a023          	sw	zero,1472(a5) # 2000378c <errno>
    71d4:	c606                	sw	ra,12(sp)
    71d6:	f7afc0ef          	jal	ra,3950 <_sbrk>
    71da:	57fd                	li	a5,-1
    71dc:	00f51963          	bne	a0,a5,71ee <_sbrk_r+0x2a>
    71e0:	1fffc797          	auipc	a5,0x1fffc
    71e4:	5ac78793          	addi	a5,a5,1452 # 2000378c <errno>
    71e8:	439c                	lw	a5,0(a5)
    71ea:	c391                	beqz	a5,71ee <_sbrk_r+0x2a>
    71ec:	c01c                	sw	a5,0(s0)
    71ee:	40b2                	lw	ra,12(sp)
    71f0:	4422                	lw	s0,8(sp)
    71f2:	0141                	addi	sp,sp,16
    71f4:	8082                	ret

000071f6 <__sread>:
    71f6:	1141                	addi	sp,sp,-16
    71f8:	c422                	sw	s0,8(sp)
    71fa:	842e                	mv	s0,a1
    71fc:	00e59583          	lh	a1,14(a1)
    7200:	c606                	sw	ra,12(sp)
    7202:	2a5d                	jal	73b8 <_read_r>
    7204:	00054963          	bltz	a0,7216 <__sread+0x20>
    7208:	487c                	lw	a5,84(s0)
    720a:	97aa                	add	a5,a5,a0
    720c:	c87c                	sw	a5,84(s0)
    720e:	40b2                	lw	ra,12(sp)
    7210:	4422                	lw	s0,8(sp)
    7212:	0141                	addi	sp,sp,16
    7214:	8082                	ret
    7216:	245e                	lhu	a5,12(s0)
    7218:	777d                	lui	a4,0xfffff
    721a:	177d                	addi	a4,a4,-1
    721c:	8ff9                	and	a5,a5,a4
    721e:	a45e                	sh	a5,12(s0)
    7220:	b7fd                	j	720e <__sread+0x18>

00007222 <__swrite>:
    7222:	25de                	lhu	a5,12(a1)
    7224:	1101                	addi	sp,sp,-32
    7226:	cc22                	sw	s0,24(sp)
    7228:	ca26                	sw	s1,20(sp)
    722a:	c84a                	sw	s2,16(sp)
    722c:	c64e                	sw	s3,12(sp)
    722e:	ce06                	sw	ra,28(sp)
    7230:	1007f793          	andi	a5,a5,256
    7234:	84aa                	mv	s1,a0
    7236:	842e                	mv	s0,a1
    7238:	8932                	mv	s2,a2
    723a:	89b6                	mv	s3,a3
    723c:	c791                	beqz	a5,7248 <__swrite+0x26>
    723e:	00e59583          	lh	a1,14(a1)
    7242:	4689                	li	a3,2
    7244:	4601                	li	a2,0
    7246:	220d                	jal	7368 <_lseek_r>
    7248:	245e                	lhu	a5,12(s0)
    724a:	777d                	lui	a4,0xfffff
    724c:	177d                	addi	a4,a4,-1
    724e:	8ff9                	and	a5,a5,a4
    7250:	a45e                	sh	a5,12(s0)
    7252:	00e41583          	lh	a1,14(s0)
    7256:	4462                	lw	s0,24(sp)
    7258:	40f2                	lw	ra,28(sp)
    725a:	86ce                	mv	a3,s3
    725c:	864a                	mv	a2,s2
    725e:	49b2                	lw	s3,12(sp)
    7260:	4942                	lw	s2,16(sp)
    7262:	8526                	mv	a0,s1
    7264:	44d2                	lw	s1,20(sp)
    7266:	6105                	addi	sp,sp,32
    7268:	a825                	j	72a0 <_write_r>

0000726a <__sseek>:
    726a:	1141                	addi	sp,sp,-16
    726c:	c422                	sw	s0,8(sp)
    726e:	842e                	mv	s0,a1
    7270:	00e59583          	lh	a1,14(a1)
    7274:	c606                	sw	ra,12(sp)
    7276:	28cd                	jal	7368 <_lseek_r>
    7278:	57fd                	li	a5,-1
    727a:	245a                	lhu	a4,12(s0)
    727c:	00f51a63          	bne	a0,a5,7290 <__sseek+0x26>
    7280:	77fd                	lui	a5,0xfffff
    7282:	17fd                	addi	a5,a5,-1
    7284:	8ff9                	and	a5,a5,a4
    7286:	a45e                	sh	a5,12(s0)
    7288:	40b2                	lw	ra,12(sp)
    728a:	4422                	lw	s0,8(sp)
    728c:	0141                	addi	sp,sp,16
    728e:	8082                	ret
    7290:	6785                	lui	a5,0x1
    7292:	8fd9                	or	a5,a5,a4
    7294:	a45e                	sh	a5,12(s0)
    7296:	c868                	sw	a0,84(s0)
    7298:	bfc5                	j	7288 <__sseek+0x1e>

0000729a <__sclose>:
    729a:	00e59583          	lh	a1,14(a1)
    729e:	a825                	j	72d6 <_close_r>

000072a0 <_write_r>:
    72a0:	1141                	addi	sp,sp,-16
    72a2:	c422                	sw	s0,8(sp)
    72a4:	842a                	mv	s0,a0
    72a6:	852e                	mv	a0,a1
    72a8:	85b2                	mv	a1,a2
    72aa:	8636                	mv	a2,a3
    72ac:	1fffc797          	auipc	a5,0x1fffc
    72b0:	4e07a023          	sw	zero,1248(a5) # 2000378c <errno>
    72b4:	c606                	sw	ra,12(sp)
    72b6:	e5cfc0ef          	jal	ra,3912 <_write>
    72ba:	57fd                	li	a5,-1
    72bc:	00f51963          	bne	a0,a5,72ce <_write_r+0x2e>
    72c0:	1fffc797          	auipc	a5,0x1fffc
    72c4:	4cc78793          	addi	a5,a5,1228 # 2000378c <errno>
    72c8:	439c                	lw	a5,0(a5)
    72ca:	c391                	beqz	a5,72ce <_write_r+0x2e>
    72cc:	c01c                	sw	a5,0(s0)
    72ce:	40b2                	lw	ra,12(sp)
    72d0:	4422                	lw	s0,8(sp)
    72d2:	0141                	addi	sp,sp,16
    72d4:	8082                	ret

000072d6 <_close_r>:
    72d6:	1141                	addi	sp,sp,-16
    72d8:	c422                	sw	s0,8(sp)
    72da:	842a                	mv	s0,a0
    72dc:	852e                	mv	a0,a1
    72de:	1fffc797          	auipc	a5,0x1fffc
    72e2:	4a07a723          	sw	zero,1198(a5) # 2000378c <errno>
    72e6:	c606                	sw	ra,12(sp)
    72e8:	2211                	jal	73ec <_close>
    72ea:	57fd                	li	a5,-1
    72ec:	00f51963          	bne	a0,a5,72fe <_close_r+0x28>
    72f0:	1fffc797          	auipc	a5,0x1fffc
    72f4:	49c78793          	addi	a5,a5,1180 # 2000378c <errno>
    72f8:	439c                	lw	a5,0(a5)
    72fa:	c391                	beqz	a5,72fe <_close_r+0x28>
    72fc:	c01c                	sw	a5,0(s0)
    72fe:	40b2                	lw	ra,12(sp)
    7300:	4422                	lw	s0,8(sp)
    7302:	0141                	addi	sp,sp,16
    7304:	8082                	ret

00007306 <_fstat_r>:
    7306:	1141                	addi	sp,sp,-16
    7308:	c422                	sw	s0,8(sp)
    730a:	842a                	mv	s0,a0
    730c:	852e                	mv	a0,a1
    730e:	85b2                	mv	a1,a2
    7310:	1fffc797          	auipc	a5,0x1fffc
    7314:	4607ae23          	sw	zero,1148(a5) # 2000378c <errno>
    7318:	c606                	sw	ra,12(sp)
    731a:	20cd                	jal	73fc <_fstat>
    731c:	57fd                	li	a5,-1
    731e:	00f51963          	bne	a0,a5,7330 <_fstat_r+0x2a>
    7322:	1fffc797          	auipc	a5,0x1fffc
    7326:	46a78793          	addi	a5,a5,1130 # 2000378c <errno>
    732a:	439c                	lw	a5,0(a5)
    732c:	c391                	beqz	a5,7330 <_fstat_r+0x2a>
    732e:	c01c                	sw	a5,0(s0)
    7330:	40b2                	lw	ra,12(sp)
    7332:	4422                	lw	s0,8(sp)
    7334:	0141                	addi	sp,sp,16
    7336:	8082                	ret

00007338 <_isatty_r>:
    7338:	1141                	addi	sp,sp,-16
    733a:	c422                	sw	s0,8(sp)
    733c:	842a                	mv	s0,a0
    733e:	852e                	mv	a0,a1
    7340:	1fffc797          	auipc	a5,0x1fffc
    7344:	4407a623          	sw	zero,1100(a5) # 2000378c <errno>
    7348:	c606                	sw	ra,12(sp)
    734a:	20c9                	jal	740c <_isatty>
    734c:	57fd                	li	a5,-1
    734e:	00f51963          	bne	a0,a5,7360 <_isatty_r+0x28>
    7352:	1fffc797          	auipc	a5,0x1fffc
    7356:	43a78793          	addi	a5,a5,1082 # 2000378c <errno>
    735a:	439c                	lw	a5,0(a5)
    735c:	c391                	beqz	a5,7360 <_isatty_r+0x28>
    735e:	c01c                	sw	a5,0(s0)
    7360:	40b2                	lw	ra,12(sp)
    7362:	4422                	lw	s0,8(sp)
    7364:	0141                	addi	sp,sp,16
    7366:	8082                	ret

00007368 <_lseek_r>:
    7368:	1141                	addi	sp,sp,-16
    736a:	c422                	sw	s0,8(sp)
    736c:	842a                	mv	s0,a0
    736e:	852e                	mv	a0,a1
    7370:	85b2                	mv	a1,a2
    7372:	8636                	mv	a2,a3
    7374:	1fffc797          	auipc	a5,0x1fffc
    7378:	4007ac23          	sw	zero,1048(a5) # 2000378c <errno>
    737c:	c606                	sw	ra,12(sp)
    737e:	2879                	jal	741c <_lseek>
    7380:	57fd                	li	a5,-1
    7382:	00f51963          	bne	a0,a5,7394 <_lseek_r+0x2c>
    7386:	1fffc797          	auipc	a5,0x1fffc
    738a:	40678793          	addi	a5,a5,1030 # 2000378c <errno>
    738e:	439c                	lw	a5,0(a5)
    7390:	c391                	beqz	a5,7394 <_lseek_r+0x2c>
    7392:	c01c                	sw	a5,0(s0)
    7394:	40b2                	lw	ra,12(sp)
    7396:	4422                	lw	s0,8(sp)
    7398:	0141                	addi	sp,sp,16
    739a:	8082                	ret

0000739c <memchr>:
    739c:	0ff5f593          	andi	a1,a1,255
    73a0:	962a                	add	a2,a2,a0
    73a2:	00c51463          	bne	a0,a2,73aa <memchr+0xe>
    73a6:	4501                	li	a0,0
    73a8:	8082                	ret
    73aa:	211c                	lbu	a5,0(a0)
    73ac:	feb78ee3          	beq	a5,a1,73a8 <memchr+0xc>
    73b0:	0505                	addi	a0,a0,1
    73b2:	bfc5                	j	73a2 <memchr+0x6>

000073b4 <__malloc_lock>:
    73b4:	8082                	ret

000073b6 <__malloc_unlock>:
    73b6:	8082                	ret

000073b8 <_read_r>:
    73b8:	1141                	addi	sp,sp,-16
    73ba:	c422                	sw	s0,8(sp)
    73bc:	842a                	mv	s0,a0
    73be:	852e                	mv	a0,a1
    73c0:	85b2                	mv	a1,a2
    73c2:	8636                	mv	a2,a3
    73c4:	1fffc797          	auipc	a5,0x1fffc
    73c8:	3c07a423          	sw	zero,968(a5) # 2000378c <errno>
    73cc:	c606                	sw	ra,12(sp)
    73ce:	28b9                	jal	742c <_read>
    73d0:	57fd                	li	a5,-1
    73d2:	00f51963          	bne	a0,a5,73e4 <_read_r+0x2c>
    73d6:	1fffc797          	auipc	a5,0x1fffc
    73da:	3b678793          	addi	a5,a5,950 # 2000378c <errno>
    73de:	439c                	lw	a5,0(a5)
    73e0:	c391                	beqz	a5,73e4 <_read_r+0x2c>
    73e2:	c01c                	sw	a5,0(s0)
    73e4:	40b2                	lw	ra,12(sp)
    73e6:	4422                	lw	s0,8(sp)
    73e8:	0141                	addi	sp,sp,16
    73ea:	8082                	ret

000073ec <_close>:
    73ec:	05800793          	li	a5,88
    73f0:	1fffc717          	auipc	a4,0x1fffc
    73f4:	38f72e23          	sw	a5,924(a4) # 2000378c <errno>
    73f8:	557d                	li	a0,-1
    73fa:	8082                	ret

000073fc <_fstat>:
    73fc:	05800793          	li	a5,88
    7400:	1fffc717          	auipc	a4,0x1fffc
    7404:	38f72623          	sw	a5,908(a4) # 2000378c <errno>
    7408:	557d                	li	a0,-1
    740a:	8082                	ret

0000740c <_isatty>:
    740c:	05800793          	li	a5,88
    7410:	1fffc717          	auipc	a4,0x1fffc
    7414:	36f72e23          	sw	a5,892(a4) # 2000378c <errno>
    7418:	4501                	li	a0,0
    741a:	8082                	ret

0000741c <_lseek>:
    741c:	05800793          	li	a5,88
    7420:	1fffc717          	auipc	a4,0x1fffc
    7424:	36f72623          	sw	a5,876(a4) # 2000378c <errno>
    7428:	557d                	li	a0,-1
    742a:	8082                	ret

0000742c <_read>:
    742c:	05800793          	li	a5,88
    7430:	1fffc717          	auipc	a4,0x1fffc
    7434:	34f72e23          	sw	a5,860(a4) # 2000378c <errno>
    7438:	557d                	li	a0,-1
    743a:	8082                	ret
    743c:	6574                	flw	fa3,76(a0)
    743e:	00007473          	csrrci	s0,ustatus,0
    7442:	0000                	unimp
    7444:	6174                	flw	fa3,68(a0)
    7446:	20316b73          	csrrsi	s6,hideleg,2
    744a:	6e65                	lui	t3,0x19
    744c:	7274                	flw	fa3,100(a2)
    744e:	0d79                	addi	s10,s10,30
    7450:	0000                	unimp
    7452:	0000                	unimp
    7454:	74737953          	0x74737953
    7458:	6d65                	lui	s10,0x19
    745a:	3a6b6c43          	fmadd.d	fs8,fs6,ft6,ft7,unknown
    745e:	6425                	lui	s0,0x9
    7460:	0a0d                	addi	s4,s4,3
    7462:	0000                	unimp
    7464:	70696843          	fmadd.s	fa6,fs2,ft6,fa4,unknown
    7468:	4449                	li	s0,18
    746a:	253a                	lhu	a4,10(a0)
    746c:	3830                	lbu	a2,19(s0)
    746e:	0d78                	addi	a4,sp,668
    7470:	000a                	c.slli	zero,0x2
    7472:	0000                	unimp
    7474:	3156                	lhu	a3,36(a0)
    7476:	2e30                	lbu	a2,26(a2)
    7478:	2e34                	lbu	a3,26(a2)
    747a:	0036                	c.slli	zero,0xd
    747c:	7246                	flw	ft4,112(sp)
    747e:	6565                	lui	a0,0x19
    7480:	5452                	lw	s0,52(sp)
    7482:	4b20534f          	fnmadd.d	ft6,ft0,fs2,fs1,unknown
    7486:	7265                	lui	tp,0xffff9
    7488:	656e                	flw	fa0,216(sp)
    748a:	206c                	lbu	a1,6(s0)
    748c:	6556                	flw	fa0,84(sp)
    748e:	7372                	flw	ft6,60(sp)
    7490:	6f69                	lui	t5,0x1a
    7492:	3a6e                	lhu	a1,54(a2)
    7494:	7325                	lui	t1,0xfffe9
    7496:	0a0d                	addi	s4,s4,3
    7498:	0000                	unimp
    749a:	0000                	unimp
    749c:	756f6873          	csrrsi	a6,0x756,30
    74a0:	646c                	flw	fa1,76(s0)
    74a2:	276e                	lhu	a1,14(a4)
    74a4:	2074                	lbu	a3,6(s0)
    74a6:	7572                	flw	fa0,60(sp)
    74a8:	206e                	lhu	a1,6(s0)
    74aa:	7461                	lui	s0,0xffff8
    74ac:	6820                	flw	fs0,80(s0)
    74ae:	7265                	lui	tp,0xffff9
    74b0:	2165                	jal	7958 <atanlo+0xe8>
    74b2:	0021                	c.nop	8

000074b4 <hw>:
    74b4:	00d0 0400 0076 0154 fdf7 0100 0000 3080     ....v.T........0
    74c4:	0000 c000 6666 6666 a666 404c 0000 41c8     ....fffff.L@...A
    74d4:	147b 3eae 5a1d 3f84 0000 3780 0000 3f80     {..>.Z.?...7...?
    74e4:	51ec 3e38 999a 3e99 3333 3f73 e354 3f85     .Q8>...>33s?T..?
    74f4:	5c29 3e0f 0000 4120 0000 42d2               )\.>.. A...B

00007500 <reg>:
    7500:	1975 0c1a 236a 1c1b 201f 7472 3b43 3841     u...j#... rtC;A8
    7510:	3a39 6c6b 6f37 2406 6e6d 0070               9:kl7o.$mnp.

0000751c <test>:
    751c:	0083 0000 0800 0000 0100 1800 0032 0005     ............2...
    752c:	0000 4120 0000 42d2 5c29 3e0f 999a 3e99     .. A...B)\.>...>
    753c:	3333 3f73 51ec 3e38 0000 3f00 6179 5f77     33s?.Q8>...?yaw_
    754c:	6966 746c 6465 253d 0d66 000a 6970 6374     filted=%f...pitc
    755c:	5f68 6966 746c 6465 253d 0d66 000a 0000     h_filted=%f.....
    756c:	6f72 6c6c 665f 6c69 6574 3d64 6625 0a0d     roll_filted=%f..
    757c:	0000 0000 7661 795f 7761 665f 6c69 6574     ....av_yaw_filte
    758c:	3d64 6425 0a0d 0000 7661 705f 7469 6863     d=%d....av_pitch
    759c:	665f 6c69 6574 3d64 6425 0a0d 0000 0000     _filted=%d......
    75ac:	7661 725f 6c6f 5f6c 6966 746c 6465 253d     av_roll_filted=%
    75bc:	0d64 000a 6179 5f77 756f 6574 3d72 6625     d...yaw_outer=%f
    75cc:	0a0d 0000 6f72 6c6c 6f5f 7475 7265 253d     ....roll_outer=%
    75dc:	0d66 000a 6970 6374 5f68 756f 6574 3d72     f...pitch_outer=
    75ec:	6625 0a0d 0000 0000 5750 314d 253a 0d64     %f......PWM1:%d.
    75fc:	000a 0000 5750 324d 253a 0d64 000a 0000     ....PWM2:%d.....
    760c:	5750 334d 253a 0d64 000a 0000 5750 344d     PWM3:%d.....PWM4
    761c:	253a 0d64 000a 0000 6c66 6769 7468 6d5f     :%d.....flight_m
    762c:	646f 3a65 5047 0d53 0000 0000 6c66 6769     ode:GPS.....flig
    763c:	7468 6d5f 646f 3a65 7453 6261 656c 000d     ht_mode:Stable..
    764c:	6c66 6769 7468 6d5f 646f 3a65 7246 6565     flight_mode:Free
    765c:	000d 0000 6854 6f72 7474 656c 5520 6c6e     ....Throttle Unl
    766c:	636f 656b 0d64 0000 6854 6f72 7474 656c     ocked...Throttle
    767c:	4c20 636f 656b 0d64 0000 0000 6f43 746e      Locked.....Cont
    768c:	6f72 5f6c 6f6d 6564 503a 4449 0a0d 0000     rol_mode:PID....
    769c:	6f43 746e 6f72 5f6c 6f6d 6564 523a 5741     Control_mode:RAW
    76ac:	0a0d 0000 6c8b fbe7 f1a9 3fa2 0000 0000     .....l.....?....
    76bc:	0000 3fe0 0000 0000 1800 4095 0000 4248     ...?.......@..HB
    76cc:	2e2e 462f 6572 5265 4f54 2f53 6f70 7472     ../FreeRTOS/port
    76dc:	6261 656c 4d2f 6d65 614d 676e 682f 6165     able/MemMang/hea
    76ec:	5f70 2e34 0063 0000 7265 2072 7461 6c20     p_4.c...err at l
    76fc:	6e69 2065 6425 6f20 2066 6966 656c 2220     ine %d of file "
    770c:	7325 2e22 0d20 200a 0000 0000 2e2e 462f     %s". .. ....../F
    771c:	6572 5265 4f54 2f53 6f70 7472 6261 656c     reeRTOS/portable
    772c:	472f 4343 522f 5349 2d43 2f56 6f70 7472     /GCC/RISC-V/port
    773c:	632e 0000 2e2e 462f 6572 5265 4f54 2f53     .c..../FreeRTOS/
    774c:	7571 7565 2e65 0063 2e2e 462f 6572 5265     queue.c.../FreeR
    775c:	4f54 2f53 6174 6b73 2e73 0063 4449 454c     TOS/tasks.c.IDLE
    776c:	0000 0000 3746 0000 3746 0000 378a 0000     ....F7..F7...7..
    777c:	3796 0000 37da 0000 3746 0000 3746 0000     .7...7..F7..F7..
    778c:	378a 0000 3796 0000 6d54 5172 0000 0000     .7...7..TmrQ....
    779c:	2e2e 462f 6572 5265 4f54 2f53 6974 656d     ../FreeRTOS/time
    77ac:	7372 632e 0000 0000 6d54 2072 7653 0063     rs.c....Tmr Svc.
    77bc:	7361 6e69 0066 0000 0fdb 3fc9 bd2e b33b     asinf......?..;.
    77cc:	f2ca 7149 ef08 3811 7f04 3a4f 1146 3d24     ..Iq...8..O:F.$=
    77dc:	0aa8 3e4e b090 3ea6 aaab 3e2a c62e 3d9d     ..N>...>..*>...=
    77ec:	3361 3f30 572d 4001 d139 4019 bd2e 333b     a30?-W.@9..@..;3
    77fc:	0fdb 3f49 0fdb 4049 0fdb c049 0000 8000     ..I?..I@..I.....
    780c:	0fdb bfc9 cbe4 4016 cbe4 c016 0fdb bf49     .......@......I.
    781c:	bd2e 33bb 0000 0000 0000 7ff8 0000 4000     ...3...........@
    782c:	0000 3fc0 0000 bf80 69d7 3c85 da59 3d4b     ...?.....i.<Y.K=
    783c:	6b35 3d88 2e6e 3dba 4925 3e12 aaab 3eaa     5k.=n..=%I.>...>
    784c:	a221 bd15 f16b 3d6e 8795 3d9d 8e38 3de3     !...k.n=...=8..=
    785c:	cccd 3e4c                                   ..L>

00007860 <atanhi>:
    7860:	6338 3eed 0fda 3f49 985e 3f7b 0fda 3fc9     8c.>..I?^.{?...?

00007870 <atanlo>:
    7870:	3769 31ac 2168 3322 0fb4 3314 2168 33a2     i7.1h!"3...3h!.3
    7880:	d378 ffff d26a ffff d26a ffff d268 ffff     x...j...j...h...
    7890:	d270 ffff d270 ffff d236 ffff d268 ffff     p...p...6...h...
    78a0:	d270 ffff d236 ffff d270 ffff d268 ffff     p...6...p...h...
    78b0:	d364 ffff d364 ffff d364 ffff d236 ffff     d...d...d...6...
    78c0:	dbd2 ffff daf8 ffff dbcc ffff db00 ffff     ................
    78d0:	dbcc ffff dac6 ffff dbcc ffff db00 ffff     ................
    78e0:	daf8 ffff daf8 ffff dac6 ffff db00 ffff     ................
    78f0:	db06 ffff db06 ffff db06 ffff dac6 ffff     ................
    7900:	dab8 ffff dab8 ffff db8c ffff dc68 ffff     ............h...
    7910:	db8c ffff da86 ffff db8c ffff dc68 ffff     ............h...
    7920:	dab8 ffff dab8 ffff da86 ffff dc68 ffff     ............h...
    7930:	dac6 ffff dac6 ffff dac6 ffff da86 ffff     ................
    7940:	df3c ffff de8a ffff de8a ffff de88 ffff     <...............
    7950:	de8e ffff de8e ffff de5e ffff de88 ffff     ........^.......
    7960:	de8e ffff de5e ffff de8e ffff de88 ffff     ....^...........
    7970:	df2a ffff df2a ffff df2a ffff de5e ffff     *...*...*...^...

00007980 <__clz_tab>:
    7980:	0100 0202 0303 0303 0404 0404 0404 0404     ................
    7990:	0505 0505 0505 0505 0505 0505 0505 0505     ................
    79a0:	0606 0606 0606 0606 0606 0606 0606 0606     ................
    79b0:	0606 0606 0606 0606 0606 0606 0606 0606     ................
    79c0:	0707 0707 0707 0707 0707 0707 0707 0707     ................
    79d0:	0707 0707 0707 0707 0707 0707 0707 0707     ................
    79e0:	0707 0707 0707 0707 0707 0707 0707 0707     ................
    79f0:	0707 0707 0707 0707 0707 0707 0707 0707     ................
    7a00:	0808 0808 0808 0808 0808 0808 0808 0808     ................
    7a10:	0808 0808 0808 0808 0808 0808 0808 0808     ................
    7a20:	0808 0808 0808 0808 0808 0808 0808 0808     ................
    7a30:	0808 0808 0808 0808 0808 0808 0808 0808     ................
    7a40:	0808 0808 0808 0808 0808 0808 0808 0808     ................
    7a50:	0808 0808 0808 0808 0808 0808 0808 0808     ................
    7a60:	0808 0808 0808 0808 0808 0808 0808 0808     ................
    7a70:	0808 0808 0808 0808 0808 0808 0808 0808     ................

00007a80 <__sf_fake_stderr>:
	...

00007aa0 <__sf_fake_stdin>:
	...

00007ac0 <__sf_fake_stdout>:
	...
    7ae0:	2d23 2b30 0020 0000 6c68 004c 6665 4567     #-0+ ...hlL.efgE
    7af0:	4746 0000 3130 3332 3534 3736 3938 4241     FG..0123456789AB
    7b00:	4443 4645 0000 0000 3130 3332 3534 3736     CDEF....01234567
    7b10:	3938 6261 6463 6665 0000 0000               89abcdef....
