
MPU6050 IMUÇý¶¯.elf:     file format elf32-littleriscv
MPU6050 IMUÇý¶¯.elf
architecture: riscv:rv32, flags 0x00000112:
EXEC_P, HAS_SYMS, D_PAGED
start address 0x00000000

Program Header:
    LOAD off    0x00001000 vaddr 0x00000000 paddr 0x00000000 align 2**12
         filesz 0x0000895c memsz 0x0000895c flags r-x
    LOAD off    0x0000a000 vaddr 0x20000000 paddr 0x0000895c align 2**12
         filesz 0x000000b8 memsz 0x000000e4 flags rw-
    LOAD off    0x0000a800 vaddr 0x20007800 paddr 0x20007800 align 2**12
         filesz 0x00000000 memsz 0x00000800 flags rw-

Sections:
Idx Name          Size      VMA       LMA       File off  Algn
  0 .init         00000038  00000000  00000000  00001000  2**1
                  CONTENTS, ALLOC, LOAD, READONLY, CODE
  1 .vector       000001c8  00000038  00000038  00001038  2**1
                  CONTENTS, ALLOC, LOAD, READONLY, CODE
  2 .text         0000875c  00000200  00000200  00001200  2**3
                  CONTENTS, ALLOC, LOAD, READONLY, CODE
  3 .fini         00000000  0000895c  0000895c  0000a0b8  2**0
                  CONTENTS, ALLOC, LOAD, CODE
  4 .dalign       00000000  20000000  20000000  0000a0b8  2**0
                  CONTENTS
  5 .dlalign      00000000  0000895c  0000895c  0000a0b8  2**0
                  CONTENTS
  6 .data         000000b8  20000000  0000895c  0000a000  2**2
                  CONTENTS, ALLOC, LOAD, DATA
  7 .bss          0000002c  200000b8  00008a14  0000a0b8  2**2
                  ALLOC
  8 .stack        00000800  20007800  20007800  0000a800  2**0
                  ALLOC
  9 .debug_info   000151b3  00000000  00000000  0000a0b8  2**0
                  CONTENTS, READONLY, DEBUGGING
 10 .debug_abbrev 000031b9  00000000  00000000  0001f26b  2**0
                  CONTENTS, READONLY, DEBUGGING
 11 .debug_aranges 00000a10  00000000  00000000  00022428  2**3
                  CONTENTS, READONLY, DEBUGGING
 12 .debug_ranges 00001258  00000000  00000000  00022e38  2**3
                  CONTENTS, READONLY, DEBUGGING
 13 .debug_line   000127cc  00000000  00000000  00024090  2**0
                  CONTENTS, READONLY, DEBUGGING
 14 .debug_str    00003716  00000000  00000000  0003685c  2**0
                  CONTENTS, READONLY, DEBUGGING
 15 .comment      00000033  00000000  00000000  00039f72  2**0
                  CONTENTS, READONLY
 16 .debug_frame  00002058  00000000  00000000  00039fa8  2**2
                  CONTENTS, READONLY, DEBUGGING
 17 .debug_loc    000091c4  00000000  00000000  0003c000  2**0
                  CONTENTS, READONLY, DEBUGGING
SYMBOL TABLE:
00000000 l    d  .init	00000000 .init
00000038 l    d  .vector	00000000 .vector
00000200 l    d  .text	00000000 .text
0000895c l    d  .fini	00000000 .fini
20000000 l    d  .dalign	00000000 .dalign
0000895c l    d  .dlalign	00000000 .dlalign
20000000 l    d  .data	00000000 .data
200000b8 l    d  .bss	00000000 .bss
20007800 l    d  .stack	00000000 .stack
00000000 l    d  .debug_info	00000000 .debug_info
00000000 l    d  .debug_abbrev	00000000 .debug_abbrev
00000000 l    d  .debug_aranges	00000000 .debug_aranges
00000000 l    d  .debug_ranges	00000000 .debug_ranges
00000000 l    d  .debug_line	00000000 .debug_line
00000000 l    d  .debug_str	00000000 .debug_str
00000000 l    d  .comment	00000000 .comment
00000000 l    d  .debug_frame	00000000 .debug_frame
00000000 l    d  .debug_loc	00000000 .debug_loc
00000000 l    df *ABS*	00000000 ./Startup/startup_ch32v30x_D8C.o
00000038 l       .vector	00000000 _vector_base
00000000 l    df *ABS*	00000000 ch32v30x_it.c
00000000 l    df *ABS*	00000000 main.c
00000000 l    df *ABS*	00000000 system_ch32v30x.c
00000000 l    df *ABS*	00000000 ch32v30x_gpio.c
00000000 l    df *ABS*	00000000 ch32v30x_i2c.c
00000000 l    df *ABS*	00000000 ch32v30x_misc.c
00000000 l    df *ABS*	00000000 ch32v30x_rcc.c
20000000 l     O .data	00000010 APBAHBPrescTable
200000ac l     O .data	00000004 ADCPrescTable
00000000 l    df *ABS*	00000000 ch32v30x_spi.c
00000000 l    df *ABS*	00000000 ch32v30x_usart.c
00000000 l    df *ABS*	00000000 inv_mpu.c
00000aea l     F .text	00000402 get_st_biases
00000eec l     F .text	0000006a set_int_enable
20000010 l     O .data	00000009 gyro_orientation
2000001c l     O .data	0000002c st
00000000 l    df *ABS*	00000000 inv_mpu_dmp_motion_driver.c
0000223c l     F .text	00000032 dmp_enable_gyro_cal.part.0
00007a70 l     O .text	00000bf6 dmp_memory
200000c0 l     O .bss	00000010 dmp
00000000 l    df *ABS*	00000000 MPU6050.c
00002e6c l     F .text	0000001c MPU6050_WriteByte
00000000 l    df *ABS*	00000000 ST7789.c
00003194 l     F .text	00000078 I8080_Write_Byte
0000320c l     F .text	00000020 I8080_Write_Byte16
0000322c l     F .text	00000050 ST7789_SetWindows
0000327c l     F .text	000000be GT30L32S4W_SendADDR
0000333a l     F .text	00000062 GT30L32S4W_Read_Byte.constprop.2
0000339c l     F .text	0000043a GT30L32S4W_ReadData
00000000 l    df *ABS*	00000000 system.c
00000000 l    df *ABS*	00000000 debug.c
200000bc l     O .bss	00000002 p_ms
200000be l     O .bss	00000001 p_us
00000000 l    df *ABS*	00000000 wf_asin.c
00000000 l    df *ABS*	00000000 wf_atan2.c
00000000 l    df *ABS*	00000000 ef_asin.c
00000000 l    df *ABS*	00000000 ef_atan2.c
00000000 l    df *ABS*	00000000 ef_sqrt.c
00000000 l    df *ABS*	00000000 s_matherr.c
00000000 l    df *ABS*	00000000 s_nan.c
00000000 l    df *ABS*	00000000 sf_atan.c
000087f4 l     O .text	00000010 atanhi
00008804 l     O .text	00000010 atanlo
00000000 l    df *ABS*	00000000 sf_fabs.c
00000000 l    df *ABS*	00000000 printfloat.c
00000000 l    df *ABS*	00000000 libgcc2.c
00000000 l    df *ABS*	00000000 libgcc2.c
00000000 l    df *ABS*	00000000 libgcc2.c
00000000 l    df *ABS*	00000000 ledf2.c
00000000 l    df *ABS*	00000000 muldf3.c
00000000 l    df *ABS*	00000000 subdf3.c
00000000 l    df *ABS*	00000000 fixdfdi.c
00000000 l    df *ABS*	00000000 floatdidf.c
00000000 l    df *ABS*	00000000 extendsfdf2.c
00000000 l    df *ABS*	00000000 truncdfsf2.c
00000000 l    df *ABS*	00000000 libgcc2.c
00000000 l    df *ABS*	00000000 errno.c
00000000 l    df *ABS*	00000000 memcmp.c
00000000 l    df *ABS*	00000000 memcpy.c
00000000 l    df *ABS*	00000000 libgcc2.c
00000000 l    df *ABS*	00000000 impure.c
20000048 l     O .data	00000060 impure_data
00000000 l    df *ABS*	00000000 s_lib_ver.c
00004ea8  w    F .text	00000100 printDouble
00000406  w      .text	00000000 EXTI2_IRQHandler
00000450  w      .text	00000000 TIM8_TRG_COM_IRQHandler
00000452  w      .text	00000000 TIM8_CC_IRQHandler
00000488  w      .text	00000000 UART8_IRQHandler
00005378 g     F .text	000003d8 .hidden __divdi3
0000381e g     F .text	0000039c ST7789_Init
00001480 g     F .text	000000c2 mpu_read_fifo_stream
00004fa8  w    F .text	00000358 print
0000713e g     F .text	0000021c .hidden __floatdidf
00002864 g     F .text	00000042 dmp_set_shake_reject_thresh
00005300  w    F .text	00000024 printf
200008a8 g       .data	00000000 __global_pointer$
0000042c  w      .text	00000000 TIM1_CC_IRQHandler
00000796 g     F .text	0000000a I2C_ReceiveData
000009c8 g     F .text	00000006 SPI_I2S_SendData
00001c1c g     F .text	0000008a mpu_set_dmp_state
000002ac g     F .text	00000002 HardFault_Handler
00002286 g     F .text	00000124 dmp_set_orientation
00001114 g     F .text	0000008e mpu_set_gyro_fsr
000016aa g     F .text	000000c6 mpu_lp_accel_mode
00004c8e  w    F .text	000000f4 printInt
000025cc g     F .text	0000005a dmp_set_fifo_rate
00000462  w      .text	00000000 TIM6_IRQHandler
000011a2 g     F .text	00000050 mpu_get_accel_fsr
000003f2  w      .text	00000000 SysTick_Handler
00007a2c g     O .text	0000001b reg
000003f8  w      .text	00000000 PVD_IRQHandler
00000458  w      .text	00000000 SDIO_IRQHandler
0000163a g     F .text	00000070 mpu_set_int_latched
0000048a  w      .text	00000000 TIM9_BRK_IRQHandler
000009ce g     F .text	00000006 SPI_I2S_ReceiveData
0000049e  w      .text	00000000 DMA2_Channel8_IRQHandler
000002a8 g     F .text	00000004 NMI_Handler
00000478  w      .text	00000000 CAN2_RX1_IRQHandler
00000408  w      .text	00000000 EXTI3_IRQHandler
000077d6 g     F .text	00000008 __errno
00000480  w      .text	00000000 USBHS_IRQHandler
00001a52 g     F .text	0000007a mpu_write_mem
00000ade g     F .text	0000000c USART_GetFlagStatus
000004a0  w      .text	00000000 DMA2_Channel9_IRQHandler
00000498  w      .text	00000000 TIM10_CC_IRQHandler
200000b8 g       .bss	00000000 _sbss
00000800 g       *ABS*	00000000 __stack_size
000012c4 g     F .text	00000090 mpu_set_lpf
000042f4 g     F .text	0000005e USART_Printf_Init
000013be g     F .text	00000058 mpu_get_accel_sens
0000181c g     F .text	000000de mpu_set_sensors
00007804 g     F .text	000000b6 memcpy
00004d82  w    F .text	00000126 printLongLongInt
00005e76 g     F .text	000000b6 .hidden __ltdf2
00000402  w      .text	00000000 EXTI0_IRQHandler
00000438  w      .text	00000000 I2C2_EV_IRQHandler
00000496  w      .text	00000000 TIM10_TRG_COM_IRQHandler
00005324  w    F .text	00000054 puts
200000a8 g     O .data	00000004 SystemCoreClock
00000038 g       .init	00000000 _einit
00000914 g     F .text	0000001e RCC_APB2PeriphClockCmd
0000047a  w      .text	00000000 CAN2_SCE_IRQHandler
0000041a  w      .text	00000000 ADC1_2_IRQHandler
00000530 g     F .text	000000c2 GPIO_Init
000027e6 g     F .text	0000002e dmp_set_tap_count
000003f0  w      .text	00000000 Break_Point_Handler
200000b8 g     O .bss	00000004 NVIC_Priority_Group
0000043c  w      .text	00000000 SPI1_IRQHandler
00000ab8 g     F .text	0000001c USART_Cmd
000003fa  w      .text	00000000 TAMPER_IRQHandler
00004b54 g     F .text	0000000e fabsf
00000476  w      .text	00000000 CAN2_RX0_IRQHandler
0000735a g     F .text	000000e8 .hidden __extendsfdf2
0000044e  w      .text	00000000 TIM8_UP_IRQHandler
00000932 g     F .text	0000001e RCC_APB1PeriphClockCmd
000003ec  w      .text	00000000 Ecall_M_Mode_Handler
20007800 g       .stack	00000000 _heap_end
00005ae8 g     F .text	0000038e .hidden __umoddi3
00002022 g     F .text	00000030 inv_row_2_scale
200000b0 g     O .data	00000004 __fdlib_version
00002130 g     F .text	0000010c mpu_dmp_get_data
000010d4 g     F .text	00000040 mpu_get_gyro_fsr
000009d4 g     F .text	0000000c SPI_I2S_GetFlagStatus
00000468  w      .text	00000000 DMA2_Channel2_IRQHandler
00005750 g     F .text	00000398 .hidden __udivdi3
00000412  w      .text	00000000 DMA1_Channel4_IRQHandler
00000790 g     F .text	00000006 I2C_SendData
00001b46 g     F .text	000000d6 mpu_load_firmware
00000600 g     F .text	0000011a I2C_Init
0000048c  w      .text	00000000 TIM9_UP_IRQHandler
00000444  w      .text	00000000 USART3_IRQHandler
00001542 g     F .text	000000f8 mpu_set_bypass
000003fc  w      .text	00000000 RTC_IRQHandler
0000407a g     F .text	00000104 ST7789_ShowString
200000e4 g       .bss	00000000 _ebss
00000418  w      .text	00000000 DMA1_Channel7_IRQHandler
00002986 g     F .text	000001fc dmp_enable_feature
00000420  w      .text	00000000 CAN1_RX1_IRQHandler
00004294 g     F .text	0000002a Delay_Init
00003bba g     F .text	00000260 ST7789_ShowCHN
00000482  w      .text	00000000 DVP_IRQHandler
00000460  w      .text	00000000 UART5_IRQHandler
00001ca6 g     F .text	000002fa mpu_run_self_test
00000432  w      .text	00000000 TIM4_IRQHandler
00005e76 g     F .text	000000b6 .hidden __ledf2
000005f6 g     F .text	0000000a GPIO_WriteBit
00000466  w      .text	00000000 DMA2_Channel1_IRQHandler
200000d0 g     O .bss	00000014 MPU6050_para
00004462 g     F .text	00000252 __ieee754_asinf
00000736 g     F .text	0000001e I2C_GenerateSTART
00000434  w      .text	00000000 I2C1_EV_IRQHandler
00000806 g     F .text	0000010e RCC_GetClocksFreq
000023aa g     F .text	00000110 dmp_set_gyro_bias
00000416  w      .text	00000000 DMA1_Channel6_IRQHandler
00007760 g     F .text	00000076 .hidden __clzsi2
0000045e  w      .text	00000000 UART4_IRQHandler
0000046c  w      .text	00000000 DMA2_Channel4_IRQHandler
000009e0 g     F .text	000000d8 USART_Init
00000430  w      .text	00000000 TIM3_IRQHandler
00000400  w      .text	00000000 RCC_IRQHandler
0000042a  w      .text	00000000 TIM1_TRG_COM_IRQHandler
00007a48 g     O .text	00000028 test
00001372 g     F .text	0000004c mpu_get_gyro_sens
0000040c  w      .text	00000000 DMA1_Channel1_IRQHandler
00000000 g       .init	00000000 _start
0000049c  w      .text	00000000 DMA2_Channel7_IRQHandler
000007ce g     F .text	00000032 I2C_GetFlagStatus
00002798 g     F .text	0000004e dmp_set_tap_axes
00001acc g     F .text	0000007a mpu_read_mem
00004bae  w    F .text	000000e0 prints
00000446  w      .text	00000000 EXTI15_10_IRQHandler
000011f2 g     F .text	00000086 mpu_set_accel_fsr
0000071a g     F .text	0000001c I2C_Cmd
000005f2 g     F .text	00000004 GPIO_ResetBits
00000464  w      .text	00000000 TIM7_IRQHandler
00000474  w      .text	00000000 CAN2_TX_IRQHandler
20000000 g       .dalign	00000000 _data_vma
0000045a  w      .text	00000000 TIM5_IRQHandler
000077de g     F .text	00000026 memcmp
00002b82 g     F .text	00000202 dmp_read_fifo
00000424  w      .text	00000000 EXTI9_5_IRQHandler
00005f2c g     F .text	00000656 .hidden __muldf3
000007a0 g     F .text	00000014 I2C_Send7bitAddress
00000472  w      .text	00000000 ETH_WKUP_IRQHandler
00002954 g     F .text	00000032 dmp_enable_6x_lp_quat
0000043e  w      .text	00000000 SPI2_IRQHandler
00000200 g     F .text	000000a8 memset
00004872 g     F .text	000000cc __ieee754_sqrtf
00001fa0 g     F .text	00000002 mget_ms
000002ae g     F .text	00000040 main
00001fa2 g     F .text	00000080 run_self_test
00000492  w      .text	00000000 TIM10_BRK_IRQHandler
00002f8e g     F .text	0000014a MPU6050_I2C_Mem_Read
00000490  w      .text	00000000 TIM9_CC_IRQHandler
0000417e g     F .text	0000006e System_Init
00002626 g     F .text	00000172 dmp_set_tap_thresh
0000493e g     F .text	00000004 matherr
0000046e  w      .text	00000000 DMA2_Channel5_IRQHandler
00007442 g     F .text	0000031e .hidden __truncdfsf2
00000414  w      .text	00000000 DMA1_Channel5_IRQHandler
000028f6 g     F .text	0000002c dmp_enable_gyro_cal
0000040a  w      .text	00000000 EXTI4_IRQHandler
000042be g     F .text	00000036 Delay_Ms
0000041e  w      .text	00000000 USB_LP_CAN1_RX0_IRQHandler
00003146 g     F .text	0000004e MPU6050_MPU_DMP_GetData
000009aa g     F .text	0000001e SPI_Cmd
000002ee g     F .text	000000fa SystemInit
0000792c g     O .text	0000000c hw
00000454  w      .text	00000000 RNG_IRQHandler
0000226e g     F .text	00000018 dmp_load_motion_driver_firmware
00004b62  w    F .text	0000004c printchar
0000041c  w      .text	00000000 USB_HP_CAN1_TX_IRQHandler
0000885c g     O .text	00000100 .hidden __clz_tab
00000000 g       .init	00000000 _sinit
0000700e g     F .text	00000130 .hidden __fixdfdi
000030d8 g     F .text	0000003e MPU6050_Get_Data
00000410  w      .text	00000000 DMA1_Channel3_IRQHandler
00001770 g     F .text	000000ac mpu_set_sample_rate
000037d6 g     F .text	00000048 ST7789_FillColor
00000456  w      .text	00000000 FSMC_IRQHandler
00001278 g     F .text	0000004c mpu_get_lpf
00000470  w      .text	00000000 ETH_IRQHandler
200000b4 g     O .data	00000004 _impure_ptr
00000428  w      .text	00000000 TIM1_UP_IRQHandler
00004460 g     F .text	00000002 atan2f
000003f6  w      .text	00000000 WWDG_IRQHandler
0000047e  w      .text	00000000 USBHSWakeup_IRQHandler
000004a4  w      .text	00000000 DMA2_Channel11_IRQHandler
000003ee  w      .text	00000000 Ecall_U_Mode_Handler
0000049a  w      .text	00000000 DMA2_Channel6_IRQHandler
0000042e  w      .text	00000000 TIM2_IRQHandler
20008000 g       .stack	00000000 _eusrstack
000003f4  w      .text	00000000 SW_Handler
000018fa g     F .text	00000158 mpu_init
00004942 g     F .text	0000000e nan
0000208c g     F .text	000000a4 mpu_dmp_init
00000426  w      .text	00000000 TIM1_BRK_IRQHandler
00000ad4 g     F .text	0000000a USART_SendData
000004a2  w      .text	00000000 DMA2_Channel10_IRQHandler
00000404  w      .text	00000000 EXTI1_IRQHandler
00004352 g     F .text	00000050 _write
200000b8 g       .data	00000000 _edata
200000e4 g       .bss	00000000 _end
00002052 g     F .text	0000003a inv_orientation_matrix_to_scalar
00000448  w      .text	00000000 RTCAlarm_IRQHandler
0000895c g       .dlalign	00000000 _data_lma
00000494  w      .text	00000000 TIM10_UP_IRQHandler
0000048e  w      .text	00000000 TIM9_TRG_COM_IRQHandler
00000486  w      .text	00000000 UART7_IRQHandler
00000442  w      .text	00000000 USART2_IRQHandler
00003116 g     F .text	00000030 MPU6050_Get_Temp
00000484  w      .text	00000000 UART6_IRQHandler
00002d84 g     F .text	000000e8 MPU6050_I2C_Mem_Write
00001354 g     F .text	0000001e mpu_get_sample_rate
0000043a  w      .text	00000000 I2C2_ER_IRQHandler
0000040e  w      .text	00000000 DMA1_Channel2_IRQHandler
00004950 g     F .text	00000204 atanf
0000283c g     F .text	00000028 dmp_set_tap_time_multi
0000044c  w      .text	00000000 TIM8_BRK_IRQHandler
000004a6  w      .text	00000000 handle_reset
00000422  w      .text	00000000 CAN1_SCE_IRQHandler
000003fe  w      .text	00000000 FLASH_IRQHandler
000024ba g     F .text	00000112 dmp_set_accel_bias
00000440  w      .text	00000000 USART1_IRQHandler
00002922 g     F .text	00000032 dmp_enable_lp_quat
00000772 g     F .text	0000001e I2C_AcknowledgeConfig
00002e88 g     F .text	00000106 MPU6050_Init
0000047c  w      .text	00000000 OTG_FS_IRQHandler
0000045c  w      .text	00000000 SPI3_IRQHandler
000007b4 g     F .text	0000001a I2C_CheckEvent
00000754 g     F .text	0000001e I2C_GenerateSTOP
00000436  w      .text	00000000 I2C1_ER_IRQHandler
00000950 g     F .text	0000005a SPI_Init
00000800 g     F .text	00000006 NVIC_PriorityGroupConfig
000043a2 g     F .text	000000be asinf
00002814 g     F .text	00000028 dmp_set_tap_time
000028ce g     F .text	00000028 dmp_set_shake_reject_timeout
000028a6 g     F .text	00000028 dmp_set_shake_reject_time
00006582 g     F .text	00000a8c .hidden __subdf3
00001416 g     F .text	0000006a mpu_configure_fifo
000041ec g     F .text	000000a8 System_Loop
00003e1a g     F .text	00000260 ST7789_ShowChar
0000044a  w      .text	00000000 USBWakeUp_IRQHandler
00000f56 g     F .text	0000017e mpu_reset_fifo
0000046a  w      .text	00000000 DMA2_Channel3_IRQHandler
000046b4 g     F .text	000001be __ieee754_atan2f



Disassembly of section .init:

00000000 <_sinit>:
   0:	4a60006f          	j	4a6 <handle_reset>
   4:	00000013          	nop
   8:	00000013          	nop
   c:	00000013          	nop
  10:	00000013          	nop
  14:	00000013          	nop
  18:	00000013          	nop
  1c:	00000013          	nop
  20:	00000013          	nop
  24:	00000013          	nop
  28:	00000013          	nop
  2c:	00000013          	nop
  30:	00000013          	nop
  34:	00100073          	ebreak

Disassembly of section .vector:

00000038 <_vector_base>:
	...
  40:	02a8                	addi	a0,sp,328
  42:	0000                	unimp
  44:	02ac                	addi	a1,sp,328
  46:	0000                	unimp
  48:	0000                	unimp
  4a:	0000                	unimp
  4c:	03ec                	addi	a1,sp,460
	...
  56:	0000                	unimp
  58:	03ee                	slli	t2,t2,0x1b
  5a:	0000                	unimp
  5c:	03f0                	addi	a2,sp,460
	...
  66:	0000                	unimp
  68:	03f2                	slli	t2,t2,0x1c
  6a:	0000                	unimp
  6c:	0000                	unimp
  6e:	0000                	unimp
  70:	03f4                	addi	a3,sp,460
  72:	0000                	unimp
  74:	0000                	unimp
  76:	0000                	unimp
  78:	03f6                	slli	t2,t2,0x1d
  7a:	0000                	unimp
  7c:	03f8                	addi	a4,sp,460
  7e:	0000                	unimp
  80:	03fa                	slli	t2,t2,0x1e
  82:	0000                	unimp
  84:	03fc                	addi	a5,sp,460
  86:	0000                	unimp
  88:	03fe                	slli	t2,t2,0x1f
  8a:	0000                	unimp
  8c:	0400                	addi	s0,sp,512
  8e:	0000                	unimp
  90:	0402                	c.slli64	s0
  92:	0000                	unimp
  94:	0404                	addi	s1,sp,512
  96:	0000                	unimp
  98:	0406                	slli	s0,s0,0x1
  9a:	0000                	unimp
  9c:	0408                	addi	a0,sp,512
  9e:	0000                	unimp
  a0:	040a                	slli	s0,s0,0x2
  a2:	0000                	unimp
  a4:	040c                	addi	a1,sp,512
  a6:	0000                	unimp
  a8:	040e                	slli	s0,s0,0x3
  aa:	0000                	unimp
  ac:	0410                	addi	a2,sp,512
  ae:	0000                	unimp
  b0:	0412                	slli	s0,s0,0x4
  b2:	0000                	unimp
  b4:	0414                	addi	a3,sp,512
  b6:	0000                	unimp
  b8:	0416                	slli	s0,s0,0x5
  ba:	0000                	unimp
  bc:	0418                	addi	a4,sp,512
  be:	0000                	unimp
  c0:	041a                	slli	s0,s0,0x6
  c2:	0000                	unimp
  c4:	041c                	addi	a5,sp,512
  c6:	0000                	unimp
  c8:	041e                	slli	s0,s0,0x7
  ca:	0000                	unimp
  cc:	0420                	addi	s0,sp,520
  ce:	0000                	unimp
  d0:	0422                	slli	s0,s0,0x8
  d2:	0000                	unimp
  d4:	0424                	addi	s1,sp,520
  d6:	0000                	unimp
  d8:	0426                	slli	s0,s0,0x9
  da:	0000                	unimp
  dc:	0428                	addi	a0,sp,520
  de:	0000                	unimp
  e0:	042a                	slli	s0,s0,0xa
  e2:	0000                	unimp
  e4:	042c                	addi	a1,sp,520
  e6:	0000                	unimp
  e8:	042e                	slli	s0,s0,0xb
  ea:	0000                	unimp
  ec:	0430                	addi	a2,sp,520
  ee:	0000                	unimp
  f0:	0432                	slli	s0,s0,0xc
  f2:	0000                	unimp
  f4:	0434                	addi	a3,sp,520
  f6:	0000                	unimp
  f8:	0436                	slli	s0,s0,0xd
  fa:	0000                	unimp
  fc:	0438                	addi	a4,sp,520
  fe:	0000                	unimp
 100:	043a                	slli	s0,s0,0xe
 102:	0000                	unimp
 104:	043c                	addi	a5,sp,520
 106:	0000                	unimp
 108:	043e                	slli	s0,s0,0xf
 10a:	0000                	unimp
 10c:	0440                	addi	s0,sp,516
 10e:	0000                	unimp
 110:	0442                	slli	s0,s0,0x10
 112:	0000                	unimp
 114:	0444                	addi	s1,sp,516
 116:	0000                	unimp
 118:	0446                	slli	s0,s0,0x11
 11a:	0000                	unimp
 11c:	0448                	addi	a0,sp,516
 11e:	0000                	unimp
 120:	044a                	slli	s0,s0,0x12
 122:	0000                	unimp
 124:	044c                	addi	a1,sp,516
 126:	0000                	unimp
 128:	044e                	slli	s0,s0,0x13
 12a:	0000                	unimp
 12c:	0450                	addi	a2,sp,516
 12e:	0000                	unimp
 130:	0452                	slli	s0,s0,0x14
 132:	0000                	unimp
 134:	0454                	addi	a3,sp,516
 136:	0000                	unimp
 138:	0456                	slli	s0,s0,0x15
 13a:	0000                	unimp
 13c:	0458                	addi	a4,sp,516
 13e:	0000                	unimp
 140:	045a                	slli	s0,s0,0x16
 142:	0000                	unimp
 144:	045c                	addi	a5,sp,516
 146:	0000                	unimp
 148:	045e                	slli	s0,s0,0x17
 14a:	0000                	unimp
 14c:	0460                	addi	s0,sp,524
 14e:	0000                	unimp
 150:	0462                	slli	s0,s0,0x18
 152:	0000                	unimp
 154:	0464                	addi	s1,sp,524
 156:	0000                	unimp
 158:	0466                	slli	s0,s0,0x19
 15a:	0000                	unimp
 15c:	0468                	addi	a0,sp,524
 15e:	0000                	unimp
 160:	046a                	slli	s0,s0,0x1a
 162:	0000                	unimp
 164:	046c                	addi	a1,sp,524
 166:	0000                	unimp
 168:	046e                	slli	s0,s0,0x1b
 16a:	0000                	unimp
 16c:	0470                	addi	a2,sp,524
 16e:	0000                	unimp
 170:	0472                	slli	s0,s0,0x1c
 172:	0000                	unimp
 174:	0474                	addi	a3,sp,524
 176:	0000                	unimp
 178:	0476                	slli	s0,s0,0x1d
 17a:	0000                	unimp
 17c:	0478                	addi	a4,sp,524
 17e:	0000                	unimp
 180:	047a                	slli	s0,s0,0x1e
 182:	0000                	unimp
 184:	047c                	addi	a5,sp,524
 186:	0000                	unimp
 188:	047e                	slli	s0,s0,0x1f
 18a:	0000                	unimp
 18c:	0480                	addi	s0,sp,576
 18e:	0000                	unimp
 190:	0482                	c.slli64	s1
 192:	0000                	unimp
 194:	0484                	addi	s1,sp,576
 196:	0000                	unimp
 198:	0486                	slli	s1,s1,0x1
 19a:	0000                	unimp
 19c:	0488                	addi	a0,sp,576
 19e:	0000                	unimp
 1a0:	048a                	slli	s1,s1,0x2
 1a2:	0000                	unimp
 1a4:	048c                	addi	a1,sp,576
 1a6:	0000                	unimp
 1a8:	048e                	slli	s1,s1,0x3
 1aa:	0000                	unimp
 1ac:	0490                	addi	a2,sp,576
 1ae:	0000                	unimp
 1b0:	0492                	slli	s1,s1,0x4
 1b2:	0000                	unimp
 1b4:	0494                	addi	a3,sp,576
 1b6:	0000                	unimp
 1b8:	0496                	slli	s1,s1,0x5
 1ba:	0000                	unimp
 1bc:	0498                	addi	a4,sp,576
 1be:	0000                	unimp
 1c0:	049a                	slli	s1,s1,0x6
 1c2:	0000                	unimp
 1c4:	049c                	addi	a5,sp,576
 1c6:	0000                	unimp
 1c8:	049e                	slli	s1,s1,0x7
 1ca:	0000                	unimp
 1cc:	04a0                	addi	s0,sp,584
 1ce:	0000                	unimp
 1d0:	04a2                	slli	s1,s1,0x8
 1d2:	0000                	unimp
 1d4:	04a4                	addi	s1,sp,584
	...

Disassembly of section .text:

00000200 <memset>:
     200:	433d                	li	t1,15
     202:	872a                	mv	a4,a0
     204:	02c37363          	bgeu	t1,a2,22a <memset+0x2a>
     208:	00f77793          	andi	a5,a4,15
     20c:	efbd                	bnez	a5,28a <memset+0x8a>
     20e:	e5ad                	bnez	a1,278 <memset+0x78>
     210:	ff067693          	andi	a3,a2,-16
     214:	8a3d                	andi	a2,a2,15
     216:	96ba                	add	a3,a3,a4
     218:	c30c                	sw	a1,0(a4)
     21a:	c34c                	sw	a1,4(a4)
     21c:	c70c                	sw	a1,8(a4)
     21e:	c74c                	sw	a1,12(a4)
     220:	0741                	addi	a4,a4,16
     222:	fed76be3          	bltu	a4,a3,218 <memset+0x18>
     226:	e211                	bnez	a2,22a <memset+0x2a>
     228:	8082                	ret
     22a:	40c306b3          	sub	a3,t1,a2
     22e:	068a                	slli	a3,a3,0x2
     230:	00000297          	auipc	t0,0x0
     234:	9696                	add	a3,a3,t0
     236:	00a68067          	jr	10(a3)
     23a:	00b70723          	sb	a1,14(a4)
     23e:	00b706a3          	sb	a1,13(a4)
     242:	00b70623          	sb	a1,12(a4)
     246:	00b705a3          	sb	a1,11(a4)
     24a:	00b70523          	sb	a1,10(a4)
     24e:	00b704a3          	sb	a1,9(a4)
     252:	00b70423          	sb	a1,8(a4)
     256:	00b703a3          	sb	a1,7(a4)
     25a:	00b70323          	sb	a1,6(a4)
     25e:	00b702a3          	sb	a1,5(a4)
     262:	00b70223          	sb	a1,4(a4)
     266:	00b701a3          	sb	a1,3(a4)
     26a:	00b70123          	sb	a1,2(a4)
     26e:	00b700a3          	sb	a1,1(a4)
     272:	00b70023          	sb	a1,0(a4)
     276:	8082                	ret
     278:	0ff5f593          	andi	a1,a1,255
     27c:	00859693          	slli	a3,a1,0x8
     280:	8dd5                	or	a1,a1,a3
     282:	01059693          	slli	a3,a1,0x10
     286:	8dd5                	or	a1,a1,a3
     288:	b761                	j	210 <memset+0x10>
     28a:	00279693          	slli	a3,a5,0x2
     28e:	00000297          	auipc	t0,0x0
     292:	9696                	add	a3,a3,t0
     294:	8286                	mv	t0,ra
     296:	fa8680e7          	jalr	-88(a3)
     29a:	8096                	mv	ra,t0
     29c:	17c1                	addi	a5,a5,-16
     29e:	8f1d                	sub	a4,a4,a5
     2a0:	963e                	add	a2,a2,a5
     2a2:	f8c374e3          	bgeu	t1,a2,22a <memset+0x2a>
     2a6:	b7a5                	j	20e <memset+0xe>

000002a8 <NMI_Handler>:
     2a8:	30200073          	mret

000002ac <HardFault_Handler>:
     2ac:	a001                	j	2ac <HardFault_Handler>

000002ae <main>:
     2ae:	1141                	addi	sp,sp,-16
     2b0:	4509                	li	a0,2
     2b2:	c606                	sw	ra,12(sp)
     2b4:	23b1                	jal	800 <NVIC_PriorityGroupConfig>
     2b6:	7df030ef          	jal	ra,4294 <Delay_Init>
     2ba:	6571                	lui	a0,0x1c
     2bc:	20050513          	addi	a0,a0,512 # 1c200 <_data_lma+0x138a4>
     2c0:	034040ef          	jal	ra,42f4 <USART_Printf_Init>
     2c4:	200007b7          	lui	a5,0x20000
     2c8:	0a87a583          	lw	a1,168(a5) # 200000a8 <SystemCoreClock>
     2cc:	00008537          	lui	a0,0x8
     2d0:	8ec50513          	addi	a0,a0,-1812 # 78ec <memcpy+0xe8>
     2d4:	02c050ef          	jal	ra,5300 <printf>
     2d8:	00008537          	lui	a0,0x8
     2dc:	8fc50513          	addi	a0,a0,-1796 # 78fc <memcpy+0xf8>
     2e0:	044050ef          	jal	ra,5324 <puts>
     2e4:	69b030ef          	jal	ra,417e <System_Init>
     2e8:	705030ef          	jal	ra,41ec <System_Loop>
     2ec:	bff5                	j	2e8 <main+0x3a>

000002ee <SystemInit>:
     2ee:	400217b7          	lui	a5,0x40021
     2f2:	4398                	lw	a4,0(a5)
     2f4:	f8ff06b7          	lui	a3,0xf8ff0
     2f8:	1141                	addi	sp,sp,-16
     2fa:	00176713          	ori	a4,a4,1
     2fe:	c398                	sw	a4,0(a5)
     300:	43d8                	lw	a4,4(a5)
     302:	00020637          	lui	a2,0x20
     306:	8f75                	and	a4,a4,a3
     308:	c3d8                	sw	a4,4(a5)
     30a:	4398                	lw	a4,0(a5)
     30c:	fef706b7          	lui	a3,0xfef70
     310:	16fd                	addi	a3,a3,-1
     312:	8f75                	and	a4,a4,a3
     314:	c398                	sw	a4,0(a5)
     316:	4398                	lw	a4,0(a5)
     318:	fffc06b7          	lui	a3,0xfffc0
     31c:	16fd                	addi	a3,a3,-1
     31e:	8f75                	and	a4,a4,a3
     320:	c398                	sw	a4,0(a5)
     322:	43d8                	lw	a4,4(a5)
     324:	ff8106b7          	lui	a3,0xff810
     328:	16fd                	addi	a3,a3,-1
     32a:	8f75                	and	a4,a4,a3
     32c:	c3d8                	sw	a4,4(a5)
     32e:	4398                	lw	a4,0(a5)
     330:	ec0006b7          	lui	a3,0xec000
     334:	16fd                	addi	a3,a3,-1
     336:	8f75                	and	a4,a4,a3
     338:	c398                	sw	a4,0(a5)
     33a:	00ff0737          	lui	a4,0xff0
     33e:	c798                	sw	a4,8(a5)
     340:	0207a623          	sw	zero,44(a5) # 4002102c <_eusrstack+0x2001902c>
     344:	c402                	sw	zero,8(sp)
     346:	c602                	sw	zero,12(sp)
     348:	4398                	lw	a4,0(a5)
     34a:	66c1                	lui	a3,0x10
     34c:	8f55                	or	a4,a4,a3
     34e:	c398                	sw	a4,0(a5)
     350:	400216b7          	lui	a3,0x40021
     354:	6705                	lui	a4,0x1
     356:	429c                	lw	a5,0(a3)
     358:	8ff1                	and	a5,a5,a2
     35a:	c63e                	sw	a5,12(sp)
     35c:	47a2                	lw	a5,8(sp)
     35e:	0785                	addi	a5,a5,1
     360:	c43e                	sw	a5,8(sp)
     362:	47b2                	lw	a5,12(sp)
     364:	e781                	bnez	a5,36c <SystemInit+0x7e>
     366:	47a2                	lw	a5,8(sp)
     368:	fee797e3          	bne	a5,a4,356 <SystemInit+0x68>
     36c:	400217b7          	lui	a5,0x40021
     370:	439c                	lw	a5,0(a5)
     372:	00e79713          	slli	a4,a5,0xe
     376:	06075763          	bgez	a4,3e4 <SystemInit+0xf6>
     37a:	4785                	li	a5,1
     37c:	c63e                	sw	a5,12(sp)
     37e:	4732                	lw	a4,12(sp)
     380:	4785                	li	a5,1
     382:	04f71f63          	bne	a4,a5,3e0 <SystemInit+0xf2>
     386:	400217b7          	lui	a5,0x40021
     38a:	43d8                	lw	a4,4(a5)
     38c:	ffc106b7          	lui	a3,0xffc10
     390:	16fd                	addi	a3,a3,-1
     392:	c3d8                	sw	a4,4(a5)
     394:	43d8                	lw	a4,4(a5)
     396:	c3d8                	sw	a4,4(a5)
     398:	43d8                	lw	a4,4(a5)
     39a:	40076713          	ori	a4,a4,1024
     39e:	c3d8                	sw	a4,4(a5)
     3a0:	43d8                	lw	a4,4(a5)
     3a2:	8f75                	and	a4,a4,a3
     3a4:	c3d8                	sw	a4,4(a5)
     3a6:	43d8                	lw	a4,4(a5)
     3a8:	001d06b7          	lui	a3,0x1d0
     3ac:	8f55                	or	a4,a4,a3
     3ae:	c3d8                	sw	a4,4(a5)
     3b0:	4398                	lw	a4,0(a5)
     3b2:	010006b7          	lui	a3,0x1000
     3b6:	8f55                	or	a4,a4,a3
     3b8:	c398                	sw	a4,0(a5)
     3ba:	4398                	lw	a4,0(a5)
     3bc:	00671693          	slli	a3,a4,0x6
     3c0:	fe06dde3          	bgez	a3,3ba <SystemInit+0xcc>
     3c4:	43d8                	lw	a4,4(a5)
     3c6:	400216b7          	lui	a3,0x40021
     3ca:	9b71                	andi	a4,a4,-4
     3cc:	c3d8                	sw	a4,4(a5)
     3ce:	43d8                	lw	a4,4(a5)
     3d0:	00276713          	ori	a4,a4,2
     3d4:	c3d8                	sw	a4,4(a5)
     3d6:	4721                	li	a4,8
     3d8:	42dc                	lw	a5,4(a3)
     3da:	8bb1                	andi	a5,a5,12
     3dc:	fee79ee3          	bne	a5,a4,3d8 <SystemInit+0xea>
     3e0:	0141                	addi	sp,sp,16
     3e2:	8082                	ret
     3e4:	c602                	sw	zero,12(sp)
     3e6:	bf61                	j	37e <SystemInit+0x90>
     3e8:	a001                	j	3e8 <SystemInit+0xfa>
     3ea:	a001                	j	3ea <SystemInit+0xfc>

000003ec <Ecall_M_Mode_Handler>:
     3ec:	a001                	j	3ec <Ecall_M_Mode_Handler>

000003ee <Ecall_U_Mode_Handler>:
     3ee:	a001                	j	3ee <Ecall_U_Mode_Handler>

000003f0 <Break_Point_Handler>:
     3f0:	a001                	j	3f0 <Break_Point_Handler>

000003f2 <SysTick_Handler>:
     3f2:	a001                	j	3f2 <SysTick_Handler>

000003f4 <SW_Handler>:
     3f4:	a001                	j	3f4 <SW_Handler>

000003f6 <WWDG_IRQHandler>:
     3f6:	a001                	j	3f6 <WWDG_IRQHandler>

000003f8 <PVD_IRQHandler>:
     3f8:	a001                	j	3f8 <PVD_IRQHandler>

000003fa <TAMPER_IRQHandler>:
     3fa:	a001                	j	3fa <TAMPER_IRQHandler>

000003fc <RTC_IRQHandler>:
     3fc:	a001                	j	3fc <RTC_IRQHandler>

000003fe <FLASH_IRQHandler>:
     3fe:	a001                	j	3fe <FLASH_IRQHandler>

00000400 <RCC_IRQHandler>:
     400:	a001                	j	400 <RCC_IRQHandler>

00000402 <EXTI0_IRQHandler>:
     402:	a001                	j	402 <EXTI0_IRQHandler>

00000404 <EXTI1_IRQHandler>:
     404:	a001                	j	404 <EXTI1_IRQHandler>

00000406 <EXTI2_IRQHandler>:
     406:	a001                	j	406 <EXTI2_IRQHandler>

00000408 <EXTI3_IRQHandler>:
     408:	a001                	j	408 <EXTI3_IRQHandler>

0000040a <EXTI4_IRQHandler>:
     40a:	a001                	j	40a <EXTI4_IRQHandler>

0000040c <DMA1_Channel1_IRQHandler>:
     40c:	a001                	j	40c <DMA1_Channel1_IRQHandler>

0000040e <DMA1_Channel2_IRQHandler>:
     40e:	a001                	j	40e <DMA1_Channel2_IRQHandler>

00000410 <DMA1_Channel3_IRQHandler>:
     410:	a001                	j	410 <DMA1_Channel3_IRQHandler>

00000412 <DMA1_Channel4_IRQHandler>:
     412:	a001                	j	412 <DMA1_Channel4_IRQHandler>

00000414 <DMA1_Channel5_IRQHandler>:
     414:	a001                	j	414 <DMA1_Channel5_IRQHandler>

00000416 <DMA1_Channel6_IRQHandler>:
     416:	a001                	j	416 <DMA1_Channel6_IRQHandler>

00000418 <DMA1_Channel7_IRQHandler>:
     418:	a001                	j	418 <DMA1_Channel7_IRQHandler>

0000041a <ADC1_2_IRQHandler>:
     41a:	a001                	j	41a <ADC1_2_IRQHandler>

0000041c <USB_HP_CAN1_TX_IRQHandler>:
     41c:	a001                	j	41c <USB_HP_CAN1_TX_IRQHandler>

0000041e <USB_LP_CAN1_RX0_IRQHandler>:
     41e:	a001                	j	41e <USB_LP_CAN1_RX0_IRQHandler>

00000420 <CAN1_RX1_IRQHandler>:
     420:	a001                	j	420 <CAN1_RX1_IRQHandler>

00000422 <CAN1_SCE_IRQHandler>:
     422:	a001                	j	422 <CAN1_SCE_IRQHandler>

00000424 <EXTI9_5_IRQHandler>:
     424:	a001                	j	424 <EXTI9_5_IRQHandler>

00000426 <TIM1_BRK_IRQHandler>:
     426:	a001                	j	426 <TIM1_BRK_IRQHandler>

00000428 <TIM1_UP_IRQHandler>:
     428:	a001                	j	428 <TIM1_UP_IRQHandler>

0000042a <TIM1_TRG_COM_IRQHandler>:
     42a:	a001                	j	42a <TIM1_TRG_COM_IRQHandler>

0000042c <TIM1_CC_IRQHandler>:
     42c:	a001                	j	42c <TIM1_CC_IRQHandler>

0000042e <TIM2_IRQHandler>:
     42e:	a001                	j	42e <TIM2_IRQHandler>

00000430 <TIM3_IRQHandler>:
     430:	a001                	j	430 <TIM3_IRQHandler>

00000432 <TIM4_IRQHandler>:
     432:	a001                	j	432 <TIM4_IRQHandler>

00000434 <I2C1_EV_IRQHandler>:
     434:	a001                	j	434 <I2C1_EV_IRQHandler>

00000436 <I2C1_ER_IRQHandler>:
     436:	a001                	j	436 <I2C1_ER_IRQHandler>

00000438 <I2C2_EV_IRQHandler>:
     438:	a001                	j	438 <I2C2_EV_IRQHandler>

0000043a <I2C2_ER_IRQHandler>:
     43a:	a001                	j	43a <I2C2_ER_IRQHandler>

0000043c <SPI1_IRQHandler>:
     43c:	a001                	j	43c <SPI1_IRQHandler>

0000043e <SPI2_IRQHandler>:
     43e:	a001                	j	43e <SPI2_IRQHandler>

00000440 <USART1_IRQHandler>:
     440:	a001                	j	440 <USART1_IRQHandler>

00000442 <USART2_IRQHandler>:
     442:	a001                	j	442 <USART2_IRQHandler>

00000444 <USART3_IRQHandler>:
     444:	a001                	j	444 <USART3_IRQHandler>

00000446 <EXTI15_10_IRQHandler>:
     446:	a001                	j	446 <EXTI15_10_IRQHandler>

00000448 <RTCAlarm_IRQHandler>:
     448:	a001                	j	448 <RTCAlarm_IRQHandler>

0000044a <USBWakeUp_IRQHandler>:
     44a:	a001                	j	44a <USBWakeUp_IRQHandler>

0000044c <TIM8_BRK_IRQHandler>:
     44c:	a001                	j	44c <TIM8_BRK_IRQHandler>

0000044e <TIM8_UP_IRQHandler>:
     44e:	a001                	j	44e <TIM8_UP_IRQHandler>

00000450 <TIM8_TRG_COM_IRQHandler>:
     450:	a001                	j	450 <TIM8_TRG_COM_IRQHandler>

00000452 <TIM8_CC_IRQHandler>:
     452:	a001                	j	452 <TIM8_CC_IRQHandler>

00000454 <RNG_IRQHandler>:
     454:	a001                	j	454 <RNG_IRQHandler>

00000456 <FSMC_IRQHandler>:
     456:	a001                	j	456 <FSMC_IRQHandler>

00000458 <SDIO_IRQHandler>:
     458:	a001                	j	458 <SDIO_IRQHandler>

0000045a <TIM5_IRQHandler>:
     45a:	a001                	j	45a <TIM5_IRQHandler>

0000045c <SPI3_IRQHandler>:
     45c:	a001                	j	45c <SPI3_IRQHandler>

0000045e <UART4_IRQHandler>:
     45e:	a001                	j	45e <UART4_IRQHandler>

00000460 <UART5_IRQHandler>:
     460:	a001                	j	460 <UART5_IRQHandler>

00000462 <TIM6_IRQHandler>:
     462:	a001                	j	462 <TIM6_IRQHandler>

00000464 <TIM7_IRQHandler>:
     464:	a001                	j	464 <TIM7_IRQHandler>

00000466 <DMA2_Channel1_IRQHandler>:
     466:	a001                	j	466 <DMA2_Channel1_IRQHandler>

00000468 <DMA2_Channel2_IRQHandler>:
     468:	a001                	j	468 <DMA2_Channel2_IRQHandler>

0000046a <DMA2_Channel3_IRQHandler>:
     46a:	a001                	j	46a <DMA2_Channel3_IRQHandler>

0000046c <DMA2_Channel4_IRQHandler>:
     46c:	a001                	j	46c <DMA2_Channel4_IRQHandler>

0000046e <DMA2_Channel5_IRQHandler>:
     46e:	a001                	j	46e <DMA2_Channel5_IRQHandler>

00000470 <ETH_IRQHandler>:
     470:	a001                	j	470 <ETH_IRQHandler>

00000472 <ETH_WKUP_IRQHandler>:
     472:	a001                	j	472 <ETH_WKUP_IRQHandler>

00000474 <CAN2_TX_IRQHandler>:
     474:	a001                	j	474 <CAN2_TX_IRQHandler>

00000476 <CAN2_RX0_IRQHandler>:
     476:	a001                	j	476 <CAN2_RX0_IRQHandler>

00000478 <CAN2_RX1_IRQHandler>:
     478:	a001                	j	478 <CAN2_RX1_IRQHandler>

0000047a <CAN2_SCE_IRQHandler>:
     47a:	a001                	j	47a <CAN2_SCE_IRQHandler>

0000047c <OTG_FS_IRQHandler>:
     47c:	a001                	j	47c <OTG_FS_IRQHandler>

0000047e <USBHSWakeup_IRQHandler>:
     47e:	a001                	j	47e <USBHSWakeup_IRQHandler>

00000480 <USBHS_IRQHandler>:
     480:	a001                	j	480 <USBHS_IRQHandler>

00000482 <DVP_IRQHandler>:
     482:	a001                	j	482 <DVP_IRQHandler>

00000484 <UART6_IRQHandler>:
     484:	a001                	j	484 <UART6_IRQHandler>

00000486 <UART7_IRQHandler>:
     486:	a001                	j	486 <UART7_IRQHandler>

00000488 <UART8_IRQHandler>:
     488:	a001                	j	488 <UART8_IRQHandler>

0000048a <TIM9_BRK_IRQHandler>:
     48a:	a001                	j	48a <TIM9_BRK_IRQHandler>

0000048c <TIM9_UP_IRQHandler>:
     48c:	a001                	j	48c <TIM9_UP_IRQHandler>

0000048e <TIM9_TRG_COM_IRQHandler>:
     48e:	a001                	j	48e <TIM9_TRG_COM_IRQHandler>

00000490 <TIM9_CC_IRQHandler>:
     490:	a001                	j	490 <TIM9_CC_IRQHandler>

00000492 <TIM10_BRK_IRQHandler>:
     492:	a001                	j	492 <TIM10_BRK_IRQHandler>

00000494 <TIM10_UP_IRQHandler>:
     494:	a001                	j	494 <TIM10_UP_IRQHandler>

00000496 <TIM10_TRG_COM_IRQHandler>:
     496:	a001                	j	496 <TIM10_TRG_COM_IRQHandler>

00000498 <TIM10_CC_IRQHandler>:
     498:	a001                	j	498 <TIM10_CC_IRQHandler>

0000049a <DMA2_Channel6_IRQHandler>:
     49a:	a001                	j	49a <DMA2_Channel6_IRQHandler>

0000049c <DMA2_Channel7_IRQHandler>:
     49c:	a001                	j	49c <DMA2_Channel7_IRQHandler>

0000049e <DMA2_Channel8_IRQHandler>:
     49e:	a001                	j	49e <DMA2_Channel8_IRQHandler>

000004a0 <DMA2_Channel9_IRQHandler>:
     4a0:	a001                	j	4a0 <DMA2_Channel9_IRQHandler>

000004a2 <DMA2_Channel10_IRQHandler>:
     4a2:	a001                	j	4a2 <DMA2_Channel10_IRQHandler>

000004a4 <DMA2_Channel11_IRQHandler>:
     4a4:	a001                	j	4a4 <DMA2_Channel11_IRQHandler>

000004a6 <handle_reset>:
     4a6:	20000197          	auipc	gp,0x20000
     4aa:	40218193          	addi	gp,gp,1026 # 200008a8 <__global_pointer$>
     4ae:	20008117          	auipc	sp,0x20008
     4b2:	b5210113          	addi	sp,sp,-1198 # 20008000 <_eusrstack>
     4b6:	00008517          	auipc	a0,0x8
     4ba:	4a650513          	addi	a0,a0,1190 # 895c <_data_lma>
     4be:	20000597          	auipc	a1,0x20000
     4c2:	b4258593          	addi	a1,a1,-1214 # 20000000 <_data_vma>
     4c6:	81018613          	addi	a2,gp,-2032 # 200000b8 <_edata>
     4ca:	00c5fa63          	bgeu	a1,a2,4de <handle_reset+0x38>
     4ce:	00052283          	lw	t0,0(a0)
     4d2:	0055a023          	sw	t0,0(a1)
     4d6:	0511                	addi	a0,a0,4
     4d8:	0591                	addi	a1,a1,4
     4da:	fec5eae3          	bltu	a1,a2,4ce <handle_reset+0x28>
     4de:	81018513          	addi	a0,gp,-2032 # 200000b8 <_edata>
     4e2:	83c18593          	addi	a1,gp,-1988 # 200000e4 <_ebss>
     4e6:	00b57763          	bgeu	a0,a1,4f4 <handle_reset+0x4e>
     4ea:	00052023          	sw	zero,0(a0)
     4ee:	0511                	addi	a0,a0,4
     4f0:	feb56de3          	bltu	a0,a1,4ea <handle_reset+0x44>
     4f4:	42fd                	li	t0,31
     4f6:	bc029073          	csrw	0xbc0,t0
     4fa:	42ed                	li	t0,27
     4fc:	80429073          	csrw	0x804,t0
     500:	000062b7          	lui	t0,0x6
     504:	08828293          	addi	t0,t0,136 # 6088 <__muldf3+0x15c>
     508:	3002a073          	csrs	mstatus,t0
     50c:	00000297          	auipc	t0,0x0
     510:	b2c28293          	addi	t0,t0,-1236 # 38 <_einit>
     514:	0032e293          	ori	t0,t0,3
     518:	30529073          	csrw	mtvec,t0
     51c:	dd3ff0ef          	jal	ra,2ee <SystemInit>
     520:	00000297          	auipc	t0,0x0
     524:	d8e28293          	addi	t0,t0,-626 # 2ae <main>
     528:	34129073          	csrw	mepc,t0
     52c:	30200073          	mret

00000530 <GPIO_Init>:
     530:	459c                	lw	a5,8(a1)
     532:	0107f713          	andi	a4,a5,16
     536:	00f7f813          	andi	a6,a5,15
     53a:	c701                	beqz	a4,542 <GPIO_Init+0x12>
     53c:	41d8                	lw	a4,4(a1)
     53e:	00e86833          	or	a6,a6,a4
     542:	0005d583          	lhu	a1,0(a1)
     546:	0ff5f713          	andi	a4,a1,255
     54a:	c339                	beqz	a4,590 <GPIO_Init+0x60>
     54c:	4118                	lw	a4,0(a0)
     54e:	4681                	li	a3,0
     550:	4e85                	li	t4,1
     552:	4f3d                	li	t5,15
     554:	02800f93          	li	t6,40
     558:	04800293          	li	t0,72
     55c:	4e21                	li	t3,8
     55e:	00de9633          	sll	a2,t4,a3
     562:	00c5f8b3          	and	a7,a1,a2
     566:	03161163          	bne	a2,a7,588 <GPIO_Init+0x58>
     56a:	00269893          	slli	a7,a3,0x2
     56e:	011f1333          	sll	t1,t5,a7
     572:	fff34313          	not	t1,t1
     576:	00e37733          	and	a4,t1,a4
     57a:	011818b3          	sll	a7,a6,a7
     57e:	00e8e733          	or	a4,a7,a4
     582:	05f79f63          	bne	a5,t6,5e0 <GPIO_Init+0xb0>
     586:	c950                	sw	a2,20(a0)
     588:	0685                	addi	a3,a3,1
     58a:	fdc69ae3          	bne	a3,t3,55e <GPIO_Init+0x2e>
     58e:	c118                	sw	a4,0(a0)
     590:	0ff00713          	li	a4,255
     594:	04b77563          	bgeu	a4,a1,5de <GPIO_Init+0xae>
     598:	4154                	lw	a3,4(a0)
     59a:	4621                	li	a2,8
     59c:	4e85                	li	t4,1
     59e:	4f3d                	li	t5,15
     5a0:	02800f93          	li	t6,40
     5a4:	04800293          	li	t0,72
     5a8:	4e41                	li	t3,16
     5aa:	00ce98b3          	sll	a7,t4,a2
     5ae:	0115f733          	and	a4,a1,a7
     5b2:	02e89263          	bne	a7,a4,5d6 <GPIO_Init+0xa6>
     5b6:	00261713          	slli	a4,a2,0x2
     5ba:	1701                	addi	a4,a4,-32
     5bc:	00ef1333          	sll	t1,t5,a4
     5c0:	fff34313          	not	t1,t1
     5c4:	00d376b3          	and	a3,t1,a3
     5c8:	00e81733          	sll	a4,a6,a4
     5cc:	8ed9                	or	a3,a3,a4
     5ce:	01f79d63          	bne	a5,t6,5e8 <GPIO_Init+0xb8>
     5d2:	01152a23          	sw	a7,20(a0)
     5d6:	0605                	addi	a2,a2,1
     5d8:	fdc619e3          	bne	a2,t3,5aa <GPIO_Init+0x7a>
     5dc:	c154                	sw	a3,4(a0)
     5de:	8082                	ret
     5e0:	fa5794e3          	bne	a5,t0,588 <GPIO_Init+0x58>
     5e4:	c910                	sw	a2,16(a0)
     5e6:	b74d                	j	588 <GPIO_Init+0x58>
     5e8:	fe5797e3          	bne	a5,t0,5d6 <GPIO_Init+0xa6>
     5ec:	01152823          	sw	a7,16(a0)
     5f0:	b7dd                	j	5d6 <GPIO_Init+0xa6>

000005f2 <GPIO_ResetBits>:
     5f2:	c94c                	sw	a1,20(a0)
     5f4:	8082                	ret

000005f6 <GPIO_WriteBit>:
     5f6:	c219                	beqz	a2,5fc <GPIO_WriteBit+0x6>
     5f8:	c90c                	sw	a1,16(a0)
     5fa:	8082                	ret
     5fc:	c94c                	sw	a1,20(a0)
     5fe:	8082                	ret

00000600 <I2C_Init>:
     600:	7139                	addi	sp,sp,-64
     602:	dc22                	sw	s0,56(sp)
     604:	da26                	sw	s1,52(sp)
     606:	842a                	mv	s0,a0
     608:	00455483          	lhu	s1,4(a0)
     60c:	0868                	addi	a0,sp,28
     60e:	c62e                	sw	a1,12(sp)
     610:	de06                	sw	ra,60(sp)
     612:	2ad5                	jal	806 <RCC_GetClocksFreq>
     614:	5792                	lw	a5,36(sp)
     616:	000f4737          	lui	a4,0xf4
     61a:	24070713          	addi	a4,a4,576 # f4240 <_data_lma+0xeb8e4>
     61e:	02e7d733          	divu	a4,a5,a4
     622:	04c2                	slli	s1,s1,0x10
     624:	80c1                	srli	s1,s1,0x10
     626:	fc04f493          	andi	s1,s1,-64
     62a:	04c2                	slli	s1,s1,0x10
     62c:	80c1                	srli	s1,s1,0x10
     62e:	45b2                	lw	a1,12(sp)
     630:	6561                	lui	a0,0x18
     632:	6a050513          	addi	a0,a0,1696 # 186a0 <_data_lma+0xfd44>
     636:	01071613          	slli	a2,a4,0x10
     63a:	8241                	srli	a2,a2,0x10
     63c:	8cd1                	or	s1,s1,a2
     63e:	00941223          	sh	s1,4(s0)
     642:	00045683          	lhu	a3,0(s0)
     646:	06c2                	slli	a3,a3,0x10
     648:	82c1                	srli	a3,a3,0x10
     64a:	9af9                	andi	a3,a3,-2
     64c:	06c2                	slli	a3,a3,0x10
     64e:	82c1                	srli	a3,a3,0x10
     650:	00d41023          	sh	a3,0(s0)
     654:	4194                	lw	a3,0(a1)
     656:	06d56663          	bltu	a0,a3,6c2 <I2C_Init+0xc2>
     65a:	0686                	slli	a3,a3,0x1
     65c:	02d7d7b3          	divu	a5,a5,a3
     660:	4691                	li	a3,4
     662:	01079713          	slli	a4,a5,0x10
     666:	8341                	srli	a4,a4,0x10
     668:	87ba                	mv	a5,a4
     66a:	00d77363          	bgeu	a4,a3,670 <I2C_Init+0x70>
     66e:	4791                	li	a5,4
     670:	0605                	addi	a2,a2,1
     672:	0642                	slli	a2,a2,0x10
     674:	07c2                	slli	a5,a5,0x10
     676:	8241                	srli	a2,a2,0x10
     678:	83c1                	srli	a5,a5,0x10
     67a:	02c41023          	sh	a2,32(s0)
     67e:	00f41e23          	sh	a5,28(s0)
     682:	00045783          	lhu	a5,0(s0)
     686:	0045d703          	lhu	a4,4(a1)
     68a:	00a5d683          	lhu	a3,10(a1)
     68e:	0017e793          	ori	a5,a5,1
     692:	00f41023          	sh	a5,0(s0)
     696:	00045783          	lhu	a5,0(s0)
     69a:	8f55                	or	a4,a4,a3
     69c:	50f2                	lw	ra,60(sp)
     69e:	07c2                	slli	a5,a5,0x10
     6a0:	83c1                	srli	a5,a5,0x10
     6a2:	bf57f793          	andi	a5,a5,-1035
     6a6:	8fd9                	or	a5,a5,a4
     6a8:	00f41023          	sh	a5,0(s0)
     6ac:	0085d703          	lhu	a4,8(a1)
     6b0:	00c5d783          	lhu	a5,12(a1)
     6b4:	54d2                	lw	s1,52(sp)
     6b6:	8fd9                	or	a5,a5,a4
     6b8:	00f41423          	sh	a5,8(s0)
     6bc:	5462                	lw	s0,56(sp)
     6be:	6121                	addi	sp,sp,64
     6c0:	8082                	ret
     6c2:	0065d503          	lhu	a0,6(a1)
     6c6:	6631                	lui	a2,0xc
     6c8:	167d                	addi	a2,a2,-1
     6ca:	02c51e63          	bne	a0,a2,706 <I2C_Init+0x106>
     6ce:	460d                	li	a2,3
     6d0:	02c686b3          	mul	a3,a3,a2
     6d4:	02d7d7b3          	divu	a5,a5,a3
     6d8:	07c2                	slli	a5,a5,0x10
     6da:	83c1                	srli	a5,a5,0x10
     6dc:	01479693          	slli	a3,a5,0x14
     6e0:	e299                	bnez	a3,6e6 <I2C_Init+0xe6>
     6e2:	0017e793          	ori	a5,a5,1
     6e6:	66a1                	lui	a3,0x8
     6e8:	8fd5                	or	a5,a5,a3
     6ea:	12c00693          	li	a3,300
     6ee:	02d70733          	mul	a4,a4,a3
     6f2:	3e800693          	li	a3,1000
     6f6:	02d74733          	div	a4,a4,a3
     6fa:	0705                	addi	a4,a4,1
     6fc:	0742                	slli	a4,a4,0x10
     6fe:	8341                	srli	a4,a4,0x10
     700:	02e41023          	sh	a4,32(s0)
     704:	bfad                	j	67e <I2C_Init+0x7e>
     706:	4665                	li	a2,25
     708:	02c686b3          	mul	a3,a3,a2
     70c:	02d7d7b3          	divu	a5,a5,a3
     710:	6691                	lui	a3,0x4
     712:	07c2                	slli	a5,a5,0x10
     714:	83c1                	srli	a5,a5,0x10
     716:	8fd5                	or	a5,a5,a3
     718:	b7d1                	j	6dc <I2C_Init+0xdc>

0000071a <I2C_Cmd>:
     71a:	00055783          	lhu	a5,0(a0)
     71e:	c591                	beqz	a1,72a <I2C_Cmd+0x10>
     720:	0017e793          	ori	a5,a5,1
     724:	00f51023          	sh	a5,0(a0)
     728:	8082                	ret
     72a:	07c2                	slli	a5,a5,0x10
     72c:	83c1                	srli	a5,a5,0x10
     72e:	9bf9                	andi	a5,a5,-2
     730:	07c2                	slli	a5,a5,0x10
     732:	83c1                	srli	a5,a5,0x10
     734:	bfc5                	j	724 <I2C_Cmd+0xa>

00000736 <I2C_GenerateSTART>:
     736:	00055783          	lhu	a5,0(a0)
     73a:	c591                	beqz	a1,746 <I2C_GenerateSTART+0x10>
     73c:	1007e793          	ori	a5,a5,256
     740:	00f51023          	sh	a5,0(a0)
     744:	8082                	ret
     746:	07c2                	slli	a5,a5,0x10
     748:	83c1                	srli	a5,a5,0x10
     74a:	eff7f793          	andi	a5,a5,-257
     74e:	07c2                	slli	a5,a5,0x10
     750:	83c1                	srli	a5,a5,0x10
     752:	b7fd                	j	740 <I2C_GenerateSTART+0xa>

00000754 <I2C_GenerateSTOP>:
     754:	00055783          	lhu	a5,0(a0)
     758:	c591                	beqz	a1,764 <I2C_GenerateSTOP+0x10>
     75a:	2007e793          	ori	a5,a5,512
     75e:	00f51023          	sh	a5,0(a0)
     762:	8082                	ret
     764:	07c2                	slli	a5,a5,0x10
     766:	83c1                	srli	a5,a5,0x10
     768:	dff7f793          	andi	a5,a5,-513
     76c:	07c2                	slli	a5,a5,0x10
     76e:	83c1                	srli	a5,a5,0x10
     770:	b7fd                	j	75e <I2C_GenerateSTOP+0xa>

00000772 <I2C_AcknowledgeConfig>:
     772:	00055783          	lhu	a5,0(a0)
     776:	c591                	beqz	a1,782 <I2C_AcknowledgeConfig+0x10>
     778:	4007e793          	ori	a5,a5,1024
     77c:	00f51023          	sh	a5,0(a0)
     780:	8082                	ret
     782:	07c2                	slli	a5,a5,0x10
     784:	83c1                	srli	a5,a5,0x10
     786:	bff7f793          	andi	a5,a5,-1025
     78a:	07c2                	slli	a5,a5,0x10
     78c:	83c1                	srli	a5,a5,0x10
     78e:	b7fd                	j	77c <I2C_AcknowledgeConfig+0xa>

00000790 <I2C_SendData>:
     790:	00b51823          	sh	a1,16(a0)
     794:	8082                	ret

00000796 <I2C_ReceiveData>:
     796:	01055503          	lhu	a0,16(a0)
     79a:	0ff57513          	andi	a0,a0,255
     79e:	8082                	ret

000007a0 <I2C_Send7bitAddress>:
     7a0:	0fe5f793          	andi	a5,a1,254
     7a4:	c219                	beqz	a2,7aa <I2C_Send7bitAddress+0xa>
     7a6:	0015e793          	ori	a5,a1,1
     7aa:	07c2                	slli	a5,a5,0x10
     7ac:	83c1                	srli	a5,a5,0x10
     7ae:	00f51823          	sh	a5,16(a0)
     7b2:	8082                	ret

000007b4 <I2C_CheckEvent>:
     7b4:	01455783          	lhu	a5,20(a0)
     7b8:	01855503          	lhu	a0,24(a0)
     7bc:	0542                	slli	a0,a0,0x10
     7be:	8d5d                	or	a0,a0,a5
     7c0:	8d6d                	and	a0,a0,a1
     7c2:	0522                	slli	a0,a0,0x8
     7c4:	8121                	srli	a0,a0,0x8
     7c6:	8d0d                	sub	a0,a0,a1
     7c8:	00153513          	seqz	a0,a0
     7cc:	8082                	ret

000007ce <I2C_GetFlagStatus>:
     7ce:	1141                	addi	sp,sp,-16
     7d0:	c402                	sw	zero,8(sp)
     7d2:	c602                	sw	zero,12(sp)
     7d4:	01c5d793          	srli	a5,a1,0x1c
     7d8:	c62a                	sw	a0,12(sp)
     7da:	c43e                	sw	a5,8(sp)
     7dc:	47a2                	lw	a5,8(sp)
     7de:	05a2                	slli	a1,a1,0x8
     7e0:	81a1                	srli	a1,a1,0x8
     7e2:	cb99                	beqz	a5,7f8 <I2C_GetFlagStatus+0x2a>
     7e4:	47b2                	lw	a5,12(sp)
     7e6:	07d1                	addi	a5,a5,20
     7e8:	c63e                	sw	a5,12(sp)
     7ea:	47b2                	lw	a5,12(sp)
     7ec:	4388                	lw	a0,0(a5)
     7ee:	0141                	addi	sp,sp,16
     7f0:	8d6d                	and	a0,a0,a1
     7f2:	00a03533          	snez	a0,a0
     7f6:	8082                	ret
     7f8:	47b2                	lw	a5,12(sp)
     7fa:	81c1                	srli	a1,a1,0x10
     7fc:	07e1                	addi	a5,a5,24
     7fe:	b7ed                	j	7e8 <I2C_GetFlagStatus+0x1a>

00000800 <NVIC_PriorityGroupConfig>:
     800:	80a1a823          	sw	a0,-2032(gp) # 200000b8 <_edata>
     804:	8082                	ret

00000806 <RCC_GetClocksFreq>:
     806:	40021737          	lui	a4,0x40021
     80a:	435c                	lw	a5,4(a4)
     80c:	4691                	li	a3,4
     80e:	8bb1                	andi	a5,a5,12
     810:	00d78563          	beq	a5,a3,81a <RCC_GetClocksFreq+0x14>
     814:	46a1                	li	a3,8
     816:	06d78663          	beq	a5,a3,882 <RCC_GetClocksFreq+0x7c>
     81a:	007a17b7          	lui	a5,0x7a1
     81e:	20078793          	addi	a5,a5,512 # 7a1200 <_data_lma+0x7988a4>
     822:	c11c                	sw	a5,0(a0)
     824:	40021637          	lui	a2,0x40021
     828:	425c                	lw	a5,4(a2)
     82a:	20000737          	lui	a4,0x20000
     82e:	00070713          	mv	a4,a4
     832:	8391                	srli	a5,a5,0x4
     834:	8bbd                	andi	a5,a5,15
     836:	97ba                	add	a5,a5,a4
     838:	0007c683          	lbu	a3,0(a5)
     83c:	411c                	lw	a5,0(a0)
     83e:	00d7d7b3          	srl	a5,a5,a3
     842:	c15c                	sw	a5,4(a0)
     844:	4254                	lw	a3,4(a2)
     846:	82a1                	srli	a3,a3,0x8
     848:	8a9d                	andi	a3,a3,7
     84a:	96ba                	add	a3,a3,a4
     84c:	0006c683          	lbu	a3,0(a3) # 4000 <ST7789_ShowChar+0x1e6>
     850:	00d7d6b3          	srl	a3,a5,a3
     854:	c514                	sw	a3,8(a0)
     856:	4254                	lw	a3,4(a2)
     858:	82ad                	srli	a3,a3,0xb
     85a:	8a9d                	andi	a3,a3,7
     85c:	9736                	add	a4,a4,a3
     85e:	00074703          	lbu	a4,0(a4) # 20000000 <_data_vma>
     862:	00e7d7b3          	srl	a5,a5,a4
     866:	c55c                	sw	a5,12(a0)
     868:	4258                	lw	a4,4(a2)
     86a:	8339                	srli	a4,a4,0xe
     86c:	00377693          	andi	a3,a4,3
     870:	80418713          	addi	a4,gp,-2044 # 200000ac <ADCPrescTable>
     874:	9736                	add	a4,a4,a3
     876:	00074703          	lbu	a4,0(a4)
     87a:	02e7d7b3          	divu	a5,a5,a4
     87e:	c91c                	sw	a5,16(a0)
     880:	8082                	ret
     882:	435c                	lw	a5,4(a4)
     884:	4354                	lw	a3,4(a4)
     886:	6741                	lui	a4,0x10
     888:	83c9                	srli	a5,a5,0x12
     88a:	8ef9                	and	a3,a3,a4
     88c:	1ffff737          	lui	a4,0x1ffff
     890:	70c72703          	lw	a4,1804(a4) # 1ffff70c <_data_lma+0x1fff6db0>
     894:	8bbd                	andi	a5,a5,15
     896:	0789                	addi	a5,a5,2
     898:	01171613          	slli	a2,a4,0x11
     89c:	00064863          	bltz	a2,8ac <RCC_GetClocksFreq+0xa6>
     8a0:	4645                	li	a2,17
     8a2:	4701                	li	a4,0
     8a4:	02c79263          	bne	a5,a2,8c8 <RCC_GetClocksFreq+0xc2>
     8a8:	47c9                	li	a5,18
     8aa:	a839                	j	8c8 <RCC_GetClocksFreq+0xc2>
     8ac:	4709                	li	a4,2
     8ae:	02e78963          	beq	a5,a4,8e0 <RCC_GetClocksFreq+0xda>
     8b2:	473d                	li	a4,15
     8b4:	02e78863          	beq	a5,a4,8e4 <RCC_GetClocksFreq+0xde>
     8b8:	4741                	li	a4,16
     8ba:	02e78863          	beq	a5,a4,8ea <RCC_GetClocksFreq+0xe4>
     8be:	4645                	li	a2,17
     8c0:	4701                	li	a4,0
     8c2:	00c79363          	bne	a5,a2,8c8 <RCC_GetClocksFreq+0xc2>
     8c6:	47c1                	li	a5,16
     8c8:	e685                	bnez	a3,8f0 <RCC_GetClocksFreq+0xea>
     8ca:	400246b7          	lui	a3,0x40024
     8ce:	8006a683          	lw	a3,-2048(a3) # 40023800 <_eusrstack+0x2001b800>
     8d2:	8ac1                	andi	a3,a3,16
     8d4:	c68d                	beqz	a3,8fe <RCC_GetClocksFreq+0xf8>
     8d6:	007a16b7          	lui	a3,0x7a1
     8da:	20068693          	addi	a3,a3,512 # 7a1200 <_data_lma+0x7988a4>
     8de:	a025                	j	906 <RCC_GetClocksFreq+0x100>
     8e0:	4701                	li	a4,0
     8e2:	b7d9                	j	8a8 <RCC_GetClocksFreq+0xa2>
     8e4:	4705                	li	a4,1
     8e6:	47b5                	li	a5,13
     8e8:	b7c5                	j	8c8 <RCC_GetClocksFreq+0xc2>
     8ea:	4701                	li	a4,0
     8ec:	47bd                	li	a5,15
     8ee:	bfe9                	j	8c8 <RCC_GetClocksFreq+0xc2>
     8f0:	400216b7          	lui	a3,0x40021
     8f4:	42d4                	lw	a3,4(a3)
     8f6:	00e69613          	slli	a2,a3,0xe
     8fa:	fc065ee3          	bgez	a2,8d6 <RCC_GetClocksFreq+0xd0>
     8fe:	003d16b7          	lui	a3,0x3d1
     902:	90068693          	addi	a3,a3,-1792 # 3d0900 <_data_lma+0x3c7fa4>
     906:	02d787b3          	mul	a5,a5,a3
     90a:	c11c                	sw	a5,0(a0)
     90c:	df01                	beqz	a4,824 <RCC_GetClocksFreq+0x1e>
     90e:	411c                	lw	a5,0(a0)
     910:	8385                	srli	a5,a5,0x1
     912:	bf01                	j	822 <RCC_GetClocksFreq+0x1c>

00000914 <RCC_APB2PeriphClockCmd>:
     914:	c599                	beqz	a1,922 <RCC_APB2PeriphClockCmd+0xe>
     916:	40021737          	lui	a4,0x40021
     91a:	4f1c                	lw	a5,24(a4)
     91c:	8d5d                	or	a0,a0,a5
     91e:	cf08                	sw	a0,24(a4)
     920:	8082                	ret
     922:	400217b7          	lui	a5,0x40021
     926:	4f98                	lw	a4,24(a5)
     928:	fff54513          	not	a0,a0
     92c:	8d79                	and	a0,a0,a4
     92e:	cf88                	sw	a0,24(a5)
     930:	8082                	ret

00000932 <RCC_APB1PeriphClockCmd>:
     932:	c599                	beqz	a1,940 <RCC_APB1PeriphClockCmd+0xe>
     934:	40021737          	lui	a4,0x40021
     938:	4f5c                	lw	a5,28(a4)
     93a:	8d5d                	or	a0,a0,a5
     93c:	cf48                	sw	a0,28(a4)
     93e:	8082                	ret
     940:	400217b7          	lui	a5,0x40021
     944:	4fd8                	lw	a4,28(a5)
     946:	fff54513          	not	a0,a0
     94a:	8d79                	and	a0,a0,a4
     94c:	cfc8                	sw	a0,28(a5)
     94e:	8082                	ret

00000950 <SPI_Init>:
     950:	00055703          	lhu	a4,0(a0)
     954:	678d                	lui	a5,0x3
     956:	04078793          	addi	a5,a5,64 # 3040 <MPU6050_I2C_Mem_Read+0xb2>
     95a:	0025d683          	lhu	a3,2(a1)
     95e:	8f7d                	and	a4,a4,a5
     960:	0005d783          	lhu	a5,0(a1)
     964:	8fd5                	or	a5,a5,a3
     966:	0045d683          	lhu	a3,4(a1)
     96a:	8fd5                	or	a5,a5,a3
     96c:	0065d683          	lhu	a3,6(a1)
     970:	8fd5                	or	a5,a5,a3
     972:	0085d683          	lhu	a3,8(a1)
     976:	8fd5                	or	a5,a5,a3
     978:	00a5d683          	lhu	a3,10(a1)
     97c:	8fd5                	or	a5,a5,a3
     97e:	00c5d683          	lhu	a3,12(a1)
     982:	8fd5                	or	a5,a5,a3
     984:	00e5d683          	lhu	a3,14(a1)
     988:	8fd5                	or	a5,a5,a3
     98a:	8fd9                	or	a5,a5,a4
     98c:	00f51023          	sh	a5,0(a0)
     990:	01c55703          	lhu	a4,28(a0)
     994:	77fd                	lui	a5,0xfffff
     996:	7ff78793          	addi	a5,a5,2047 # fffff7ff <_eusrstack+0xdfff77ff>
     99a:	8ff9                	and	a5,a5,a4
     99c:	00f51e23          	sh	a5,28(a0)
     9a0:	0105d783          	lhu	a5,16(a1)
     9a4:	00f51823          	sh	a5,16(a0)
     9a8:	8082                	ret

000009aa <SPI_Cmd>:
     9aa:	00055783          	lhu	a5,0(a0)
     9ae:	c591                	beqz	a1,9ba <SPI_Cmd+0x10>
     9b0:	0407e793          	ori	a5,a5,64
     9b4:	00f51023          	sh	a5,0(a0)
     9b8:	8082                	ret
     9ba:	07c2                	slli	a5,a5,0x10
     9bc:	83c1                	srli	a5,a5,0x10
     9be:	fbf7f793          	andi	a5,a5,-65
     9c2:	07c2                	slli	a5,a5,0x10
     9c4:	83c1                	srli	a5,a5,0x10
     9c6:	b7fd                	j	9b4 <SPI_Cmd+0xa>

000009c8 <SPI_I2S_SendData>:
     9c8:	00b51623          	sh	a1,12(a0)
     9cc:	8082                	ret

000009ce <SPI_I2S_ReceiveData>:
     9ce:	00c55503          	lhu	a0,12(a0)
     9d2:	8082                	ret

000009d4 <SPI_I2S_GetFlagStatus>:
     9d4:	00855503          	lhu	a0,8(a0)
     9d8:	8d6d                	and	a0,a0,a1
     9da:	00a03533          	snez	a0,a0
     9de:	8082                	ret

000009e0 <USART_Init>:
     9e0:	01055683          	lhu	a3,16(a0)
     9e4:	77f5                	lui	a5,0xffffd
     9e6:	17fd                	addi	a5,a5,-1
     9e8:	8ff5                	and	a5,a5,a3
     9ea:	0065d683          	lhu	a3,6(a1)
     9ee:	7139                	addi	sp,sp,-64
     9f0:	dc22                	sw	s0,56(sp)
     9f2:	de06                	sw	ra,60(sp)
     9f4:	8fd5                	or	a5,a5,a3
     9f6:	00c5d703          	lhu	a4,12(a1)
     9fa:	00f51823          	sh	a5,16(a0)
     9fe:	00c55683          	lhu	a3,12(a0)
     a02:	77fd                	lui	a5,0xfffff
     a04:	9f378793          	addi	a5,a5,-1549 # ffffe9f3 <_eusrstack+0xdfff69f3>
     a08:	8ff5                	and	a5,a5,a3
     a0a:	0045d683          	lhu	a3,4(a1)
     a0e:	842a                	mv	s0,a0
     a10:	c62e                	sw	a1,12(sp)
     a12:	8fd5                	or	a5,a5,a3
     a14:	0085d683          	lhu	a3,8(a1)
     a18:	8fd5                	or	a5,a5,a3
     a1a:	00a5d683          	lhu	a3,10(a1)
     a1e:	8fd5                	or	a5,a5,a3
     a20:	00f51623          	sh	a5,12(a0)
     a24:	01455783          	lhu	a5,20(a0)
     a28:	07c2                	slli	a5,a5,0x10
     a2a:	83c1                	srli	a5,a5,0x10
     a2c:	cff7f793          	andi	a5,a5,-769
     a30:	8fd9                	or	a5,a5,a4
     a32:	00f51a23          	sh	a5,20(a0)
     a36:	0868                	addi	a0,sp,28
     a38:	33f9                	jal	806 <RCC_GetClocksFreq>
     a3a:	400147b7          	lui	a5,0x40014
     a3e:	80078793          	addi	a5,a5,-2048 # 40013800 <_eusrstack+0x2000b800>
     a42:	45b2                	lw	a1,12(sp)
     a44:	04f41e63          	bne	s0,a5,aa0 <USART_Init+0xc0>
     a48:	57a2                	lw	a5,40(sp)
     a4a:	00c45683          	lhu	a3,12(s0)
     a4e:	4765                	li	a4,25
     a50:	02e787b3          	mul	a5,a5,a4
     a54:	06c2                	slli	a3,a3,0x10
     a56:	86c1                	srai	a3,a3,0x10
     a58:	4198                	lw	a4,0(a1)
     a5a:	0406d563          	bgez	a3,aa4 <USART_Init+0xc4>
     a5e:	0706                	slli	a4,a4,0x1
     a60:	00c45603          	lhu	a2,12(s0)
     a64:	0642                	slli	a2,a2,0x10
     a66:	02e7d7b3          	divu	a5,a5,a4
     a6a:	06400713          	li	a4,100
     a6e:	8641                	srai	a2,a2,0x10
     a70:	02e7d6b3          	divu	a3,a5,a4
     a74:	02e7f7b3          	remu	a5,a5,a4
     a78:	0692                	slli	a3,a3,0x4
     a7a:	02065763          	bgez	a2,aa8 <USART_Init+0xc8>
     a7e:	078e                	slli	a5,a5,0x3
     a80:	03278793          	addi	a5,a5,50
     a84:	02e7d7b3          	divu	a5,a5,a4
     a88:	0077f713          	andi	a4,a5,7
     a8c:	00d767b3          	or	a5,a4,a3
     a90:	07c2                	slli	a5,a5,0x10
     a92:	83c1                	srli	a5,a5,0x10
     a94:	00f41423          	sh	a5,8(s0)
     a98:	50f2                	lw	ra,60(sp)
     a9a:	5462                	lw	s0,56(sp)
     a9c:	6121                	addi	sp,sp,64
     a9e:	8082                	ret
     aa0:	5792                	lw	a5,36(sp)
     aa2:	b765                	j	a4a <USART_Init+0x6a>
     aa4:	070a                	slli	a4,a4,0x2
     aa6:	bf6d                	j	a60 <USART_Init+0x80>
     aa8:	0792                	slli	a5,a5,0x4
     aaa:	03278793          	addi	a5,a5,50
     aae:	02e7d7b3          	divu	a5,a5,a4
     ab2:	8bbd                	andi	a5,a5,15
     ab4:	8fd5                	or	a5,a5,a3
     ab6:	bfe9                	j	a90 <USART_Init+0xb0>

00000ab8 <USART_Cmd>:
     ab8:	c981                	beqz	a1,ac8 <USART_Cmd+0x10>
     aba:	00c55783          	lhu	a5,12(a0)
     abe:	6709                	lui	a4,0x2
     ac0:	8fd9                	or	a5,a5,a4
     ac2:	00f51623          	sh	a5,12(a0)
     ac6:	8082                	ret
     ac8:	00c55703          	lhu	a4,12(a0)
     acc:	77f9                	lui	a5,0xffffe
     ace:	17fd                	addi	a5,a5,-1
     ad0:	8ff9                	and	a5,a5,a4
     ad2:	bfc5                	j	ac2 <USART_Cmd+0xa>

00000ad4 <USART_SendData>:
     ad4:	1ff5f593          	andi	a1,a1,511
     ad8:	00b51223          	sh	a1,4(a0)
     adc:	8082                	ret

00000ade <USART_GetFlagStatus>:
     ade:	00055503          	lhu	a0,0(a0)
     ae2:	8d6d                	and	a0,a0,a1
     ae4:	00a03533          	snez	a0,a0
     ae8:	8082                	ret

00000aea <get_st_biases>:
     aea:	7179                	addi	sp,sp,-48
     aec:	d422                	sw	s0,40(sp)
     aee:	20000437          	lui	s0,0x20000
     af2:	d226                	sw	s1,36(sp)
     af4:	4785                	li	a5,1
     af6:	01c40493          	addi	s1,s0,28 # 2000001c <st>
     afa:	4098                	lw	a4,0(s1)
     afc:	00f11223          	sh	a5,4(sp)
     b00:	40dc                	lw	a5,4(s1)
     b02:	d606                	sw	ra,44(sp)
     b04:	d04a                	sw	s2,32(sp)
     b06:	ce4e                	sw	s3,28(sp)
     b08:	cc52                	sw	s4,24(sp)
     b0a:	89aa                	mv	s3,a0
     b0c:	892e                	mv	s2,a1
     b0e:	0007c503          	lbu	a0,0(a5) # ffffe000 <_eusrstack+0xdfff6000>
     b12:	01274583          	lbu	a1,18(a4) # 2012 <run_self_test+0x70>
     b16:	0054                	addi	a3,sp,4
     b18:	8a32                	mv	s4,a2
     b1a:	4609                	li	a2,2
     b1c:	268020ef          	jal	ra,2d84 <MPU6050_I2C_Mem_Write>
     b20:	0c800513          	li	a0,200
     b24:	79a030ef          	jal	ra,42be <Delay_Ms>
     b28:	4098                	lw	a4,0(s1)
     b2a:	40dc                	lw	a5,4(s1)
     b2c:	00010223          	sb	zero,4(sp)
     b30:	00f74583          	lbu	a1,15(a4)
     b34:	0007c503          	lbu	a0,0(a5)
     b38:	0054                	addi	a3,sp,4
     b3a:	4605                	li	a2,1
     b3c:	248020ef          	jal	ra,2d84 <MPU6050_I2C_Mem_Write>
     b40:	4098                	lw	a4,0(s1)
     b42:	40dc                	lw	a5,4(s1)
     b44:	0054                	addi	a3,sp,4
     b46:	00574583          	lbu	a1,5(a4)
     b4a:	0007c503          	lbu	a0,0(a5)
     b4e:	4605                	li	a2,1
     b50:	01c40413          	addi	s0,s0,28
     b54:	230020ef          	jal	ra,2d84 <MPU6050_I2C_Mem_Write>
     b58:	4098                	lw	a4,0(s1)
     b5a:	40dc                	lw	a5,4(s1)
     b5c:	0054                	addi	a3,sp,4
     b5e:	01274583          	lbu	a1,18(a4)
     b62:	0007c503          	lbu	a0,0(a5)
     b66:	4605                	li	a2,1
     b68:	21c020ef          	jal	ra,2d84 <MPU6050_I2C_Mem_Write>
     b6c:	4098                	lw	a4,0(s1)
     b6e:	40dc                	lw	a5,4(s1)
     b70:	0054                	addi	a3,sp,4
     b72:	01774583          	lbu	a1,23(a4)
     b76:	0007c503          	lbu	a0,0(a5)
     b7a:	4605                	li	a2,1
     b7c:	208020ef          	jal	ra,2d84 <MPU6050_I2C_Mem_Write>
     b80:	4098                	lw	a4,0(s1)
     b82:	40dc                	lw	a5,4(s1)
     b84:	0054                	addi	a3,sp,4
     b86:	00474583          	lbu	a1,4(a4)
     b8a:	0007c503          	lbu	a0,0(a5)
     b8e:	4605                	li	a2,1
     b90:	1f4020ef          	jal	ra,2d84 <MPU6050_I2C_Mem_Write>
     b94:	47b1                	li	a5,12
     b96:	00f10223          	sb	a5,4(sp)
     b9a:	4098                	lw	a4,0(s1)
     b9c:	40dc                	lw	a5,4(s1)
     b9e:	0054                	addi	a3,sp,4
     ba0:	00474583          	lbu	a1,4(a4)
     ba4:	0007c503          	lbu	a0,0(a5)
     ba8:	4605                	li	a2,1
     baa:	1da020ef          	jal	ra,2d84 <MPU6050_I2C_Mem_Write>
     bae:	453d                	li	a0,15
     bb0:	70e030ef          	jal	ra,42be <Delay_Ms>
     bb4:	549c                	lw	a5,40(s1)
     bb6:	4098                	lw	a4,0(s1)
     bb8:	0054                	addi	a3,sp,4
     bba:	0097c783          	lbu	a5,9(a5)
     bbe:	4605                	li	a2,1
     bc0:	00f10223          	sb	a5,4(sp)
     bc4:	40dc                	lw	a5,4(s1)
     bc6:	00274583          	lbu	a1,2(a4)
     bca:	0007c503          	lbu	a0,0(a5)
     bce:	1b6020ef          	jal	ra,2d84 <MPU6050_I2C_Mem_Write>
     bd2:	549c                	lw	a5,40(s1)
     bd4:	4098                	lw	a4,0(s1)
     bd6:	0054                	addi	a3,sp,4
     bd8:	0087c783          	lbu	a5,8(a5)
     bdc:	4605                	li	a2,1
     bde:	00f10223          	sb	a5,4(sp)
     be2:	40dc                	lw	a5,4(s1)
     be4:	00174583          	lbu	a1,1(a4)
     be8:	0007c503          	lbu	a0,0(a5)
     bec:	198020ef          	jal	ra,2d84 <MPU6050_I2C_Mem_Write>
     bf0:	541c                	lw	a5,40(s0)
     bf2:	00a7c783          	lbu	a5,10(a5)
     bf6:	000a0463          	beqz	s4,bfe <get_st_biases+0x114>
     bfa:	0e07e793          	ori	a5,a5,224
     bfe:	00f10223          	sb	a5,4(sp)
     c02:	4018                	lw	a4,0(s0)
     c04:	405c                	lw	a5,4(s0)
     c06:	0054                	addi	a3,sp,4
     c08:	00674583          	lbu	a1,6(a4)
     c0c:	0007c503          	lbu	a0,0(a5)
     c10:	4605                	li	a2,1
     c12:	172020ef          	jal	ra,2d84 <MPU6050_I2C_Mem_Write>
     c16:	47e1                	li	a5,24
     c18:	000a0763          	beqz	s4,c26 <get_st_biases+0x13c>
     c1c:	541c                	lw	a5,40(s0)
     c1e:	00b7c783          	lbu	a5,11(a5)
     c22:	0e07e793          	ori	a5,a5,224
     c26:	00f10223          	sb	a5,4(sp)
     c2a:	4018                	lw	a4,0(s0)
     c2c:	405c                	lw	a5,4(s0)
     c2e:	0054                	addi	a3,sp,4
     c30:	00774583          	lbu	a1,7(a4)
     c34:	0007c503          	lbu	a0,0(a5)
     c38:	4605                	li	a2,1
     c3a:	14a020ef          	jal	ra,2d84 <MPU6050_I2C_Mem_Write>
     c3e:	000a0663          	beqz	s4,c4a <get_st_biases+0x160>
     c42:	0c800513          	li	a0,200
     c46:	678030ef          	jal	ra,42be <Delay_Ms>
     c4a:	04000793          	li	a5,64
     c4e:	00f10223          	sb	a5,4(sp)
     c52:	4018                	lw	a4,0(s0)
     c54:	405c                	lw	a5,4(s0)
     c56:	0054                	addi	a3,sp,4
     c58:	00474583          	lbu	a1,4(a4)
     c5c:	0007c503          	lbu	a0,0(a5)
     c60:	4605                	li	a2,1
     c62:	4481                	li	s1,0
     c64:	120020ef          	jal	ra,2d84 <MPU6050_I2C_Mem_Write>
     c68:	07800793          	li	a5,120
     c6c:	00f10223          	sb	a5,4(sp)
     c70:	4018                	lw	a4,0(s0)
     c72:	405c                	lw	a5,4(s0)
     c74:	0054                	addi	a3,sp,4
     c76:	00574583          	lbu	a1,5(a4)
     c7a:	0007c503          	lbu	a0,0(a5)
     c7e:	4605                	li	a2,1
     c80:	104020ef          	jal	ra,2d84 <MPU6050_I2C_Mem_Write>
     c84:	03200513          	li	a0,50
     c88:	636030ef          	jal	ra,42be <Delay_Ms>
     c8c:	4018                	lw	a4,0(s0)
     c8e:	405c                	lw	a5,4(s0)
     c90:	00010223          	sb	zero,4(sp)
     c94:	00574583          	lbu	a1,5(a4)
     c98:	0007c503          	lbu	a0,0(a5)
     c9c:	0054                	addi	a3,sp,4
     c9e:	4605                	li	a2,1
     ca0:	0e4020ef          	jal	ra,2d84 <MPU6050_I2C_Mem_Write>
     ca4:	405c                	lw	a5,4(s0)
     ca6:	4018                	lw	a4,0(s0)
     ca8:	0054                	addi	a3,sp,4
     caa:	0007c503          	lbu	a0,0(a5)
     cae:	00a74583          	lbu	a1,10(a4)
     cb2:	4609                	li	a2,2
     cb4:	2da020ef          	jal	ra,2f8e <MPU6050_I2C_Mem_Read>
     cb8:	00414a03          	lbu	s4,4(sp)
     cbc:	00514783          	lbu	a5,5(sp)
     cc0:	0009a423          	sw	zero,8(s3)
     cc4:	0a22                	slli	s4,s4,0x8
     cc6:	00fa6a33          	or	s4,s4,a5
     cca:	47b1                	li	a5,12
     ccc:	02fa5a33          	divu	s4,s4,a5
     cd0:	0009a223          	sw	zero,4(s3)
     cd4:	0009a023          	sw	zero,0(s3)
     cd8:	00092423          	sw	zero,8(s2)
     cdc:	00092223          	sw	zero,4(s2)
     ce0:	00092023          	sw	zero,0(s2)
     ce4:	0ffa7a13          	andi	s4,s4,255
     ce8:	15449663          	bne	s1,s4,e34 <get_st_biases+0x34a>
     cec:	0009a503          	lw	a0,0(s3)
     cf0:	08300613          	li	a2,131
     cf4:	4681                	li	a3,0
     cf6:	41f55793          	srai	a5,a0,0x1f
     cfa:	07c2                	slli	a5,a5,0x10
     cfc:	01055593          	srli	a1,a0,0x10
     d00:	8ddd                	or	a1,a1,a5
     d02:	0542                	slli	a0,a0,0x10
     d04:	674040ef          	jal	ra,5378 <__divdi3>
     d08:	8626                	mv	a2,s1
     d0a:	4681                	li	a3,0
     d0c:	66c040ef          	jal	ra,5378 <__divdi3>
     d10:	00a9a023          	sw	a0,0(s3)
     d14:	0049a503          	lw	a0,4(s3)
     d18:	08300613          	li	a2,131
     d1c:	4681                	li	a3,0
     d1e:	41f55793          	srai	a5,a0,0x1f
     d22:	07c2                	slli	a5,a5,0x10
     d24:	01055593          	srli	a1,a0,0x10
     d28:	8ddd                	or	a1,a1,a5
     d2a:	0542                	slli	a0,a0,0x10
     d2c:	64c040ef          	jal	ra,5378 <__divdi3>
     d30:	8626                	mv	a2,s1
     d32:	4681                	li	a3,0
     d34:	644040ef          	jal	ra,5378 <__divdi3>
     d38:	00a9a223          	sw	a0,4(s3)
     d3c:	0089a503          	lw	a0,8(s3)
     d40:	08300613          	li	a2,131
     d44:	4681                	li	a3,0
     d46:	41f55793          	srai	a5,a0,0x1f
     d4a:	07c2                	slli	a5,a5,0x10
     d4c:	01055593          	srli	a1,a0,0x10
     d50:	8ddd                	or	a1,a1,a5
     d52:	0542                	slli	a0,a0,0x10
     d54:	624040ef          	jal	ra,5378 <__divdi3>
     d58:	8626                	mv	a2,s1
     d5a:	4681                	li	a3,0
     d5c:	61c040ef          	jal	ra,5378 <__divdi3>
     d60:	00a9a423          	sw	a0,8(s3)
     d64:	00092503          	lw	a0,0(s2)
     d68:	8626                	mv	a2,s1
     d6a:	4681                	li	a3,0
     d6c:	41f55593          	srai	a1,a0,0x1f
     d70:	01055793          	srli	a5,a0,0x10
     d74:	01059713          	slli	a4,a1,0x10
     d78:	8f5d                	or	a4,a4,a5
     d7a:	41f75593          	srai	a1,a4,0x1f
     d7e:	0542                	slli	a0,a0,0x10
     d80:	7ff5f593          	andi	a1,a1,2047
     d84:	00a587b3          	add	a5,a1,a0
     d88:	00b7b5b3          	sltu	a1,a5,a1
     d8c:	95ba                	add	a1,a1,a4
     d8e:	83ad                	srli	a5,a5,0xb
     d90:	01559513          	slli	a0,a1,0x15
     d94:	8d5d                	or	a0,a0,a5
     d96:	85ad                	srai	a1,a1,0xb
     d98:	5e0040ef          	jal	ra,5378 <__divdi3>
     d9c:	00a92023          	sw	a0,0(s2)
     da0:	00492503          	lw	a0,4(s2)
     da4:	8626                	mv	a2,s1
     da6:	4681                	li	a3,0
     da8:	41f55593          	srai	a1,a0,0x1f
     dac:	01055793          	srli	a5,a0,0x10
     db0:	01059713          	slli	a4,a1,0x10
     db4:	8f5d                	or	a4,a4,a5
     db6:	41f75593          	srai	a1,a4,0x1f
     dba:	0542                	slli	a0,a0,0x10
     dbc:	7ff5f593          	andi	a1,a1,2047
     dc0:	00a587b3          	add	a5,a1,a0
     dc4:	00b7b5b3          	sltu	a1,a5,a1
     dc8:	95ba                	add	a1,a1,a4
     dca:	83ad                	srli	a5,a5,0xb
     dcc:	01559513          	slli	a0,a1,0x15
     dd0:	8d5d                	or	a0,a0,a5
     dd2:	85ad                	srai	a1,a1,0xb
     dd4:	5a4040ef          	jal	ra,5378 <__divdi3>
     dd8:	00a92223          	sw	a0,4(s2)
     ddc:	00892503          	lw	a0,8(s2)
     de0:	8626                	mv	a2,s1
     de2:	4681                	li	a3,0
     de4:	41f55593          	srai	a1,a0,0x1f
     de8:	01055793          	srli	a5,a0,0x10
     dec:	01059713          	slli	a4,a1,0x10
     df0:	8f5d                	or	a4,a4,a5
     df2:	41f75593          	srai	a1,a4,0x1f
     df6:	0542                	slli	a0,a0,0x10
     df8:	7ff5f593          	andi	a1,a1,2047
     dfc:	00a587b3          	add	a5,a1,a0
     e00:	00b7b5b3          	sltu	a1,a5,a1
     e04:	95ba                	add	a1,a1,a4
     e06:	83ad                	srli	a5,a5,0xb
     e08:	01559513          	slli	a0,a1,0x15
     e0c:	8d5d                	or	a0,a0,a5
     e0e:	85ad                	srai	a1,a1,0xb
     e10:	568040ef          	jal	ra,5378 <__divdi3>
     e14:	77c1                	lui	a5,0xffff0
     e16:	00a04363          	bgtz	a0,e1c <get_st_biases+0x332>
     e1a:	67c1                	lui	a5,0x10
     e1c:	50b2                	lw	ra,44(sp)
     e1e:	5422                	lw	s0,40(sp)
     e20:	953e                	add	a0,a0,a5
     e22:	00a92423          	sw	a0,8(s2)
     e26:	5492                	lw	s1,36(sp)
     e28:	5902                	lw	s2,32(sp)
     e2a:	49f2                	lw	s3,28(sp)
     e2c:	4a62                	lw	s4,24(sp)
     e2e:	4501                	li	a0,0
     e30:	6145                	addi	sp,sp,48
     e32:	8082                	ret
     e34:	4018                	lw	a4,0(s0)
     e36:	405c                	lw	a5,4(s0)
     e38:	0054                	addi	a3,sp,4
     e3a:	00b74583          	lbu	a1,11(a4)
     e3e:	0007c503          	lbu	a0,0(a5) # 10000 <_data_lma+0x76a4>
     e42:	4631                	li	a2,12
     e44:	0485                	addi	s1,s1,1
     e46:	148020ef          	jal	ra,2f8e <MPU6050_I2C_Mem_Read>
     e4a:	00614703          	lbu	a4,6(sp)
     e4e:	00714783          	lbu	a5,7(sp)
     e52:	00914683          	lbu	a3,9(sp)
     e56:	0722                	slli	a4,a4,0x8
     e58:	8f5d                	or	a4,a4,a5
     e5a:	00814783          	lbu	a5,8(sp)
     e5e:	00514603          	lbu	a2,5(sp)
     e62:	0742                	slli	a4,a4,0x10
     e64:	07a2                	slli	a5,a5,0x8
     e66:	8fd5                	or	a5,a5,a3
     e68:	00414683          	lbu	a3,4(sp)
     e6c:	8741                	srai	a4,a4,0x10
     e6e:	07c2                	slli	a5,a5,0x10
     e70:	06a2                	slli	a3,a3,0x8
     e72:	8ed1                	or	a3,a3,a2
     e74:	00092603          	lw	a2,0(s2)
     e78:	06c2                	slli	a3,a3,0x10
     e7a:	86c1                	srai	a3,a3,0x10
     e7c:	96b2                	add	a3,a3,a2
     e7e:	00d92023          	sw	a3,0(s2)
     e82:	00492683          	lw	a3,4(s2)
     e86:	87c1                	srai	a5,a5,0x10
     e88:	00b14603          	lbu	a2,11(sp)
     e8c:	9736                	add	a4,a4,a3
     e8e:	00e92223          	sw	a4,4(s2)
     e92:	00892703          	lw	a4,8(s2)
     e96:	00f14683          	lbu	a3,15(sp)
     e9a:	0ff4f493          	andi	s1,s1,255
     e9e:	97ba                	add	a5,a5,a4
     ea0:	00c14703          	lbu	a4,12(sp)
     ea4:	00f92423          	sw	a5,8(s2)
     ea8:	00d14783          	lbu	a5,13(sp)
     eac:	0722                	slli	a4,a4,0x8
     eae:	8f5d                	or	a4,a4,a5
     eb0:	00e14783          	lbu	a5,14(sp)
     eb4:	0742                	slli	a4,a4,0x10
     eb6:	8741                	srai	a4,a4,0x10
     eb8:	07a2                	slli	a5,a5,0x8
     eba:	8fd5                	or	a5,a5,a3
     ebc:	00a14683          	lbu	a3,10(sp)
     ec0:	07c2                	slli	a5,a5,0x10
     ec2:	87c1                	srai	a5,a5,0x10
     ec4:	06a2                	slli	a3,a3,0x8
     ec6:	8ed1                	or	a3,a3,a2
     ec8:	0009a603          	lw	a2,0(s3)
     ecc:	06c2                	slli	a3,a3,0x10
     ece:	86c1                	srai	a3,a3,0x10
     ed0:	96b2                	add	a3,a3,a2
     ed2:	00d9a023          	sw	a3,0(s3)
     ed6:	0049a683          	lw	a3,4(s3)
     eda:	9736                	add	a4,a4,a3
     edc:	00e9a223          	sw	a4,4(s3)
     ee0:	0089a703          	lw	a4,8(s3)
     ee4:	97ba                	add	a5,a5,a4
     ee6:	00f9a423          	sw	a5,8(s3)
     eea:	bbfd                	j	ce8 <get_st_biases+0x1fe>

00000eec <set_int_enable>:
     eec:	1101                	addi	sp,sp,-32
     eee:	cc22                	sw	s0,24(sp)
     ef0:	20000437          	lui	s0,0x20000
     ef4:	01c40793          	addi	a5,s0,28 # 2000001c <st>
     ef8:	ce06                	sw	ra,28(sp)
     efa:	0247c783          	lbu	a5,36(a5)
     efe:	01c40413          	addi	s0,s0,28
     f02:	cb95                	beqz	a5,f36 <set_int_enable+0x4a>
     f04:	c111                	beqz	a0,f08 <set_int_enable+0x1c>
     f06:	4509                	li	a0,2
     f08:	00a107a3          	sb	a0,15(sp)
     f0c:	405c                	lw	a5,4(s0)
     f0e:	4018                	lw	a4,0(s0)
     f10:	00f10693          	addi	a3,sp,15
     f14:	0007c503          	lbu	a0,0(a5)
     f18:	00f74583          	lbu	a1,15(a4)
     f1c:	4605                	li	a2,1
     f1e:	667010ef          	jal	ra,2d84 <MPU6050_I2C_Mem_Write>
     f22:	00f14783          	lbu	a5,15(sp)
     f26:	00f408a3          	sb	a5,17(s0)
     f2a:	4781                	li	a5,0
     f2c:	40f2                	lw	ra,28(sp)
     f2e:	4462                	lw	s0,24(sp)
     f30:	853e                	mv	a0,a5
     f32:	6105                	addi	sp,sp,32
     f34:	8082                	ret
     f36:	00a44703          	lbu	a4,10(s0)
     f3a:	57fd                	li	a5,-1
     f3c:	db65                	beqz	a4,f2c <set_int_enable+0x40>
     f3e:	c909                	beqz	a0,f50 <set_int_enable+0x64>
     f40:	01144703          	lbu	a4,17(s0)
     f44:	4781                	li	a5,0
     f46:	f37d                	bnez	a4,f2c <set_int_enable+0x40>
     f48:	4785                	li	a5,1
     f4a:	00f107a3          	sb	a5,15(sp)
     f4e:	bf7d                	j	f0c <set_int_enable+0x20>
     f50:	000107a3          	sb	zero,15(sp)
     f54:	bf65                	j	f0c <set_int_enable+0x20>

00000f56 <mpu_reset_fifo>:
     f56:	1101                	addi	sp,sp,-32
     f58:	cc22                	sw	s0,24(sp)
     f5a:	20000437          	lui	s0,0x20000
     f5e:	ce06                	sw	ra,28(sp)
     f60:	01c40793          	addi	a5,s0,28 # 2000001c <st>
     f64:	00a7c783          	lbu	a5,10(a5)
     f68:	557d                	li	a0,-1
     f6a:	0e078163          	beqz	a5,104c <mpu_reset_fifo+0xf6>
     f6e:	01c40413          	addi	s0,s0,28
     f72:	4018                	lw	a4,0(s0)
     f74:	405c                	lw	a5,4(s0)
     f76:	000107a3          	sb	zero,15(sp)
     f7a:	00f74583          	lbu	a1,15(a4)
     f7e:	0007c503          	lbu	a0,0(a5)
     f82:	00f10693          	addi	a3,sp,15
     f86:	4605                	li	a2,1
     f88:	5fd010ef          	jal	ra,2d84 <MPU6050_I2C_Mem_Write>
     f8c:	4018                	lw	a4,0(s0)
     f8e:	405c                	lw	a5,4(s0)
     f90:	00f10693          	addi	a3,sp,15
     f94:	00574583          	lbu	a1,5(a4)
     f98:	0007c503          	lbu	a0,0(a5)
     f9c:	4605                	li	a2,1
     f9e:	5e7010ef          	jal	ra,2d84 <MPU6050_I2C_Mem_Write>
     fa2:	405c                	lw	a5,4(s0)
     fa4:	4018                	lw	a4,0(s0)
     fa6:	00f10693          	addi	a3,sp,15
     faa:	0007c503          	lbu	a0,0(a5)
     fae:	00474583          	lbu	a1,4(a4)
     fb2:	4605                	li	a2,1
     fb4:	5d1010ef          	jal	ra,2d84 <MPU6050_I2C_Mem_Write>
     fb8:	02444783          	lbu	a5,36(s0)
     fbc:	cfc1                	beqz	a5,1054 <mpu_reset_fifo+0xfe>
     fbe:	47b1                	li	a5,12
     fc0:	00f107a3          	sb	a5,15(sp)
     fc4:	4018                	lw	a4,0(s0)
     fc6:	405c                	lw	a5,4(s0)
     fc8:	00f10693          	addi	a3,sp,15
     fcc:	00474583          	lbu	a1,4(a4)
     fd0:	0007c503          	lbu	a0,0(a5)
     fd4:	4605                	li	a2,1
     fd6:	5af010ef          	jal	ra,2d84 <MPU6050_I2C_Mem_Write>
     fda:	03200513          	li	a0,50
     fde:	2e0030ef          	jal	ra,42be <Delay_Ms>
     fe2:	fc000793          	li	a5,-64
     fe6:	00f107a3          	sb	a5,15(sp)
     fea:	00a44783          	lbu	a5,10(s0)
     fee:	8b85                	andi	a5,a5,1
     ff0:	c781                	beqz	a5,ff8 <mpu_reset_fifo+0xa2>
     ff2:	5781                	li	a5,-32
     ff4:	00f107a3          	sb	a5,15(sp)
     ff8:	405c                	lw	a5,4(s0)
     ffa:	4018                	lw	a4,0(s0)
     ffc:	00f10693          	addi	a3,sp,15
    1000:	0007c503          	lbu	a0,0(a5)
    1004:	00474583          	lbu	a1,4(a4)
    1008:	4605                	li	a2,1
    100a:	57b010ef          	jal	ra,2d84 <MPU6050_I2C_Mem_Write>
    100e:	01144783          	lbu	a5,17(s0)
    1012:	c391                	beqz	a5,1016 <mpu_reset_fifo+0xc0>
    1014:	4789                	li	a5,2
    1016:	00f107a3          	sb	a5,15(sp)
    101a:	4018                	lw	a4,0(s0)
    101c:	405c                	lw	a5,4(s0)
    101e:	00f10693          	addi	a3,sp,15
    1022:	00f74583          	lbu	a1,15(a4)
    1026:	0007c503          	lbu	a0,0(a5)
    102a:	4605                	li	a2,1
    102c:	559010ef          	jal	ra,2d84 <MPU6050_I2C_Mem_Write>
    1030:	4018                	lw	a4,0(s0)
    1032:	405c                	lw	a5,4(s0)
    1034:	000107a3          	sb	zero,15(sp)
    1038:	00f10693          	addi	a3,sp,15
    103c:	0007c503          	lbu	a0,0(a5)
    1040:	00574583          	lbu	a1,5(a4)
    1044:	4605                	li	a2,1
    1046:	53f010ef          	jal	ra,2d84 <MPU6050_I2C_Mem_Write>
    104a:	4501                	li	a0,0
    104c:	40f2                	lw	ra,28(sp)
    104e:	4462                	lw	s0,24(sp)
    1050:	6105                	addi	sp,sp,32
    1052:	8082                	ret
    1054:	4791                	li	a5,4
    1056:	00f107a3          	sb	a5,15(sp)
    105a:	4018                	lw	a4,0(s0)
    105c:	405c                	lw	a5,4(s0)
    105e:	00f10693          	addi	a3,sp,15
    1062:	00474583          	lbu	a1,4(a4)
    1066:	0007c503          	lbu	a0,0(a5)
    106a:	4605                	li	a2,1
    106c:	519010ef          	jal	ra,2d84 <MPU6050_I2C_Mem_Write>
    1070:	01244783          	lbu	a5,18(s0)
    1074:	04000713          	li	a4,64
    1078:	e799                	bnez	a5,1086 <mpu_reset_fifo+0x130>
    107a:	00a44783          	lbu	a5,10(s0)
    107e:	8b85                	andi	a5,a5,1
    1080:	c399                	beqz	a5,1086 <mpu_reset_fifo+0x130>
    1082:	06000713          	li	a4,96
    1086:	405c                	lw	a5,4(s0)
    1088:	00e107a3          	sb	a4,15(sp)
    108c:	4018                	lw	a4,0(s0)
    108e:	0007c503          	lbu	a0,0(a5)
    1092:	00f10693          	addi	a3,sp,15
    1096:	00474583          	lbu	a1,4(a4)
    109a:	4605                	li	a2,1
    109c:	4e9010ef          	jal	ra,2d84 <MPU6050_I2C_Mem_Write>
    10a0:	03200513          	li	a0,50
    10a4:	21a030ef          	jal	ra,42be <Delay_Ms>
    10a8:	01144783          	lbu	a5,17(s0)
    10ac:	4018                	lw	a4,0(s0)
    10ae:	00f10693          	addi	a3,sp,15
    10b2:	00f037b3          	snez	a5,a5
    10b6:	00f107a3          	sb	a5,15(sp)
    10ba:	405c                	lw	a5,4(s0)
    10bc:	00f74583          	lbu	a1,15(a4)
    10c0:	4605                	li	a2,1
    10c2:	0007c503          	lbu	a0,0(a5)
    10c6:	4bf010ef          	jal	ra,2d84 <MPU6050_I2C_Mem_Write>
    10ca:	4018                	lw	a4,0(s0)
    10cc:	405c                	lw	a5,4(s0)
    10ce:	01040693          	addi	a3,s0,16
    10d2:	b7ad                	j	103c <mpu_reset_fifo+0xe6>

000010d4 <mpu_get_gyro_fsr>:
    10d4:	200007b7          	lui	a5,0x20000
    10d8:	0247c783          	lbu	a5,36(a5) # 20000024 <st+0x8>
    10dc:	4705                	li	a4,1
    10de:	02e78263          	beq	a5,a4,1102 <mpu_get_gyro_fsr+0x2e>
    10e2:	cb91                	beqz	a5,10f6 <mpu_get_gyro_fsr+0x22>
    10e4:	4709                	li	a4,2
    10e6:	02e78163          	beq	a5,a4,1108 <mpu_get_gyro_fsr+0x34>
    10ea:	470d                	li	a4,3
    10ec:	02e78163          	beq	a5,a4,110e <mpu_get_gyro_fsr+0x3a>
    10f0:	00051023          	sh	zero,0(a0)
    10f4:	a029                	j	10fe <mpu_get_gyro_fsr+0x2a>
    10f6:	0fa00793          	li	a5,250
    10fa:	00f51023          	sh	a5,0(a0)
    10fe:	4501                	li	a0,0
    1100:	8082                	ret
    1102:	1f400793          	li	a5,500
    1106:	bfd5                	j	10fa <mpu_get_gyro_fsr+0x26>
    1108:	3e800793          	li	a5,1000
    110c:	b7fd                	j	10fa <mpu_get_gyro_fsr+0x26>
    110e:	7d000793          	li	a5,2000
    1112:	b7e5                	j	10fa <mpu_get_gyro_fsr+0x26>

00001114 <mpu_set_gyro_fsr>:
    1114:	1101                	addi	sp,sp,-32
    1116:	cc22                	sw	s0,24(sp)
    1118:	20000437          	lui	s0,0x20000
    111c:	ce06                	sw	ra,28(sp)
    111e:	01c40793          	addi	a5,s0,28 # 2000001c <st>
    1122:	00a7c783          	lbu	a5,10(a5)
    1126:	cf89                	beqz	a5,1140 <mpu_set_gyro_fsr+0x2c>
    1128:	1f400793          	li	a5,500
    112c:	01c40413          	addi	s0,s0,28
    1130:	06f50363          	beq	a0,a5,1196 <mpu_set_gyro_fsr+0x82>
    1134:	00a7e863          	bltu	a5,a0,1144 <mpu_set_gyro_fsr+0x30>
    1138:	0fa00793          	li	a5,250
    113c:	00f50e63          	beq	a0,a5,1158 <mpu_set_gyro_fsr+0x44>
    1140:	557d                	li	a0,-1
    1142:	a0b1                	j	118e <mpu_set_gyro_fsr+0x7a>
    1144:	3e800793          	li	a5,1000
    1148:	04f50b63          	beq	a0,a5,119e <mpu_set_gyro_fsr+0x8a>
    114c:	7d000793          	li	a5,2000
    1150:	fef518e3          	bne	a0,a5,1140 <mpu_set_gyro_fsr+0x2c>
    1154:	47e1                	li	a5,24
    1156:	a089                	j	1198 <mpu_set_gyro_fsr+0x84>
    1158:	000107a3          	sb	zero,15(sp)
    115c:	00f14783          	lbu	a5,15(sp)
    1160:	00844703          	lbu	a4,8(s0)
    1164:	4501                	li	a0,0
    1166:	838d                	srli	a5,a5,0x3
    1168:	02f70363          	beq	a4,a5,118e <mpu_set_gyro_fsr+0x7a>
    116c:	405c                	lw	a5,4(s0)
    116e:	4018                	lw	a4,0(s0)
    1170:	00f10693          	addi	a3,sp,15
    1174:	0007c503          	lbu	a0,0(a5)
    1178:	00674583          	lbu	a1,6(a4)
    117c:	4605                	li	a2,1
    117e:	407010ef          	jal	ra,2d84 <MPU6050_I2C_Mem_Write>
    1182:	00f14783          	lbu	a5,15(sp)
    1186:	4501                	li	a0,0
    1188:	838d                	srli	a5,a5,0x3
    118a:	00f40423          	sb	a5,8(s0)
    118e:	40f2                	lw	ra,28(sp)
    1190:	4462                	lw	s0,24(sp)
    1192:	6105                	addi	sp,sp,32
    1194:	8082                	ret
    1196:	47a1                	li	a5,8
    1198:	00f107a3          	sb	a5,15(sp)
    119c:	b7c1                	j	115c <mpu_set_gyro_fsr+0x48>
    119e:	47c1                	li	a5,16
    11a0:	bfe5                	j	1198 <mpu_set_gyro_fsr+0x84>

000011a2 <mpu_get_accel_fsr>:
    11a2:	20000737          	lui	a4,0x20000
    11a6:	01c70693          	addi	a3,a4,28 # 2000001c <st>
    11aa:	0096c683          	lbu	a3,9(a3)
    11ae:	4605                	li	a2,1
    11b0:	87aa                	mv	a5,a0
    11b2:	01c70713          	addi	a4,a4,28
    11b6:	02c68863          	beq	a3,a2,11e6 <mpu_get_accel_fsr+0x44>
    11ba:	ca89                	beqz	a3,11cc <mpu_get_accel_fsr+0x2a>
    11bc:	4609                	li	a2,2
    11be:	02c68663          	beq	a3,a2,11ea <mpu_get_accel_fsr+0x48>
    11c2:	460d                	li	a2,3
    11c4:	02c68563          	beq	a3,a2,11ee <mpu_get_accel_fsr+0x4c>
    11c8:	557d                	li	a0,-1
    11ca:	8082                	ret
    11cc:	4689                	li	a3,2
    11ce:	00d78023          	sb	a3,0(a5)
    11d2:	01374703          	lbu	a4,19(a4)
    11d6:	4501                	li	a0,0
    11d8:	c711                	beqz	a4,11e4 <mpu_get_accel_fsr+0x42>
    11da:	0007c703          	lbu	a4,0(a5)
    11de:	0706                	slli	a4,a4,0x1
    11e0:	00e78023          	sb	a4,0(a5)
    11e4:	8082                	ret
    11e6:	4691                	li	a3,4
    11e8:	b7dd                	j	11ce <mpu_get_accel_fsr+0x2c>
    11ea:	46a1                	li	a3,8
    11ec:	b7cd                	j	11ce <mpu_get_accel_fsr+0x2c>
    11ee:	46c1                	li	a3,16
    11f0:	bff9                	j	11ce <mpu_get_accel_fsr+0x2c>

000011f2 <mpu_set_accel_fsr>:
    11f2:	1101                	addi	sp,sp,-32
    11f4:	cc22                	sw	s0,24(sp)
    11f6:	20000437          	lui	s0,0x20000
    11fa:	ce06                	sw	ra,28(sp)
    11fc:	01c40793          	addi	a5,s0,28 # 2000001c <st>
    1200:	00a7c783          	lbu	a5,10(a5)
    1204:	cb99                	beqz	a5,121a <mpu_set_accel_fsr+0x28>
    1206:	4791                	li	a5,4
    1208:	01c40413          	addi	s0,s0,28
    120c:	06f50063          	beq	a0,a5,126c <mpu_set_accel_fsr+0x7a>
    1210:	00a7e763          	bltu	a5,a0,121e <mpu_set_accel_fsr+0x2c>
    1214:	4789                	li	a5,2
    1216:	00f50c63          	beq	a0,a5,122e <mpu_set_accel_fsr+0x3c>
    121a:	557d                	li	a0,-1
    121c:	a0a1                	j	1264 <mpu_set_accel_fsr+0x72>
    121e:	47a1                	li	a5,8
    1220:	04f50a63          	beq	a0,a5,1274 <mpu_set_accel_fsr+0x82>
    1224:	47c1                	li	a5,16
    1226:	fef51ae3          	bne	a0,a5,121a <mpu_set_accel_fsr+0x28>
    122a:	47e1                	li	a5,24
    122c:	a089                	j	126e <mpu_set_accel_fsr+0x7c>
    122e:	000107a3          	sb	zero,15(sp)
    1232:	00f14783          	lbu	a5,15(sp)
    1236:	00944703          	lbu	a4,9(s0)
    123a:	4501                	li	a0,0
    123c:	838d                	srli	a5,a5,0x3
    123e:	02f70363          	beq	a4,a5,1264 <mpu_set_accel_fsr+0x72>
    1242:	405c                	lw	a5,4(s0)
    1244:	4018                	lw	a4,0(s0)
    1246:	00f10693          	addi	a3,sp,15
    124a:	0007c503          	lbu	a0,0(a5)
    124e:	00774583          	lbu	a1,7(a4)
    1252:	4605                	li	a2,1
    1254:	331010ef          	jal	ra,2d84 <MPU6050_I2C_Mem_Write>
    1258:	00f14783          	lbu	a5,15(sp)
    125c:	4501                	li	a0,0
    125e:	838d                	srli	a5,a5,0x3
    1260:	00f404a3          	sb	a5,9(s0)
    1264:	40f2                	lw	ra,28(sp)
    1266:	4462                	lw	s0,24(sp)
    1268:	6105                	addi	sp,sp,32
    126a:	8082                	ret
    126c:	47a1                	li	a5,8
    126e:	00f107a3          	sb	a5,15(sp)
    1272:	b7c1                	j	1232 <mpu_set_accel_fsr+0x40>
    1274:	47c1                	li	a5,16
    1276:	bfe5                	j	126e <mpu_set_accel_fsr+0x7c>

00001278 <mpu_get_lpf>:
    1278:	200007b7          	lui	a5,0x20000
    127c:	0277c783          	lbu	a5,39(a5) # 20000027 <st+0xb>
    1280:	4715                	li	a4,5
    1282:	17fd                	addi	a5,a5,-1
    1284:	0ff7f793          	andi	a5,a5,255
    1288:	02f76b63          	bltu	a4,a5,12be <mpu_get_lpf+0x46>
    128c:	6721                	lui	a4,0x8
    128e:	078a                	slli	a5,a5,0x2
    1290:	91470713          	addi	a4,a4,-1772 # 7914 <memcpy+0x110>
    1294:	97ba                	add	a5,a5,a4
    1296:	439c                	lw	a5,0(a5)
    1298:	8782                	jr	a5
    129a:	0bc00793          	li	a5,188
    129e:	00f51023          	sh	a5,0(a0)
    12a2:	4501                	li	a0,0
    12a4:	8082                	ret
    12a6:	06200793          	li	a5,98
    12aa:	bfd5                	j	129e <mpu_get_lpf+0x26>
    12ac:	02a00793          	li	a5,42
    12b0:	b7fd                	j	129e <mpu_get_lpf+0x26>
    12b2:	47d1                	li	a5,20
    12b4:	b7ed                	j	129e <mpu_get_lpf+0x26>
    12b6:	47a9                	li	a5,10
    12b8:	b7dd                	j	129e <mpu_get_lpf+0x26>
    12ba:	4795                	li	a5,5
    12bc:	b7cd                	j	129e <mpu_get_lpf+0x26>
    12be:	00051023          	sh	zero,0(a0)
    12c2:	b7c5                	j	12a2 <mpu_get_lpf+0x2a>

000012c4 <mpu_set_lpf>:
    12c4:	1101                	addi	sp,sp,-32
    12c6:	cc22                	sw	s0,24(sp)
    12c8:	20000437          	lui	s0,0x20000
    12cc:	ce06                	sw	ra,28(sp)
    12ce:	01c40793          	addi	a5,s0,28 # 2000001c <st>
    12d2:	00a7c783          	lbu	a5,10(a5)
    12d6:	cfad                	beqz	a5,1350 <mpu_set_lpf+0x8c>
    12d8:	0bb00793          	li	a5,187
    12dc:	01c40413          	addi	s0,s0,28
    12e0:	04a7f063          	bgeu	a5,a0,1320 <mpu_set_lpf+0x5c>
    12e4:	4785                	li	a5,1
    12e6:	00f107a3          	sb	a5,15(sp)
    12ea:	00b44703          	lbu	a4,11(s0)
    12ee:	00f14783          	lbu	a5,15(sp)
    12f2:	4501                	li	a0,0
    12f4:	02f70263          	beq	a4,a5,1318 <mpu_set_lpf+0x54>
    12f8:	405c                	lw	a5,4(s0)
    12fa:	4018                	lw	a4,0(s0)
    12fc:	00f10693          	addi	a3,sp,15
    1300:	0007c503          	lbu	a0,0(a5)
    1304:	00274583          	lbu	a1,2(a4)
    1308:	4605                	li	a2,1
    130a:	27b010ef          	jal	ra,2d84 <MPU6050_I2C_Mem_Write>
    130e:	00f14783          	lbu	a5,15(sp)
    1312:	4501                	li	a0,0
    1314:	00f405a3          	sb	a5,11(s0)
    1318:	40f2                	lw	ra,28(sp)
    131a:	4462                	lw	s0,24(sp)
    131c:	6105                	addi	sp,sp,32
    131e:	8082                	ret
    1320:	06100793          	li	a5,97
    1324:	00a7f463          	bgeu	a5,a0,132c <mpu_set_lpf+0x68>
    1328:	4789                	li	a5,2
    132a:	bf75                	j	12e6 <mpu_set_lpf+0x22>
    132c:	02900793          	li	a5,41
    1330:	00a7f463          	bgeu	a5,a0,1338 <mpu_set_lpf+0x74>
    1334:	478d                	li	a5,3
    1336:	bf45                	j	12e6 <mpu_set_lpf+0x22>
    1338:	47cd                	li	a5,19
    133a:	00a7f463          	bgeu	a5,a0,1342 <mpu_set_lpf+0x7e>
    133e:	4791                	li	a5,4
    1340:	b75d                	j	12e6 <mpu_set_lpf+0x22>
    1342:	47a5                	li	a5,9
    1344:	00a7f463          	bgeu	a5,a0,134c <mpu_set_lpf+0x88>
    1348:	4795                	li	a5,5
    134a:	bf71                	j	12e6 <mpu_set_lpf+0x22>
    134c:	4799                	li	a5,6
    134e:	bf61                	j	12e6 <mpu_set_lpf+0x22>
    1350:	557d                	li	a0,-1
    1352:	b7d9                	j	1318 <mpu_set_lpf+0x54>

00001354 <mpu_get_sample_rate>:
    1354:	200007b7          	lui	a5,0x20000
    1358:	01c78793          	addi	a5,a5,28 # 2000001c <st>
    135c:	0247c703          	lbu	a4,36(a5)
    1360:	e719                	bnez	a4,136e <mpu_get_sample_rate+0x1a>
    1362:	00e7d783          	lhu	a5,14(a5)
    1366:	00f51023          	sh	a5,0(a0)
    136a:	4501                	li	a0,0
    136c:	8082                	ret
    136e:	557d                	li	a0,-1
    1370:	8082                	ret

00001372 <mpu_get_gyro_sens>:
    1372:	200007b7          	lui	a5,0x20000
    1376:	0247c783          	lbu	a5,36(a5) # 20000024 <st+0x8>
    137a:	4705                	li	a4,1
    137c:	02e78263          	beq	a5,a4,13a0 <mpu_get_gyro_sens+0x2e>
    1380:	cb89                	beqz	a5,1392 <mpu_get_gyro_sens+0x20>
    1382:	4709                	li	a4,2
    1384:	02e78363          	beq	a5,a4,13aa <mpu_get_gyro_sens+0x38>
    1388:	470d                	li	a4,3
    138a:	02e78563          	beq	a5,a4,13b4 <mpu_get_gyro_sens+0x42>
    138e:	557d                	li	a0,-1
    1390:	8082                	ret
    1392:	000087b7          	lui	a5,0x8
    1396:	9587a787          	flw	fa5,-1704(a5) # 7958 <hw+0x2c>
    139a:	e11c                	fsw	fa5,0(a0)
    139c:	4501                	li	a0,0
    139e:	8082                	ret
    13a0:	000087b7          	lui	a5,0x8
    13a4:	95c7a787          	flw	fa5,-1700(a5) # 795c <hw+0x30>
    13a8:	bfcd                	j	139a <mpu_get_gyro_sens+0x28>
    13aa:	000087b7          	lui	a5,0x8
    13ae:	9607a787          	flw	fa5,-1696(a5) # 7960 <hw+0x34>
    13b2:	b7e5                	j	139a <mpu_get_gyro_sens+0x28>
    13b4:	000087b7          	lui	a5,0x8
    13b8:	9647a787          	flw	fa5,-1692(a5) # 7964 <hw+0x38>
    13bc:	bff9                	j	139a <mpu_get_gyro_sens+0x28>

000013be <mpu_get_accel_sens>:
    13be:	20000737          	lui	a4,0x20000
    13c2:	01c70693          	addi	a3,a4,28 # 2000001c <st>
    13c6:	0096c683          	lbu	a3,9(a3)
    13ca:	4605                	li	a2,1
    13cc:	87aa                	mv	a5,a0
    13ce:	01c70713          	addi	a4,a4,28
    13d2:	02c68863          	beq	a3,a2,1402 <mpu_get_accel_sens+0x44>
    13d6:	ca89                	beqz	a3,13e8 <mpu_get_accel_sens+0x2a>
    13d8:	4609                	li	a2,2
    13da:	02c68863          	beq	a3,a2,140a <mpu_get_accel_sens+0x4c>
    13de:	460d                	li	a2,3
    13e0:	02c68763          	beq	a3,a2,140e <mpu_get_accel_sens+0x50>
    13e4:	557d                	li	a0,-1
    13e6:	8082                	ret
    13e8:	6691                	lui	a3,0x4
    13ea:	00d79023          	sh	a3,0(a5)
    13ee:	01374703          	lbu	a4,19(a4)
    13f2:	4501                	li	a0,0
    13f4:	c711                	beqz	a4,1400 <mpu_get_accel_sens+0x42>
    13f6:	0007d703          	lhu	a4,0(a5)
    13fa:	8305                	srli	a4,a4,0x1
    13fc:	00e79023          	sh	a4,0(a5)
    1400:	8082                	ret
    1402:	6689                	lui	a3,0x2
    1404:	f9c68693          	addi	a3,a3,-100 # 1f9c <mpu_run_self_test+0x2f6>
    1408:	b7cd                	j	13ea <mpu_get_accel_sens+0x2c>
    140a:	6685                	lui	a3,0x1
    140c:	bff9                	j	13ea <mpu_get_accel_sens+0x2c>
    140e:	6685                	lui	a3,0x1
    1410:	80068693          	addi	a3,a3,-2048 # 800 <NVIC_PriorityGroupConfig>
    1414:	bfd9                	j	13ea <mpu_get_accel_sens+0x2c>

00001416 <mpu_configure_fifo>:
    1416:	1101                	addi	sp,sp,-32
    1418:	cc22                	sw	s0,24(sp)
    141a:	20000437          	lui	s0,0x20000
    141e:	01c40413          	addi	s0,s0,28 # 2000001c <st>
    1422:	02444783          	lbu	a5,36(s0)
    1426:	c84a                	sw	s2,16(sp)
    1428:	ce06                	sw	ra,28(sp)
    142a:	ca26                	sw	s1,20(sp)
    142c:	c64e                	sw	s3,12(sp)
    142e:	4901                	li	s2,0
    1430:	e3a1                	bnez	a5,1470 <mpu_configure_fifo+0x5a>
    1432:	00a44783          	lbu	a5,10(s0)
    1436:	597d                	li	s2,-1
    1438:	cf85                	beqz	a5,1470 <mpu_configure_fifo+0x5a>
    143a:	0fe57493          	andi	s1,a0,254
    143e:	8fe5                	and	a5,a5,s1
    1440:	01044983          	lbu	s3,16(s0)
    1444:	00f40823          	sb	a5,16(s0)
    1448:	8f85                	sub	a5,a5,s1
    144a:	00f037b3          	snez	a5,a5
    144e:	40f00933          	neg	s2,a5
    1452:	01444783          	lbu	a5,20(s0)
    1456:	8fc5                	or	a5,a5,s1
    1458:	cb91                	beqz	a5,146c <mpu_configure_fifo+0x56>
    145a:	4505                	li	a0,1
    145c:	3c41                	jal	eec <set_int_enable>
    145e:	c889                	beqz	s1,1470 <mpu_configure_fifo+0x5a>
    1460:	3cdd                	jal	f56 <mpu_reset_fifo>
    1462:	c519                	beqz	a0,1470 <mpu_configure_fifo+0x5a>
    1464:	01340823          	sb	s3,16(s0)
    1468:	597d                	li	s2,-1
    146a:	a019                	j	1470 <mpu_configure_fifo+0x5a>
    146c:	4501                	li	a0,0
    146e:	3cbd                	jal	eec <set_int_enable>
    1470:	40f2                	lw	ra,28(sp)
    1472:	4462                	lw	s0,24(sp)
    1474:	854a                	mv	a0,s2
    1476:	44d2                	lw	s1,20(sp)
    1478:	4942                	lw	s2,16(sp)
    147a:	49b2                	lw	s3,12(sp)
    147c:	6105                	addi	sp,sp,32
    147e:	8082                	ret

00001480 <mpu_read_fifo_stream>:
    1480:	7179                	addi	sp,sp,-48
    1482:	ce4e                	sw	s3,28(sp)
    1484:	200009b7          	lui	s3,0x20000
    1488:	d226                	sw	s1,36(sp)
    148a:	01c98493          	addi	s1,s3,28 # 2000001c <st>
    148e:	0244c783          	lbu	a5,36(s1)
    1492:	d606                	sw	ra,44(sp)
    1494:	d422                	sw	s0,40(sp)
    1496:	d04a                	sw	s2,32(sp)
    1498:	cc52                	sw	s4,24(sp)
    149a:	ca56                	sw	s5,20(sp)
    149c:	cf85                	beqz	a5,14d4 <mpu_read_fifo_stream+0x54>
    149e:	00a4c703          	lbu	a4,10(s1)
    14a2:	57fd                	li	a5,-1
    14a4:	c32d                	beqz	a4,1506 <mpu_read_fifo_stream+0x86>
    14a6:	40dc                	lw	a5,4(s1)
    14a8:	4098                	lw	a4,0(s1)
    14aa:	8aae                	mv	s5,a1
    14ac:	892a                	mv	s2,a0
    14ae:	00a74583          	lbu	a1,10(a4)
    14b2:	0007c503          	lbu	a0,0(a5)
    14b6:	8a32                	mv	s4,a2
    14b8:	0074                	addi	a3,sp,12
    14ba:	4609                	li	a2,2
    14bc:	2d3010ef          	jal	ra,2f8e <MPU6050_I2C_Mem_Read>
    14c0:	00c14783          	lbu	a5,12(sp)
    14c4:	00d14403          	lbu	s0,13(sp)
    14c8:	07a2                	slli	a5,a5,0x8
    14ca:	8c5d                	or	s0,s0,a5
    14cc:	01247663          	bgeu	s0,s2,14d8 <mpu_read_fifo_stream+0x58>
    14d0:	000a0023          	sb	zero,0(s4)
    14d4:	57fd                	li	a5,-1
    14d6:	a805                	j	1506 <mpu_read_fifo_stream+0x86>
    14d8:	40d8                	lw	a4,4(s1)
    14da:	01c98993          	addi	s3,s3,28
    14de:	00275783          	lhu	a5,2(a4)
    14e2:	8385                	srli	a5,a5,0x1
    14e4:	0287fb63          	bgeu	a5,s0,151a <mpu_read_fifo_stream+0x9a>
    14e8:	409c                	lw	a5,0(s1)
    14ea:	00074503          	lbu	a0,0(a4)
    14ee:	0074                	addi	a3,sp,12
    14f0:	0117c583          	lbu	a1,17(a5)
    14f4:	4605                	li	a2,1
    14f6:	299010ef          	jal	ra,2f8e <MPU6050_I2C_Mem_Read>
    14fa:	00c14783          	lbu	a5,12(sp)
    14fe:	8bc1                	andi	a5,a5,16
    1500:	cf89                	beqz	a5,151a <mpu_read_fifo_stream+0x9a>
    1502:	3c91                	jal	f56 <mpu_reset_fifo>
    1504:	57f9                	li	a5,-2
    1506:	50b2                	lw	ra,44(sp)
    1508:	5422                	lw	s0,40(sp)
    150a:	5492                	lw	s1,36(sp)
    150c:	5902                	lw	s2,32(sp)
    150e:	49f2                	lw	s3,28(sp)
    1510:	4a62                	lw	s4,24(sp)
    1512:	4ad2                	lw	s5,20(sp)
    1514:	853e                	mv	a0,a5
    1516:	6145                	addi	sp,sp,48
    1518:	8082                	ret
    151a:	0049a783          	lw	a5,4(s3)
    151e:	0009a703          	lw	a4,0(s3)
    1522:	86d6                	mv	a3,s5
    1524:	0007c503          	lbu	a0,0(a5)
    1528:	00b74583          	lbu	a1,11(a4)
    152c:	0ff97613          	andi	a2,s2,255
    1530:	25f010ef          	jal	ra,2f8e <MPU6050_I2C_Mem_Read>
    1534:	03245433          	divu	s0,s0,s2
    1538:	4781                	li	a5,0
    153a:	147d                	addi	s0,s0,-1
    153c:	008a0023          	sb	s0,0(s4)
    1540:	b7d9                	j	1506 <mpu_read_fifo_stream+0x86>

00001542 <mpu_set_bypass>:
    1542:	1101                	addi	sp,sp,-32
    1544:	cc22                	sw	s0,24(sp)
    1546:	20000437          	lui	s0,0x20000
    154a:	ce06                	sw	ra,28(sp)
    154c:	ca26                	sw	s1,20(sp)
    154e:	01c40793          	addi	a5,s0,28 # 2000001c <st>
    1552:	0127c783          	lbu	a5,18(a5)
    1556:	0ca78c63          	beq	a5,a0,162e <mpu_set_bypass+0xec>
    155a:	01c40413          	addi	s0,s0,28
    155e:	405c                	lw	a5,4(s0)
    1560:	84aa                	mv	s1,a0
    1562:	00f10693          	addi	a3,sp,15
    1566:	0007c503          	lbu	a0,0(a5)
    156a:	401c                	lw	a5,0(s0)
    156c:	4605                	li	a2,1
    156e:	0047c583          	lbu	a1,4(a5)
    1572:	c8b9                	beqz	s1,15c8 <mpu_set_bypass+0x86>
    1574:	21b010ef          	jal	ra,2f8e <MPU6050_I2C_Mem_Read>
    1578:	00f14783          	lbu	a5,15(sp)
    157c:	4018                	lw	a4,0(s0)
    157e:	00f10693          	addi	a3,sp,15
    1582:	fdf7f793          	andi	a5,a5,-33
    1586:	00f107a3          	sb	a5,15(sp)
    158a:	405c                	lw	a5,4(s0)
    158c:	00474583          	lbu	a1,4(a4)
    1590:	4605                	li	a2,1
    1592:	0007c503          	lbu	a0,0(a5)
    1596:	7ee010ef          	jal	ra,2d84 <MPU6050_I2C_Mem_Write>
    159a:	450d                	li	a0,3
    159c:	523020ef          	jal	ra,42be <Delay_Ms>
    15a0:	4789                	li	a5,2
    15a2:	00f107a3          	sb	a5,15(sp)
    15a6:	02244783          	lbu	a5,34(s0)
    15aa:	c789                	beqz	a5,15b4 <mpu_set_bypass+0x72>
    15ac:	f8200793          	li	a5,-126
    15b0:	00f107a3          	sb	a5,15(sp)
    15b4:	02344783          	lbu	a5,35(s0)
    15b8:	cfb1                	beqz	a5,1614 <mpu_set_bypass+0xd2>
    15ba:	00f14783          	lbu	a5,15(sp)
    15be:	0307e793          	ori	a5,a5,48
    15c2:	00f107a3          	sb	a5,15(sp)
    15c6:	a0b9                	j	1614 <mpu_set_bypass+0xd2>
    15c8:	1c7010ef          	jal	ra,2f8e <MPU6050_I2C_Mem_Read>
    15cc:	00a44783          	lbu	a5,10(s0)
    15d0:	00f14683          	lbu	a3,15(sp)
    15d4:	8b85                	andi	a5,a5,1
    15d6:	0df6f713          	andi	a4,a3,223
    15da:	c399                	beqz	a5,15e0 <mpu_set_bypass+0x9e>
    15dc:	0206e713          	ori	a4,a3,32
    15e0:	405c                	lw	a5,4(s0)
    15e2:	00e107a3          	sb	a4,15(sp)
    15e6:	4018                	lw	a4,0(s0)
    15e8:	0007c503          	lbu	a0,0(a5)
    15ec:	00f10693          	addi	a3,sp,15
    15f0:	00474583          	lbu	a1,4(a4)
    15f4:	4605                	li	a2,1
    15f6:	78e010ef          	jal	ra,2d84 <MPU6050_I2C_Mem_Write>
    15fa:	450d                	li	a0,3
    15fc:	4c3020ef          	jal	ra,42be <Delay_Ms>
    1600:	02244783          	lbu	a5,34(s0)
    1604:	c399                	beqz	a5,160a <mpu_set_bypass+0xc8>
    1606:	08000793          	li	a5,128
    160a:	02344703          	lbu	a4,35(s0)
    160e:	00f107a3          	sb	a5,15(sp)
    1612:	f755                	bnez	a4,15be <mpu_set_bypass+0x7c>
    1614:	4018                	lw	a4,0(s0)
    1616:	405c                	lw	a5,4(s0)
    1618:	00f10693          	addi	a3,sp,15
    161c:	01474583          	lbu	a1,20(a4)
    1620:	0007c503          	lbu	a0,0(a5)
    1624:	4605                	li	a2,1
    1626:	75e010ef          	jal	ra,2d84 <MPU6050_I2C_Mem_Write>
    162a:	00940923          	sb	s1,18(s0)
    162e:	40f2                	lw	ra,28(sp)
    1630:	4462                	lw	s0,24(sp)
    1632:	44d2                	lw	s1,20(sp)
    1634:	4501                	li	a0,0
    1636:	6105                	addi	sp,sp,32
    1638:	8082                	ret

0000163a <mpu_set_int_latched>:
    163a:	1101                	addi	sp,sp,-32
    163c:	cc22                	sw	s0,24(sp)
    163e:	20000437          	lui	s0,0x20000
    1642:	ce06                	sw	ra,28(sp)
    1644:	ca26                	sw	s1,20(sp)
    1646:	01c40793          	addi	a5,s0,28 # 2000001c <st>
    164a:	0237c783          	lbu	a5,35(a5)
    164e:	04a78863          	beq	a5,a0,169e <mpu_set_int_latched+0x64>
    1652:	01c40413          	addi	s0,s0,28
    1656:	4781                	li	a5,0
    1658:	c119                	beqz	a0,165e <mpu_set_int_latched+0x24>
    165a:	03000793          	li	a5,48
    165e:	01244703          	lbu	a4,18(s0)
    1662:	00f107a3          	sb	a5,15(sp)
    1666:	c709                	beqz	a4,1670 <mpu_set_int_latched+0x36>
    1668:	0027e793          	ori	a5,a5,2
    166c:	00f107a3          	sb	a5,15(sp)
    1670:	02244783          	lbu	a5,34(s0)
    1674:	c799                	beqz	a5,1682 <mpu_set_int_latched+0x48>
    1676:	00f14783          	lbu	a5,15(sp)
    167a:	f807e793          	ori	a5,a5,-128
    167e:	00f107a3          	sb	a5,15(sp)
    1682:	4018                	lw	a4,0(s0)
    1684:	405c                	lw	a5,4(s0)
    1686:	84aa                	mv	s1,a0
    1688:	01474583          	lbu	a1,20(a4)
    168c:	0007c503          	lbu	a0,0(a5)
    1690:	00f10693          	addi	a3,sp,15
    1694:	4605                	li	a2,1
    1696:	6ee010ef          	jal	ra,2d84 <MPU6050_I2C_Mem_Write>
    169a:	029401a3          	sb	s1,35(s0)
    169e:	40f2                	lw	ra,28(sp)
    16a0:	4462                	lw	s0,24(sp)
    16a2:	44d2                	lw	s1,20(sp)
    16a4:	4501                	li	a0,0
    16a6:	6105                	addi	sp,sp,32
    16a8:	8082                	ret

000016aa <mpu_lp_accel_mode>:
    16aa:	02800793          	li	a5,40
    16ae:	0aa7ef63          	bltu	a5,a0,176c <mpu_lp_accel_mode+0xc2>
    16b2:	1101                	addi	sp,sp,-32
    16b4:	cc22                	sw	s0,24(sp)
    16b6:	ca26                	sw	s1,20(sp)
    16b8:	20000437          	lui	s0,0x20000
    16bc:	ce06                	sw	ra,28(sp)
    16be:	84aa                	mv	s1,a0
    16c0:	01c40413          	addi	s0,s0,28 # 2000001c <st>
    16c4:	e905                	bnez	a0,16f4 <mpu_lp_accel_mode+0x4a>
    16c6:	3f95                	jal	163a <mpu_set_int_latched>
    16c8:	70000793          	li	a5,1792
    16cc:	00f11623          	sh	a5,12(sp)
    16d0:	4018                	lw	a4,0(s0)
    16d2:	405c                	lw	a5,4(s0)
    16d4:	0074                	addi	a3,sp,12
    16d6:	01274583          	lbu	a1,18(a4)
    16da:	0007c503          	lbu	a0,0(a5)
    16de:	4609                	li	a2,2
    16e0:	6a4010ef          	jal	ra,2d84 <MPU6050_I2C_Mem_Write>
    16e4:	00040a23          	sb	zero,20(s0)
    16e8:	40f2                	lw	ra,28(sp)
    16ea:	4462                	lw	s0,24(sp)
    16ec:	44d2                	lw	s1,20(sp)
    16ee:	4501                	li	a0,0
    16f0:	6105                	addi	sp,sp,32
    16f2:	8082                	ret
    16f4:	4505                	li	a0,1
    16f6:	3791                	jal	163a <mpu_set_int_latched>
    16f8:	02000793          	li	a5,32
    16fc:	00f10623          	sb	a5,12(sp)
    1700:	4785                	li	a5,1
    1702:	04f49263          	bne	s1,a5,1746 <mpu_lp_accel_mode+0x9c>
    1706:	000106a3          	sb	zero,13(sp)
    170a:	4515                	li	a0,5
    170c:	3e65                	jal	12c4 <mpu_set_lpf>
    170e:	00d14783          	lbu	a5,13(sp)
    1712:	4018                	lw	a4,0(s0)
    1714:	0074                	addi	a3,sp,12
    1716:	079a                	slli	a5,a5,0x6
    1718:	0077e793          	ori	a5,a5,7
    171c:	00f106a3          	sb	a5,13(sp)
    1720:	405c                	lw	a5,4(s0)
    1722:	01274583          	lbu	a1,18(a4)
    1726:	4609                	li	a2,2
    1728:	0007c503          	lbu	a0,0(a5)
    172c:	658010ef          	jal	ra,2d84 <MPU6050_I2C_Mem_Write>
    1730:	47a1                	li	a5,8
    1732:	00f40523          	sb	a5,10(s0)
    1736:	4501                	li	a0,0
    1738:	4785                	li	a5,1
    173a:	00040623          	sb	zero,12(s0)
    173e:	00f40a23          	sb	a5,20(s0)
    1742:	39d1                	jal	1416 <mpu_configure_fifo>
    1744:	b755                	j	16e8 <mpu_lp_accel_mode+0x3e>
    1746:	4715                	li	a4,5
    1748:	00976563          	bltu	a4,s1,1752 <mpu_lp_accel_mode+0xa8>
    174c:	00f106a3          	sb	a5,13(sp)
    1750:	bf6d                	j	170a <mpu_lp_accel_mode+0x60>
    1752:	47d1                	li	a5,20
    1754:	0097e763          	bltu	a5,s1,1762 <mpu_lp_accel_mode+0xb8>
    1758:	4789                	li	a5,2
    175a:	00f106a3          	sb	a5,13(sp)
    175e:	4529                	li	a0,10
    1760:	b775                	j	170c <mpu_lp_accel_mode+0x62>
    1762:	478d                	li	a5,3
    1764:	00f106a3          	sb	a5,13(sp)
    1768:	4551                	li	a0,20
    176a:	b74d                	j	170c <mpu_lp_accel_mode+0x62>
    176c:	557d                	li	a0,-1
    176e:	8082                	ret

00001770 <mpu_set_sample_rate>:
    1770:	1101                	addi	sp,sp,-32
    1772:	cc22                	sw	s0,24(sp)
    1774:	20000437          	lui	s0,0x20000
    1778:	ce06                	sw	ra,28(sp)
    177a:	ca26                	sw	s1,20(sp)
    177c:	01c40793          	addi	a5,s0,28 # 2000001c <st>
    1780:	00a7c703          	lbu	a4,10(a5)
    1784:	cb51                	beqz	a4,1818 <mpu_set_sample_rate+0xa8>
    1786:	0247c703          	lbu	a4,36(a5)
    178a:	84aa                	mv	s1,a0
    178c:	557d                	li	a0,-1
    178e:	e315                	bnez	a4,17b2 <mpu_set_sample_rate+0x42>
    1790:	0147c783          	lbu	a5,20(a5)
    1794:	01c40413          	addi	s0,s0,28
    1798:	c785                	beqz	a5,17c0 <mpu_set_sample_rate+0x50>
    179a:	fff48793          	addi	a5,s1,-1
    179e:	07c2                	slli	a5,a5,0x10
    17a0:	83c1                	srli	a5,a5,0x10
    17a2:	02700713          	li	a4,39
    17a6:	00f76b63          	bltu	a4,a5,17bc <mpu_set_sample_rate+0x4c>
    17aa:	0ff4f513          	andi	a0,s1,255
    17ae:	3df5                	jal	16aa <mpu_lp_accel_mode>
    17b0:	4501                	li	a0,0
    17b2:	40f2                	lw	ra,28(sp)
    17b4:	4462                	lw	s0,24(sp)
    17b6:	44d2                	lw	s1,20(sp)
    17b8:	6105                	addi	sp,sp,32
    17ba:	8082                	ret
    17bc:	4501                	li	a0,0
    17be:	35f5                	jal	16aa <mpu_lp_accel_mode>
    17c0:	3e800713          	li	a4,1000
    17c4:	87a6                	mv	a5,s1
    17c6:	00977463          	bgeu	a4,s1,17ce <mpu_set_sample_rate+0x5e>
    17ca:	3e800793          	li	a5,1000
    17ce:	01079713          	slli	a4,a5,0x10
    17d2:	8341                	srli	a4,a4,0x10
    17d4:	4691                	li	a3,4
    17d6:	00d77363          	bgeu	a4,a3,17dc <mpu_set_sample_rate+0x6c>
    17da:	4791                	li	a5,4
    17dc:	07c2                	slli	a5,a5,0x10
    17de:	3e800493          	li	s1,1000
    17e2:	83c1                	srli	a5,a5,0x10
    17e4:	02f4c7b3          	div	a5,s1,a5
    17e8:	4018                	lw	a4,0(s0)
    17ea:	00f10693          	addi	a3,sp,15
    17ee:	4605                	li	a2,1
    17f0:	00174583          	lbu	a1,1(a4)
    17f4:	17fd                	addi	a5,a5,-1
    17f6:	00f107a3          	sb	a5,15(sp)
    17fa:	405c                	lw	a5,4(s0)
    17fc:	0007c503          	lbu	a0,0(a5)
    1800:	584010ef          	jal	ra,2d84 <MPU6050_I2C_Mem_Write>
    1804:	00f14503          	lbu	a0,15(sp)
    1808:	0505                	addi	a0,a0,1
    180a:	02a4c533          	div	a0,s1,a0
    180e:	00a41723          	sh	a0,14(s0)
    1812:	8105                	srli	a0,a0,0x1
    1814:	3c45                	jal	12c4 <mpu_set_lpf>
    1816:	bf69                	j	17b0 <mpu_set_sample_rate+0x40>
    1818:	557d                	li	a0,-1
    181a:	bf61                	j	17b2 <mpu_set_sample_rate+0x42>

0000181c <mpu_set_sensors>:
    181c:	1101                	addi	sp,sp,-32
    181e:	cc22                	sw	s0,24(sp)
    1820:	ce06                	sw	ra,28(sp)
    1822:	ca26                	sw	s1,20(sp)
    1824:	c84a                	sw	s2,16(sp)
    1826:	07057793          	andi	a5,a0,112
    182a:	842a                	mv	s0,a0
    182c:	c789                	beqz	a5,1836 <mpu_set_sensors+0x1a>
    182e:	4785                	li	a5,1
    1830:	00f107a3          	sb	a5,15(sp)
    1834:	a021                	j	183c <mpu_set_sensors+0x20>
    1836:	c95d                	beqz	a0,18ec <mpu_set_sensors+0xd0>
    1838:	000107a3          	sb	zero,15(sp)
    183c:	200004b7          	lui	s1,0x20000
    1840:	01c48913          	addi	s2,s1,28 # 2000001c <st>
    1844:	00492783          	lw	a5,4(s2)
    1848:	00092703          	lw	a4,0(s2)
    184c:	00f10693          	addi	a3,sp,15
    1850:	0007c503          	lbu	a0,0(a5)
    1854:	01274583          	lbu	a1,18(a4)
    1858:	4605                	li	a2,1
    185a:	01c48493          	addi	s1,s1,28
    185e:	526010ef          	jal	ra,2d84 <MPU6050_I2C_Mem_Write>
    1862:	00f14783          	lbu	a5,15(sp)
    1866:	fbf7f793          	andi	a5,a5,-65
    186a:	00f90623          	sb	a5,12(s2)
    186e:	04047793          	andi	a5,s0,64
    1872:	c3c1                	beqz	a5,18f2 <mpu_set_sensors+0xd6>
    1874:	000107a3          	sb	zero,15(sp)
    1878:	02047793          	andi	a5,s0,32
    187c:	e799                	bnez	a5,188a <mpu_set_sensors+0x6e>
    187e:	00f14783          	lbu	a5,15(sp)
    1882:	0027e793          	ori	a5,a5,2
    1886:	00f107a3          	sb	a5,15(sp)
    188a:	01047793          	andi	a5,s0,16
    188e:	e799                	bnez	a5,189c <mpu_set_sensors+0x80>
    1890:	00f14783          	lbu	a5,15(sp)
    1894:	0017e793          	ori	a5,a5,1
    1898:	00f107a3          	sb	a5,15(sp)
    189c:	00847793          	andi	a5,s0,8
    18a0:	e799                	bnez	a5,18ae <mpu_set_sensors+0x92>
    18a2:	00f14783          	lbu	a5,15(sp)
    18a6:	0387e793          	ori	a5,a5,56
    18aa:	00f107a3          	sb	a5,15(sp)
    18ae:	40dc                	lw	a5,4(s1)
    18b0:	4098                	lw	a4,0(s1)
    18b2:	00f10693          	addi	a3,sp,15
    18b6:	0007c503          	lbu	a0,0(a5)
    18ba:	01374583          	lbu	a1,19(a4)
    18be:	4605                	li	a2,1
    18c0:	4c4010ef          	jal	ra,2d84 <MPU6050_I2C_Mem_Write>
    18c4:	0f747793          	andi	a5,s0,247
    18c8:	c399                	beqz	a5,18ce <mpu_set_sensors+0xb2>
    18ca:	4501                	li	a0,0
    18cc:	33bd                	jal	163a <mpu_set_int_latched>
    18ce:	03200513          	li	a0,50
    18d2:	00848523          	sb	s0,10(s1)
    18d6:	00048a23          	sb	zero,20(s1)
    18da:	1e5020ef          	jal	ra,42be <Delay_Ms>
    18de:	40f2                	lw	ra,28(sp)
    18e0:	4462                	lw	s0,24(sp)
    18e2:	44d2                	lw	s1,20(sp)
    18e4:	4942                	lw	s2,16(sp)
    18e6:	4501                	li	a0,0
    18e8:	6105                	addi	sp,sp,32
    18ea:	8082                	ret
    18ec:	04000793          	li	a5,64
    18f0:	b781                	j	1830 <mpu_set_sensors+0x14>
    18f2:	4791                	li	a5,4
    18f4:	00f107a3          	sb	a5,15(sp)
    18f8:	b741                	j	1878 <mpu_set_sensors+0x5c>

000018fa <mpu_init>:
    18fa:	1101                	addi	sp,sp,-32
    18fc:	cc22                	sw	s0,24(sp)
    18fe:	20000437          	lui	s0,0x20000
    1902:	ca26                	sw	s1,20(sp)
    1904:	f8000793          	li	a5,-128
    1908:	01c40493          	addi	s1,s0,28 # 2000001c <st>
    190c:	4098                	lw	a4,0(s1)
    190e:	00f10423          	sb	a5,8(sp)
    1912:	40dc                	lw	a5,4(s1)
    1914:	ce06                	sw	ra,28(sp)
    1916:	01274583          	lbu	a1,18(a4)
    191a:	0007c503          	lbu	a0,0(a5)
    191e:	0034                	addi	a3,sp,8
    1920:	4605                	li	a2,1
    1922:	462010ef          	jal	ra,2d84 <MPU6050_I2C_Mem_Write>
    1926:	06400513          	li	a0,100
    192a:	195020ef          	jal	ra,42be <Delay_Ms>
    192e:	4098                	lw	a4,0(s1)
    1930:	40dc                	lw	a5,4(s1)
    1932:	00010423          	sb	zero,8(sp)
    1936:	01274583          	lbu	a1,18(a4)
    193a:	0007c503          	lbu	a0,0(a5)
    193e:	0034                	addi	a3,sp,8
    1940:	4605                	li	a2,1
    1942:	442010ef          	jal	ra,2d84 <MPU6050_I2C_Mem_Write>
    1946:	4098                	lw	a4,0(s1)
    1948:	40dc                	lw	a5,4(s1)
    194a:	0034                	addi	a3,sp,8
    194c:	01674583          	lbu	a1,22(a4)
    1950:	0007c503          	lbu	a0,0(a5)
    1954:	4619                	li	a2,6
    1956:	01c40413          	addi	s0,s0,28
    195a:	634010ef          	jal	ra,2f8e <MPU6050_I2C_Mem_Read>
    195e:	00d14783          	lbu	a5,13(sp)
    1962:	00b14703          	lbu	a4,11(sp)
    1966:	078a                	slli	a5,a5,0x2
    1968:	0706                	slli	a4,a4,0x1
    196a:	8b09                	andi	a4,a4,2
    196c:	8b91                	andi	a5,a5,4
    196e:	8fd9                	or	a5,a5,a4
    1970:	00914703          	lbu	a4,9(sp)
    1974:	8b05                	andi	a4,a4,1
    1976:	8fd9                	or	a5,a5,a4
    1978:	cfc9                	beqz	a5,1a12 <mpu_init+0x118>
    197a:	4705                	li	a4,1
    197c:	0ff7f593          	andi	a1,a5,255
    1980:	00e79563          	bne	a5,a4,198a <mpu_init+0x90>
    1984:	00f409a3          	sb	a5,19(s0)
    1988:	a031                	j	1994 <mpu_init+0x9a>
    198a:	4789                	li	a5,2
    198c:	06f59663          	bne	a1,a5,19f8 <mpu_init+0xfe>
    1990:	000409a3          	sb	zero,19(s0)
    1994:	57fd                	li	a5,-1
    1996:	00f41723          	sh	a5,14(s0)
    199a:	00f40823          	sb	a5,16(s0)
    199e:	00f40923          	sb	a5,18(s0)
    19a2:	57fd                	li	a5,-1
    19a4:	c41c                	sw	a5,8(s0)
    19a6:	00041a23          	sh	zero,20(s0)
    19aa:	4785                	li	a5,1
    19ac:	4631                	li	a2,12
    19ae:	4581                	li	a1,0
    19b0:	01640513          	addi	a0,s0,22
    19b4:	00f40623          	sb	a5,12(s0)
    19b8:	849fe0ef          	jal	ra,200 <memset>
    19bc:	4785                	li	a5,1
    19be:	02f41123          	sh	a5,34(s0)
    19c2:	02042223          	sw	zero,36(s0)
    19c6:	7d000513          	li	a0,2000
    19ca:	f4aff0ef          	jal	ra,1114 <mpu_set_gyro_fsr>
    19ce:	e91d                	bnez	a0,1a04 <mpu_init+0x10a>
    19d0:	4509                	li	a0,2
    19d2:	821ff0ef          	jal	ra,11f2 <mpu_set_accel_fsr>
    19d6:	e51d                	bnez	a0,1a04 <mpu_init+0x10a>
    19d8:	02a00513          	li	a0,42
    19dc:	8e9ff0ef          	jal	ra,12c4 <mpu_set_lpf>
    19e0:	e115                	bnez	a0,1a04 <mpu_init+0x10a>
    19e2:	03200513          	li	a0,50
    19e6:	3369                	jal	1770 <mpu_set_sample_rate>
    19e8:	ed11                	bnez	a0,1a04 <mpu_init+0x10a>
    19ea:	3435                	jal	1416 <mpu_configure_fifo>
    19ec:	ed01                	bnez	a0,1a04 <mpu_init+0x10a>
    19ee:	3e91                	jal	1542 <mpu_set_bypass>
    19f0:	842a                	mv	s0,a0
    19f2:	e909                	bnez	a0,1a04 <mpu_init+0x10a>
    19f4:	3525                	jal	181c <mpu_set_sensors>
    19f6:	a801                	j	1a06 <mpu_init+0x10c>
    19f8:	00008537          	lui	a0,0x8
    19fc:	96850513          	addi	a0,a0,-1688 # 7968 <hw+0x3c>
    1a00:	101030ef          	jal	ra,5300 <printf>
    1a04:	547d                	li	s0,-1
    1a06:	8522                	mv	a0,s0
    1a08:	40f2                	lw	ra,28(sp)
    1a0a:	4462                	lw	s0,24(sp)
    1a0c:	44d2                	lw	s1,20(sp)
    1a0e:	6105                	addi	sp,sp,32
    1a10:	8082                	ret
    1a12:	40dc                	lw	a5,4(s1)
    1a14:	4098                	lw	a4,0(s1)
    1a16:	0034                	addi	a3,sp,8
    1a18:	0007c503          	lbu	a0,0(a5)
    1a1c:	00374583          	lbu	a1,3(a4)
    1a20:	4605                	li	a2,1
    1a22:	56c010ef          	jal	ra,2f8e <MPU6050_I2C_Mem_Read>
    1a26:	00814783          	lbu	a5,8(sp)
    1a2a:	8bbd                	andi	a5,a5,15
    1a2c:	eb81                	bnez	a5,1a3c <mpu_init+0x142>
    1a2e:	00008537          	lui	a0,0x8
    1a32:	99050513          	addi	a0,a0,-1648 # 7990 <hw+0x64>
    1a36:	0ef030ef          	jal	ra,5324 <puts>
    1a3a:	b7e9                	j	1a04 <mpu_init+0x10a>
    1a3c:	4711                	li	a4,4
    1a3e:	f4e799e3          	bne	a5,a4,1990 <mpu_init+0x96>
    1a42:	00008537          	lui	a0,0x8
    1a46:	9dc50513          	addi	a0,a0,-1572 # 79dc <hw+0xb0>
    1a4a:	0db030ef          	jal	ra,5324 <puts>
    1a4e:	4785                	li	a5,1
    1a50:	bf15                	j	1984 <mpu_init+0x8a>

00001a52 <mpu_write_mem>:
    1a52:	ea11                	bnez	a2,1a66 <mpu_write_mem+0x14>
    1a54:	557d                	li	a0,-1
    1a56:	8082                	ret
    1a58:	557d                	li	a0,-1
    1a5a:	40f2                	lw	ra,28(sp)
    1a5c:	4462                	lw	s0,24(sp)
    1a5e:	44d2                	lw	s1,20(sp)
    1a60:	4942                	lw	s2,16(sp)
    1a62:	6105                	addi	sp,sp,32
    1a64:	8082                	ret
    1a66:	1101                	addi	sp,sp,-32
    1a68:	cc22                	sw	s0,24(sp)
    1a6a:	20000437          	lui	s0,0x20000
    1a6e:	01c40413          	addi	s0,s0,28 # 2000001c <st>
    1a72:	00a44783          	lbu	a5,10(s0)
    1a76:	ce06                	sw	ra,28(sp)
    1a78:	ca26                	sw	s1,20(sp)
    1a7a:	c84a                	sw	s2,16(sp)
    1a7c:	dff1                	beqz	a5,1a58 <mpu_write_mem+0x6>
    1a7e:	00855713          	srli	a4,a0,0x8
    1a82:	00851793          	slli	a5,a0,0x8
    1a86:	8fd9                	or	a5,a5,a4
    1a88:	00f11623          	sh	a5,12(sp)
    1a8c:	405c                	lw	a5,4(s0)
    1a8e:	0ff57513          	andi	a0,a0,255
    1a92:	952e                	add	a0,a0,a1
    1a94:	00a7d703          	lhu	a4,10(a5)
    1a98:	fca740e3          	blt	a4,a0,1a58 <mpu_write_mem+0x6>
    1a9c:	4018                	lw	a4,0(s0)
    1a9e:	0007c503          	lbu	a0,0(a5)
    1aa2:	84ae                	mv	s1,a1
    1aa4:	01874583          	lbu	a1,24(a4)
    1aa8:	8932                	mv	s2,a2
    1aaa:	0074                	addi	a3,sp,12
    1aac:	4609                	li	a2,2
    1aae:	2d6010ef          	jal	ra,2d84 <MPU6050_I2C_Mem_Write>
    1ab2:	4018                	lw	a4,0(s0)
    1ab4:	405c                	lw	a5,4(s0)
    1ab6:	86ca                	mv	a3,s2
    1ab8:	01574583          	lbu	a1,21(a4)
    1abc:	0007c503          	lbu	a0,0(a5)
    1ac0:	0ff4f613          	andi	a2,s1,255
    1ac4:	2c0010ef          	jal	ra,2d84 <MPU6050_I2C_Mem_Write>
    1ac8:	4501                	li	a0,0
    1aca:	bf41                	j	1a5a <mpu_write_mem+0x8>

00001acc <mpu_read_mem>:
    1acc:	ea11                	bnez	a2,1ae0 <mpu_read_mem+0x14>
    1ace:	557d                	li	a0,-1
    1ad0:	8082                	ret
    1ad2:	557d                	li	a0,-1
    1ad4:	40f2                	lw	ra,28(sp)
    1ad6:	4462                	lw	s0,24(sp)
    1ad8:	44d2                	lw	s1,20(sp)
    1ada:	4942                	lw	s2,16(sp)
    1adc:	6105                	addi	sp,sp,32
    1ade:	8082                	ret
    1ae0:	1101                	addi	sp,sp,-32
    1ae2:	cc22                	sw	s0,24(sp)
    1ae4:	20000437          	lui	s0,0x20000
    1ae8:	01c40413          	addi	s0,s0,28 # 2000001c <st>
    1aec:	00a44783          	lbu	a5,10(s0)
    1af0:	ce06                	sw	ra,28(sp)
    1af2:	ca26                	sw	s1,20(sp)
    1af4:	c84a                	sw	s2,16(sp)
    1af6:	dff1                	beqz	a5,1ad2 <mpu_read_mem+0x6>
    1af8:	00855713          	srli	a4,a0,0x8
    1afc:	00851793          	slli	a5,a0,0x8
    1b00:	8fd9                	or	a5,a5,a4
    1b02:	00f11623          	sh	a5,12(sp)
    1b06:	405c                	lw	a5,4(s0)
    1b08:	0ff57513          	andi	a0,a0,255
    1b0c:	952e                	add	a0,a0,a1
    1b0e:	00a7d703          	lhu	a4,10(a5)
    1b12:	fca740e3          	blt	a4,a0,1ad2 <mpu_read_mem+0x6>
    1b16:	4018                	lw	a4,0(s0)
    1b18:	0007c503          	lbu	a0,0(a5)
    1b1c:	84ae                	mv	s1,a1
    1b1e:	01874583          	lbu	a1,24(a4)
    1b22:	8932                	mv	s2,a2
    1b24:	0074                	addi	a3,sp,12
    1b26:	4609                	li	a2,2
    1b28:	25c010ef          	jal	ra,2d84 <MPU6050_I2C_Mem_Write>
    1b2c:	4018                	lw	a4,0(s0)
    1b2e:	405c                	lw	a5,4(s0)
    1b30:	86ca                	mv	a3,s2
    1b32:	01574583          	lbu	a1,21(a4)
    1b36:	0007c503          	lbu	a0,0(a5)
    1b3a:	0ff4f613          	andi	a2,s1,255
    1b3e:	450010ef          	jal	ra,2f8e <MPU6050_I2C_Mem_Read>
    1b42:	4501                	li	a0,0
    1b44:	bf41                	j	1ad4 <mpu_read_mem+0x8>

00001b46 <mpu_load_firmware>:
    1b46:	715d                	addi	sp,sp,-80
    1b48:	c2a6                	sw	s1,68(sp)
    1b4a:	200004b7          	lui	s1,0x20000
    1b4e:	c686                	sw	ra,76(sp)
    1b50:	c4a2                	sw	s0,72(sp)
    1b52:	c0ca                	sw	s2,64(sp)
    1b54:	de4e                	sw	s3,60(sp)
    1b56:	dc52                	sw	s4,56(sp)
    1b58:	da56                	sw	s5,52(sp)
    1b5a:	d85a                	sw	s6,48(sp)
    1b5c:	d65e                	sw	s7,44(sp)
    1b5e:	d462                	sw	s8,40(sp)
    1b60:	d266                	sw	s9,36(sp)
    1b62:	d06a                	sw	s10,32(sp)
    1b64:	01c48793          	addi	a5,s1,28 # 2000001c <st>
    1b68:	0257c783          	lbu	a5,37(a5)
    1b6c:	c385                	beqz	a5,1b8c <mpu_load_firmware+0x46>
    1b6e:	557d                	li	a0,-1
    1b70:	40b6                	lw	ra,76(sp)
    1b72:	4426                	lw	s0,72(sp)
    1b74:	4496                	lw	s1,68(sp)
    1b76:	4906                	lw	s2,64(sp)
    1b78:	59f2                	lw	s3,60(sp)
    1b7a:	5a62                	lw	s4,56(sp)
    1b7c:	5ad2                	lw	s5,52(sp)
    1b7e:	5b42                	lw	s6,48(sp)
    1b80:	5bb2                	lw	s7,44(sp)
    1b82:	5c22                	lw	s8,40(sp)
    1b84:	5c92                	lw	s9,36(sp)
    1b86:	5d02                	lw	s10,32(sp)
    1b88:	6161                	addi	sp,sp,80
    1b8a:	8082                	ret
    1b8c:	d1ed                	beqz	a1,1b6e <mpu_load_firmware+0x28>
    1b8e:	6bc1                	lui	s7,0x10
    1b90:	01c48493          	addi	s1,s1,28
    1b94:	8b36                	mv	s6,a3
    1b96:	8932                	mv	s2,a2
    1b98:	8a2e                	mv	s4,a1
    1b9a:	89aa                	mv	s3,a0
    1b9c:	4401                	li	s0,0
    1b9e:	4cc1                	li	s9,16
    1ba0:	1bfd                	addi	s7,s7,-1
    1ba2:	03346b63          	bltu	s0,s3,1bd8 <mpu_load_firmware+0x92>
    1ba6:	00891613          	slli	a2,s2,0x8
    1baa:	40dc                	lw	a5,4(s1)
    1bac:	4098                	lw	a4,0(s1)
    1bae:	00895913          	srli	s2,s2,0x8
    1bb2:	01266933          	or	s2,a2,s2
    1bb6:	01211623          	sh	s2,12(sp)
    1bba:	0007c503          	lbu	a0,0(a5)
    1bbe:	01a74583          	lbu	a1,26(a4)
    1bc2:	0074                	addi	a3,sp,12
    1bc4:	4609                	li	a2,2
    1bc6:	1be010ef          	jal	ra,2d84 <MPU6050_I2C_Mem_Write>
    1bca:	4785                	li	a5,1
    1bcc:	02f482a3          	sb	a5,37(s1)
    1bd0:	03649323          	sh	s6,38(s1)
    1bd4:	4501                	li	a0,0
    1bd6:	bf69                	j	1b70 <mpu_load_firmware+0x2a>
    1bd8:	40898ab3          	sub	s5,s3,s0
    1bdc:	015cd363          	bge	s9,s5,1be2 <mpu_load_firmware+0x9c>
    1be0:	4ac1                	li	s5,16
    1be2:	010a9c13          	slli	s8,s5,0x10
    1be6:	010c5c13          	srli	s8,s8,0x10
    1bea:	008a0d33          	add	s10,s4,s0
    1bee:	866a                	mv	a2,s10
    1bf0:	85e2                	mv	a1,s8
    1bf2:	8522                	mv	a0,s0
    1bf4:	3db9                	jal	1a52 <mpu_write_mem>
    1bf6:	fd25                	bnez	a0,1b6e <mpu_load_firmware+0x28>
    1bf8:	0810                	addi	a2,sp,16
    1bfa:	85e2                	mv	a1,s8
    1bfc:	8522                	mv	a0,s0
    1bfe:	35f9                	jal	1acc <mpu_read_mem>
    1c00:	f53d                	bnez	a0,1b6e <mpu_load_firmware+0x28>
    1c02:	017af633          	and	a2,s5,s7
    1c06:	080c                	addi	a1,sp,16
    1c08:	856a                	mv	a0,s10
    1c0a:	3d5050ef          	jal	ra,77de <memcmp>
    1c0e:	e509                	bnez	a0,1c18 <mpu_load_firmware+0xd2>
    1c10:	9462                	add	s0,s0,s8
    1c12:	0442                	slli	s0,s0,0x10
    1c14:	8041                	srli	s0,s0,0x10
    1c16:	b771                	j	1ba2 <mpu_load_firmware+0x5c>
    1c18:	5579                	li	a0,-2
    1c1a:	bf99                	j	1b70 <mpu_load_firmware+0x2a>

00001c1c <mpu_set_dmp_state>:
    1c1c:	1101                	addi	sp,sp,-32
    1c1e:	cc22                	sw	s0,24(sp)
    1c20:	20000437          	lui	s0,0x20000
    1c24:	01c40413          	addi	s0,s0,28 # 2000001c <st>
    1c28:	02444703          	lbu	a4,36(s0)
    1c2c:	ce06                	sw	ra,28(sp)
    1c2e:	04a70463          	beq	a4,a0,1c76 <mpu_set_dmp_state+0x5a>
    1c32:	c539                	beqz	a0,1c80 <mpu_set_dmp_state+0x64>
    1c34:	02544783          	lbu	a5,37(s0)
    1c38:	557d                	li	a0,-1
    1c3a:	cf9d                	beqz	a5,1c78 <mpu_set_dmp_state+0x5c>
    1c3c:	4501                	li	a0,0
    1c3e:	aaeff0ef          	jal	ra,eec <set_int_enable>
    1c42:	4501                	li	a0,0
    1c44:	8ffff0ef          	jal	ra,1542 <mpu_set_bypass>
    1c48:	02645503          	lhu	a0,38(s0)
    1c4c:	3615                	jal	1770 <mpu_set_sample_rate>
    1c4e:	405c                	lw	a5,4(s0)
    1c50:	000107a3          	sb	zero,15(sp)
    1c54:	00f10693          	addi	a3,sp,15
    1c58:	0007c503          	lbu	a0,0(a5)
    1c5c:	4605                	li	a2,1
    1c5e:	02300593          	li	a1,35
    1c62:	122010ef          	jal	ra,2d84 <MPU6050_I2C_Mem_Write>
    1c66:	4785                	li	a5,1
    1c68:	4505                	li	a0,1
    1c6a:	02f40223          	sb	a5,36(s0)
    1c6e:	a7eff0ef          	jal	ra,eec <set_int_enable>
    1c72:	ae4ff0ef          	jal	ra,f56 <mpu_reset_fifo>
    1c76:	4501                	li	a0,0
    1c78:	40f2                	lw	ra,28(sp)
    1c7a:	4462                	lw	s0,24(sp)
    1c7c:	6105                	addi	sp,sp,32
    1c7e:	8082                	ret
    1c80:	a6cff0ef          	jal	ra,eec <set_int_enable>
    1c84:	01044783          	lbu	a5,16(s0)
    1c88:	00f10693          	addi	a3,sp,15
    1c8c:	4605                	li	a2,1
    1c8e:	00f107a3          	sb	a5,15(sp)
    1c92:	405c                	lw	a5,4(s0)
    1c94:	02300593          	li	a1,35
    1c98:	0007c503          	lbu	a0,0(a5)
    1c9c:	0e8010ef          	jal	ra,2d84 <MPU6050_I2C_Mem_Write>
    1ca0:	02040223          	sb	zero,36(s0)
    1ca4:	b7f9                	j	1c72 <mpu_set_dmp_state+0x56>

00001ca6 <mpu_run_self_test>:
    1ca6:	7159                	addi	sp,sp,-112
    1ca8:	d4a2                	sw	s0,104(sp)
    1caa:	20000437          	lui	s0,0x20000
    1cae:	d0ca                	sw	s2,96(sp)
    1cb0:	cad6                	sw	s5,84(sp)
    1cb2:	01c40793          	addi	a5,s0,28 # 2000001c <st>
    1cb6:	d686                	sw	ra,108(sp)
    1cb8:	d2a6                	sw	s1,100(sp)
    1cba:	cece                	sw	s3,92(sp)
    1cbc:	ccd2                	sw	s4,88(sp)
    1cbe:	c8da                	sw	s6,80(sp)
    1cc0:	c6de                	sw	s7,76(sp)
    1cc2:	0247c483          	lbu	s1,36(a5)
    1cc6:	892a                	mv	s2,a0
    1cc8:	8aae                	mv	s5,a1
    1cca:	01c40413          	addi	s0,s0,28
    1cce:	c481                	beqz	s1,1cd6 <mpu_run_self_test+0x30>
    1cd0:	4501                	li	a0,0
    1cd2:	37a9                	jal	1c1c <mpu_set_dmp_state>
    1cd4:	4485                	li	s1,1
    1cd6:	00e10513          	addi	a0,sp,14
    1cda:	bfaff0ef          	jal	ra,10d4 <mpu_get_gyro_fsr>
    1cde:	00d10513          	addi	a0,sp,13
    1ce2:	cc0ff0ef          	jal	ra,11a2 <mpu_get_accel_fsr>
    1ce6:	01210513          	addi	a0,sp,18
    1cea:	d8eff0ef          	jal	ra,1278 <mpu_get_lpf>
    1cee:	0808                	addi	a0,sp,16
    1cf0:	e64ff0ef          	jal	ra,1354 <mpu_get_sample_rate>
    1cf4:	4601                	li	a2,0
    1cf6:	85d6                	mv	a1,s5
    1cf8:	854a                	mv	a0,s2
    1cfa:	00a44a03          	lbu	s4,10(s0)
    1cfe:	01044983          	lbu	s3,16(s0)
    1d02:	de9fe0ef          	jal	ra,aea <get_st_biases>
    1d06:	1a051463          	bnez	a0,1eae <mpu_run_self_test+0x208>
    1d0a:	4605                	li	a2,1
    1d0c:	102c                	addi	a1,sp,40
    1d0e:	0868                	addi	a0,sp,28
    1d10:	ddbfe0ef          	jal	ra,aea <get_st_biases>
    1d14:	20051463          	bnez	a0,1f1c <mpu_run_self_test+0x276>
    1d18:	405c                	lw	a5,4(s0)
    1d1a:	0834                	addi	a3,sp,24
    1d1c:	4611                	li	a2,4
    1d1e:	0007c503          	lbu	a0,0(a5)
    1d22:	45b5                	li	a1,13
    1d24:	26a010ef          	jal	ra,2f8e <MPU6050_I2C_Mem_Read>
    1d28:	01b14683          	lbu	a3,27(sp)
    1d2c:	01814703          	lbu	a4,24(sp)
    1d30:	184c                	addi	a1,sp,52
    1d32:	4046d793          	srai	a5,a3,0x4
    1d36:	870d                	srai	a4,a4,0x3
    1d38:	8b8d                	andi	a5,a5,3
    1d3a:	8b71                	andi	a4,a4,28
    1d3c:	8f5d                	or	a4,a4,a5
    1d3e:	00e10a23          	sb	a4,20(sp)
    1d42:	01914703          	lbu	a4,25(sp)
    1d46:	4026d793          	srai	a5,a3,0x2
    1d4a:	8b8d                	andi	a5,a5,3
    1d4c:	870d                	srai	a4,a4,0x3
    1d4e:	8b71                	andi	a4,a4,28
    1d50:	8f5d                	or	a4,a4,a5
    1d52:	01a14783          	lbu	a5,26(sp)
    1d56:	00e10aa3          	sb	a4,21(sp)
    1d5a:	00008737          	lui	a4,0x8
    1d5e:	878d                	srai	a5,a5,0x3
    1d60:	a0072707          	flw	fa4,-1536(a4) # 7a00 <hw+0xd4>
    1d64:	00008737          	lui	a4,0x8
    1d68:	8a8d                	andi	a3,a3,3
    1d6a:	8bf1                	andi	a5,a5,28
    1d6c:	a0472687          	flw	fa3,-1532(a4) # 7a04 <hw+0xd8>
    1d70:	8fd5                	or	a5,a5,a3
    1d72:	00f10b23          	sb	a5,22(sp)
    1d76:	0854                	addi	a3,sp,20
    1d78:	0090                	addi	a2,sp,64
    1d7a:	87ae                	mv	a5,a1
    1d7c:	8b2e                	mv	s6,a1
    1d7e:	0006c703          	lbu	a4,0(a3)
    1d82:	1a071463          	bnez	a4,1f2a <mpu_run_self_test+0x284>
    1d86:	0007a023          	sw	zero,0(a5)
    1d8a:	0791                	addi	a5,a5,4
    1d8c:	0685                	addi	a3,a3,1
    1d8e:	fef618e3          	bne	a2,a5,1d7e <mpu_run_self_test+0xd8>
    1d92:	000087b7          	lui	a5,0x8
    1d96:	a147a587          	flw	fa1,-1516(a5) # 7a14 <hw+0xe8>
    1d9a:	000087b7          	lui	a5,0x8
    1d9e:	a187a507          	flw	fa0,-1512(a5) # 7a18 <hw+0xec>
    1da2:	000087b7          	lui	a5,0x8
    1da6:	00008bb7          	lui	s7,0x8
    1daa:	a0c7a007          	flw	ft0,-1524(a5) # 7a0c <hw+0xe0>
    1dae:	000087b7          	lui	a5,0x8
    1db2:	a08ba687          	flw	fa3,-1528(s7) # 7a08 <hw+0xdc>
    1db6:	f0000653          	fmv.w.x	fa2,zero
    1dba:	a107a087          	flw	ft1,-1520(a5) # 7a10 <hw+0xe4>
    1dbe:	1038                	addi	a4,sp,40
    1dc0:	4601                	li	a2,0
    1dc2:	4681                	li	a3,0
    1dc4:	4505                	li	a0,1
    1dc6:	480d                	li	a6,3
    1dc8:	00269793          	slli	a5,a3,0x2
    1dcc:	97d6                	add	a5,a5,s5
    1dce:	00072883          	lw	a7,0(a4)
    1dd2:	439c                	lw	a5,0(a5)
    1dd4:	6198                	flw	fa4,0(a1)
    1dd6:	411787b3          	sub	a5,a5,a7
    1dda:	41f7d893          	srai	a7,a5,0x1f
    1dde:	00f8c7b3          	xor	a5,a7,a5
    1de2:	411787b3          	sub	a5,a5,a7
    1de6:	d007f7d3          	fcvt.s.w	fa5,a5
    1dea:	a0c727d3          	feq.s	a5,fa4,fa2
    1dee:	10d7f7d3          	fmul.s	fa5,fa5,fa3
    1df2:	14079963          	bnez	a5,1f44 <mpu_run_self_test+0x29e>
    1df6:	18e7f7d3          	fdiv.s	fa5,fa5,fa4
    1dfa:	0807f7d3          	fsub.s	fa5,fa5,ft0
    1dfe:	20f7a7d3          	fabs.s	fa5,fa5
    1e02:	a0f097d3          	flt.s	a5,ft1,fa5
    1e06:	c781                	beqz	a5,1e0e <mpu_run_self_test+0x168>
    1e08:	00d517b3          	sll	a5,a0,a3
    1e0c:	8e5d                	or	a2,a2,a5
    1e0e:	0685                	addi	a3,a3,1
    1e10:	0711                	addi	a4,a4,4
    1e12:	0591                	addi	a1,a1,4
    1e14:	fb069ae3          	bne	a3,a6,1dc8 <mpu_run_self_test+0x122>
    1e18:	405c                	lw	a5,4(s0)
    1e1a:	86da                	mv	a3,s6
    1e1c:	45b5                	li	a1,13
    1e1e:	0007c503          	lbu	a0,0(a5)
    1e22:	0ff67a93          	andi	s5,a2,255
    1e26:	460d                	li	a2,3
    1e28:	166010ef          	jal	ra,2f8e <MPU6050_I2C_Mem_Read>
    1e2c:	03614783          	lbu	a5,54(sp)
    1e30:	03415703          	lhu	a4,52(sp)
    1e34:	6689                	lui	a3,0x2
    1e36:	8bfd                	andi	a5,a5,31
    1e38:	02f10b23          	sb	a5,54(sp)
    1e3c:	000087b7          	lui	a5,0x8
    1e40:	a247a607          	flw	fa2,-1500(a5) # 7a24 <hw+0xf8>
    1e44:	000087b7          	lui	a5,0x8
    1e48:	a287a587          	flw	fa1,-1496(a5) # 7a28 <hw+0xfc>
    1e4c:	000087b7          	lui	a5,0x8
    1e50:	a1c7a507          	flw	fa0,-1508(a5) # 7a1c <hw+0xf0>
    1e54:	000087b7          	lui	a5,0x8
    1e58:	a0c7a007          	flw	ft0,-1524(a5) # 7a0c <hw+0xe0>
    1e5c:	000087b7          	lui	a5,0x8
    1e60:	f1f68693          	addi	a3,a3,-225 # 1f1f <mpu_run_self_test+0x279>
    1e64:	a08ba687          	flw	fa3,-1528(s7)
    1e68:	a207a087          	flw	ft1,-1504(a5) # 7a20 <hw+0xf4>
    1e6c:	8f75                	and	a4,a4,a3
    1e6e:	02e11a23          	sh	a4,52(sp)
    1e72:	0874                	addi	a3,sp,28
    1e74:	4501                	li	a0,0
    1e76:	4701                	li	a4,0
    1e78:	4585                	li	a1,1
    1e7a:	000088b7          	lui	a7,0x8
    1e7e:	480d                	li	a6,3
    1e80:	00271793          	slli	a5,a4,0x2
    1e84:	97ca                	add	a5,a5,s2
    1e86:	4290                	lw	a2,0(a3)
    1e88:	439c                	lw	a5,0(a5)
    1e8a:	8f91                	sub	a5,a5,a2
    1e8c:	41f7d613          	srai	a2,a5,0x1f
    1e90:	8fb1                	xor	a5,a5,a2
    1e92:	8f91                	sub	a5,a5,a2
    1e94:	d007f7d3          	fcvt.s.w	fa5,a5
    1e98:	00eb07b3          	add	a5,s6,a4
    1e9c:	0007c603          	lbu	a2,0(a5)
    1ea0:	10d7f7d3          	fmul.s	fa5,fa5,fa3
    1ea4:	0e060863          	beqz	a2,1f94 <mpu_run_self_test+0x2ee>
    1ea8:	9fc8a707          	flw	fa4,-1540(a7) # 79fc <hw+0xd0>
    1eac:	a06d                	j	1f56 <mpu_run_self_test+0x2b0>
    1eae:	4601                	li	a2,0
    1eb0:	85d6                	mv	a1,s5
    1eb2:	854a                	mv	a0,s2
    1eb4:	c37fe0ef          	jal	ra,aea <get_st_biases>
    1eb8:	e40509e3          	beqz	a0,1d0a <mpu_run_self_test+0x64>
    1ebc:	4901                	li	s2,0
    1ebe:	57fd                	li	a5,-1
    1ec0:	00e15503          	lhu	a0,14(sp)
    1ec4:	00f41723          	sh	a5,14(s0)
    1ec8:	00f40823          	sb	a5,16(s0)
    1ecc:	57fd                	li	a5,-1
    1ece:	c41c                	sw	a5,8(s0)
    1ed0:	4785                	li	a5,1
    1ed2:	00f40623          	sb	a5,12(s0)
    1ed6:	a3eff0ef          	jal	ra,1114 <mpu_set_gyro_fsr>
    1eda:	00d14503          	lbu	a0,13(sp)
    1ede:	b14ff0ef          	jal	ra,11f2 <mpu_set_accel_fsr>
    1ee2:	01215503          	lhu	a0,18(sp)
    1ee6:	bdeff0ef          	jal	ra,12c4 <mpu_set_lpf>
    1eea:	01015503          	lhu	a0,16(sp)
    1eee:	883ff0ef          	jal	ra,1770 <mpu_set_sample_rate>
    1ef2:	8552                	mv	a0,s4
    1ef4:	929ff0ef          	jal	ra,181c <mpu_set_sensors>
    1ef8:	854e                	mv	a0,s3
    1efa:	d1cff0ef          	jal	ra,1416 <mpu_configure_fifo>
    1efe:	c099                	beqz	s1,1f04 <mpu_run_self_test+0x25e>
    1f00:	4505                	li	a0,1
    1f02:	3b29                	jal	1c1c <mpu_set_dmp_state>
    1f04:	50b6                	lw	ra,108(sp)
    1f06:	5426                	lw	s0,104(sp)
    1f08:	854a                	mv	a0,s2
    1f0a:	5496                	lw	s1,100(sp)
    1f0c:	5906                	lw	s2,96(sp)
    1f0e:	49f6                	lw	s3,92(sp)
    1f10:	4a66                	lw	s4,88(sp)
    1f12:	4ad6                	lw	s5,84(sp)
    1f14:	4b46                	lw	s6,80(sp)
    1f16:	4bb6                	lw	s7,76(sp)
    1f18:	6165                	addi	sp,sp,112
    1f1a:	8082                	ret
    1f1c:	4605                	li	a2,1
    1f1e:	102c                	addi	a1,sp,40
    1f20:	0868                	addi	a0,sp,28
    1f22:	bc9fe0ef          	jal	ra,aea <get_st_biases>
    1f26:	f959                	bnez	a0,1ebc <mpu_run_self_test+0x216>
    1f28:	bbc5                	j	1d18 <mpu_run_self_test+0x72>
    1f2a:	e398                	fsw	fa4,0(a5)
    1f2c:	177d                	addi	a4,a4,-1
    1f2e:	0ff77713          	andi	a4,a4,255
    1f32:	e701                	bnez	a4,1f3a <mpu_run_self_test+0x294>
    1f34:	00068023          	sb	zero,0(a3)
    1f38:	bd89                	j	1d8a <mpu_run_self_test+0xe4>
    1f3a:	639c                	flw	fa5,0(a5)
    1f3c:	10d7f7d3          	fmul.s	fa5,fa5,fa3
    1f40:	e39c                	fsw	fa5,0(a5)
    1f42:	b7ed                	j	1f2c <mpu_run_self_test+0x286>
    1f44:	a0b797d3          	flt.s	a5,fa5,fa1
    1f48:	ec0790e3          	bnez	a5,1e08 <mpu_run_self_test+0x162>
    1f4c:	a0f517d3          	flt.s	a5,fa0,fa5
    1f50:	bd5d                	j	1e06 <mpu_run_self_test+0x160>
    1f52:	10a77753          	fmul.s	fa4,fa4,fa0
    1f56:	167d                	addi	a2,a2,-1
    1f58:	0ff67613          	andi	a2,a2,255
    1f5c:	fa7d                	bnez	a2,1f52 <mpu_run_self_test+0x2ac>
    1f5e:	18e7f7d3          	fdiv.s	fa5,fa5,fa4
    1f62:	00078023          	sb	zero,0(a5)
    1f66:	0807f7d3          	fsub.s	fa5,fa5,ft0
    1f6a:	20f7a7d3          	fabs.s	fa5,fa5
    1f6e:	a0f097d3          	flt.s	a5,ft1,fa5
    1f72:	c781                	beqz	a5,1f7a <mpu_run_self_test+0x2d4>
    1f74:	00e597b3          	sll	a5,a1,a4
    1f78:	8d5d                	or	a0,a0,a5
    1f7a:	0705                	addi	a4,a4,1
    1f7c:	0691                	addi	a3,a3,4
    1f7e:	f10711e3          	bne	a4,a6,1e80 <mpu_run_self_test+0x1da>
    1f82:	0ff57513          	andi	a0,a0,255
    1f86:	00153913          	seqz	s2,a0
    1f8a:	f20a9ae3          	bnez	s5,1ebe <mpu_run_self_test+0x218>
    1f8e:	00296913          	ori	s2,s2,2
    1f92:	b735                	j	1ebe <mpu_run_self_test+0x218>
    1f94:	a0c797d3          	flt.s	a5,fa5,fa2
    1f98:	fff1                	bnez	a5,1f74 <mpu_run_self_test+0x2ce>
    1f9a:	a0f597d3          	flt.s	a5,fa1,fa5
    1f9e:	bfd1                	j	1f72 <mpu_run_self_test+0x2cc>

00001fa0 <mget_ms>:
    1fa0:	8082                	ret

00001fa2 <run_self_test>:
    1fa2:	7179                	addi	sp,sp,-48
    1fa4:	084c                	addi	a1,sp,20
    1fa6:	0028                	addi	a0,sp,8
    1fa8:	d606                	sw	ra,44(sp)
    1faa:	39f5                	jal	1ca6 <mpu_run_self_test>
    1fac:	470d                	li	a4,3
    1fae:	4785                	li	a5,1
    1fb0:	06e51563          	bne	a0,a4,201a <run_self_test+0x78>
    1fb4:	0048                	addi	a0,sp,4
    1fb6:	bbcff0ef          	jal	ra,1372 <mpu_get_gyro_sens>
    1fba:	47a2                	lw	a5,8(sp)
    1fbc:	6692                	flw	fa3,4(sp)
    1fbe:	0028                	addi	a0,sp,8
    1fc0:	d007f753          	fcvt.s.w	fa4,a5
    1fc4:	10d77753          	fmul.s	fa4,fa4,fa3
    1fc8:	c00717d3          	fcvt.w.s	a5,fa4,rtz
    1fcc:	c43e                	sw	a5,8(sp)
    1fce:	47b2                	lw	a5,12(sp)
    1fd0:	d007f753          	fcvt.s.w	fa4,a5
    1fd4:	10d77753          	fmul.s	fa4,fa4,fa3
    1fd8:	c00717d3          	fcvt.w.s	a5,fa4,rtz
    1fdc:	c63e                	sw	a5,12(sp)
    1fde:	47c2                	lw	a5,16(sp)
    1fe0:	d007f7d3          	fcvt.s.w	fa5,a5
    1fe4:	10d7f7d3          	fmul.s	fa5,fa5,fa3
    1fe8:	c00797d3          	fcvt.w.s	a5,fa5,rtz
    1fec:	c83e                	sw	a5,16(sp)
    1fee:	2e75                	jal	23aa <dmp_set_gyro_bias>
    1ff0:	00210513          	addi	a0,sp,2
    1ff4:	bcaff0ef          	jal	ra,13be <mpu_get_accel_sens>
    1ff8:	00215703          	lhu	a4,2(sp)
    1ffc:	47d2                	lw	a5,20(sp)
    1ffe:	0848                	addi	a0,sp,20
    2000:	02e787b3          	mul	a5,a5,a4
    2004:	ca3e                	sw	a5,20(sp)
    2006:	47e2                	lw	a5,24(sp)
    2008:	02e787b3          	mul	a5,a5,a4
    200c:	cc3e                	sw	a5,24(sp)
    200e:	47f2                	lw	a5,28(sp)
    2010:	02e787b3          	mul	a5,a5,a4
    2014:	ce3e                	sw	a5,28(sp)
    2016:	2155                	jal	24ba <dmp_set_accel_bias>
    2018:	4781                	li	a5,0
    201a:	50b2                	lw	ra,44(sp)
    201c:	853e                	mv	a0,a5
    201e:	6145                	addi	sp,sp,48
    2020:	8082                	ret

00002022 <inv_row_2_scale>:
    2022:	00050703          	lb	a4,0(a0)
    2026:	4781                	li	a5,0
    2028:	02e04363          	bgtz	a4,204e <inv_row_2_scale+0x2c>
    202c:	4791                	li	a5,4
    202e:	e305                	bnez	a4,204e <inv_row_2_scale+0x2c>
    2030:	00150703          	lb	a4,1(a0)
    2034:	4785                	li	a5,1
    2036:	00e04c63          	bgtz	a4,204e <inv_row_2_scale+0x2c>
    203a:	4795                	li	a5,5
    203c:	eb09                	bnez	a4,204e <inv_row_2_scale+0x2c>
    203e:	00250703          	lb	a4,2(a0)
    2042:	4789                	li	a5,2
    2044:	00e04563          	bgtz	a4,204e <inv_row_2_scale+0x2c>
    2048:	00173793          	seqz	a5,a4
    204c:	0799                	addi	a5,a5,6
    204e:	853e                	mv	a0,a5
    2050:	8082                	ret

00002052 <inv_orientation_matrix_to_scalar>:
    2052:	1141                	addi	sp,sp,-16
    2054:	c606                	sw	ra,12(sp)
    2056:	c422                	sw	s0,8(sp)
    2058:	c226                	sw	s1,4(sp)
    205a:	c04a                	sw	s2,0(sp)
    205c:	84aa                	mv	s1,a0
    205e:	37d1                	jal	2022 <inv_row_2_scale>
    2060:	892a                	mv	s2,a0
    2062:	00348513          	addi	a0,s1,3
    2066:	3f75                	jal	2022 <inv_row_2_scale>
    2068:	842a                	mv	s0,a0
    206a:	00648513          	addi	a0,s1,6
    206e:	3f55                	jal	2022 <inv_row_2_scale>
    2070:	00341793          	slli	a5,s0,0x3
    2074:	051a                	slli	a0,a0,0x6
    2076:	40b2                	lw	ra,12(sp)
    2078:	4422                	lw	s0,8(sp)
    207a:	8d5d                	or	a0,a0,a5
    207c:	01256533          	or	a0,a0,s2
    2080:	0542                	slli	a0,a0,0x10
    2082:	4492                	lw	s1,4(sp)
    2084:	4902                	lw	s2,0(sp)
    2086:	8141                	srli	a0,a0,0x10
    2088:	0141                	addi	sp,sp,16
    208a:	8082                	ret

0000208c <mpu_dmp_init>:
    208c:	1141                	addi	sp,sp,-16
    208e:	c422                	sw	s0,8(sp)
    2090:	c606                	sw	ra,12(sp)
    2092:	869ff0ef          	jal	ra,18fa <mpu_init>
    2096:	4429                	li	s0,10
    2098:	e549                	bnez	a0,2122 <mpu_dmp_init+0x96>
    209a:	07800513          	li	a0,120
    209e:	f7eff0ef          	jal	ra,181c <mpu_set_sensors>
    20a2:	0ff57513          	andi	a0,a0,255
    20a6:	4405                	li	s0,1
    20a8:	ed2d                	bnez	a0,2122 <mpu_dmp_init+0x96>
    20aa:	07800513          	li	a0,120
    20ae:	b68ff0ef          	jal	ra,1416 <mpu_configure_fifo>
    20b2:	0ff57513          	andi	a0,a0,255
    20b6:	4409                	li	s0,2
    20b8:	e52d                	bnez	a0,2122 <mpu_dmp_init+0x96>
    20ba:	03200513          	li	a0,50
    20be:	eb2ff0ef          	jal	ra,1770 <mpu_set_sample_rate>
    20c2:	0ff57513          	andi	a0,a0,255
    20c6:	440d                	li	s0,3
    20c8:	ed29                	bnez	a0,2122 <mpu_dmp_init+0x96>
    20ca:	2255                	jal	226e <dmp_load_motion_driver_firmware>
    20cc:	0ff57513          	andi	a0,a0,255
    20d0:	4411                	li	s0,4
    20d2:	e921                	bnez	a0,2122 <mpu_dmp_init+0x96>
    20d4:	20000537          	lui	a0,0x20000
    20d8:	01050513          	addi	a0,a0,16 # 20000010 <gyro_orientation>
    20dc:	3f9d                	jal	2052 <inv_orientation_matrix_to_scalar>
    20de:	2265                	jal	2286 <dmp_set_orientation>
    20e0:	0ff57513          	andi	a0,a0,255
    20e4:	4415                	li	s0,5
    20e6:	ed15                	bnez	a0,2122 <mpu_dmp_init+0x96>
    20e8:	17300513          	li	a0,371
    20ec:	09b000ef          	jal	ra,2986 <dmp_enable_feature>
    20f0:	0ff57513          	andi	a0,a0,255
    20f4:	4419                	li	s0,6
    20f6:	e515                	bnez	a0,2122 <mpu_dmp_init+0x96>
    20f8:	03200513          	li	a0,50
    20fc:	29c1                	jal	25cc <dmp_set_fifo_rate>
    20fe:	0ff57513          	andi	a0,a0,255
    2102:	441d                	li	s0,7
    2104:	ed19                	bnez	a0,2122 <mpu_dmp_init+0x96>
    2106:	3d71                	jal	1fa2 <run_self_test>
    2108:	4421                	li	s0,8
    210a:	ed01                	bnez	a0,2122 <mpu_dmp_init+0x96>
    210c:	4505                	li	a0,1
    210e:	3639                	jal	1c1c <mpu_set_dmp_state>
    2110:	0ff57413          	andi	s0,a0,255
    2114:	ec01                	bnez	s0,212c <mpu_dmp_init+0xa0>
    2116:	00008537          	lui	a0,0x8
    211a:	94450513          	addi	a0,a0,-1724 # 7944 <hw+0x18>
    211e:	206030ef          	jal	ra,5324 <puts>
    2122:	8522                	mv	a0,s0
    2124:	40b2                	lw	ra,12(sp)
    2126:	4422                	lw	s0,8(sp)
    2128:	0141                	addi	sp,sp,16
    212a:	8082                	ret
    212c:	4425                	li	s0,9
    212e:	bfd5                	j	2122 <mpu_dmp_init+0x96>

00002130 <mpu_dmp_get_data>:
    2130:	711d                	addi	sp,sp,-96
    2132:	cca2                	sw	s0,88(sp)
    2134:	caa6                	sw	s1,84(sp)
    2136:	c8ca                	sw	s2,80(sp)
    2138:	84ae                	mv	s1,a1
    213a:	892a                	mv	s2,a0
    213c:	8432                	mv	s0,a2
    213e:	00910793          	addi	a5,sp,9
    2142:	00a10713          	addi	a4,sp,10
    2146:	0074                	addi	a3,sp,12
    2148:	1010                	addi	a2,sp,32
    214a:	082c                	addi	a1,sp,24
    214c:	0808                	addi	a0,sp,16
    214e:	ce86                	sw	ra,92(sp)
    2150:	e6a2                	fsw	fs0,76(sp)
    2152:	e4a6                	fsw	fs1,72(sp)
    2154:	e2ca                	fsw	fs2,68(sp)
    2156:	e0ce                	fsw	fs3,64(sp)
    2158:	fe52                	fsw	fs4,60(sp)
    215a:	fc56                	fsw	fs5,56(sp)
    215c:	fa5a                	fsw	fs6,52(sp)
    215e:	225000ef          	jal	ra,2b82 <dmp_read_fifo>
    2162:	e979                	bnez	a0,2238 <mpu_dmp_get_data+0x108>
    2164:	00a15783          	lhu	a5,10(sp)
    2168:	4509                	li	a0,2
    216a:	1007f793          	andi	a5,a5,256
    216e:	cbc5                	beqz	a5,221e <mpu_dmp_get_data+0xee>
    2170:	5782                	lw	a5,32(sp)
    2172:	d007f4d3          	fcvt.s.w	fs1,a5
    2176:	000087b7          	lui	a5,0x8
    217a:	9387a787          	flw	fa5,-1736(a5) # 7938 <hw+0xc>
    217e:	5792                	lw	a5,36(sp)
    2180:	10f4f4d3          	fmul.s	fs1,fs1,fa5
    2184:	d007f453          	fcvt.s.w	fs0,a5
    2188:	57a2                	lw	a5,40(sp)
    218a:	10f47453          	fmul.s	fs0,fs0,fa5
    218e:	d007f953          	fcvt.s.w	fs2,a5
    2192:	57b2                	lw	a5,44(sp)
    2194:	0094fb53          	fadd.s	fs6,fs1,fs1
    2198:	10f97953          	fmul.s	fs2,fs2,fa5
    219c:	d007f9d3          	fcvt.s.w	fs3,a5
    21a0:	000087b7          	lui	a5,0x8
    21a4:	93c7aa07          	flw	fs4,-1732(a5) # 793c <hw+0x10>
    21a8:	10f9f9d3          	fmul.s	fs3,fs3,fa5
    21ac:	112b7553          	fmul.s	fa0,fs6,fs2
    21b0:	11447a53          	fmul.s	fs4,fs0,fs4
    21b4:	513a7543          	fmadd.s	fa0,fs4,fs3,fa0
    21b8:	1ea020ef          	jal	ra,43a2 <asinf>
    21bc:	000087b7          	lui	a5,0x8
    21c0:	9407aa87          	flw	fs5,-1728(a5) # 7940 <hw+0x14>
    21c4:	108b7b53          	fmul.s	fs6,fs6,fs0
    21c8:	000087b7          	lui	a5,0x8
    21cc:	11557553          	fmul.s	fa0,fa0,fs5
    21d0:	00a92027          	fsw	fa0,0(s2)
    21d4:	01297553          	fadd.s	fa0,fs2,fs2
    21d8:	112575d3          	fmul.s	fa1,fa0,fs2
    21dc:	b1357543          	fmadd.s	fa0,fa0,fs3,fs6
    21e0:	588a7a47          	fmsub.s	fs4,fs4,fs0,fa1
    21e4:	a0c7a587          	flw	fa1,-1524(a5) # 7a0c <hw+0xe0>
    21e8:	00ba75d3          	fadd.s	fa1,fs4,fa1
    21ec:	274020ef          	jal	ra,4460 <atan2f>
    21f0:	11557553          	fmul.s	fa0,fa0,fs5
    21f4:	108475d3          	fmul.s	fa1,fs0,fs0
    21f8:	e088                	fsw	fa0,0(s1)
    21fa:	5894f5c3          	fmadd.s	fa1,fs1,fs1,fa1
    21fe:	1134f553          	fmul.s	fa0,fs1,fs3
    2202:	592975cb          	fnmsub.s	fa1,fs2,fs2,fa1
    2206:	51247543          	fmadd.s	fa0,fs0,fs2,fa0
    220a:	5939f5cb          	fnmsub.s	fa1,fs3,fs3,fa1
    220e:	00a57553          	fadd.s	fa0,fa0,fa0
    2212:	24e020ef          	jal	ra,4460 <atan2f>
    2216:	11557553          	fmul.s	fa0,fa0,fs5
    221a:	4501                	li	a0,0
    221c:	e008                	fsw	fa0,0(s0)
    221e:	40f6                	lw	ra,92(sp)
    2220:	4466                	lw	s0,88(sp)
    2222:	44d6                	lw	s1,84(sp)
    2224:	4946                	lw	s2,80(sp)
    2226:	6436                	flw	fs0,76(sp)
    2228:	64a6                	flw	fs1,72(sp)
    222a:	6916                	flw	fs2,68(sp)
    222c:	6986                	flw	fs3,64(sp)
    222e:	7a72                	flw	fs4,60(sp)
    2230:	7ae2                	flw	fs5,56(sp)
    2232:	7b52                	flw	fs6,52(sp)
    2234:	6125                	addi	sp,sp,96
    2236:	8082                	ret
    2238:	4505                	li	a0,1
    223a:	b7d5                	j	221e <mpu_dmp_get_data+0xee>

0000223c <dmp_enable_gyro_cal.part.0>:
    223c:	8db3b7b7          	lui	a5,0x8db3b
    2240:	1101                	addi	sp,sp,-32
    2242:	ab878793          	addi	a5,a5,-1352 # 8db3aab8 <_eusrstack+0x6db32ab8>
    2246:	c23e                	sw	a5,4(sp)
    2248:	350da7b7          	lui	a5,0x350da
    224c:	8b478793          	addi	a5,a5,-1868 # 350d98b4 <_eusrstack+0x150d18b4>
    2250:	c43e                	sw	a5,8(sp)
    2252:	0050                	addi	a2,sp,4
    2254:	05d00793          	li	a5,93
    2258:	45a5                	li	a1,9
    225a:	4b800513          	li	a0,1208
    225e:	ce06                	sw	ra,28(sp)
    2260:	00f10623          	sb	a5,12(sp)
    2264:	feeff0ef          	jal	ra,1a52 <mpu_write_mem>
    2268:	40f2                	lw	ra,28(sp)
    226a:	6105                	addi	sp,sp,32
    226c:	8082                	ret

0000226e <dmp_load_motion_driver_firmware>:
    226e:	65a1                	lui	a1,0x8
    2270:	6505                	lui	a0,0x1
    2272:	0c800693          	li	a3,200
    2276:	40000613          	li	a2,1024
    227a:	a7058593          	addi	a1,a1,-1424 # 7a70 <dmp_memory>
    227e:	bf650513          	addi	a0,a0,-1034 # bf6 <get_st_biases+0x10c>
    2282:	8c5ff06f          	j	1b46 <mpu_load_firmware>

00002286 <dmp_set_orientation>:
    2286:	77f5                	lui	a5,0xffffd
    2288:	1101                	addi	sp,sp,-32
    228a:	d4c78713          	addi	a4,a5,-692 # ffffcd4c <_eusrstack+0xdfff4d4c>
    228e:	90c78793          	addi	a5,a5,-1780
    2292:	00f11623          	sh	a5,12(sp)
    2296:	02c00793          	li	a5,44
    229a:	00e11423          	sh	a4,8(sp)
    229e:	00f10723          	sb	a5,14(sp)
    22a2:	06c00713          	li	a4,108
    22a6:	00357693          	andi	a3,a0,3
    22aa:	081c                	addi	a5,sp,16
    22ac:	cc22                	sw	s0,24(sp)
    22ae:	ce06                	sw	ra,28(sp)
    22b0:	00e10523          	sb	a4,10(sp)
    22b4:	96be                	add	a3,a3,a5
    22b6:	ff86c783          	lbu	a5,-8(a3)
    22ba:	00355713          	srli	a4,a0,0x3
    22be:	8b0d                	andi	a4,a4,3
    22c0:	00f10023          	sb	a5,0(sp)
    22c4:	081c                	addi	a5,sp,16
    22c6:	973e                	add	a4,a4,a5
    22c8:	ff874783          	lbu	a5,-8(a4)
    22cc:	0810                	addi	a2,sp,16
    22ce:	ffc6c683          	lbu	a3,-4(a3)
    22d2:	00f100a3          	sb	a5,1(sp)
    22d6:	00655793          	srli	a5,a0,0x6
    22da:	8b8d                	andi	a5,a5,3
    22dc:	97b2                	add	a5,a5,a2
    22de:	ff87c603          	lbu	a2,-8(a5)
    22e2:	ffc74703          	lbu	a4,-4(a4)
    22e6:	ffc7c783          	lbu	a5,-4(a5)
    22ea:	842a                	mv	s0,a0
    22ec:	00c10123          	sb	a2,2(sp)
    22f0:	458d                	li	a1,3
    22f2:	860a                	mv	a2,sp
    22f4:	42600513          	li	a0,1062
    22f8:	00d10223          	sb	a3,4(sp)
    22fc:	00e102a3          	sb	a4,5(sp)
    2300:	00f10323          	sb	a5,6(sp)
    2304:	f4eff0ef          	jal	ra,1a52 <mpu_write_mem>
    2308:	c511                	beqz	a0,2314 <dmp_set_orientation+0x8e>
    230a:	557d                	li	a0,-1
    230c:	40f2                	lw	ra,28(sp)
    230e:	4462                	lw	s0,24(sp)
    2310:	6105                	addi	sp,sp,32
    2312:	8082                	ret
    2314:	0050                	addi	a2,sp,4
    2316:	458d                	li	a1,3
    2318:	42a00513          	li	a0,1066
    231c:	f36ff0ef          	jal	ra,1a52 <mpu_write_mem>
    2320:	f56d                	bnez	a0,230a <dmp_set_orientation+0x84>
    2322:	6795                	lui	a5,0x5
    2324:	63678793          	addi	a5,a5,1590 # 5636 <__divdi3+0x2be>
    2328:	00f11023          	sh	a5,0(sp)
    232c:	07600793          	li	a5,118
    2330:	00f10123          	sb	a5,2(sp)
    2334:	6791                	lui	a5,0x4
    2336:	62678793          	addi	a5,a5,1574 # 4626 <__ieee754_asinf+0x1c4>
    233a:	00f11223          	sh	a5,4(sp)
    233e:	06600793          	li	a5,102
    2342:	00f10323          	sb	a5,6(sp)
    2346:	00447793          	andi	a5,s0,4
    234a:	cb89                	beqz	a5,235c <dmp_set_orientation+0xd6>
    234c:	03700793          	li	a5,55
    2350:	00f10023          	sb	a5,0(sp)
    2354:	02700793          	li	a5,39
    2358:	00f10223          	sb	a5,4(sp)
    235c:	02047793          	andi	a5,s0,32
    2360:	cb89                	beqz	a5,2372 <dmp_set_orientation+0xec>
    2362:	05700793          	li	a5,87
    2366:	00f100a3          	sb	a5,1(sp)
    236a:	04700793          	li	a5,71
    236e:	00f102a3          	sb	a5,5(sp)
    2372:	10047793          	andi	a5,s0,256
    2376:	cb89                	beqz	a5,2388 <dmp_set_orientation+0x102>
    2378:	07700793          	li	a5,119
    237c:	00f10123          	sb	a5,2(sp)
    2380:	06700793          	li	a5,103
    2384:	00f10323          	sb	a5,6(sp)
    2388:	860a                	mv	a2,sp
    238a:	458d                	li	a1,3
    238c:	44000513          	li	a0,1088
    2390:	ec2ff0ef          	jal	ra,1a52 <mpu_write_mem>
    2394:	f93d                	bnez	a0,230a <dmp_set_orientation+0x84>
    2396:	0050                	addi	a2,sp,4
    2398:	458d                	li	a1,3
    239a:	43100513          	li	a0,1073
    239e:	eb4ff0ef          	jal	ra,1a52 <mpu_write_mem>
    23a2:	f525                	bnez	a0,230a <dmp_set_orientation+0x84>
    23a4:	82819023          	sh	s0,-2016(gp) # 200000c8 <dmp+0x8>
    23a8:	b795                	j	230c <dmp_set_orientation+0x86>

000023aa <dmp_set_gyro_bias>:
    23aa:	8201d783          	lhu	a5,-2016(gp) # 200000c8 <dmp+0x8>
    23ae:	1101                	addi	sp,sp,-32
    23b0:	ce06                	sw	ra,28(sp)
    23b2:	0037f713          	andi	a4,a5,3
    23b6:	070a                	slli	a4,a4,0x2
    23b8:	972a                	add	a4,a4,a0
    23ba:	430c                	lw	a1,0(a4)
    23bc:	cc22                	sw	s0,24(sp)
    23be:	ca26                	sw	s1,20(sp)
    23c0:	0047f713          	andi	a4,a5,4
    23c4:	c319                	beqz	a4,23ca <dmp_set_gyro_bias+0x20>
    23c6:	40b005b3          	neg	a1,a1
    23ca:	0017d713          	srli	a4,a5,0x1
    23ce:	8b31                	andi	a4,a4,12
    23d0:	972a                	add	a4,a4,a0
    23d2:	4310                	lw	a2,0(a4)
    23d4:	0207f713          	andi	a4,a5,32
    23d8:	c319                	beqz	a4,23de <dmp_set_gyro_bias+0x34>
    23da:	40c00633          	neg	a2,a2
    23de:	0047d713          	srli	a4,a5,0x4
    23e2:	8b31                	andi	a4,a4,12
    23e4:	953a                	add	a0,a0,a4
    23e6:	1007f793          	andi	a5,a5,256
    23ea:	4118                	lw	a4,0(a0)
    23ec:	c399                	beqz	a5,23f2 <dmp_set_gyro_bias+0x48>
    23ee:	40e00733          	neg	a4,a4
    23f2:	02cae6b7          	lui	a3,0x2cae
    23f6:	30968693          	addi	a3,a3,777 # 2cae309 <_data_lma+0x2ca59ad>
    23fa:	02d587b3          	mul	a5,a1,a3
    23fe:	3d000513          	li	a0,976
    2402:	02d595b3          	mulh	a1,a1,a3
    2406:	83f9                	srli	a5,a5,0x1e
    2408:	02d70433          	mul	s0,a4,a3
    240c:	058a                	slli	a1,a1,0x2
    240e:	8fcd                	or	a5,a5,a1
    2410:	4591                	li	a1,4
    2412:	02d71733          	mulh	a4,a4,a3
    2416:	8079                	srli	s0,s0,0x1e
    2418:	02d604b3          	mul	s1,a2,a3
    241c:	070a                	slli	a4,a4,0x2
    241e:	8c59                	or	s0,s0,a4
    2420:	4187d713          	srai	a4,a5,0x18
    2424:	00e10623          	sb	a4,12(sp)
    2428:	4107d713          	srai	a4,a5,0x10
    242c:	00e106a3          	sb	a4,13(sp)
    2430:	00879713          	slli	a4,a5,0x8
    2434:	07c2                	slli	a5,a5,0x10
    2436:	83c1                	srli	a5,a5,0x10
    2438:	02d61633          	mulh	a2,a2,a3
    243c:	80f9                	srli	s1,s1,0x1e
    243e:	83a1                	srli	a5,a5,0x8
    2440:	8fd9                	or	a5,a5,a4
    2442:	00f11723          	sh	a5,14(sp)
    2446:	060a                	slli	a2,a2,0x2
    2448:	8cd1                	or	s1,s1,a2
    244a:	0070                	addi	a2,sp,12
    244c:	e06ff0ef          	jal	ra,1a52 <mpu_write_mem>
    2450:	c519                	beqz	a0,245e <dmp_set_gyro_bias+0xb4>
    2452:	557d                	li	a0,-1
    2454:	40f2                	lw	ra,28(sp)
    2456:	4462                	lw	s0,24(sp)
    2458:	44d2                	lw	s1,20(sp)
    245a:	6105                	addi	sp,sp,32
    245c:	8082                	ret
    245e:	4184d793          	srai	a5,s1,0x18
    2462:	00f10623          	sb	a5,12(sp)
    2466:	4104d793          	srai	a5,s1,0x10
    246a:	00f106a3          	sb	a5,13(sp)
    246e:	00849793          	slli	a5,s1,0x8
    2472:	04c2                	slli	s1,s1,0x10
    2474:	80c1                	srli	s1,s1,0x10
    2476:	80a1                	srli	s1,s1,0x8
    2478:	8cdd                	or	s1,s1,a5
    247a:	0070                	addi	a2,sp,12
    247c:	4591                	li	a1,4
    247e:	3d400513          	li	a0,980
    2482:	00911723          	sh	s1,14(sp)
    2486:	dccff0ef          	jal	ra,1a52 <mpu_write_mem>
    248a:	f561                	bnez	a0,2452 <dmp_set_gyro_bias+0xa8>
    248c:	41845793          	srai	a5,s0,0x18
    2490:	00f10623          	sb	a5,12(sp)
    2494:	41045793          	srai	a5,s0,0x10
    2498:	00f106a3          	sb	a5,13(sp)
    249c:	00841793          	slli	a5,s0,0x8
    24a0:	0442                	slli	s0,s0,0x10
    24a2:	8041                	srli	s0,s0,0x10
    24a4:	8021                	srli	s0,s0,0x8
    24a6:	8c5d                	or	s0,s0,a5
    24a8:	0070                	addi	a2,sp,12
    24aa:	4591                	li	a1,4
    24ac:	3d800513          	li	a0,984
    24b0:	00811723          	sh	s0,14(sp)
    24b4:	d9eff0ef          	jal	ra,1a52 <mpu_write_mem>
    24b8:	bf71                	j	2454 <dmp_set_gyro_bias+0xaa>

000024ba <dmp_set_accel_bias>:
    24ba:	1101                	addi	sp,sp,-32
    24bc:	cc22                	sw	s0,24(sp)
    24be:	842a                	mv	s0,a0
    24c0:	00210513          	addi	a0,sp,2
    24c4:	ce06                	sw	ra,28(sp)
    24c6:	ef9fe0ef          	jal	ra,13be <mpu_get_accel_sens>
    24ca:	8201d783          	lhu	a5,-2016(gp) # 200000c8 <dmp+0x8>
    24ce:	00215603          	lhu	a2,2(sp)
    24d2:	0037f713          	andi	a4,a5,3
    24d6:	070a                	slli	a4,a4,0x2
    24d8:	9722                	add	a4,a4,s0
    24da:	0047f693          	andi	a3,a5,4
    24de:	063e                	slli	a2,a2,0xf
    24e0:	4318                	lw	a4,0(a4)
    24e2:	c299                	beqz	a3,24e8 <dmp_set_accel_bias+0x2e>
    24e4:	40e00733          	neg	a4,a4
    24e8:	0017d693          	srli	a3,a5,0x1
    24ec:	8ab1                	andi	a3,a3,12
    24ee:	96a2                	add	a3,a3,s0
    24f0:	428c                	lw	a1,0(a3)
    24f2:	0207f693          	andi	a3,a5,32
    24f6:	c299                	beqz	a3,24fc <dmp_set_accel_bias+0x42>
    24f8:	40b005b3          	neg	a1,a1
    24fc:	0047d693          	srli	a3,a5,0x4
    2500:	8ab1                	andi	a3,a3,12
    2502:	9436                	add	s0,s0,a3
    2504:	1007f793          	andi	a5,a5,256
    2508:	4008                	lw	a0,0(s0)
    250a:	c399                	beqz	a5,2510 <dmp_set_accel_bias+0x56>
    250c:	40a00533          	neg	a0,a0
    2510:	41f75793          	srai	a5,a4,0x1f
    2514:	02c706b3          	mul	a3,a4,a2
    2518:	02c787b3          	mul	a5,a5,a2
    251c:	82f9                	srli	a3,a3,0x1e
    251e:	02c73733          	mulhu	a4,a4,a2
    2522:	97ba                	add	a5,a5,a4
    2524:	078a                	slli	a5,a5,0x2
    2526:	8edd                	or	a3,a3,a5
    2528:	41f5d793          	srai	a5,a1,0x1f
    252c:	02c58733          	mul	a4,a1,a2
    2530:	02c787b3          	mul	a5,a5,a2
    2534:	8379                	srli	a4,a4,0x1e
    2536:	02c5b5b3          	mulhu	a1,a1,a2
    253a:	97ae                	add	a5,a5,a1
    253c:	078a                	slli	a5,a5,0x2
    253e:	41f55593          	srai	a1,a0,0x1f
    2542:	8f5d                	or	a4,a4,a5
    2544:	02c585b3          	mul	a1,a1,a2
    2548:	02c507b3          	mul	a5,a0,a2
    254c:	02c53633          	mulhu	a2,a0,a2
    2550:	83f9                	srli	a5,a5,0x1e
    2552:	29400513          	li	a0,660
    2556:	962e                	add	a2,a2,a1
    2558:	060a                	slli	a2,a2,0x2
    255a:	8fd1                	or	a5,a5,a2
    255c:	4186d613          	srai	a2,a3,0x18
    2560:	00c10223          	sb	a2,4(sp)
    2564:	4106d613          	srai	a2,a3,0x10
    2568:	00c102a3          	sb	a2,5(sp)
    256c:	00869613          	slli	a2,a3,0x8
    2570:	06c2                	slli	a3,a3,0x10
    2572:	82c1                	srli	a3,a3,0x10
    2574:	82a1                	srli	a3,a3,0x8
    2576:	8ed1                	or	a3,a3,a2
    2578:	00d11323          	sh	a3,6(sp)
    257c:	41875693          	srai	a3,a4,0x18
    2580:	00d10423          	sb	a3,8(sp)
    2584:	41075693          	srai	a3,a4,0x10
    2588:	00d104a3          	sb	a3,9(sp)
    258c:	00871693          	slli	a3,a4,0x8
    2590:	0742                	slli	a4,a4,0x10
    2592:	8341                	srli	a4,a4,0x10
    2594:	8321                	srli	a4,a4,0x8
    2596:	8f55                	or	a4,a4,a3
    2598:	00e11523          	sh	a4,10(sp)
    259c:	4187d713          	srai	a4,a5,0x18
    25a0:	00e10623          	sb	a4,12(sp)
    25a4:	4107d713          	srai	a4,a5,0x10
    25a8:	00e106a3          	sb	a4,13(sp)
    25ac:	00879713          	slli	a4,a5,0x8
    25b0:	07c2                	slli	a5,a5,0x10
    25b2:	83c1                	srli	a5,a5,0x10
    25b4:	83a1                	srli	a5,a5,0x8
    25b6:	8fd9                	or	a5,a5,a4
    25b8:	0050                	addi	a2,sp,4
    25ba:	45b1                	li	a1,12
    25bc:	00f11723          	sh	a5,14(sp)
    25c0:	c92ff0ef          	jal	ra,1a52 <mpu_write_mem>
    25c4:	40f2                	lw	ra,28(sp)
    25c6:	4462                	lw	s0,24(sp)
    25c8:	6105                	addi	sp,sp,32
    25ca:	8082                	ret

000025cc <dmp_set_fifo_rate>:
    25cc:	7179                	addi	sp,sp,-48
    25ce:	65a1                	lui	a1,0x8
    25d0:	d422                	sw	s0,40(sp)
    25d2:	4631                	li	a2,12
    25d4:	842a                	mv	s0,a0
    25d6:	8bc58593          	addi	a1,a1,-1860 # 78bc <memcpy+0xb8>
    25da:	0848                	addi	a0,sp,20
    25dc:	d606                	sw	ra,44(sp)
    25de:	226050ef          	jal	ra,7804 <memcpy>
    25e2:	0c800793          	li	a5,200
    25e6:	0087f763          	bgeu	a5,s0,25f4 <dmp_set_fifo_rate+0x28>
    25ea:	557d                	li	a0,-1
    25ec:	50b2                	lw	ra,44(sp)
    25ee:	5422                	lw	s0,40(sp)
    25f0:	6145                	addi	sp,sp,48
    25f2:	8082                	ret
    25f4:	0287c7b3          	div	a5,a5,s0
    25f8:	0070                	addi	a2,sp,12
    25fa:	4589                	li	a1,2
    25fc:	21600513          	li	a0,534
    2600:	00010623          	sb	zero,12(sp)
    2604:	17fd                	addi	a5,a5,-1
    2606:	00f106a3          	sb	a5,13(sp)
    260a:	c48ff0ef          	jal	ra,1a52 <mpu_write_mem>
    260e:	fd71                	bnez	a0,25ea <dmp_set_fifo_rate+0x1e>
    2610:	6505                	lui	a0,0x1
    2612:	0850                	addi	a2,sp,20
    2614:	45b1                	li	a1,12
    2616:	ac150513          	addi	a0,a0,-1343 # ac1 <USART_Cmd+0x9>
    261a:	c38ff0ef          	jal	ra,1a52 <mpu_write_mem>
    261e:	f571                	bnez	a0,25ea <dmp_set_fifo_rate+0x1e>
    2620:	82819223          	sh	s0,-2012(gp) # 200000cc <dmp+0xc>
    2624:	b7e1                	j	25ec <dmp_set_fifo_rate+0x20>

00002626 <dmp_set_tap_thresh>:
    2626:	00757793          	andi	a5,a0,7
    262a:	e399                	bnez	a5,2630 <dmp_set_tap_thresh+0xa>
    262c:	557d                	li	a0,-1
    262e:	8082                	ret
    2630:	64000793          	li	a5,1600
    2634:	feb7ece3          	bltu	a5,a1,262c <dmp_set_tap_thresh+0x6>
    2638:	7179                	addi	sp,sp,-48
    263a:	000087b7          	lui	a5,0x8
    263e:	6687a787          	flw	fa5,1640(a5) # 8668 <dmp_memory+0xbf8>
    2642:	ee22                	fsw	fs0,28(sp)
    2644:	d015f453          	fcvt.s.wu	fs0,a1
    2648:	d422                	sw	s0,40(sp)
    264a:	842a                	mv	s0,a0
    264c:	00b10513          	addi	a0,sp,11
    2650:	d606                	sw	ra,44(sp)
    2652:	18f47453          	fdiv.s	fs0,fs0,fa5
    2656:	b4dfe0ef          	jal	ra,11a2 <mpu_get_accel_fsr>
    265a:	00b14783          	lbu	a5,11(sp)
    265e:	4711                	li	a4,4
    2660:	0ce78d63          	beq	a5,a4,273a <dmp_set_tap_thresh+0x114>
    2664:	00f76b63          	bltu	a4,a5,267a <dmp_set_tap_thresh+0x54>
    2668:	4709                	li	a4,2
    266a:	02e78d63          	beq	a5,a4,26a4 <dmp_set_tap_thresh+0x7e>
    266e:	557d                	li	a0,-1
    2670:	50b2                	lw	ra,44(sp)
    2672:	5422                	lw	s0,40(sp)
    2674:	6472                	flw	fs0,28(sp)
    2676:	6145                	addi	sp,sp,48
    2678:	8082                	ret
    267a:	4721                	li	a4,8
    267c:	0ce78e63          	beq	a5,a4,2758 <dmp_set_tap_thresh+0x132>
    2680:	4741                	li	a4,16
    2682:	fee796e3          	bne	a5,a4,266e <dmp_set_tap_thresh+0x48>
    2686:	000087b7          	lui	a5,0x8
    268a:	6847a787          	flw	fa5,1668(a5) # 8684 <dmp_memory+0xc14>
    268e:	000087b7          	lui	a5,0x8
    2692:	10f477d3          	fmul.s	fa5,fs0,fa5
    2696:	c0179753          	fcvt.wu.s	a4,fa5,rtz
    269a:	6887a787          	flw	fa5,1672(a5) # 8688 <dmp_memory+0xc18>
    269e:	0742                	slli	a4,a4,0x10
    26a0:	8341                	srli	a4,a4,0x10
    26a2:	a839                	j	26c0 <dmp_set_tap_thresh+0x9a>
    26a4:	000087b7          	lui	a5,0x8
    26a8:	66c7a787          	flw	fa5,1644(a5) # 866c <dmp_memory+0xbfc>
    26ac:	000087b7          	lui	a5,0x8
    26b0:	10f477d3          	fmul.s	fa5,fs0,fa5
    26b4:	c0179753          	fcvt.wu.s	a4,fa5,rtz
    26b8:	6707a787          	flw	fa5,1648(a5) # 8670 <dmp_memory+0xc00>
    26bc:	0742                	slli	a4,a4,0x10
    26be:	8341                	srli	a4,a4,0x10
    26c0:	10f47453          	fmul.s	fs0,fs0,fa5
    26c4:	00871693          	slli	a3,a4,0x8
    26c8:	8321                	srli	a4,a4,0x8
    26ca:	8f55                	or	a4,a4,a3
    26cc:	00e11623          	sh	a4,12(sp)
    26d0:	c01417d3          	fcvt.wu.s	a5,fs0,rtz
    26d4:	07c2                	slli	a5,a5,0x10
    26d6:	83c1                	srli	a5,a5,0x10
    26d8:	00879713          	slli	a4,a5,0x8
    26dc:	83a1                	srli	a5,a5,0x8
    26de:	8fd9                	or	a5,a5,a4
    26e0:	00f11723          	sh	a5,14(sp)
    26e4:	00147793          	andi	a5,s0,1
    26e8:	e7d9                	bnez	a5,2776 <dmp_set_tap_thresh+0x150>
    26ea:	00247793          	andi	a5,s0,2
    26ee:	c385                	beqz	a5,270e <dmp_set_tap_thresh+0xe8>
    26f0:	0070                	addi	a2,sp,12
    26f2:	4589                	li	a1,2
    26f4:	1d800513          	li	a0,472
    26f8:	b5aff0ef          	jal	ra,1a52 <mpu_write_mem>
    26fc:	f92d                	bnez	a0,266e <dmp_set_tap_thresh+0x48>
    26fe:	00e10613          	addi	a2,sp,14
    2702:	4589                	li	a1,2
    2704:	12800513          	li	a0,296
    2708:	b4aff0ef          	jal	ra,1a52 <mpu_write_mem>
    270c:	f12d                	bnez	a0,266e <dmp_set_tap_thresh+0x48>
    270e:	8811                	andi	s0,s0,4
    2710:	4501                	li	a0,0
    2712:	dc39                	beqz	s0,2670 <dmp_set_tap_thresh+0x4a>
    2714:	0070                	addi	a2,sp,12
    2716:	4589                	li	a1,2
    2718:	1dc00513          	li	a0,476
    271c:	b36ff0ef          	jal	ra,1a52 <mpu_write_mem>
    2720:	f539                	bnez	a0,266e <dmp_set_tap_thresh+0x48>
    2722:	00e10613          	addi	a2,sp,14
    2726:	4589                	li	a1,2
    2728:	12c00513          	li	a0,300
    272c:	b26ff0ef          	jal	ra,1a52 <mpu_write_mem>
    2730:	00a03533          	snez	a0,a0
    2734:	40a00533          	neg	a0,a0
    2738:	bf25                	j	2670 <dmp_set_tap_thresh+0x4a>
    273a:	000087b7          	lui	a5,0x8
    273e:	6747a787          	flw	fa5,1652(a5) # 8674 <dmp_memory+0xc04>
    2742:	000087b7          	lui	a5,0x8
    2746:	10f477d3          	fmul.s	fa5,fs0,fa5
    274a:	c0179753          	fcvt.wu.s	a4,fa5,rtz
    274e:	6787a787          	flw	fa5,1656(a5) # 8678 <dmp_memory+0xc08>
    2752:	0742                	slli	a4,a4,0x10
    2754:	8341                	srli	a4,a4,0x10
    2756:	b7ad                	j	26c0 <dmp_set_tap_thresh+0x9a>
    2758:	000087b7          	lui	a5,0x8
    275c:	67c7a787          	flw	fa5,1660(a5) # 867c <dmp_memory+0xc0c>
    2760:	000087b7          	lui	a5,0x8
    2764:	10f477d3          	fmul.s	fa5,fs0,fa5
    2768:	c0179753          	fcvt.wu.s	a4,fa5,rtz
    276c:	6807a787          	flw	fa5,1664(a5) # 8680 <dmp_memory+0xc10>
    2770:	0742                	slli	a4,a4,0x10
    2772:	8341                	srli	a4,a4,0x10
    2774:	b7b1                	j	26c0 <dmp_set_tap_thresh+0x9a>
    2776:	0070                	addi	a2,sp,12
    2778:	4589                	li	a1,2
    277a:	1d400513          	li	a0,468
    277e:	ad4ff0ef          	jal	ra,1a52 <mpu_write_mem>
    2782:	ee0516e3          	bnez	a0,266e <dmp_set_tap_thresh+0x48>
    2786:	00e10613          	addi	a2,sp,14
    278a:	4589                	li	a1,2
    278c:	12400513          	li	a0,292
    2790:	ac2ff0ef          	jal	ra,1a52 <mpu_write_mem>
    2794:	d939                	beqz	a0,26ea <dmp_set_tap_thresh+0xc4>
    2796:	bde1                	j	266e <dmp_set_tap_thresh+0x48>

00002798 <dmp_set_tap_axes>:
    2798:	1101                	addi	sp,sp,-32
    279a:	ce06                	sw	ra,28(sp)
    279c:	00157793          	andi	a5,a0,1
    27a0:	ef95                	bnez	a5,27dc <dmp_set_tap_axes+0x44>
    27a2:	000107a3          	sb	zero,15(sp)
    27a6:	00257793          	andi	a5,a0,2
    27aa:	c799                	beqz	a5,27b8 <dmp_set_tap_axes+0x20>
    27ac:	00f14783          	lbu	a5,15(sp)
    27b0:	00c7e793          	ori	a5,a5,12
    27b4:	00f107a3          	sb	a5,15(sp)
    27b8:	8911                	andi	a0,a0,4
    27ba:	c519                	beqz	a0,27c8 <dmp_set_tap_axes+0x30>
    27bc:	00f14783          	lbu	a5,15(sp)
    27c0:	0037e793          	ori	a5,a5,3
    27c4:	00f107a3          	sb	a5,15(sp)
    27c8:	00f10613          	addi	a2,sp,15
    27cc:	4585                	li	a1,1
    27ce:	14800513          	li	a0,328
    27d2:	a80ff0ef          	jal	ra,1a52 <mpu_write_mem>
    27d6:	40f2                	lw	ra,28(sp)
    27d8:	6105                	addi	sp,sp,32
    27da:	8082                	ret
    27dc:	03000793          	li	a5,48
    27e0:	00f107a3          	sb	a5,15(sp)
    27e4:	b7c9                	j	27a6 <dmp_set_tap_axes+0xe>

000027e6 <dmp_set_tap_count>:
    27e6:	1101                	addi	sp,sp,-32
    27e8:	ce06                	sw	ra,28(sp)
    27ea:	4785                	li	a5,1
    27ec:	c519                	beqz	a0,27fa <dmp_set_tap_count+0x14>
    27ee:	4711                	li	a4,4
    27f0:	0ff57793          	andi	a5,a0,255
    27f4:	00a77363          	bgeu	a4,a0,27fa <dmp_set_tap_count+0x14>
    27f8:	4791                	li	a5,4
    27fa:	17fd                	addi	a5,a5,-1
    27fc:	00f10613          	addi	a2,sp,15
    2800:	4585                	li	a1,1
    2802:	14f00513          	li	a0,335
    2806:	00f107a3          	sb	a5,15(sp)
    280a:	a48ff0ef          	jal	ra,1a52 <mpu_write_mem>
    280e:	40f2                	lw	ra,28(sp)
    2810:	6105                	addi	sp,sp,32
    2812:	8082                	ret

00002814 <dmp_set_tap_time>:
    2814:	4795                	li	a5,5
    2816:	02f55533          	divu	a0,a0,a5
    281a:	1101                	addi	sp,sp,-32
    281c:	0070                	addi	a2,sp,12
    281e:	4589                	li	a1,2
    2820:	ce06                	sw	ra,28(sp)
    2822:	00851793          	slli	a5,a0,0x8
    2826:	8121                	srli	a0,a0,0x8
    2828:	8d5d                	or	a0,a0,a5
    282a:	00a11623          	sh	a0,12(sp)
    282e:	1de00513          	li	a0,478
    2832:	a20ff0ef          	jal	ra,1a52 <mpu_write_mem>
    2836:	40f2                	lw	ra,28(sp)
    2838:	6105                	addi	sp,sp,32
    283a:	8082                	ret

0000283c <dmp_set_tap_time_multi>:
    283c:	4795                	li	a5,5
    283e:	02f55533          	divu	a0,a0,a5
    2842:	1101                	addi	sp,sp,-32
    2844:	0070                	addi	a2,sp,12
    2846:	4589                	li	a1,2
    2848:	ce06                	sw	ra,28(sp)
    284a:	00851793          	slli	a5,a0,0x8
    284e:	8121                	srli	a0,a0,0x8
    2850:	8d5d                	or	a0,a0,a5
    2852:	00a11623          	sh	a0,12(sp)
    2856:	1da00513          	li	a0,474
    285a:	9f8ff0ef          	jal	ra,1a52 <mpu_write_mem>
    285e:	40f2                	lw	ra,28(sp)
    2860:	6105                	addi	sp,sp,32
    2862:	8082                	ret

00002864 <dmp_set_shake_reject_thresh>:
    2864:	3e800793          	li	a5,1000
    2868:	02f54533          	div	a0,a0,a5
    286c:	1101                	addi	sp,sp,-32
    286e:	0070                	addi	a2,sp,12
    2870:	ce06                	sw	ra,28(sp)
    2872:	02b505b3          	mul	a1,a0,a1
    2876:	15c00513          	li	a0,348
    287a:	4185d793          	srai	a5,a1,0x18
    287e:	00f10623          	sb	a5,12(sp)
    2882:	4105d793          	srai	a5,a1,0x10
    2886:	00f106a3          	sb	a5,13(sp)
    288a:	00859793          	slli	a5,a1,0x8
    288e:	05c2                	slli	a1,a1,0x10
    2890:	81c1                	srli	a1,a1,0x10
    2892:	81a1                	srli	a1,a1,0x8
    2894:	8ddd                	or	a1,a1,a5
    2896:	00b11723          	sh	a1,14(sp)
    289a:	4591                	li	a1,4
    289c:	9b6ff0ef          	jal	ra,1a52 <mpu_write_mem>
    28a0:	40f2                	lw	ra,28(sp)
    28a2:	6105                	addi	sp,sp,32
    28a4:	8082                	ret

000028a6 <dmp_set_shake_reject_time>:
    28a6:	4795                	li	a5,5
    28a8:	02f55533          	divu	a0,a0,a5
    28ac:	1101                	addi	sp,sp,-32
    28ae:	0070                	addi	a2,sp,12
    28b0:	4589                	li	a1,2
    28b2:	ce06                	sw	ra,28(sp)
    28b4:	00851793          	slli	a5,a0,0x8
    28b8:	8121                	srli	a0,a0,0x8
    28ba:	8d5d                	or	a0,a0,a5
    28bc:	00a11623          	sh	a0,12(sp)
    28c0:	15a00513          	li	a0,346
    28c4:	98eff0ef          	jal	ra,1a52 <mpu_write_mem>
    28c8:	40f2                	lw	ra,28(sp)
    28ca:	6105                	addi	sp,sp,32
    28cc:	8082                	ret

000028ce <dmp_set_shake_reject_timeout>:
    28ce:	4795                	li	a5,5
    28d0:	02f55533          	divu	a0,a0,a5
    28d4:	1101                	addi	sp,sp,-32
    28d6:	0070                	addi	a2,sp,12
    28d8:	4589                	li	a1,2
    28da:	ce06                	sw	ra,28(sp)
    28dc:	00851793          	slli	a5,a0,0x8
    28e0:	8121                	srli	a0,a0,0x8
    28e2:	8d5d                	or	a0,a0,a5
    28e4:	00a11623          	sh	a0,12(sp)
    28e8:	15800513          	li	a0,344
    28ec:	966ff0ef          	jal	ra,1a52 <mpu_write_mem>
    28f0:	40f2                	lw	ra,28(sp)
    28f2:	6105                	addi	sp,sp,32
    28f4:	8082                	ret

000028f6 <dmp_enable_gyro_cal>:
    28f6:	1101                	addi	sp,sp,-32
    28f8:	ce06                	sw	ra,28(sp)
    28fa:	c511                	beqz	a0,2906 <dmp_enable_gyro_cal+0x10>
    28fc:	941ff0ef          	jal	ra,223c <dmp_enable_gyro_cal.part.0>
    2900:	40f2                	lw	ra,28(sp)
    2902:	6105                	addi	sp,sp,32
    2904:	8082                	ret
    2906:	65a1                	lui	a1,0x8
    2908:	4625                	li	a2,9
    290a:	8c858593          	addi	a1,a1,-1848 # 78c8 <memcpy+0xc4>
    290e:	0048                	addi	a0,sp,4
    2910:	6f5040ef          	jal	ra,7804 <memcpy>
    2914:	0050                	addi	a2,sp,4
    2916:	45a5                	li	a1,9
    2918:	4b800513          	li	a0,1208
    291c:	936ff0ef          	jal	ra,1a52 <mpu_write_mem>
    2920:	b7c5                	j	2900 <dmp_enable_gyro_cal+0xa>

00002922 <dmp_enable_lp_quat>:
    2922:	1101                	addi	sp,sp,-32
    2924:	ce06                	sw	ra,28(sp)
    2926:	c115                	beqz	a0,294a <dmp_enable_lp_quat+0x28>
    2928:	c6c4c7b7          	lui	a5,0xc6c4c
    292c:	2c078793          	addi	a5,a5,704 # c6c4c2c0 <_eusrstack+0xa6c442c0>
    2930:	6505                	lui	a0,0x1
    2932:	0070                	addi	a2,sp,12
    2934:	4591                	li	a1,4
    2936:	a9850513          	addi	a0,a0,-1384 # a98 <USART_Init+0xb8>
    293a:	c63e                	sw	a5,12(sp)
    293c:	916ff0ef          	jal	ra,1a52 <mpu_write_mem>
    2940:	e16fe0ef          	jal	ra,f56 <mpu_reset_fifo>
    2944:	40f2                	lw	ra,28(sp)
    2946:	6105                	addi	sp,sp,32
    2948:	8082                	ret
    294a:	8b8b97b7          	lui	a5,0x8b8b9
    294e:	b8b78793          	addi	a5,a5,-1141 # 8b8b8b8b <_eusrstack+0x6b8b0b8b>
    2952:	bff9                	j	2930 <dmp_enable_lp_quat+0xe>

00002954 <dmp_enable_6x_lp_quat>:
    2954:	1101                	addi	sp,sp,-32
    2956:	ce06                	sw	ra,28(sp)
    2958:	c115                	beqz	a0,297c <dmp_enable_6x_lp_quat+0x28>
    295a:	383037b7          	lui	a5,0x38303
    295e:	82078793          	addi	a5,a5,-2016 # 38302820 <_eusrstack+0x182fa820>
    2962:	6505                	lui	a0,0x1
    2964:	0070                	addi	a2,sp,12
    2966:	4591                	li	a1,4
    2968:	a9e50513          	addi	a0,a0,-1378 # a9e <USART_Init+0xbe>
    296c:	c63e                	sw	a5,12(sp)
    296e:	8e4ff0ef          	jal	ra,1a52 <mpu_write_mem>
    2972:	de4fe0ef          	jal	ra,f56 <mpu_reset_fifo>
    2976:	40f2                	lw	ra,28(sp)
    2978:	6105                	addi	sp,sp,32
    297a:	8082                	ret
    297c:	a3a3a7b7          	lui	a5,0xa3a3a
    2980:	3a378793          	addi	a5,a5,931 # a3a3a3a3 <_eusrstack+0x83a323a3>
    2984:	bff9                	j	2962 <dmp_enable_6x_lp_quat+0xe>

00002986 <dmp_enable_feature>:
    2986:	7179                	addi	sp,sp,-48
    2988:	09e3d7b7          	lui	a5,0x9e3d
    298c:	a0278793          	addi	a5,a5,-1534 # 9e3ca02 <_data_lma+0x9e340a6>
    2990:	d422                	sw	s0,40(sp)
    2992:	0050                	addi	a2,sp,4
    2994:	842a                	mv	s0,a0
    2996:	4591                	li	a1,4
    2998:	06800513          	li	a0,104
    299c:	cc52                	sw	s4,24(sp)
    299e:	c23e                	sw	a5,4(sp)
    29a0:	d606                	sw	ra,44(sp)
    29a2:	d226                	sw	s1,36(sp)
    29a4:	d04a                	sw	s2,32(sp)
    29a6:	ce4e                	sw	s3,28(sp)
    29a8:	8aaff0ef          	jal	ra,1a52 <mpu_write_mem>
    29ac:	fa300793          	li	a5,-93
    29b0:	00f10223          	sb	a5,4(sp)
    29b4:	04047a13          	andi	s4,s0,64
    29b8:	160a0f63          	beqz	s4,2b36 <dmp_enable_feature+0x1b0>
    29bc:	fc000793          	li	a5,-64
    29c0:	00f102a3          	sb	a5,5(sp)
    29c4:	77f1                	lui	a5,0xffffc
    29c6:	2c878793          	addi	a5,a5,712 # ffffc2c8 <_eusrstack+0xdfff42c8>
    29ca:	00f11323          	sh	a5,6(sp)
    29ce:	18047913          	andi	s2,s0,384
    29d2:	16090863          	beqz	s2,2b42 <dmp_enable_feature+0x1bc>
    29d6:	77f5                	lui	a5,0xffffd
    29d8:	cc478793          	addi	a5,a5,-828 # ffffccc4 <_eusrstack+0xdfff4cc4>
    29dc:	00f11423          	sh	a5,8(sp)
    29e0:	fc600793          	li	a5,-58
    29e4:	00f10523          	sb	a5,10(sp)
    29e8:	fa300793          	li	a5,-93
    29ec:	00f105a3          	sb	a5,11(sp)
    29f0:	6505                	lui	a0,0x1
    29f2:	77e9                	lui	a5,0xffffa
    29f4:	3a378793          	addi	a5,a5,931 # ffffa3a3 <_eusrstack+0xdfff23a3>
    29f8:	0050                	addi	a2,sp,4
    29fa:	45a9                	li	a1,10
    29fc:	aa750513          	addi	a0,a0,-1369 # aa7 <USART_Init+0xc7>
    2a00:	00f11623          	sh	a5,12(sp)
    2a04:	00347993          	andi	s3,s0,3
    2a08:	84aff0ef          	jal	ra,1a52 <mpu_write_mem>
    2a0c:	0d800793          	li	a5,216
    2a10:	00098463          	beqz	s3,2a18 <dmp_enable_feature+0x92>
    2a14:	02000793          	li	a5,32
    2a18:	6505                	lui	a0,0x1
    2a1a:	0050                	addi	a2,sp,4
    2a1c:	4585                	li	a1,1
    2a1e:	ab650513          	addi	a0,a0,-1354 # ab6 <USART_Init+0xd6>
    2a22:	00f10223          	sb	a5,4(sp)
    2a26:	82cff0ef          	jal	ra,1a52 <mpu_write_mem>
    2a2a:	02047793          	andi	a5,s0,32
    2a2e:	12078263          	beqz	a5,2b52 <dmp_enable_feature+0x1cc>
    2a32:	80bff0ef          	jal	ra,223c <dmp_enable_gyro_cal.part.0>
    2a36:	02090263          	beqz	s2,2a5a <dmp_enable_feature+0xd4>
    2a3a:	10047793          	andi	a5,s0,256
    2a3e:	10078d63          	beqz	a5,2b58 <dmp_enable_feature+0x1d2>
    2a42:	9bb697b7          	lui	a5,0x9bb69
    2a46:	bb278793          	addi	a5,a5,-1102 # 9bb68bb2 <_eusrstack+0x7bb60bb2>
    2a4a:	6505                	lui	a0,0x1
    2a4c:	0050                	addi	a2,sp,4
    2a4e:	4591                	li	a1,4
    2a50:	aa250513          	addi	a0,a0,-1374 # aa2 <USART_Init+0xc2>
    2a54:	c23e                	sw	a5,4(sp)
    2a56:	ffdfe0ef          	jal	ra,1a52 <mpu_write_mem>
    2a5a:	00147793          	andi	a5,s0,1
    2a5e:	10078263          	beqz	a5,2b62 <dmp_enable_feature+0x1dc>
    2a62:	6505                	lui	a0,0x1
    2a64:	57e1                	li	a5,-8
    2a66:	0050                	addi	a2,sp,4
    2a68:	4585                	li	a1,1
    2a6a:	8b050513          	addi	a0,a0,-1872 # 8b0 <RCC_GetClocksFreq+0xaa>
    2a6e:	00f10223          	sb	a5,4(sp)
    2a72:	fe1fe0ef          	jal	ra,1a52 <mpu_write_mem>
    2a76:	0fa00593          	li	a1,250
    2a7a:	451d                	li	a0,7
    2a7c:	366d                	jal	2626 <dmp_set_tap_thresh>
    2a7e:	451d                	li	a0,7
    2a80:	3b21                	jal	2798 <dmp_set_tap_axes>
    2a82:	4505                	li	a0,1
    2a84:	338d                	jal	27e6 <dmp_set_tap_count>
    2a86:	06400513          	li	a0,100
    2a8a:	3369                	jal	2814 <dmp_set_tap_time>
    2a8c:	1f400513          	li	a0,500
    2a90:	3375                	jal	283c <dmp_set_tap_time_multi>
    2a92:	02cae537          	lui	a0,0x2cae
    2a96:	0c800593          	li	a1,200
    2a9a:	30950513          	addi	a0,a0,777 # 2cae309 <_data_lma+0x2ca59ad>
    2a9e:	33d9                	jal	2864 <dmp_set_shake_reject_thresh>
    2aa0:	02800513          	li	a0,40
    2aa4:	3509                	jal	28a6 <dmp_set_shake_reject_time>
    2aa6:	4529                	li	a0,10
    2aa8:	351d                	jal	28ce <dmp_set_shake_reject_timeout>
    2aaa:	00247793          	andi	a5,s0,2
    2aae:	00f037b3          	snez	a5,a5
    2ab2:	0d878793          	addi	a5,a5,216
    2ab6:	0050                	addi	a2,sp,4
    2ab8:	4585                	li	a1,1
    2aba:	73d00513          	li	a0,1853
    2abe:	00f10223          	sb	a5,4(sp)
    2ac2:	f91fe0ef          	jal	ra,1a52 <mpu_write_mem>
    2ac6:	00447793          	andi	a5,s0,4
    2aca:	4505                	li	a0,1
    2acc:	e391                	bnez	a5,2ad0 <dmp_enable_feature+0x14a>
    2ace:	4501                	li	a0,0
    2ad0:	3d89                	jal	2922 <dmp_enable_lp_quat>
    2ad2:	01047793          	andi	a5,s0,16
    2ad6:	4505                	li	a0,1
    2ad8:	e391                	bnez	a5,2adc <dmp_enable_feature+0x156>
    2ada:	4501                	li	a0,0
    2adc:	3da5                	jal	2954 <dmp_enable_6x_lp_quat>
    2ade:	81818793          	addi	a5,gp,-2024 # 200000c0 <dmp>
    2ae2:	00846713          	ori	a4,s0,8
    2ae6:	00e79523          	sh	a4,10(a5)
    2aea:	c6cfe0ef          	jal	ra,f56 <mpu_reset_fifo>
    2aee:	81818793          	addi	a5,gp,-2024 # 200000c0 <dmp>
    2af2:	080a1463          	bnez	s4,2b7a <dmp_enable_feature+0x1f4>
    2af6:	00078723          	sb	zero,14(a5)
    2afa:	00090763          	beqz	s2,2b08 <dmp_enable_feature+0x182>
    2afe:	00e7c703          	lbu	a4,14(a5)
    2b02:	0719                	addi	a4,a4,6
    2b04:	00e78723          	sb	a4,14(a5)
    2b08:	8851                	andi	s0,s0,20
    2b0a:	c411                	beqz	s0,2b16 <dmp_enable_feature+0x190>
    2b0c:	00e7c703          	lbu	a4,14(a5)
    2b10:	0741                	addi	a4,a4,16
    2b12:	00e78723          	sb	a4,14(a5)
    2b16:	00098763          	beqz	s3,2b24 <dmp_enable_feature+0x19e>
    2b1a:	00e7c703          	lbu	a4,14(a5)
    2b1e:	0711                	addi	a4,a4,4
    2b20:	00e78723          	sb	a4,14(a5)
    2b24:	50b2                	lw	ra,44(sp)
    2b26:	5422                	lw	s0,40(sp)
    2b28:	5492                	lw	s1,36(sp)
    2b2a:	5902                	lw	s2,32(sp)
    2b2c:	49f2                	lw	s3,28(sp)
    2b2e:	4a62                	lw	s4,24(sp)
    2b30:	4501                	li	a0,0
    2b32:	6145                	addi	sp,sp,48
    2b34:	8082                	ret
    2b36:	00f102a3          	sb	a5,5(sp)
    2b3a:	77e9                	lui	a5,0xffffa
    2b3c:	3a378793          	addi	a5,a5,931 # ffffa3a3 <_eusrstack+0xdfff23a3>
    2b40:	b569                	j	29ca <dmp_enable_feature+0x44>
    2b42:	77e9                	lui	a5,0xffffa
    2b44:	3a378793          	addi	a5,a5,931 # ffffa3a3 <_eusrstack+0xdfff23a3>
    2b48:	00f11423          	sh	a5,8(sp)
    2b4c:	fa300793          	li	a5,-93
    2b50:	bd51                	j	29e4 <dmp_enable_feature+0x5e>
    2b52:	4501                	li	a0,0
    2b54:	334d                	jal	28f6 <dmp_enable_gyro_cal>
    2b56:	b5c5                	j	2a36 <dmp_enable_feature+0xb0>
    2b58:	90b487b7          	lui	a5,0x90b48
    2b5c:	0b078793          	addi	a5,a5,176 # 90b480b0 <_eusrstack+0x70b400b0>
    2b60:	b5ed                	j	2a4a <dmp_enable_feature+0xc4>
    2b62:	6505                	lui	a0,0x1
    2b64:	fd800793          	li	a5,-40
    2b68:	0050                	addi	a2,sp,4
    2b6a:	4585                	li	a1,1
    2b6c:	8b050513          	addi	a0,a0,-1872 # 8b0 <RCC_GetClocksFreq+0xaa>
    2b70:	00f10223          	sb	a5,4(sp)
    2b74:	edffe0ef          	jal	ra,1a52 <mpu_write_mem>
    2b78:	bf0d                	j	2aaa <dmp_enable_feature+0x124>
    2b7a:	4719                	li	a4,6
    2b7c:	00e78723          	sb	a4,14(a5)
    2b80:	bfad                	j	2afa <dmp_enable_feature+0x174>

00002b82 <dmp_read_fifo>:
    2b82:	715d                	addi	sp,sp,-80
    2b84:	da56                	sw	s5,52(sp)
    2b86:	d65e                	sw	s7,44(sp)
    2b88:	81818b93          	addi	s7,gp,-2024 # 200000c0 <dmp>
    2b8c:	c0ca                	sw	s2,64(sp)
    2b8e:	892a                	mv	s2,a0
    2b90:	00ebc503          	lbu	a0,14(s7)
    2b94:	c2a6                	sw	s1,68(sp)
    2b96:	de4e                	sw	s3,60(sp)
    2b98:	dc52                	sw	s4,56(sp)
    2b9a:	d85a                	sw	s6,48(sp)
    2b9c:	c686                	sw	ra,76(sp)
    2b9e:	c4a2                	sw	s0,72(sp)
    2ba0:	89ae                	mv	s3,a1
    2ba2:	8b32                	mv	s6,a2
    2ba4:	00071023          	sh	zero,0(a4)
    2ba8:	863e                	mv	a2,a5
    2baa:	858a                	mv	a1,sp
    2bac:	84b6                	mv	s1,a3
    2bae:	8a3a                	mv	s4,a4
    2bb0:	8d1fe0ef          	jal	ra,1480 <mpu_read_fifo_stream>
    2bb4:	e561                	bnez	a0,2c7c <dmp_read_fifo+0xfa>
    2bb6:	00abd703          	lhu	a4,10(s7)
    2bba:	842a                	mv	s0,a0
    2bbc:	81818a93          	addi	s5,gp,-2024 # 200000c0 <dmp>
    2bc0:	01477793          	andi	a5,a4,20
    2bc4:	1a078e63          	beqz	a5,2d80 <dmp_read_fifo+0x1fe>
    2bc8:	00014783          	lbu	a5,0(sp)
    2bcc:	00114683          	lbu	a3,1(sp)
    2bd0:	00514603          	lbu	a2,5(sp)
    2bd4:	07e2                	slli	a5,a5,0x18
    2bd6:	06c2                	slli	a3,a3,0x10
    2bd8:	8fd5                	or	a5,a5,a3
    2bda:	00314683          	lbu	a3,3(sp)
    2bde:	0642                	slli	a2,a2,0x10
    2be0:	00814583          	lbu	a1,8(sp)
    2be4:	8fd5                	or	a5,a5,a3
    2be6:	00214683          	lbu	a3,2(sp)
    2bea:	05e2                	slli	a1,a1,0x18
    2bec:	00d14503          	lbu	a0,13(sp)
    2bf0:	06a2                	slli	a3,a3,0x8
    2bf2:	8fd5                	or	a5,a5,a3
    2bf4:	00414683          	lbu	a3,4(sp)
    2bf8:	00fb2023          	sw	a5,0(s6)
    2bfc:	87c1                	srai	a5,a5,0x10
    2bfe:	06e2                	slli	a3,a3,0x18
    2c00:	8ed1                	or	a3,a3,a2
    2c02:	00714603          	lbu	a2,7(sp)
    2c06:	02f787b3          	mul	a5,a5,a5
    2c0a:	0542                	slli	a0,a0,0x10
    2c0c:	8ed1                	or	a3,a3,a2
    2c0e:	00614603          	lbu	a2,6(sp)
    2c12:	0622                	slli	a2,a2,0x8
    2c14:	8ed1                	or	a3,a3,a2
    2c16:	00914603          	lbu	a2,9(sp)
    2c1a:	00db2223          	sw	a3,4(s6)
    2c1e:	86c1                	srai	a3,a3,0x10
    2c20:	0642                	slli	a2,a2,0x10
    2c22:	8dd1                	or	a1,a1,a2
    2c24:	00b14603          	lbu	a2,11(sp)
    2c28:	02d686b3          	mul	a3,a3,a3
    2c2c:	8dd1                	or	a1,a1,a2
    2c2e:	00a14603          	lbu	a2,10(sp)
    2c32:	0622                	slli	a2,a2,0x8
    2c34:	8dd1                	or	a1,a1,a2
    2c36:	00c14603          	lbu	a2,12(sp)
    2c3a:	00bb2423          	sw	a1,8(s6)
    2c3e:	85c1                	srai	a1,a1,0x10
    2c40:	0662                	slli	a2,a2,0x18
    2c42:	8e49                	or	a2,a2,a0
    2c44:	00f14503          	lbu	a0,15(sp)
    2c48:	96be                	add	a3,a3,a5
    2c4a:	02b587b3          	mul	a5,a1,a1
    2c4e:	8e49                	or	a2,a2,a0
    2c50:	00e14503          	lbu	a0,14(sp)
    2c54:	0522                	slli	a0,a0,0x8
    2c56:	8e49                	or	a2,a2,a0
    2c58:	00cb2623          	sw	a2,12(s6)
    2c5c:	8641                	srai	a2,a2,0x10
    2c5e:	02c60633          	mul	a2,a2,a2
    2c62:	97b6                	add	a5,a5,a3
    2c64:	f10006b7          	lui	a3,0xf1000
    2c68:	97b2                	add	a5,a5,a2
    2c6a:	97b6                	add	a5,a5,a3
    2c6c:	020006b7          	lui	a3,0x2000
    2c70:	00f6f863          	bgeu	a3,a5,2c80 <dmp_read_fifo+0xfe>
    2c74:	ae2fe0ef          	jal	ra,f56 <mpu_reset_fifo>
    2c78:	000a1023          	sh	zero,0(s4)
    2c7c:	547d                	li	s0,-1
    2c7e:	a0ed                	j	2d68 <dmp_read_fifo+0x1e6>
    2c80:	000a5783          	lhu	a5,0(s4)
    2c84:	1007e793          	ori	a5,a5,256
    2c88:	00fa1023          	sh	a5,0(s4)
    2c8c:	47c1                	li	a5,16
    2c8e:	04077693          	andi	a3,a4,64
    2c92:	c6a1                	beqz	a3,2cda <dmp_read_fifo+0x158>
    2c94:	1014                	addi	a3,sp,32
    2c96:	96be                	add	a3,a3,a5
    2c98:	fe06c603          	lbu	a2,-32(a3) # 1ffffe0 <_data_lma+0x1ff7684>
    2c9c:	fe16c583          	lbu	a1,-31(a3)
    2ca0:	0799                	addi	a5,a5,6
    2ca2:	0622                	slli	a2,a2,0x8
    2ca4:	8e4d                	or	a2,a2,a1
    2ca6:	00c99023          	sh	a2,0(s3)
    2caa:	fe26c603          	lbu	a2,-30(a3)
    2cae:	fe36c583          	lbu	a1,-29(a3)
    2cb2:	0ff7f793          	andi	a5,a5,255
    2cb6:	0622                	slli	a2,a2,0x8
    2cb8:	8e4d                	or	a2,a2,a1
    2cba:	00c99123          	sh	a2,2(s3)
    2cbe:	fe46c603          	lbu	a2,-28(a3)
    2cc2:	fe56c683          	lbu	a3,-27(a3)
    2cc6:	0622                	slli	a2,a2,0x8
    2cc8:	8ed1                	or	a3,a3,a2
    2cca:	00d99223          	sh	a3,4(s3)
    2cce:	000a5683          	lhu	a3,0(s4)
    2cd2:	0086e693          	ori	a3,a3,8
    2cd6:	00da1023          	sh	a3,0(s4)
    2cda:	18077693          	andi	a3,a4,384
    2cde:	c6a1                	beqz	a3,2d26 <dmp_read_fifo+0x1a4>
    2ce0:	1014                	addi	a3,sp,32
    2ce2:	96be                	add	a3,a3,a5
    2ce4:	fe06c603          	lbu	a2,-32(a3)
    2ce8:	fe16c583          	lbu	a1,-31(a3)
    2cec:	0799                	addi	a5,a5,6
    2cee:	0622                	slli	a2,a2,0x8
    2cf0:	8e4d                	or	a2,a2,a1
    2cf2:	00c91023          	sh	a2,0(s2)
    2cf6:	fe26c603          	lbu	a2,-30(a3)
    2cfa:	fe36c583          	lbu	a1,-29(a3)
    2cfe:	0ff7f793          	andi	a5,a5,255
    2d02:	0622                	slli	a2,a2,0x8
    2d04:	8e4d                	or	a2,a2,a1
    2d06:	00c91123          	sh	a2,2(s2)
    2d0a:	fe46c603          	lbu	a2,-28(a3)
    2d0e:	fe56c683          	lbu	a3,-27(a3)
    2d12:	0622                	slli	a2,a2,0x8
    2d14:	8ed1                	or	a3,a3,a2
    2d16:	00d91223          	sh	a3,4(s2)
    2d1a:	000a5683          	lhu	a3,0(s4)
    2d1e:	0706e693          	ori	a3,a3,112
    2d22:	00da1023          	sh	a3,0(s4)
    2d26:	8b0d                	andi	a4,a4,3
    2d28:	cf0d                	beqz	a4,2d62 <dmp_read_fifo+0x1e0>
    2d2a:	00f10933          	add	s2,sp,a5
    2d2e:	00194783          	lbu	a5,1(s2)
    2d32:	00394983          	lbu	s3,3(s2)
    2d36:	8b85                	andi	a5,a5,1
    2d38:	cb99                	beqz	a5,2d4e <dmp_read_fifo+0x1cc>
    2d3a:	000aa783          	lw	a5,0(s5)
    2d3e:	cb81                	beqz	a5,2d4e <dmp_read_fifo+0x1cc>
    2d40:	0079f593          	andi	a1,s3,7
    2d44:	0039d513          	srli	a0,s3,0x3
    2d48:	0585                	addi	a1,a1,1
    2d4a:	891d                	andi	a0,a0,7
    2d4c:	9782                	jalr	a5
    2d4e:	00194783          	lbu	a5,1(s2)
    2d52:	8ba1                	andi	a5,a5,8
    2d54:	c799                	beqz	a5,2d62 <dmp_read_fifo+0x1e0>
    2d56:	004aa783          	lw	a5,4(s5)
    2d5a:	c781                	beqz	a5,2d62 <dmp_read_fifo+0x1e0>
    2d5c:	0069d513          	srli	a0,s3,0x6
    2d60:	9782                	jalr	a5
    2d62:	8526                	mv	a0,s1
    2d64:	a3cff0ef          	jal	ra,1fa0 <mget_ms>
    2d68:	8522                	mv	a0,s0
    2d6a:	40b6                	lw	ra,76(sp)
    2d6c:	4426                	lw	s0,72(sp)
    2d6e:	4496                	lw	s1,68(sp)
    2d70:	4906                	lw	s2,64(sp)
    2d72:	59f2                	lw	s3,60(sp)
    2d74:	5a62                	lw	s4,56(sp)
    2d76:	5ad2                	lw	s5,52(sp)
    2d78:	5b42                	lw	s6,48(sp)
    2d7a:	5bb2                	lw	s7,44(sp)
    2d7c:	6161                	addi	sp,sp,80
    2d7e:	8082                	ret
    2d80:	4781                	li	a5,0
    2d82:	b731                	j	2c8e <dmp_read_fifo+0x10c>

00002d84 <MPU6050_I2C_Mem_Write>:
    2d84:	1101                	addi	sp,sp,-32
    2d86:	ca26                	sw	s1,20(sp)
    2d88:	400064b7          	lui	s1,0x40006
    2d8c:	cc22                	sw	s0,24(sp)
    2d8e:	c84a                	sw	s2,16(sp)
    2d90:	c64e                	sw	s3,12(sp)
    2d92:	c452                	sw	s4,8(sp)
    2d94:	c256                	sw	s5,4(sp)
    2d96:	ce06                	sw	ra,28(sp)
    2d98:	c05a                	sw	s6,0(sp)
    2d9a:	8aaa                	mv	s5,a0
    2d9c:	8a2e                	mv	s4,a1
    2d9e:	8932                	mv	s2,a2
    2da0:	8436                	mv	s0,a3
    2da2:	80048993          	addi	s3,s1,-2048 # 40005800 <_eusrstack+0x1fffd800>
    2da6:	000205b7          	lui	a1,0x20
    2daa:	854e                	mv	a0,s3
    2dac:	a23fd0ef          	jal	ra,7ce <I2C_GetFlagStatus>
    2db0:	f97d                	bnez	a0,2da6 <MPU6050_I2C_Mem_Write+0x22>
    2db2:	80048513          	addi	a0,s1,-2048
    2db6:	4585                	li	a1,1
    2db8:	000304b7          	lui	s1,0x30
    2dbc:	400069b7          	lui	s3,0x40006
    2dc0:	977fd0ef          	jal	ra,736 <I2C_GenerateSTART>
    2dc4:	0485                	addi	s1,s1,1
    2dc6:	80098b13          	addi	s6,s3,-2048 # 40005800 <_eusrstack+0x1fffd800>
    2dca:	85a6                	mv	a1,s1
    2dcc:	855a                	mv	a0,s6
    2dce:	9e7fd0ef          	jal	ra,7b4 <I2C_CheckEvent>
    2dd2:	dd65                	beqz	a0,2dca <MPU6050_I2C_Mem_Write+0x46>
    2dd4:	85d6                	mv	a1,s5
    2dd6:	80098513          	addi	a0,s3,-2048
    2dda:	4601                	li	a2,0
    2ddc:	000704b7          	lui	s1,0x70
    2de0:	400069b7          	lui	s3,0x40006
    2de4:	9bdfd0ef          	jal	ra,7a0 <I2C_Send7bitAddress>
    2de8:	08248493          	addi	s1,s1,130 # 70082 <_data_lma+0x67726>
    2dec:	80098a93          	addi	s5,s3,-2048 # 40005800 <_eusrstack+0x1fffd800>
    2df0:	85a6                	mv	a1,s1
    2df2:	8556                	mv	a0,s5
    2df4:	9c1fd0ef          	jal	ra,7b4 <I2C_CheckEvent>
    2df8:	dd65                	beqz	a0,2df0 <MPU6050_I2C_Mem_Write+0x6c>
    2dfa:	80098513          	addi	a0,s3,-2048
    2dfe:	85d2                	mv	a1,s4
    2e00:	000709b7          	lui	s3,0x70
    2e04:	400064b7          	lui	s1,0x40006
    2e08:	989fd0ef          	jal	ra,790 <I2C_SendData>
    2e0c:	08498993          	addi	s3,s3,132 # 70084 <_data_lma+0x67728>
    2e10:	80048493          	addi	s1,s1,-2048 # 40005800 <_eusrstack+0x1fffd800>
    2e14:	85ce                	mv	a1,s3
    2e16:	8526                	mv	a0,s1
    2e18:	99dfd0ef          	jal	ra,7b4 <I2C_CheckEvent>
    2e1c:	dd65                	beqz	a0,2e14 <MPU6050_I2C_Mem_Write+0x90>
    2e1e:	400064b7          	lui	s1,0x40006
    2e22:	000709b7          	lui	s3,0x70
    2e26:	9922                	add	s2,s2,s0
    2e28:	80048493          	addi	s1,s1,-2048 # 40005800 <_eusrstack+0x1fffd800>
    2e2c:	08498993          	addi	s3,s3,132 # 70084 <_data_lma+0x67728>
    2e30:	02891263          	bne	s2,s0,2e54 <MPU6050_I2C_Mem_Write+0xd0>
    2e34:	4462                	lw	s0,24(sp)
    2e36:	40f2                	lw	ra,28(sp)
    2e38:	44d2                	lw	s1,20(sp)
    2e3a:	4942                	lw	s2,16(sp)
    2e3c:	49b2                	lw	s3,12(sp)
    2e3e:	4a22                	lw	s4,8(sp)
    2e40:	4a92                	lw	s5,4(sp)
    2e42:	4b02                	lw	s6,0(sp)
    2e44:	40006537          	lui	a0,0x40006
    2e48:	4585                	li	a1,1
    2e4a:	80050513          	addi	a0,a0,-2048 # 40005800 <_eusrstack+0x1fffd800>
    2e4e:	6105                	addi	sp,sp,32
    2e50:	905fd06f          	j	754 <I2C_GenerateSTOP>
    2e54:	0405                	addi	s0,s0,1
    2e56:	fff44583          	lbu	a1,-1(s0)
    2e5a:	8526                	mv	a0,s1
    2e5c:	935fd0ef          	jal	ra,790 <I2C_SendData>
    2e60:	85ce                	mv	a1,s3
    2e62:	8526                	mv	a0,s1
    2e64:	951fd0ef          	jal	ra,7b4 <I2C_CheckEvent>
    2e68:	dd65                	beqz	a0,2e60 <MPU6050_I2C_Mem_Write+0xdc>
    2e6a:	b7d9                	j	2e30 <MPU6050_I2C_Mem_Write+0xac>

00002e6c <MPU6050_WriteByte>:
    2e6c:	1101                	addi	sp,sp,-32
    2e6e:	00b107a3          	sb	a1,15(sp)
    2e72:	00f10693          	addi	a3,sp,15
    2e76:	85aa                	mv	a1,a0
    2e78:	4605                	li	a2,1
    2e7a:	0d000513          	li	a0,208
    2e7e:	ce06                	sw	ra,28(sp)
    2e80:	3711                	jal	2d84 <MPU6050_I2C_Mem_Write>
    2e82:	40f2                	lw	ra,28(sp)
    2e84:	6105                	addi	sp,sp,32
    2e86:	8082                	ret

00002e88 <MPU6050_Init>:
    2e88:	7179                	addi	sp,sp,-48
    2e8a:	4585                	li	a1,1
    2e8c:	00400537          	lui	a0,0x400
    2e90:	d606                	sw	ra,44(sp)
    2e92:	d422                	sw	s0,40(sp)
    2e94:	c202                	sw	zero,4(sp)
    2e96:	c402                	sw	zero,8(sp)
    2e98:	c602                	sw	zero,12(sp)
    2e9a:	c802                	sw	zero,16(sp)
    2e9c:	ca02                	sw	zero,20(sp)
    2e9e:	cc02                	sw	zero,24(sp)
    2ea0:	ce02                	sw	zero,28(sp)
    2ea2:	a91fd0ef          	jal	ra,932 <RCC_APB1PeriphClockCmd>
    2ea6:	4585                	li	a1,1
    2ea8:	4521                	li	a0,8
    2eaa:	a6bfd0ef          	jal	ra,914 <RCC_APB2PeriphClockCmd>
    2eae:	6785                	lui	a5,0x1
    2eb0:	c0078793          	addi	a5,a5,-1024 # c00 <get_st_biases+0x116>
    2eb4:	00f11223          	sh	a5,4(sp)
    2eb8:	40011537          	lui	a0,0x40011
    2ebc:	47f1                	li	a5,28
    2ebe:	c63e                	sw	a5,12(sp)
    2ec0:	004c                	addi	a1,sp,4
    2ec2:	478d                	li	a5,3
    2ec4:	c0050513          	addi	a0,a0,-1024 # 40010c00 <_eusrstack+0x20008c00>
    2ec8:	c43e                	sw	a5,8(sp)
    2eca:	e66fd0ef          	jal	ra,530 <GPIO_Init>
    2ece:	000627b7          	lui	a5,0x62
    2ed2:	a8078793          	addi	a5,a5,-1408 # 61a80 <_data_lma+0x59124>
    2ed6:	c83e                	sw	a5,16(sp)
    2ed8:	bfff07b7          	lui	a5,0xbfff0
    2edc:	40006437          	lui	s0,0x40006
    2ee0:	ca3e                	sw	a5,20(sp)
    2ee2:	040007b7          	lui	a5,0x4000
    2ee6:	cc3e                	sw	a5,24(sp)
    2ee8:	080c                	addi	a1,sp,16
    2eea:	6791                	lui	a5,0x4
    2eec:	80040513          	addi	a0,s0,-2048 # 40005800 <_eusrstack+0x1fffd800>
    2ef0:	00f11e23          	sh	a5,28(sp)
    2ef4:	f0cfd0ef          	jal	ra,600 <I2C_Init>
    2ef8:	80040513          	addi	a0,s0,-2048
    2efc:	4585                	li	a1,1
    2efe:	81dfd0ef          	jal	ra,71a <I2C_Cmd>
    2f02:	4585                	li	a1,1
    2f04:	80040513          	addi	a0,s0,-2048
    2f08:	86bfd0ef          	jal	ra,772 <I2C_AcknowledgeConfig>
    2f0c:	03200513          	li	a0,50
    2f10:	3ae010ef          	jal	ra,42be <Delay_Ms>
    2f14:	08000593          	li	a1,128
    2f18:	06b00513          	li	a0,107
    2f1c:	3f81                	jal	2e6c <MPU6050_WriteByte>
    2f1e:	06400513          	li	a0,100
    2f22:	39c010ef          	jal	ra,42be <Delay_Ms>
    2f26:	4581                	li	a1,0
    2f28:	06b00513          	li	a0,107
    2f2c:	3781                	jal	2e6c <MPU6050_WriteByte>
    2f2e:	45cd                	li	a1,19
    2f30:	4565                	li	a0,25
    2f32:	3f2d                	jal	2e6c <MPU6050_WriteByte>
    2f34:	4591                	li	a1,4
    2f36:	4569                	li	a0,26
    2f38:	3f15                	jal	2e6c <MPU6050_WriteByte>
    2f3a:	4581                	li	a1,0
    2f3c:	4571                	li	a0,28
    2f3e:	373d                	jal	2e6c <MPU6050_WriteByte>
    2f40:	45e1                	li	a1,24
    2f42:	456d                	li	a0,27
    2f44:	3725                	jal	2e6c <MPU6050_WriteByte>
    2f46:	4581                	li	a1,0
    2f48:	03800513          	li	a0,56
    2f4c:	3705                	jal	2e6c <MPU6050_WriteByte>
    2f4e:	4581                	li	a1,0
    2f50:	06a00513          	li	a0,106
    2f54:	3f21                	jal	2e6c <MPU6050_WriteByte>
    2f56:	4581                	li	a1,0
    2f58:	02300513          	li	a0,35
    2f5c:	3f01                	jal	2e6c <MPU6050_WriteByte>
    2f5e:	08000593          	li	a1,128
    2f62:	03700513          	li	a0,55
    2f66:	3719                	jal	2e6c <MPU6050_WriteByte>
    2f68:	4585                	li	a1,1
    2f6a:	06b00513          	li	a0,107
    2f6e:	3dfd                	jal	2e6c <MPU6050_WriteByte>
    2f70:	91cff0ef          	jal	ra,208c <mpu_dmp_init>
    2f74:	842a                	mv	s0,a0
    2f76:	85aa                	mv	a1,a0
    2f78:	00008537          	lui	a0,0x8
    2f7c:	69450513          	addi	a0,a0,1684 # 8694 <dmp_memory+0xc24>
    2f80:	380020ef          	jal	ra,5300 <printf>
    2f84:	8522                	mv	a0,s0
    2f86:	50b2                	lw	ra,44(sp)
    2f88:	5422                	lw	s0,40(sp)
    2f8a:	6145                	addi	sp,sp,48
    2f8c:	8082                	ret

00002f8e <MPU6050_I2C_Mem_Read>:
    2f8e:	1101                	addi	sp,sp,-32
    2f90:	ca26                	sw	s1,20(sp)
    2f92:	400064b7          	lui	s1,0x40006
    2f96:	cc22                	sw	s0,24(sp)
    2f98:	c84a                	sw	s2,16(sp)
    2f9a:	c64e                	sw	s3,12(sp)
    2f9c:	c452                	sw	s4,8(sp)
    2f9e:	c256                	sw	s5,4(sp)
    2fa0:	ce06                	sw	ra,28(sp)
    2fa2:	c05a                	sw	s6,0(sp)
    2fa4:	8a2a                	mv	s4,a0
    2fa6:	8aae                	mv	s5,a1
    2fa8:	8432                	mv	s0,a2
    2faa:	8936                	mv	s2,a3
    2fac:	80048993          	addi	s3,s1,-2048 # 40005800 <_eusrstack+0x1fffd800>
    2fb0:	000205b7          	lui	a1,0x20
    2fb4:	854e                	mv	a0,s3
    2fb6:	819fd0ef          	jal	ra,7ce <I2C_GetFlagStatus>
    2fba:	f97d                	bnez	a0,2fb0 <MPU6050_I2C_Mem_Read+0x22>
    2fbc:	80048513          	addi	a0,s1,-2048
    2fc0:	4585                	li	a1,1
    2fc2:	000304b7          	lui	s1,0x30
    2fc6:	400069b7          	lui	s3,0x40006
    2fca:	f6cfd0ef          	jal	ra,736 <I2C_GenerateSTART>
    2fce:	0485                	addi	s1,s1,1
    2fd0:	80098b13          	addi	s6,s3,-2048 # 40005800 <_eusrstack+0x1fffd800>
    2fd4:	85a6                	mv	a1,s1
    2fd6:	855a                	mv	a0,s6
    2fd8:	fdcfd0ef          	jal	ra,7b4 <I2C_CheckEvent>
    2fdc:	dd65                	beqz	a0,2fd4 <MPU6050_I2C_Mem_Read+0x46>
    2fde:	80098513          	addi	a0,s3,-2048
    2fe2:	4601                	li	a2,0
    2fe4:	85d2                	mv	a1,s4
    2fe6:	000704b7          	lui	s1,0x70
    2fea:	400069b7          	lui	s3,0x40006
    2fee:	fb2fd0ef          	jal	ra,7a0 <I2C_Send7bitAddress>
    2ff2:	08248493          	addi	s1,s1,130 # 70082 <_data_lma+0x67726>
    2ff6:	80098b13          	addi	s6,s3,-2048 # 40005800 <_eusrstack+0x1fffd800>
    2ffa:	85a6                	mv	a1,s1
    2ffc:	855a                	mv	a0,s6
    2ffe:	fb6fd0ef          	jal	ra,7b4 <I2C_CheckEvent>
    3002:	dd65                	beqz	a0,2ffa <MPU6050_I2C_Mem_Read+0x6c>
    3004:	85d6                	mv	a1,s5
    3006:	80098513          	addi	a0,s3,-2048
    300a:	000704b7          	lui	s1,0x70
    300e:	400069b7          	lui	s3,0x40006
    3012:	f7efd0ef          	jal	ra,790 <I2C_SendData>
    3016:	08448493          	addi	s1,s1,132 # 70084 <_data_lma+0x67728>
    301a:	80098a93          	addi	s5,s3,-2048 # 40005800 <_eusrstack+0x1fffd800>
    301e:	85a6                	mv	a1,s1
    3020:	8556                	mv	a0,s5
    3022:	f92fd0ef          	jal	ra,7b4 <I2C_CheckEvent>
    3026:	dd65                	beqz	a0,301e <MPU6050_I2C_Mem_Read+0x90>
    3028:	80098513          	addi	a0,s3,-2048
    302c:	4585                	li	a1,1
    302e:	000304b7          	lui	s1,0x30
    3032:	400069b7          	lui	s3,0x40006
    3036:	f00fd0ef          	jal	ra,736 <I2C_GenerateSTART>
    303a:	0485                	addi	s1,s1,1
    303c:	80098a93          	addi	s5,s3,-2048 # 40005800 <_eusrstack+0x1fffd800>
    3040:	85a6                	mv	a1,s1
    3042:	8556                	mv	a0,s5
    3044:	f70fd0ef          	jal	ra,7b4 <I2C_CheckEvent>
    3048:	dd65                	beqz	a0,3040 <MPU6050_I2C_Mem_Read+0xb2>
    304a:	80098513          	addi	a0,s3,-2048
    304e:	4605                	li	a2,1
    3050:	85d2                	mv	a1,s4
    3052:	000309b7          	lui	s3,0x30
    3056:	400064b7          	lui	s1,0x40006
    305a:	f46fd0ef          	jal	ra,7a0 <I2C_Send7bitAddress>
    305e:	0989                	addi	s3,s3,2
    3060:	80048493          	addi	s1,s1,-2048 # 40005800 <_eusrstack+0x1fffd800>
    3064:	85ce                	mv	a1,s3
    3066:	8526                	mv	a0,s1
    3068:	f4cfd0ef          	jal	ra,7b4 <I2C_CheckEvent>
    306c:	dd65                	beqz	a0,3064 <MPU6050_I2C_Mem_Read+0xd6>
    306e:	400064b7          	lui	s1,0x40006
    3072:	000309b7          	lui	s3,0x30
    3076:	0ff00a13          	li	s4,255
    307a:	80048493          	addi	s1,s1,-2048 # 40005800 <_eusrstack+0x1fffd800>
    307e:	04098993          	addi	s3,s3,64 # 30040 <_data_lma+0x276e4>
    3082:	147d                	addi	s0,s0,-1
    3084:	0ff47413          	andi	s0,s0,255
    3088:	03441763          	bne	s0,s4,30b6 <MPU6050_I2C_Mem_Read+0x128>
    308c:	40006437          	lui	s0,0x40006
    3090:	80040513          	addi	a0,s0,-2048 # 40005800 <_eusrstack+0x1fffd800>
    3094:	4585                	li	a1,1
    3096:	ebefd0ef          	jal	ra,754 <I2C_GenerateSTOP>
    309a:	80040513          	addi	a0,s0,-2048
    309e:	4462                	lw	s0,24(sp)
    30a0:	40f2                	lw	ra,28(sp)
    30a2:	44d2                	lw	s1,20(sp)
    30a4:	4942                	lw	s2,16(sp)
    30a6:	49b2                	lw	s3,12(sp)
    30a8:	4a22                	lw	s4,8(sp)
    30aa:	4a92                	lw	s5,4(sp)
    30ac:	4b02                	lw	s6,0(sp)
    30ae:	4585                	li	a1,1
    30b0:	6105                	addi	sp,sp,32
    30b2:	ec0fd06f          	j	772 <I2C_AcknowledgeConfig>
    30b6:	e409                	bnez	s0,30c0 <MPU6050_I2C_Mem_Read+0x132>
    30b8:	4581                	li	a1,0
    30ba:	8526                	mv	a0,s1
    30bc:	eb6fd0ef          	jal	ra,772 <I2C_AcknowledgeConfig>
    30c0:	85ce                	mv	a1,s3
    30c2:	8526                	mv	a0,s1
    30c4:	ef0fd0ef          	jal	ra,7b4 <I2C_CheckEvent>
    30c8:	dd65                	beqz	a0,30c0 <MPU6050_I2C_Mem_Read+0x132>
    30ca:	8526                	mv	a0,s1
    30cc:	ecafd0ef          	jal	ra,796 <I2C_ReceiveData>
    30d0:	00a90023          	sb	a0,0(s2)
    30d4:	0905                	addi	s2,s2,1
    30d6:	b775                	j	3082 <MPU6050_I2C_Mem_Read+0xf4>

000030d8 <MPU6050_Get_Data>:
    30d8:	1101                	addi	sp,sp,-32
    30da:	cc22                	sw	s0,24(sp)
    30dc:	00e10693          	addi	a3,sp,14
    30e0:	842a                	mv	s0,a0
    30e2:	85aa                	mv	a1,a0
    30e4:	4605                	li	a2,1
    30e6:	0d000513          	li	a0,208
    30ea:	ce06                	sw	ra,28(sp)
    30ec:	354d                	jal	2f8e <MPU6050_I2C_Mem_Read>
    30ee:	00140593          	addi	a1,s0,1
    30f2:	00f10693          	addi	a3,sp,15
    30f6:	0d000513          	li	a0,208
    30fa:	4605                	li	a2,1
    30fc:	0ff5f593          	andi	a1,a1,255
    3100:	3579                	jal	2f8e <MPU6050_I2C_Mem_Read>
    3102:	00e14783          	lbu	a5,14(sp)
    3106:	00f14503          	lbu	a0,15(sp)
    310a:	40f2                	lw	ra,28(sp)
    310c:	4462                	lw	s0,24(sp)
    310e:	07a2                	slli	a5,a5,0x8
    3110:	8d5d                	or	a0,a0,a5
    3112:	6105                	addi	sp,sp,32
    3114:	8082                	ret

00003116 <MPU6050_Get_Temp>:
    3116:	1141                	addi	sp,sp,-16
    3118:	04100513          	li	a0,65
    311c:	c606                	sw	ra,12(sp)
    311e:	3f6d                	jal	30d8 <MPU6050_Get_Data>
    3120:	0542                	slli	a0,a0,0x10
    3122:	000087b7          	lui	a5,0x8
    3126:	8541                	srai	a0,a0,0x10
    3128:	68c7a507          	flw	fa0,1676(a5) # 868c <dmp_memory+0xc1c>
    312c:	d00577d3          	fcvt.s.w	fa5,a0
    3130:	000087b7          	lui	a5,0x8
    3134:	40b2                	lw	ra,12(sp)
    3136:	18a7f7d3          	fdiv.s	fa5,fa5,fa0
    313a:	6907a507          	flw	fa0,1680(a5) # 8690 <dmp_memory+0xc20>
    313e:	0141                	addi	sp,sp,16
    3140:	00a7f553          	fadd.s	fa0,fa5,fa0
    3144:	8082                	ret

00003146 <MPU6050_MPU_DMP_GetData>:
    3146:	1101                	addi	sp,sp,-32
    3148:	0070                	addi	a2,sp,12
    314a:	002c                	addi	a1,sp,8
    314c:	0048                	addi	a0,sp,4
    314e:	ce06                	sw	ra,28(sp)
    3150:	cc22                	sw	s0,24(sp)
    3152:	ca26                	sw	s1,20(sp)
    3154:	fddfe0ef          	jal	ra,2130 <mpu_dmp_get_data>
    3158:	67b2                	flw	fa5,12(sp)
    315a:	82818413          	addi	s0,gp,-2008 # 200000d0 <MPU6050_para>
    315e:	e01c                	fsw	fa5,0(s0)
    3160:	6792                	flw	fa5,4(sp)
    3162:	84aa                	mv	s1,a0
    3164:	04700513          	li	a0,71
    3168:	e05c                	fsw	fa5,4(s0)
    316a:	67a2                	flw	fa5,8(sp)
    316c:	e41c                	fsw	fa5,8(s0)
    316e:	37ad                	jal	30d8 <MPU6050_Get_Data>
    3170:	00a41623          	sh	a0,12(s0)
    3174:	04300513          	li	a0,67
    3178:	3785                	jal	30d8 <MPU6050_Get_Data>
    317a:	00a41723          	sh	a0,14(s0)
    317e:	04500513          	li	a0,69
    3182:	3f99                	jal	30d8 <MPU6050_Get_Data>
    3184:	00a41823          	sh	a0,16(s0)
    3188:	40f2                	lw	ra,28(sp)
    318a:	4462                	lw	s0,24(sp)
    318c:	8526                	mv	a0,s1
    318e:	44d2                	lw	s1,20(sp)
    3190:	6105                	addi	sp,sp,32
    3192:	8082                	ret

00003194 <I8080_Write_Byte>:
    3194:	1141                	addi	sp,sp,-16
    3196:	c226                	sw	s1,4(sp)
    3198:	84aa                	mv	s1,a0
    319a:	40011537          	lui	a0,0x40011
    319e:	c422                	sw	s0,8(sp)
    31a0:	4601                	li	a2,0
    31a2:	842e                	mv	s0,a1
    31a4:	80050513          	addi	a0,a0,-2048 # 40010800 <_eusrstack+0x20008800>
    31a8:	65a1                	lui	a1,0x8
    31aa:	c606                	sw	ra,12(sp)
    31ac:	c04a                	sw	s2,0(sp)
    31ae:	c48fd0ef          	jal	ra,5f6 <GPIO_WriteBit>
    31b2:	40012537          	lui	a0,0x40012
    31b6:	8622                	mv	a2,s0
    31b8:	4591                	li	a1,4
    31ba:	80050513          	addi	a0,a0,-2048 # 40011800 <_eusrstack+0x20009800>
    31be:	40004437          	lui	s0,0x40004
    31c2:	c34fd0ef          	jal	ra,5f6 <GPIO_WriteBit>
    31c6:	c0040913          	addi	s2,s0,-1024 # 40003c00 <_eusrstack+0x1fffbc00>
    31ca:	4589                	li	a1,2
    31cc:	854a                	mv	a0,s2
    31ce:	807fd0ef          	jal	ra,9d4 <SPI_I2S_GetFlagStatus>
    31d2:	dd65                	beqz	a0,31ca <I8080_Write_Byte+0x36>
    31d4:	c0040513          	addi	a0,s0,-1024
    31d8:	85a6                	mv	a1,s1
    31da:	40004437          	lui	s0,0x40004
    31de:	feafd0ef          	jal	ra,9c8 <SPI_I2S_SendData>
    31e2:	c0040413          	addi	s0,s0,-1024 # 40003c00 <_eusrstack+0x1fffbc00>
    31e6:	08000593          	li	a1,128
    31ea:	8522                	mv	a0,s0
    31ec:	fe8fd0ef          	jal	ra,9d4 <SPI_I2S_GetFlagStatus>
    31f0:	f97d                	bnez	a0,31e6 <I8080_Write_Byte+0x52>
    31f2:	4422                	lw	s0,8(sp)
    31f4:	40b2                	lw	ra,12(sp)
    31f6:	4492                	lw	s1,4(sp)
    31f8:	4902                	lw	s2,0(sp)
    31fa:	40011537          	lui	a0,0x40011
    31fe:	4605                	li	a2,1
    3200:	65a1                	lui	a1,0x8
    3202:	80050513          	addi	a0,a0,-2048 # 40010800 <_eusrstack+0x20008800>
    3206:	0141                	addi	sp,sp,16
    3208:	beefd06f          	j	5f6 <GPIO_WriteBit>

0000320c <I8080_Write_Byte16>:
    320c:	1141                	addi	sp,sp,-16
    320e:	c422                	sw	s0,8(sp)
    3210:	842a                	mv	s0,a0
    3212:	8121                	srli	a0,a0,0x8
    3214:	4585                	li	a1,1
    3216:	0ff57513          	andi	a0,a0,255
    321a:	c606                	sw	ra,12(sp)
    321c:	3fa5                	jal	3194 <I8080_Write_Byte>
    321e:	0ff47513          	andi	a0,s0,255
    3222:	4422                	lw	s0,8(sp)
    3224:	40b2                	lw	ra,12(sp)
    3226:	4585                	li	a1,1
    3228:	0141                	addi	sp,sp,16
    322a:	b7ad                	j	3194 <I8080_Write_Byte>

0000322c <ST7789_SetWindows>:
    322c:	1101                	addi	sp,sp,-32
    322e:	cc22                	sw	s0,24(sp)
    3230:	ca26                	sw	s1,20(sp)
    3232:	842e                	mv	s0,a1
    3234:	84aa                	mv	s1,a0
    3236:	4581                	li	a1,0
    3238:	02a00513          	li	a0,42
    323c:	ce06                	sw	ra,28(sp)
    323e:	c436                	sw	a3,8(sp)
    3240:	c632                	sw	a2,12(sp)
    3242:	3f89                	jal	3194 <I8080_Write_Byte>
    3244:	8526                	mv	a0,s1
    3246:	37d9                	jal	320c <I8080_Write_Byte16>
    3248:	4632                	lw	a2,12(sp)
    324a:	167d                	addi	a2,a2,-1
    324c:	00960533          	add	a0,a2,s1
    3250:	3f75                	jal	320c <I8080_Write_Byte16>
    3252:	4581                	li	a1,0
    3254:	02b00513          	li	a0,43
    3258:	3f35                	jal	3194 <I8080_Write_Byte>
    325a:	02240513          	addi	a0,s0,34
    325e:	377d                	jal	320c <I8080_Write_Byte16>
    3260:	46a2                	lw	a3,8(sp)
    3262:	02168693          	addi	a3,a3,33
    3266:	00868533          	add	a0,a3,s0
    326a:	374d                	jal	320c <I8080_Write_Byte16>
    326c:	4462                	lw	s0,24(sp)
    326e:	40f2                	lw	ra,28(sp)
    3270:	44d2                	lw	s1,20(sp)
    3272:	4581                	li	a1,0
    3274:	02c00513          	li	a0,44
    3278:	6105                	addi	sp,sp,32
    327a:	bf29                	j	3194 <I8080_Write_Byte>

0000327c <GT30L32S4W_SendADDR>:
    327c:	1101                	addi	sp,sp,-32
    327e:	ca26                	sw	s1,20(sp)
    3280:	c84a                	sw	s2,16(sp)
    3282:	c64e                	sw	s3,12(sp)
    3284:	01055913          	srli	s2,a0,0x10
    3288:	00855493          	srli	s1,a0,0x8
    328c:	400049b7          	lui	s3,0x40004
    3290:	cc22                	sw	s0,24(sp)
    3292:	c452                	sw	s4,8(sp)
    3294:	ce06                	sw	ra,28(sp)
    3296:	0ff97913          	andi	s2,s2,255
    329a:	0ff4f493          	andi	s1,s1,255
    329e:	0ff57413          	andi	s0,a0,255
    32a2:	c0098a13          	addi	s4,s3,-1024 # 40003c00 <_eusrstack+0x1fffbc00>
    32a6:	4589                	li	a1,2
    32a8:	8552                	mv	a0,s4
    32aa:	f2afd0ef          	jal	ra,9d4 <SPI_I2S_GetFlagStatus>
    32ae:	dd65                	beqz	a0,32a6 <GT30L32S4W_SendADDR+0x2a>
    32b0:	c0098513          	addi	a0,s3,-1024
    32b4:	45ad                	li	a1,11
    32b6:	400049b7          	lui	s3,0x40004
    32ba:	f0efd0ef          	jal	ra,9c8 <SPI_I2S_SendData>
    32be:	c0098a13          	addi	s4,s3,-1024 # 40003c00 <_eusrstack+0x1fffbc00>
    32c2:	4589                	li	a1,2
    32c4:	8552                	mv	a0,s4
    32c6:	f0efd0ef          	jal	ra,9d4 <SPI_I2S_GetFlagStatus>
    32ca:	dd65                	beqz	a0,32c2 <GT30L32S4W_SendADDR+0x46>
    32cc:	85ca                	mv	a1,s2
    32ce:	c0098513          	addi	a0,s3,-1024
    32d2:	40004937          	lui	s2,0x40004
    32d6:	ef2fd0ef          	jal	ra,9c8 <SPI_I2S_SendData>
    32da:	c0090993          	addi	s3,s2,-1024 # 40003c00 <_eusrstack+0x1fffbc00>
    32de:	4589                	li	a1,2
    32e0:	854e                	mv	a0,s3
    32e2:	ef2fd0ef          	jal	ra,9d4 <SPI_I2S_GetFlagStatus>
    32e6:	dd65                	beqz	a0,32de <GT30L32S4W_SendADDR+0x62>
    32e8:	85a6                	mv	a1,s1
    32ea:	c0090513          	addi	a0,s2,-1024
    32ee:	400044b7          	lui	s1,0x40004
    32f2:	ed6fd0ef          	jal	ra,9c8 <SPI_I2S_SendData>
    32f6:	c0048913          	addi	s2,s1,-1024 # 40003c00 <_eusrstack+0x1fffbc00>
    32fa:	4589                	li	a1,2
    32fc:	854a                	mv	a0,s2
    32fe:	ed6fd0ef          	jal	ra,9d4 <SPI_I2S_GetFlagStatus>
    3302:	dd65                	beqz	a0,32fa <GT30L32S4W_SendADDR+0x7e>
    3304:	85a2                	mv	a1,s0
    3306:	c0048513          	addi	a0,s1,-1024
    330a:	40004437          	lui	s0,0x40004
    330e:	ebafd0ef          	jal	ra,9c8 <SPI_I2S_SendData>
    3312:	c0040493          	addi	s1,s0,-1024 # 40003c00 <_eusrstack+0x1fffbc00>
    3316:	4589                	li	a1,2
    3318:	8526                	mv	a0,s1
    331a:	ebafd0ef          	jal	ra,9d4 <SPI_I2S_GetFlagStatus>
    331e:	dd65                	beqz	a0,3316 <GT30L32S4W_SendADDR+0x9a>
    3320:	c0040513          	addi	a0,s0,-1024
    3324:	4462                	lw	s0,24(sp)
    3326:	40f2                	lw	ra,28(sp)
    3328:	44d2                	lw	s1,20(sp)
    332a:	4942                	lw	s2,16(sp)
    332c:	49b2                	lw	s3,12(sp)
    332e:	4a22                	lw	s4,8(sp)
    3330:	0ff00593          	li	a1,255
    3334:	6105                	addi	sp,sp,32
    3336:	e92fd06f          	j	9c8 <SPI_I2S_SendData>

0000333a <GT30L32S4W_Read_Byte.constprop.2>:
    333a:	1141                	addi	sp,sp,-16
    333c:	c422                	sw	s0,8(sp)
    333e:	40004437          	lui	s0,0x40004
    3342:	c226                	sw	s1,4(sp)
    3344:	c606                	sw	ra,12(sp)
    3346:	c0040493          	addi	s1,s0,-1024 # 40003c00 <_eusrstack+0x1fffbc00>
    334a:	4589                	li	a1,2
    334c:	8526                	mv	a0,s1
    334e:	e86fd0ef          	jal	ra,9d4 <SPI_I2S_GetFlagStatus>
    3352:	dd65                	beqz	a0,334a <GT30L32S4W_Read_Byte.constprop.2+0x10>
    3354:	c0040513          	addi	a0,s0,-1024
    3358:	0ff00593          	li	a1,255
    335c:	40004437          	lui	s0,0x40004
    3360:	e68fd0ef          	jal	ra,9c8 <SPI_I2S_SendData>
    3364:	c0040413          	addi	s0,s0,-1024 # 40003c00 <_eusrstack+0x1fffbc00>
    3368:	08000593          	li	a1,128
    336c:	8522                	mv	a0,s0
    336e:	e66fd0ef          	jal	ra,9d4 <SPI_I2S_GetFlagStatus>
    3372:	f97d                	bnez	a0,3368 <GT30L32S4W_Read_Byte.constprop.2+0x2e>
    3374:	40004437          	lui	s0,0x40004
    3378:	c0040493          	addi	s1,s0,-1024 # 40003c00 <_eusrstack+0x1fffbc00>
    337c:	4585                	li	a1,1
    337e:	8526                	mv	a0,s1
    3380:	e54fd0ef          	jal	ra,9d4 <SPI_I2S_GetFlagStatus>
    3384:	dd65                	beqz	a0,337c <GT30L32S4W_Read_Byte.constprop.2+0x42>
    3386:	c0040513          	addi	a0,s0,-1024
    338a:	e44fd0ef          	jal	ra,9ce <SPI_I2S_ReceiveData>
    338e:	40b2                	lw	ra,12(sp)
    3390:	4422                	lw	s0,8(sp)
    3392:	4492                	lw	s1,4(sp)
    3394:	0ff57513          	andi	a0,a0,255
    3398:	0141                	addi	sp,sp,16
    339a:	8082                	ret

0000339c <GT30L32S4W_ReadData>:
    339c:	7179                	addi	sp,sp,-48
    339e:	001de7b7          	lui	a5,0x1de
    33a2:	d226                	sw	s1,36(sp)
    33a4:	d04a                	sw	s2,32(sp)
    33a6:	cc52                	sw	s4,24(sp)
    33a8:	d606                	sw	ra,44(sp)
    33aa:	d422                	sw	s0,40(sp)
    33ac:	ce4e                	sw	s3,28(sp)
    33ae:	ca56                	sw	s5,20(sp)
    33b0:	c85a                	sw	s6,16(sp)
    33b2:	c65e                	sw	s7,12(sp)
    33b4:	28078713          	addi	a4,a5,640 # 1de280 <_data_lma+0x1d5924>
    33b8:	8a2a                	mv	s4,a0
    33ba:	84ae                	mv	s1,a1
    33bc:	8932                	mv	s2,a2
    33be:	0006ca83          	lbu	s5,0(a3)
    33c2:	0016c983          	lbu	s3,1(a3)
    33c6:	00e50763          	beq	a0,a4,33d4 <GT30L32S4W_ReadData+0x38>
    33ca:	f8078793          	addi	a5,a5,-128
    33ce:	4401                	li	s0,0
    33d0:	04f51263          	bne	a0,a5,3414 <GT30L32S4W_ReadData+0x78>
    33d4:	fe048793          	addi	a5,s1,-32
    33d8:	0ff7f693          	andi	a3,a5,255
    33dc:	05e00713          	li	a4,94
    33e0:	4401                	li	s0,0
    33e2:	00d76563          	bltu	a4,a3,33ec <GT30L32S4W_ReadData+0x50>
    33e6:	00379413          	slli	s0,a5,0x3
    33ea:	9452                	add	s0,s0,s4
    33ec:	40012537          	lui	a0,0x40012
    33f0:	4601                	li	a2,0
    33f2:	4589                	li	a1,2
    33f4:	80050513          	addi	a0,a0,-2048 # 40011800 <_eusrstack+0x20009800>
    33f8:	9fefd0ef          	jal	ra,5f6 <GPIO_WriteBit>
    33fc:	8522                	mv	a0,s0
    33fe:	3dbd                	jal	327c <GT30L32S4W_SendADDR>
    3400:	4b01                	li	s6,0
    3402:	4ba1                	li	s7,8
    3404:	3f1d                	jal	333a <GT30L32S4W_Read_Byte.constprop.2>
    3406:	016907b3          	add	a5,s2,s6
    340a:	00a78023          	sb	a0,0(a5)
    340e:	0b05                	addi	s6,s6,1
    3410:	ff7b1ae3          	bne	s6,s7,3404 <GT30L32S4W_ReadData+0x68>
    3414:	001dc7b7          	lui	a5,0x1dc
    3418:	e0078793          	addi	a5,a5,-512 # 1dbe00 <_data_lma+0x1d34a4>
    341c:	0afa1463          	bne	s4,a5,34c4 <GT30L32S4W_ReadData+0x128>
    3420:	1481                	addi	s1,s1,-32
    3422:	0ff4f713          	andi	a4,s1,255
    3426:	05e00793          	li	a5,94
    342a:	00e7e763          	bltu	a5,a4,3438 <GT30L32S4W_ReadData+0x9c>
    342e:	4431                	li	s0,12
    3430:	028484b3          	mul	s1,s1,s0
    3434:	01448433          	add	s0,s1,s4
    3438:	40012537          	lui	a0,0x40012
    343c:	4601                	li	a2,0
    343e:	4589                	li	a1,2
    3440:	80050513          	addi	a0,a0,-2048 # 40011800 <_eusrstack+0x20009800>
    3444:	9b2fd0ef          	jal	ra,5f6 <GPIO_WriteBit>
    3448:	8522                	mv	a0,s0
    344a:	3d0d                	jal	327c <GT30L32S4W_SendADDR>
    344c:	4481                	li	s1,0
    344e:	4b31                	li	s6,12
    3450:	35ed                	jal	333a <GT30L32S4W_Read_Byte.constprop.2>
    3452:	009907b3          	add	a5,s2,s1
    3456:	00a78023          	sb	a0,0(a5)
    345a:	0485                	addi	s1,s1,1
    345c:	ff649ae3          	bne	s1,s6,3450 <GT30L32S4W_ReadData+0xb4>
    3460:	0002d7b7          	lui	a5,0x2d
    3464:	9d078793          	addi	a5,a5,-1584 # 2c9d0 <_data_lma+0x24074>
    3468:	0efa1c63          	bne	s4,a5,3560 <GT30L32S4W_ReadData+0x1c4>
    346c:	05fa8793          	addi	a5,s5,95
    3470:	0ff7f793          	andi	a5,a5,255
    3474:	4721                	li	a4,8
    3476:	2cf76763          	bltu	a4,a5,3744 <GT30L32S4W_ReadData+0x3a8>
    347a:	0a000793          	li	a5,160
    347e:	0137fd63          	bgeu	a5,s3,3498 <GT30L32S4W_ReadData+0xfc>
    3482:	05e00413          	li	s0,94
    3486:	f5fa8793          	addi	a5,s5,-161
    348a:	028787b3          	mul	a5,a5,s0
    348e:	f5f98413          	addi	s0,s3,-161
    3492:	943e                	add	s0,s0,a5
    3494:	0416                	slli	s0,s0,0x5
    3496:	9452                	add	s0,s0,s4
    3498:	40012537          	lui	a0,0x40012
    349c:	4601                	li	a2,0
    349e:	4589                	li	a1,2
    34a0:	80050513          	addi	a0,a0,-2048 # 40011800 <_eusrstack+0x20009800>
    34a4:	952fd0ef          	jal	ra,5f6 <GPIO_WriteBit>
    34a8:	8522                	mv	a0,s0
    34aa:	3bc9                	jal	327c <GT30L32S4W_SendADDR>
    34ac:	4401                	li	s0,0
    34ae:	02000493          	li	s1,32
    34b2:	3561                	jal	333a <GT30L32S4W_Read_Byte.constprop.2>
    34b4:	008907b3          	add	a5,s2,s0
    34b8:	00a78023          	sb	a0,0(a5)
    34bc:	0405                	addi	s0,s0,1
    34be:	fe941ae3          	bne	s0,s1,34b2 <GT30L32S4W_ReadData+0x116>
    34c2:	ac39                	j	36e0 <GT30L32S4W_ReadData+0x344>
    34c4:	001dd7b7          	lui	a5,0x1dd
    34c8:	78078793          	addi	a5,a5,1920 # 1dd780 <_data_lma+0x1d4e24>
    34cc:	04fa1163          	bne	s4,a5,350e <GT30L32S4W_ReadData+0x172>
    34d0:	1481                	addi	s1,s1,-32
    34d2:	0ff4f713          	andi	a4,s1,255
    34d6:	05e00793          	li	a5,94
    34da:	00e7e563          	bltu	a5,a4,34e4 <GT30L32S4W_ReadData+0x148>
    34de:	0492                	slli	s1,s1,0x4
    34e0:	01448433          	add	s0,s1,s4
    34e4:	40012537          	lui	a0,0x40012
    34e8:	4601                	li	a2,0
    34ea:	4589                	li	a1,2
    34ec:	80050513          	addi	a0,a0,-2048 # 40011800 <_eusrstack+0x20009800>
    34f0:	906fd0ef          	jal	ra,5f6 <GPIO_WriteBit>
    34f4:	8522                	mv	a0,s0
    34f6:	3359                	jal	327c <GT30L32S4W_SendADDR>
    34f8:	4481                	li	s1,0
    34fa:	4b41                	li	s6,16
    34fc:	3d3d                	jal	333a <GT30L32S4W_Read_Byte.constprop.2>
    34fe:	009907b3          	add	a5,s2,s1
    3502:	00a78023          	sb	a0,0(a5)
    3506:	0485                	addi	s1,s1,1
    3508:	ff649ae3          	bne	s1,s6,34fc <GT30L32S4W_ReadData+0x160>
    350c:	bf91                	j	3460 <GT30L32S4W_ReadData+0xc4>
    350e:	001e07b7          	lui	a5,0x1e0
    3512:	f0078793          	addi	a5,a5,-256 # 1dff00 <_data_lma+0x1d75a4>
    3516:	0afa1b63          	bne	s4,a5,35cc <GT30L32S4W_ReadData+0x230>
    351a:	1481                	addi	s1,s1,-32
    351c:	0ff4f713          	andi	a4,s1,255
    3520:	05e00793          	li	a5,94
    3524:	00e7e863          	bltu	a5,a4,3534 <GT30L32S4W_ReadData+0x198>
    3528:	03000413          	li	s0,48
    352c:	028484b3          	mul	s1,s1,s0
    3530:	01448433          	add	s0,s1,s4
    3534:	40012537          	lui	a0,0x40012
    3538:	4601                	li	a2,0
    353a:	4589                	li	a1,2
    353c:	80050513          	addi	a0,a0,-2048 # 40011800 <_eusrstack+0x20009800>
    3540:	8b6fd0ef          	jal	ra,5f6 <GPIO_WriteBit>
    3544:	8522                	mv	a0,s0
    3546:	d37ff0ef          	jal	ra,327c <GT30L32S4W_SendADDR>
    354a:	4481                	li	s1,0
    354c:	03000b13          	li	s6,48
    3550:	33ed                	jal	333a <GT30L32S4W_Read_Byte.constprop.2>
    3552:	009907b3          	add	a5,s2,s1
    3556:	00a78023          	sb	a0,0(a5)
    355a:	0485                	addi	s1,s1,1
    355c:	ff649ae3          	bne	s1,s6,3550 <GT30L32S4W_ReadData+0x1b4>
    3560:	000687b7          	lui	a5,0x68
    3564:	19078793          	addi	a5,a5,400 # 68190 <_data_lma+0x5f834>
    3568:	0afa1963          	bne	s4,a5,361a <GT30L32S4W_ReadData+0x27e>
    356c:	05fa8793          	addi	a5,s5,95
    3570:	0ff7f793          	andi	a5,a5,255
    3574:	4721                	li	a4,8
    3576:	1ef76e63          	bltu	a4,a5,3772 <GT30L32S4W_ReadData+0x3d6>
    357a:	0a000793          	li	a5,160
    357e:	0337f063          	bgeu	a5,s3,359e <GT30L32S4W_ReadData+0x202>
    3582:	05e00413          	li	s0,94
    3586:	f5fa8793          	addi	a5,s5,-161
    358a:	028787b3          	mul	a5,a5,s0
    358e:	f5f98413          	addi	s0,s3,-161
    3592:	04800993          	li	s3,72
    3596:	943e                	add	s0,s0,a5
    3598:	03340433          	mul	s0,s0,s3
    359c:	9452                	add	s0,s0,s4
    359e:	40012537          	lui	a0,0x40012
    35a2:	4601                	li	a2,0
    35a4:	4589                	li	a1,2
    35a6:	80050513          	addi	a0,a0,-2048 # 40011800 <_eusrstack+0x20009800>
    35aa:	84cfd0ef          	jal	ra,5f6 <GPIO_WriteBit>
    35ae:	8522                	mv	a0,s0
    35b0:	ccdff0ef          	jal	ra,327c <GT30L32S4W_SendADDR>
    35b4:	4401                	li	s0,0
    35b6:	04800493          	li	s1,72
    35ba:	3341                	jal	333a <GT30L32S4W_Read_Byte.constprop.2>
    35bc:	008907b3          	add	a5,s2,s0
    35c0:	00a78023          	sb	a0,0(a5)
    35c4:	0405                	addi	s0,s0,1
    35c6:	fe941ae3          	bne	s0,s1,35ba <GT30L32S4W_ReadData+0x21e>
    35ca:	aa19                	j	36e0 <GT30L32S4W_ReadData+0x344>
    35cc:	001e67b7          	lui	a5,0x1e6
    35d0:	a5078793          	addi	a5,a5,-1456 # 1e5a50 <_data_lma+0x1dd0f4>
    35d4:	0afa1763          	bne	s4,a5,3682 <GT30L32S4W_ReadData+0x2e6>
    35d8:	1481                	addi	s1,s1,-32
    35da:	0ff4f713          	andi	a4,s1,255
    35de:	05e00793          	li	a5,94
    35e2:	00e7e563          	bltu	a5,a4,35ec <GT30L32S4W_ReadData+0x250>
    35e6:	049a                	slli	s1,s1,0x6
    35e8:	01448433          	add	s0,s1,s4
    35ec:	40012537          	lui	a0,0x40012
    35f0:	4601                	li	a2,0
    35f2:	4589                	li	a1,2
    35f4:	80050513          	addi	a0,a0,-2048 # 40011800 <_eusrstack+0x20009800>
    35f8:	ffffc0ef          	jal	ra,5f6 <GPIO_WriteBit>
    35fc:	8522                	mv	a0,s0
    35fe:	c7fff0ef          	jal	ra,327c <GT30L32S4W_SendADDR>
    3602:	4481                	li	s1,0
    3604:	04000b13          	li	s6,64
    3608:	d33ff0ef          	jal	ra,333a <GT30L32S4W_Read_Byte.constprop.2>
    360c:	009907b3          	add	a5,s2,s1
    3610:	00a78023          	sb	a0,0(a5)
    3614:	0485                	addi	s1,s1,1
    3616:	ff6499e3          	bne	s1,s6,3608 <GT30L32S4W_ReadData+0x26c>
    361a:	000ee7b7          	lui	a5,0xee
    361e:	f0078793          	addi	a5,a5,-256 # edf00 <_data_lma+0xe55a4>
    3622:	0afa1f63          	bne	s4,a5,36e0 <GT30L32S4W_ReadData+0x344>
    3626:	05fa8793          	addi	a5,s5,95
    362a:	0ff7f793          	andi	a5,a5,255
    362e:	4721                	li	a4,8
    3630:	16f76c63          	bltu	a4,a5,37a8 <GT30L32S4W_ReadData+0x40c>
    3634:	0a000793          	li	a5,160
    3638:	0137fd63          	bgeu	a5,s3,3652 <GT30L32S4W_ReadData+0x2b6>
    363c:	05e00413          	li	s0,94
    3640:	f5fa8793          	addi	a5,s5,-161
    3644:	028787b3          	mul	a5,a5,s0
    3648:	f5f98413          	addi	s0,s3,-161
    364c:	943e                	add	s0,s0,a5
    364e:	041e                	slli	s0,s0,0x7
    3650:	9452                	add	s0,s0,s4
    3652:	40012537          	lui	a0,0x40012
    3656:	4601                	li	a2,0
    3658:	4589                	li	a1,2
    365a:	80050513          	addi	a0,a0,-2048 # 40011800 <_eusrstack+0x20009800>
    365e:	f99fc0ef          	jal	ra,5f6 <GPIO_WriteBit>
    3662:	8522                	mv	a0,s0
    3664:	c19ff0ef          	jal	ra,327c <GT30L32S4W_SendADDR>
    3668:	4401                	li	s0,0
    366a:	08000493          	li	s1,128
    366e:	ccdff0ef          	jal	ra,333a <GT30L32S4W_Read_Byte.constprop.2>
    3672:	008907b3          	add	a5,s2,s0
    3676:	00a78023          	sb	a0,0(a5)
    367a:	0405                	addi	s0,s0,1
    367c:	fe9419e3          	bne	s0,s1,366e <GT30L32S4W_ReadData+0x2d2>
    3680:	a085                	j	36e0 <GT30L32S4W_ReadData+0x344>
    3682:	dc0a1fe3          	bnez	s4,3460 <GT30L32S4W_ReadData+0xc4>
    3686:	05fa8793          	addi	a5,s5,95
    368a:	0ff7f793          	andi	a5,a5,255
    368e:	4721                	li	a4,8
    3690:	08f76463          	bltu	a4,a5,3718 <GT30L32S4W_ReadData+0x37c>
    3694:	0a000793          	li	a5,160
    3698:	0137fe63          	bgeu	a5,s3,36b4 <GT30L32S4W_ReadData+0x318>
    369c:	05e00413          	li	s0,94
    36a0:	f5fa8793          	addi	a5,s5,-161
    36a4:	028787b3          	mul	a5,a5,s0
    36a8:	f5f98413          	addi	s0,s3,-161
    36ac:	943e                	add	s0,s0,a5
    36ae:	47e1                	li	a5,24
    36b0:	02f40433          	mul	s0,s0,a5
    36b4:	40012537          	lui	a0,0x40012
    36b8:	4601                	li	a2,0
    36ba:	4589                	li	a1,2
    36bc:	80050513          	addi	a0,a0,-2048 # 40011800 <_eusrstack+0x20009800>
    36c0:	f37fc0ef          	jal	ra,5f6 <GPIO_WriteBit>
    36c4:	8522                	mv	a0,s0
    36c6:	bb7ff0ef          	jal	ra,327c <GT30L32S4W_SendADDR>
    36ca:	4401                	li	s0,0
    36cc:	44e1                	li	s1,24
    36ce:	c6dff0ef          	jal	ra,333a <GT30L32S4W_Read_Byte.constprop.2>
    36d2:	008907b3          	add	a5,s2,s0
    36d6:	00a78023          	sb	a0,0(a5)
    36da:	0405                	addi	s0,s0,1
    36dc:	fe9419e3          	bne	s0,s1,36ce <GT30L32S4W_ReadData+0x332>
    36e0:	40004437          	lui	s0,0x40004
    36e4:	c0040413          	addi	s0,s0,-1024 # 40003c00 <_eusrstack+0x1fffbc00>
    36e8:	08000593          	li	a1,128
    36ec:	8522                	mv	a0,s0
    36ee:	ae6fd0ef          	jal	ra,9d4 <SPI_I2S_GetFlagStatus>
    36f2:	f97d                	bnez	a0,36e8 <GT30L32S4W_ReadData+0x34c>
    36f4:	5422                	lw	s0,40(sp)
    36f6:	50b2                	lw	ra,44(sp)
    36f8:	5492                	lw	s1,36(sp)
    36fa:	5902                	lw	s2,32(sp)
    36fc:	49f2                	lw	s3,28(sp)
    36fe:	4a62                	lw	s4,24(sp)
    3700:	4ad2                	lw	s5,20(sp)
    3702:	4b42                	lw	s6,16(sp)
    3704:	4bb2                	lw	s7,12(sp)
    3706:	40012537          	lui	a0,0x40012
    370a:	4605                	li	a2,1
    370c:	4589                	li	a1,2
    370e:	80050513          	addi	a0,a0,-2048 # 40011800 <_eusrstack+0x20009800>
    3712:	6145                	addi	sp,sp,48
    3714:	ee3fc06f          	j	5f6 <GPIO_WriteBit>
    3718:	050a8793          	addi	a5,s5,80
    371c:	0ff7f793          	andi	a5,a5,255
    3720:	04700713          	li	a4,71
    3724:	f8f768e3          	bltu	a4,a5,36b4 <GT30L32S4W_ReadData+0x318>
    3728:	0a000793          	li	a5,160
    372c:	f937f4e3          	bgeu	a5,s3,36b4 <GT30L32S4W_ReadData+0x318>
    3730:	f50a8793          	addi	a5,s5,-176
    3734:	05e00413          	li	s0,94
    3738:	02878433          	mul	s0,a5,s0
    373c:	944e                	add	s0,s0,s3
    373e:	2ad40413          	addi	s0,s0,685
    3742:	b7b5                	j	36ae <GT30L32S4W_ReadData+0x312>
    3744:	050a8793          	addi	a5,s5,80
    3748:	0ff7f793          	andi	a5,a5,255
    374c:	04700713          	li	a4,71
    3750:	d4f764e3          	bltu	a4,a5,3498 <GT30L32S4W_ReadData+0xfc>
    3754:	0a000793          	li	a5,160
    3758:	d537f0e3          	bgeu	a5,s3,3498 <GT30L32S4W_ReadData+0xfc>
    375c:	05e00413          	li	s0,94
    3760:	f50a8793          	addi	a5,s5,-176
    3764:	028787b3          	mul	a5,a5,s0
    3768:	00f98433          	add	s0,s3,a5
    376c:	2ad40413          	addi	s0,s0,685
    3770:	b315                	j	3494 <GT30L32S4W_ReadData+0xf8>
    3772:	050a8793          	addi	a5,s5,80
    3776:	0ff7f793          	andi	a5,a5,255
    377a:	04700713          	li	a4,71
    377e:	e2f760e3          	bltu	a4,a5,359e <GT30L32S4W_ReadData+0x202>
    3782:	0a000793          	li	a5,160
    3786:	e137fce3          	bgeu	a5,s3,359e <GT30L32S4W_ReadData+0x202>
    378a:	05e00413          	li	s0,94
    378e:	f50a8793          	addi	a5,s5,-176
    3792:	028787b3          	mul	a5,a5,s0
    3796:	00f98433          	add	s0,s3,a5
    379a:	2ad40413          	addi	s0,s0,685
    379e:	04800793          	li	a5,72
    37a2:	02f40433          	mul	s0,s0,a5
    37a6:	bbdd                	j	359c <GT30L32S4W_ReadData+0x200>
    37a8:	050a8793          	addi	a5,s5,80
    37ac:	0ff7f793          	andi	a5,a5,255
    37b0:	04700713          	li	a4,71
    37b4:	e8f76fe3          	bltu	a4,a5,3652 <GT30L32S4W_ReadData+0x2b6>
    37b8:	0a000793          	li	a5,160
    37bc:	e937fbe3          	bgeu	a5,s3,3652 <GT30L32S4W_ReadData+0x2b6>
    37c0:	05e00413          	li	s0,94
    37c4:	f50a8793          	addi	a5,s5,-176
    37c8:	028787b3          	mul	a5,a5,s0
    37cc:	00f98433          	add	s0,s3,a5
    37d0:	2ad40413          	addi	s0,s0,685
    37d4:	bdad                	j	364e <GT30L32S4W_ReadData+0x2b2>

000037d6 <ST7789_FillColor>:
    37d6:	1101                	addi	sp,sp,-32
    37d8:	cc22                	sw	s0,24(sp)
    37da:	c84a                	sw	s2,16(sp)
    37dc:	c64e                	sw	s3,12(sp)
    37de:	c452                	sw	s4,8(sp)
    37e0:	c256                	sw	s5,4(sp)
    37e2:	ce06                	sw	ra,28(sp)
    37e4:	ca26                	sw	s1,20(sp)
    37e6:	89aa                	mv	s3,a0
    37e8:	842e                	mv	s0,a1
    37ea:	8a32                	mv	s4,a2
    37ec:	8936                	mv	s2,a3
    37ee:	8aba                	mv	s5,a4
    37f0:	a3dff0ef          	jal	ra,322c <ST7789_SetWindows>
    37f4:	03246363          	bltu	s0,s2,381a <ST7789_FillColor+0x44>
    37f8:	40f2                	lw	ra,28(sp)
    37fa:	4462                	lw	s0,24(sp)
    37fc:	44d2                	lw	s1,20(sp)
    37fe:	4942                	lw	s2,16(sp)
    3800:	49b2                	lw	s3,12(sp)
    3802:	4a22                	lw	s4,8(sp)
    3804:	4a92                	lw	s5,4(sp)
    3806:	6105                	addi	sp,sp,32
    3808:	8082                	ret
    380a:	8556                	mv	a0,s5
    380c:	a01ff0ef          	jal	ra,320c <I8080_Write_Byte16>
    3810:	0485                	addi	s1,s1,1
    3812:	ff44ece3          	bltu	s1,s4,380a <ST7789_FillColor+0x34>
    3816:	0405                	addi	s0,s0,1
    3818:	bff1                	j	37f4 <ST7789_FillColor+0x1e>
    381a:	84ce                	mv	s1,s3
    381c:	bfdd                	j	3812 <ST7789_FillColor+0x3c>

0000381e <ST7789_Init>:
    381e:	7139                	addi	sp,sp,-64
    3820:	4585                	li	a1,1
    3822:	04c00513          	li	a0,76
    3826:	de06                	sw	ra,60(sp)
    3828:	dc22                	sw	s0,56(sp)
    382a:	da26                	sw	s1,52(sp)
    382c:	d84a                	sw	s2,48(sp)
    382e:	d64e                	sw	s3,44(sp)
    3830:	c002                	sw	zero,0(sp)
    3832:	c202                	sw	zero,4(sp)
    3834:	c402                	sw	zero,8(sp)
    3836:	c602                	sw	zero,12(sp)
    3838:	c802                	sw	zero,16(sp)
    383a:	ca02                	sw	zero,20(sp)
    383c:	cc02                	sw	zero,24(sp)
    383e:	00011e23          	sh	zero,28(sp)
    3842:	8d2fd0ef          	jal	ra,914 <RCC_APB2PeriphClockCmd>
    3846:	4585                	li	a1,1
    3848:	6521                	lui	a0,0x8
    384a:	8e8fd0ef          	jal	ra,932 <RCC_APB1PeriphClockCmd>
    384e:	400119b7          	lui	s3,0x40011
    3852:	448d                	li	s1,3
    3854:	4941                	li	s2,16
    3856:	77e1                	lui	a5,0xffff8
    3858:	858a                	mv	a1,sp
    385a:	80098513          	addi	a0,s3,-2048 # 40010800 <_eusrstack+0x20008800>
    385e:	00f11023          	sh	a5,0(sp)
    3862:	c44a                	sw	s2,8(sp)
    3864:	c226                	sw	s1,4(sp)
    3866:	ccbfc0ef          	jal	ra,530 <GPIO_Init>
    386a:	4605                	li	a2,1
    386c:	80098513          	addi	a0,s3,-2048
    3870:	65a1                	lui	a1,0x8
    3872:	d85fc0ef          	jal	ra,5f6 <GPIO_WriteBit>
    3876:	40012437          	lui	s0,0x40012
    387a:	4789                	li	a5,2
    387c:	858a                	mv	a1,sp
    387e:	80040513          	addi	a0,s0,-2048 # 40011800 <_eusrstack+0x20009800>
    3882:	00f11023          	sh	a5,0(sp)
    3886:	c44a                	sw	s2,8(sp)
    3888:	c226                	sw	s1,4(sp)
    388a:	ca7fc0ef          	jal	ra,530 <GPIO_Init>
    388e:	4605                	li	a2,1
    3890:	80040513          	addi	a0,s0,-2048
    3894:	4589                	li	a1,2
    3896:	d61fc0ef          	jal	ra,5f6 <GPIO_WriteBit>
    389a:	4791                	li	a5,4
    389c:	858a                	mv	a1,sp
    389e:	80040513          	addi	a0,s0,-2048
    38a2:	00f11023          	sh	a5,0(sp)
    38a6:	c44a                	sw	s2,8(sp)
    38a8:	c226                	sw	s1,4(sp)
    38aa:	c87fc0ef          	jal	ra,530 <GPIO_Init>
    38ae:	02800793          	li	a5,40
    38b2:	00f11023          	sh	a5,0(sp)
    38b6:	858a                	mv	a1,sp
    38b8:	47e1                	li	a5,24
    38ba:	c0098513          	addi	a0,s3,-1024
    38be:	c43e                	sw	a5,8(sp)
    38c0:	c226                	sw	s1,4(sp)
    38c2:	c6ffc0ef          	jal	ra,530 <GPIO_Init>
    38c6:	4791                	li	a5,4
    38c8:	858a                	mv	a1,sp
    38ca:	c0098513          	addi	a0,s3,-1024
    38ce:	01211023          	sh	s2,0(sp)
    38d2:	c43e                	sw	a5,8(sp)
    38d4:	c226                	sw	s1,4(sp)
    38d6:	c5bfc0ef          	jal	ra,530 <GPIO_Init>
    38da:	010407b7          	lui	a5,0x1040
    38de:	c63e                	sw	a5,12(sp)
    38e0:	400049b7          	lui	s3,0x40004
    38e4:	020007b7          	lui	a5,0x2000
    38e8:	ca3e                	sw	a5,20(sp)
    38ea:	006c                	addi	a1,sp,12
    38ec:	479d                	li	a5,7
    38ee:	c0098513          	addi	a0,s3,-1024 # 40003c00 <_eusrstack+0x1fffbc00>
    38f2:	00f11e23          	sh	a5,28(sp)
    38f6:	c802                	sw	zero,16(sp)
    38f8:	cc02                	sw	zero,24(sp)
    38fa:	856fd0ef          	jal	ra,950 <SPI_Init>
    38fe:	c0098513          	addi	a0,s3,-1024
    3902:	4585                	li	a1,1
    3904:	8a6fd0ef          	jal	ra,9aa <SPI_Cmd>
    3908:	4581                	li	a1,0
    390a:	4545                	li	a0,17
    390c:	889ff0ef          	jal	ra,3194 <I8080_Write_Byte>
    3910:	4579                	li	a0,30
    3912:	1ad000ef          	jal	ra,42be <Delay_Ms>
    3916:	4581                	li	a1,0
    3918:	03600513          	li	a0,54
    391c:	879ff0ef          	jal	ra,3194 <I8080_Write_Byte>
    3920:	4585                	li	a1,1
    3922:	07000513          	li	a0,112
    3926:	86fff0ef          	jal	ra,3194 <I8080_Write_Byte>
    392a:	4581                	li	a1,0
    392c:	03a00513          	li	a0,58
    3930:	865ff0ef          	jal	ra,3194 <I8080_Write_Byte>
    3934:	4585                	li	a1,1
    3936:	4515                	li	a0,5
    3938:	85dff0ef          	jal	ra,3194 <I8080_Write_Byte>
    393c:	4581                	li	a1,0
    393e:	0b200513          	li	a0,178
    3942:	853ff0ef          	jal	ra,3194 <I8080_Write_Byte>
    3946:	4585                	li	a1,1
    3948:	4531                	li	a0,12
    394a:	84bff0ef          	jal	ra,3194 <I8080_Write_Byte>
    394e:	4585                	li	a1,1
    3950:	4531                	li	a0,12
    3952:	843ff0ef          	jal	ra,3194 <I8080_Write_Byte>
    3956:	4585                	li	a1,1
    3958:	4501                	li	a0,0
    395a:	83bff0ef          	jal	ra,3194 <I8080_Write_Byte>
    395e:	4585                	li	a1,1
    3960:	03300513          	li	a0,51
    3964:	831ff0ef          	jal	ra,3194 <I8080_Write_Byte>
    3968:	4585                	li	a1,1
    396a:	03300513          	li	a0,51
    396e:	827ff0ef          	jal	ra,3194 <I8080_Write_Byte>
    3972:	4581                	li	a1,0
    3974:	0b700513          	li	a0,183
    3978:	81dff0ef          	jal	ra,3194 <I8080_Write_Byte>
    397c:	4585                	li	a1,1
    397e:	03500513          	li	a0,53
    3982:	813ff0ef          	jal	ra,3194 <I8080_Write_Byte>
    3986:	4581                	li	a1,0
    3988:	0bb00513          	li	a0,187
    398c:	809ff0ef          	jal	ra,3194 <I8080_Write_Byte>
    3990:	4585                	li	a1,1
    3992:	03500513          	li	a0,53
    3996:	ffeff0ef          	jal	ra,3194 <I8080_Write_Byte>
    399a:	4581                	li	a1,0
    399c:	0c000513          	li	a0,192
    39a0:	ff4ff0ef          	jal	ra,3194 <I8080_Write_Byte>
    39a4:	4585                	li	a1,1
    39a6:	02c00513          	li	a0,44
    39aa:	feaff0ef          	jal	ra,3194 <I8080_Write_Byte>
    39ae:	4581                	li	a1,0
    39b0:	0c200513          	li	a0,194
    39b4:	fe0ff0ef          	jal	ra,3194 <I8080_Write_Byte>
    39b8:	4585                	li	a1,1
    39ba:	4505                	li	a0,1
    39bc:	fd8ff0ef          	jal	ra,3194 <I8080_Write_Byte>
    39c0:	4581                	li	a1,0
    39c2:	0c300513          	li	a0,195
    39c6:	fceff0ef          	jal	ra,3194 <I8080_Write_Byte>
    39ca:	4585                	li	a1,1
    39cc:	454d                	li	a0,19
    39ce:	fc6ff0ef          	jal	ra,3194 <I8080_Write_Byte>
    39d2:	4581                	li	a1,0
    39d4:	0c400513          	li	a0,196
    39d8:	fbcff0ef          	jal	ra,3194 <I8080_Write_Byte>
    39dc:	4585                	li	a1,1
    39de:	02000513          	li	a0,32
    39e2:	fb2ff0ef          	jal	ra,3194 <I8080_Write_Byte>
    39e6:	4581                	li	a1,0
    39e8:	0c600513          	li	a0,198
    39ec:	fa8ff0ef          	jal	ra,3194 <I8080_Write_Byte>
    39f0:	4585                	li	a1,1
    39f2:	453d                	li	a0,15
    39f4:	fa0ff0ef          	jal	ra,3194 <I8080_Write_Byte>
    39f8:	4581                	li	a1,0
    39fa:	0d000513          	li	a0,208
    39fe:	f96ff0ef          	jal	ra,3194 <I8080_Write_Byte>
    3a02:	4585                	li	a1,1
    3a04:	0a400513          	li	a0,164
    3a08:	f8cff0ef          	jal	ra,3194 <I8080_Write_Byte>
    3a0c:	4585                	li	a1,1
    3a0e:	0a100513          	li	a0,161
    3a12:	f82ff0ef          	jal	ra,3194 <I8080_Write_Byte>
    3a16:	4581                	li	a1,0
    3a18:	0d600513          	li	a0,214
    3a1c:	f78ff0ef          	jal	ra,3194 <I8080_Write_Byte>
    3a20:	4585                	li	a1,1
    3a22:	0a100513          	li	a0,161
    3a26:	f6eff0ef          	jal	ra,3194 <I8080_Write_Byte>
    3a2a:	4581                	li	a1,0
    3a2c:	0e000513          	li	a0,224
    3a30:	f64ff0ef          	jal	ra,3194 <I8080_Write_Byte>
    3a34:	4585                	li	a1,1
    3a36:	0f000513          	li	a0,240
    3a3a:	f5aff0ef          	jal	ra,3194 <I8080_Write_Byte>
    3a3e:	4585                	li	a1,1
    3a40:	4501                	li	a0,0
    3a42:	f52ff0ef          	jal	ra,3194 <I8080_Write_Byte>
    3a46:	4585                	li	a1,1
    3a48:	4511                	li	a0,4
    3a4a:	f4aff0ef          	jal	ra,3194 <I8080_Write_Byte>
    3a4e:	4585                	li	a1,1
    3a50:	4511                	li	a0,4
    3a52:	f42ff0ef          	jal	ra,3194 <I8080_Write_Byte>
    3a56:	4585                	li	a1,1
    3a58:	4511                	li	a0,4
    3a5a:	f3aff0ef          	jal	ra,3194 <I8080_Write_Byte>
    3a5e:	4585                	li	a1,1
    3a60:	4515                	li	a0,5
    3a62:	f32ff0ef          	jal	ra,3194 <I8080_Write_Byte>
    3a66:	4585                	li	a1,1
    3a68:	02900513          	li	a0,41
    3a6c:	f28ff0ef          	jal	ra,3194 <I8080_Write_Byte>
    3a70:	4585                	li	a1,1
    3a72:	03300513          	li	a0,51
    3a76:	f1eff0ef          	jal	ra,3194 <I8080_Write_Byte>
    3a7a:	4585                	li	a1,1
    3a7c:	03e00513          	li	a0,62
    3a80:	f14ff0ef          	jal	ra,3194 <I8080_Write_Byte>
    3a84:	4585                	li	a1,1
    3a86:	03800513          	li	a0,56
    3a8a:	f0aff0ef          	jal	ra,3194 <I8080_Write_Byte>
    3a8e:	4585                	li	a1,1
    3a90:	4549                	li	a0,18
    3a92:	f02ff0ef          	jal	ra,3194 <I8080_Write_Byte>
    3a96:	4585                	li	a1,1
    3a98:	4549                	li	a0,18
    3a9a:	efaff0ef          	jal	ra,3194 <I8080_Write_Byte>
    3a9e:	4585                	li	a1,1
    3aa0:	02800513          	li	a0,40
    3aa4:	ef0ff0ef          	jal	ra,3194 <I8080_Write_Byte>
    3aa8:	4585                	li	a1,1
    3aaa:	03000513          	li	a0,48
    3aae:	ee6ff0ef          	jal	ra,3194 <I8080_Write_Byte>
    3ab2:	4581                	li	a1,0
    3ab4:	0e100513          	li	a0,225
    3ab8:	edcff0ef          	jal	ra,3194 <I8080_Write_Byte>
    3abc:	4585                	li	a1,1
    3abe:	0f000513          	li	a0,240
    3ac2:	ed2ff0ef          	jal	ra,3194 <I8080_Write_Byte>
    3ac6:	4585                	li	a1,1
    3ac8:	451d                	li	a0,7
    3aca:	ecaff0ef          	jal	ra,3194 <I8080_Write_Byte>
    3ace:	4585                	li	a1,1
    3ad0:	4529                	li	a0,10
    3ad2:	ec2ff0ef          	jal	ra,3194 <I8080_Write_Byte>
    3ad6:	4585                	li	a1,1
    3ad8:	4535                	li	a0,13
    3ada:	ebaff0ef          	jal	ra,3194 <I8080_Write_Byte>
    3ade:	4585                	li	a1,1
    3ae0:	452d                	li	a0,11
    3ae2:	eb2ff0ef          	jal	ra,3194 <I8080_Write_Byte>
    3ae6:	4585                	li	a1,1
    3ae8:	451d                	li	a0,7
    3aea:	eaaff0ef          	jal	ra,3194 <I8080_Write_Byte>
    3aee:	4585                	li	a1,1
    3af0:	02800513          	li	a0,40
    3af4:	ea0ff0ef          	jal	ra,3194 <I8080_Write_Byte>
    3af8:	4585                	li	a1,1
    3afa:	03300513          	li	a0,51
    3afe:	e96ff0ef          	jal	ra,3194 <I8080_Write_Byte>
    3b02:	4585                	li	a1,1
    3b04:	03e00513          	li	a0,62
    3b08:	e8cff0ef          	jal	ra,3194 <I8080_Write_Byte>
    3b0c:	4585                	li	a1,1
    3b0e:	03600513          	li	a0,54
    3b12:	e82ff0ef          	jal	ra,3194 <I8080_Write_Byte>
    3b16:	4585                	li	a1,1
    3b18:	4551                	li	a0,20
    3b1a:	e7aff0ef          	jal	ra,3194 <I8080_Write_Byte>
    3b1e:	4585                	li	a1,1
    3b20:	4551                	li	a0,20
    3b22:	e72ff0ef          	jal	ra,3194 <I8080_Write_Byte>
    3b26:	4585                	li	a1,1
    3b28:	02900513          	li	a0,41
    3b2c:	e68ff0ef          	jal	ra,3194 <I8080_Write_Byte>
    3b30:	4585                	li	a1,1
    3b32:	03200513          	li	a0,50
    3b36:	e5eff0ef          	jal	ra,3194 <I8080_Write_Byte>
    3b3a:	4581                	li	a1,0
    3b3c:	02100513          	li	a0,33
    3b40:	e54ff0ef          	jal	ra,3194 <I8080_Write_Byte>
    3b44:	4581                	li	a1,0
    3b46:	4545                	li	a0,17
    3b48:	e4cff0ef          	jal	ra,3194 <I8080_Write_Byte>
    3b4c:	07800513          	li	a0,120
    3b50:	76e000ef          	jal	ra,42be <Delay_Ms>
    3b54:	4581                	li	a1,0
    3b56:	02900513          	li	a0,41
    3b5a:	e3aff0ef          	jal	ra,3194 <I8080_Write_Byte>
    3b5e:	6741                	lui	a4,0x10
    3b60:	177d                	addi	a4,a4,-1
    3b62:	0ac00693          	li	a3,172
    3b66:	14000613          	li	a2,320
    3b6a:	4581                	li	a1,0
    3b6c:	4501                	li	a0,0
    3b6e:	c69ff0ef          	jal	ra,37d6 <ST7789_FillColor>
    3b72:	4585                	li	a1,1
    3b74:	04000513          	li	a0,64
    3b78:	c602                	sw	zero,12(sp)
    3b7a:	c802                	sw	zero,16(sp)
    3b7c:	ca02                	sw	zero,20(sp)
    3b7e:	d97fc0ef          	jal	ra,914 <RCC_APB2PeriphClockCmd>
    3b82:	47a1                	li	a5,8
    3b84:	006c                	addi	a1,sp,12
    3b86:	80040513          	addi	a0,s0,-2048
    3b8a:	00f11623          	sh	a5,12(sp)
    3b8e:	ca4a                	sw	s2,20(sp)
    3b90:	c826                	sw	s1,16(sp)
    3b92:	99ffc0ef          	jal	ra,530 <GPIO_Init>
    3b96:	80040513          	addi	a0,s0,-2048
    3b9a:	4585                	li	a1,1
    3b9c:	a57fc0ef          	jal	ra,5f2 <GPIO_ResetBits>
    3ba0:	80040513          	addi	a0,s0,-2048
    3ba4:	4605                	li	a2,1
    3ba6:	45a1                	li	a1,8
    3ba8:	a4ffc0ef          	jal	ra,5f6 <GPIO_WriteBit>
    3bac:	50f2                	lw	ra,60(sp)
    3bae:	5462                	lw	s0,56(sp)
    3bb0:	54d2                	lw	s1,52(sp)
    3bb2:	5942                	lw	s2,48(sp)
    3bb4:	59b2                	lw	s3,44(sp)
    3bb6:	6121                	addi	sp,sp,64
    3bb8:	8082                	ret

00003bba <ST7789_ShowCHN>:
    3bba:	7155                	addi	sp,sp,-208
    3bbc:	df4e                	sw	s3,188(sp)
    3bbe:	89be                	mv	s3,a5
    3bc0:	0002d7b7          	lui	a5,0x2d
    3bc4:	c5a2                	sw	s0,200(sp)
    3bc6:	c3a6                	sw	s1,196(sp)
    3bc8:	c1ca                	sw	s2,192(sp)
    3bca:	dd52                	sw	s4,184(sp)
    3bcc:	db56                	sw	s5,180(sp)
    3bce:	d95a                	sw	s6,176(sp)
    3bd0:	c786                	sw	ra,204(sp)
    3bd2:	d75e                	sw	s7,172(sp)
    3bd4:	d562                	sw	s8,168(sp)
    3bd6:	d366                	sw	s9,164(sp)
    3bd8:	d16a                	sw	s10,160(sp)
    3bda:	cf6e                	sw	s11,156(sp)
    3bdc:	9d078793          	addi	a5,a5,-1584 # 2c9d0 <_data_lma+0x24074>
    3be0:	842a                	mv	s0,a0
    3be2:	892e                	mv	s2,a1
    3be4:	84b2                	mv	s1,a2
    3be6:	8ab6                	mv	s5,a3
    3be8:	8b3a                	mv	s6,a4
    3bea:	4a41                	li	s4,16
    3bec:	02f98263          	beq	s3,a5,3c10 <ST7789_ShowCHN+0x56>
    3bf0:	000687b7          	lui	a5,0x68
    3bf4:	19078793          	addi	a5,a5,400 # 68190 <_data_lma+0x5f834>
    3bf8:	4a61                	li	s4,24
    3bfa:	00f98b63          	beq	s3,a5,3c10 <ST7789_ShowCHN+0x56>
    3bfe:	000ee7b7          	lui	a5,0xee
    3c02:	f0078793          	addi	a5,a5,-256 # edf00 <_data_lma+0xe55a4>
    3c06:	4a31                	li	s4,12
    3c08:	00f99463          	bne	s3,a5,3c10 <ST7789_ShowCHN+0x56>
    3c0c:	02000a13          	li	s4,32
    3c10:	0002dbb7          	lui	s7,0x2d
    3c14:	9d0b8793          	addi	a5,s7,-1584 # 2c9d0 <_data_lma+0x24074>
    3c18:	00068c37          	lui	s8,0x68
    3c1c:	000eecb7          	lui	s9,0xee
    3c20:	c63e                	sw	a5,12(sp)
    3c22:	190c0c13          	addi	s8,s8,400 # 68190 <_data_lma+0x5f834>
    3c26:	f00c8c93          	addi	s9,s9,-256 # edf00 <_data_lma+0xe55a4>
    3c2a:	a85d                	j	3ce0 <ST7789_ShowCHN+0x126>
    3c2c:	4735                	li	a4,13
    3c2e:	00e79a63          	bne	a5,a4,3c42 <ST7789_ShowCHN+0x88>
    3c32:	0014c703          	lbu	a4,1(s1)
    3c36:	47a9                	li	a5,10
    3c38:	00f71563          	bne	a4,a5,3c42 <ST7789_ShowCHN+0x88>
    3c3c:	9952                	add	s2,s2,s4
    3c3e:	0489                	addi	s1,s1,2
    3c40:	4401                	li	s0,0
    3c42:	014407b3          	add	a5,s0,s4
    3c46:	14000713          	li	a4,320
    3c4a:	00f77463          	bgeu	a4,a5,3c52 <ST7789_ShowCHN+0x98>
    3c4e:	9952                	add	s2,s2,s4
    3c50:	4401                	li	s0,0
    3c52:	014907b3          	add	a5,s2,s4
    3c56:	0ac00713          	li	a4,172
    3c5a:	00f77463          	bgeu	a4,a5,3c62 <ST7789_ShowCHN+0xa8>
    3c5e:	4901                	li	s2,0
    3c60:	4401                	li	s0,0
    3c62:	0a099163          	bnez	s3,3d04 <ST7789_ShowCHN+0x14a>
    3c66:	86a6                	mv	a3,s1
    3c68:	0810                	addi	a2,sp,16
    3c6a:	4581                	li	a1,0
    3c6c:	4501                	li	a0,0
    3c6e:	f2eff0ef          	jal	ra,339c <GT30L32S4W_ReadData>
    3c72:	46b1                	li	a3,12
    3c74:	4631                	li	a2,12
    3c76:	85ca                	mv	a1,s2
    3c78:	8522                	mv	a0,s0
    3c7a:	db2ff0ef          	jal	ra,322c <ST7789_SetWindows>
    3c7e:	01010d13          	addi	s10,sp,16
    3c82:	02810d93          	addi	s11,sp,40
    3c86:	4ba1                	li	s7,8
    3c88:	000d0683          	lb	a3,0(s10)
    3c8c:	855a                	mv	a0,s6
    3c8e:	0006c363          	bltz	a3,3c94 <ST7789_ShowCHN+0xda>
    3c92:	8556                	mv	a0,s5
    3c94:	d78ff0ef          	jal	ra,320c <I8080_Write_Byte16>
    3c98:	000d4683          	lbu	a3,0(s10)
    3c9c:	fffb8713          	addi	a4,s7,-1
    3ca0:	0ff77b93          	andi	s7,a4,255
    3ca4:	0686                	slli	a3,a3,0x1
    3ca6:	00dd0023          	sb	a3,0(s10)
    3caa:	fc0b9fe3          	bnez	s7,3c88 <ST7789_ShowCHN+0xce>
    3cae:	4b91                	li	s7,4
    3cb0:	001d0683          	lb	a3,1(s10)
    3cb4:	855a                	mv	a0,s6
    3cb6:	0006c363          	bltz	a3,3cbc <ST7789_ShowCHN+0x102>
    3cba:	8556                	mv	a0,s5
    3cbc:	d50ff0ef          	jal	ra,320c <I8080_Write_Byte16>
    3cc0:	001d4683          	lbu	a3,1(s10)
    3cc4:	fffb8713          	addi	a4,s7,-1
    3cc8:	0ff77b93          	andi	s7,a4,255
    3ccc:	0686                	slli	a3,a3,0x1
    3cce:	00dd00a3          	sb	a3,1(s10)
    3cd2:	fc0b9fe3          	bnez	s7,3cb0 <ST7789_ShowCHN+0xf6>
    3cd6:	0d09                	addi	s10,s10,2
    3cd8:	fbad97e3          	bne	s11,s10,3c86 <ST7789_ShowCHN+0xcc>
    3cdc:	0431                	addi	s0,s0,12
    3cde:	0489                	addi	s1,s1,2
    3ce0:	0004c783          	lbu	a5,0(s1)
    3ce4:	f7a1                	bnez	a5,3c2c <ST7789_ShowCHN+0x72>
    3ce6:	40be                	lw	ra,204(sp)
    3ce8:	442e                	lw	s0,200(sp)
    3cea:	449e                	lw	s1,196(sp)
    3cec:	490e                	lw	s2,192(sp)
    3cee:	59fa                	lw	s3,188(sp)
    3cf0:	5a6a                	lw	s4,184(sp)
    3cf2:	5ada                	lw	s5,180(sp)
    3cf4:	5b4a                	lw	s6,176(sp)
    3cf6:	5bba                	lw	s7,172(sp)
    3cf8:	5c2a                	lw	s8,168(sp)
    3cfa:	5c9a                	lw	s9,164(sp)
    3cfc:	5d0a                	lw	s10,160(sp)
    3cfe:	4dfa                	lw	s11,156(sp)
    3d00:	6169                	addi	sp,sp,208
    3d02:	8082                	ret
    3d04:	47b2                	lw	a5,12(sp)
    3d06:	04f99b63          	bne	s3,a5,3d5c <ST7789_ShowCHN+0x1a2>
    3d0a:	86a6                	mv	a3,s1
    3d0c:	0810                	addi	a2,sp,16
    3d0e:	4581                	li	a1,0
    3d10:	854e                	mv	a0,s3
    3d12:	e8aff0ef          	jal	ra,339c <GT30L32S4W_ReadData>
    3d16:	46c1                	li	a3,16
    3d18:	4641                	li	a2,16
    3d1a:	85ca                	mv	a1,s2
    3d1c:	8522                	mv	a0,s0
    3d1e:	d0eff0ef          	jal	ra,322c <ST7789_SetWindows>
    3d22:	01010d13          	addi	s10,sp,16
    3d26:	03010d93          	addi	s11,sp,48
    3d2a:	4ba1                	li	s7,8
    3d2c:	000d0683          	lb	a3,0(s10)
    3d30:	855a                	mv	a0,s6
    3d32:	0006c363          	bltz	a3,3d38 <ST7789_ShowCHN+0x17e>
    3d36:	8556                	mv	a0,s5
    3d38:	cd4ff0ef          	jal	ra,320c <I8080_Write_Byte16>
    3d3c:	000d4683          	lbu	a3,0(s10)
    3d40:	fffb8713          	addi	a4,s7,-1
    3d44:	0ff77b93          	andi	s7,a4,255
    3d48:	0686                	slli	a3,a3,0x1
    3d4a:	00dd0023          	sb	a3,0(s10)
    3d4e:	fc0b9fe3          	bnez	s7,3d2c <ST7789_ShowCHN+0x172>
    3d52:	0d05                	addi	s10,s10,1
    3d54:	fdad9be3          	bne	s11,s10,3d2a <ST7789_ShowCHN+0x170>
    3d58:	0441                	addi	s0,s0,16
    3d5a:	b751                	j	3cde <ST7789_ShowCHN+0x124>
    3d5c:	05899a63          	bne	s3,s8,3db0 <ST7789_ShowCHN+0x1f6>
    3d60:	86a6                	mv	a3,s1
    3d62:	0810                	addi	a2,sp,16
    3d64:	4581                	li	a1,0
    3d66:	854e                	mv	a0,s3
    3d68:	e34ff0ef          	jal	ra,339c <GT30L32S4W_ReadData>
    3d6c:	46e1                	li	a3,24
    3d6e:	4661                	li	a2,24
    3d70:	85ca                	mv	a1,s2
    3d72:	8522                	mv	a0,s0
    3d74:	cb8ff0ef          	jal	ra,322c <ST7789_SetWindows>
    3d78:	01010d93          	addi	s11,sp,16
    3d7c:	4ba1                	li	s7,8
    3d7e:	000d8703          	lb	a4,0(s11)
    3d82:	855a                	mv	a0,s6
    3d84:	00074363          	bltz	a4,3d8a <ST7789_ShowCHN+0x1d0>
    3d88:	8556                	mv	a0,s5
    3d8a:	c82ff0ef          	jal	ra,320c <I8080_Write_Byte16>
    3d8e:	000dc703          	lbu	a4,0(s11)
    3d92:	fffb8793          	addi	a5,s7,-1
    3d96:	0ff7fb93          	andi	s7,a5,255
    3d9a:	0706                	slli	a4,a4,0x1
    3d9c:	00ed8023          	sb	a4,0(s11)
    3da0:	fc0b9fe3          	bnez	s7,3d7e <ST7789_ShowCHN+0x1c4>
    3da4:	0d85                	addi	s11,s11,1
    3da6:	08bc                	addi	a5,sp,88
    3da8:	fcfd9ae3          	bne	s11,a5,3d7c <ST7789_ShowCHN+0x1c2>
    3dac:	0461                	addi	s0,s0,24
    3dae:	bf05                	j	3cde <ST7789_ShowCHN+0x124>
    3db0:	f39997e3          	bne	s3,s9,3cde <ST7789_ShowCHN+0x124>
    3db4:	86a6                	mv	a3,s1
    3db6:	0810                	addi	a2,sp,16
    3db8:	4581                	li	a1,0
    3dba:	854e                	mv	a0,s3
    3dbc:	de0ff0ef          	jal	ra,339c <GT30L32S4W_ReadData>
    3dc0:	02000693          	li	a3,32
    3dc4:	02000613          	li	a2,32
    3dc8:	85ca                	mv	a1,s2
    3dca:	8522                	mv	a0,s0
    3dcc:	c60ff0ef          	jal	ra,322c <ST7789_SetWindows>
    3dd0:	4d01                	li	s10,0
    3dd2:	4d81                	li	s11,0
    3dd4:	091c                	addi	a5,sp,144
    3dd6:	01a78bb3          	add	s7,a5,s10
    3dda:	f80b8603          	lb	a2,-128(s7)
    3dde:	855a                	mv	a0,s6
    3de0:	00064363          	bltz	a2,3de6 <ST7789_ShowCHN+0x22c>
    3de4:	8556                	mv	a0,s5
    3de6:	c26ff0ef          	jal	ra,320c <I8080_Write_Byte16>
    3dea:	f80bc603          	lbu	a2,-128(s7)
    3dee:	001d8713          	addi	a4,s11,1
    3df2:	0ff77d93          	andi	s11,a4,255
    3df6:	0606                	slli	a2,a2,0x1
    3df8:	f8cb8023          	sb	a2,-128(s7)
    3dfc:	47a1                	li	a5,8
    3dfe:	fcfd9be3          	bne	s11,a5,3dd4 <ST7789_ShowCHN+0x21a>
    3e02:	001d0793          	addi	a5,s10,1
    3e06:	0ff7fd13          	andi	s10,a5,255
    3e0a:	018d1713          	slli	a4,s10,0x18
    3e0e:	8761                	srai	a4,a4,0x18
    3e10:	fc0751e3          	bgez	a4,3dd2 <ST7789_ShowCHN+0x218>
    3e14:	02040413          	addi	s0,s0,32
    3e18:	b5d9                	j	3cde <ST7789_ShowCHN+0x124>

00003e1a <ST7789_ShowChar>:
    3e1a:	7159                	addi	sp,sp,-112
    3e1c:	d4a2                	sw	s0,104(sp)
    3e1e:	843e                	mv	s0,a5
    3e20:	001de7b7          	lui	a5,0x1de
    3e24:	d0ca                	sw	s2,96(sp)
    3e26:	cece                	sw	s3,92(sp)
    3e28:	ccd2                	sw	s4,88(sp)
    3e2a:	cad6                	sw	s5,84(sp)
    3e2c:	c8da                	sw	s6,80(sp)
    3e2e:	89ba                	mv	s3,a4
    3e30:	d686                	sw	ra,108(sp)
    3e32:	d2a6                	sw	s1,100(sp)
    3e34:	c6de                	sw	s7,76(sp)
    3e36:	c4e2                	sw	s8,72(sp)
    3e38:	f8078713          	addi	a4,a5,-128 # 1ddf80 <_data_lma+0x1d5624>
    3e3c:	8a2a                	mv	s4,a0
    3e3e:	8aae                	mv	s5,a1
    3e40:	8b32                	mv	s6,a2
    3e42:	8936                	mv	s2,a3
    3e44:	0ae41363          	bne	s0,a4,3eea <ST7789_ShowChar+0xd0>
    3e48:	4681                	li	a3,0
    3e4a:	860a                	mv	a2,sp
    3e4c:	85da                	mv	a1,s6
    3e4e:	8522                	mv	a0,s0
    3e50:	d4cff0ef          	jal	ra,339c <GT30L32S4W_ReadData>
    3e54:	469d                	li	a3,7
    3e56:	4615                	li	a2,5
    3e58:	85d6                	mv	a1,s5
    3e5a:	8552                	mv	a0,s4
    3e5c:	bd0ff0ef          	jal	ra,322c <ST7789_SetWindows>
    3e60:	848a                	mv	s1,sp
    3e62:	00710c13          	addi	s8,sp,7
    3e66:	4b95                	li	s7,5
    3e68:	00048783          	lb	a5,0(s1)
    3e6c:	854e                	mv	a0,s3
    3e6e:	0007c363          	bltz	a5,3e74 <ST7789_ShowChar+0x5a>
    3e72:	854a                	mv	a0,s2
    3e74:	b98ff0ef          	jal	ra,320c <I8080_Write_Byte16>
    3e78:	0004c783          	lbu	a5,0(s1)
    3e7c:	1bfd                	addi	s7,s7,-1
    3e7e:	0ffbfb93          	andi	s7,s7,255
    3e82:	0786                	slli	a5,a5,0x1
    3e84:	00f48023          	sb	a5,0(s1)
    3e88:	fe0b90e3          	bnez	s7,3e68 <ST7789_ShowChar+0x4e>
    3e8c:	0485                	addi	s1,s1,1
    3e8e:	fc9c1ce3          	bne	s8,s1,3e66 <ST7789_ShowChar+0x4c>
    3e92:	001e67b7          	lui	a5,0x1e6
    3e96:	a5078793          	addi	a5,a5,-1456 # 1e5a50 <_data_lma+0x1dd0f4>
    3e9a:	0ef41c63          	bne	s0,a5,3f92 <ST7789_ShowChar+0x178>
    3e9e:	8522                	mv	a0,s0
    3ea0:	4681                	li	a3,0
    3ea2:	860a                	mv	a2,sp
    3ea4:	85da                	mv	a1,s6
    3ea6:	cf6ff0ef          	jal	ra,339c <GT30L32S4W_ReadData>
    3eaa:	8552                	mv	a0,s4
    3eac:	02000693          	li	a3,32
    3eb0:	4641                	li	a2,16
    3eb2:	85d6                	mv	a1,s5
    3eb4:	b78ff0ef          	jal	ra,322c <ST7789_SetWindows>
    3eb8:	840a                	mv	s0,sp
    3eba:	04010a13          	addi	s4,sp,64
    3ebe:	44a1                	li	s1,8
    3ec0:	00040783          	lb	a5,0(s0)
    3ec4:	854e                	mv	a0,s3
    3ec6:	0007c363          	bltz	a5,3ecc <ST7789_ShowChar+0xb2>
    3eca:	854a                	mv	a0,s2
    3ecc:	b40ff0ef          	jal	ra,320c <I8080_Write_Byte16>
    3ed0:	00044783          	lbu	a5,0(s0)
    3ed4:	14fd                	addi	s1,s1,-1
    3ed6:	0ff4f493          	andi	s1,s1,255
    3eda:	0786                	slli	a5,a5,0x1
    3edc:	00f40023          	sb	a5,0(s0)
    3ee0:	f0e5                	bnez	s1,3ec0 <ST7789_ShowChar+0xa6>
    3ee2:	0405                	addi	s0,s0,1
    3ee4:	fc8a1de3          	bne	s4,s0,3ebe <ST7789_ShowChar+0xa4>
    3ee8:	a06d                	j	3f92 <ST7789_ShowChar+0x178>
    3eea:	28078793          	addi	a5,a5,640
    3eee:	04f41863          	bne	s0,a5,3f3e <ST7789_ShowChar+0x124>
    3ef2:	4681                	li	a3,0
    3ef4:	860a                	mv	a2,sp
    3ef6:	85da                	mv	a1,s6
    3ef8:	8522                	mv	a0,s0
    3efa:	ca2ff0ef          	jal	ra,339c <GT30L32S4W_ReadData>
    3efe:	46a1                	li	a3,8
    3f00:	461d                	li	a2,7
    3f02:	85d6                	mv	a1,s5
    3f04:	8552                	mv	a0,s4
    3f06:	b26ff0ef          	jal	ra,322c <ST7789_SetWindows>
    3f0a:	848a                	mv	s1,sp
    3f0c:	00810c13          	addi	s8,sp,8
    3f10:	4b9d                	li	s7,7
    3f12:	00048783          	lb	a5,0(s1)
    3f16:	854e                	mv	a0,s3
    3f18:	0007c363          	bltz	a5,3f1e <ST7789_ShowChar+0x104>
    3f1c:	854a                	mv	a0,s2
    3f1e:	aeeff0ef          	jal	ra,320c <I8080_Write_Byte16>
    3f22:	0004c783          	lbu	a5,0(s1)
    3f26:	1bfd                	addi	s7,s7,-1
    3f28:	0ffbfb93          	andi	s7,s7,255
    3f2c:	0786                	slli	a5,a5,0x1
    3f2e:	00f48023          	sb	a5,0(s1)
    3f32:	fe0b90e3          	bnez	s7,3f12 <ST7789_ShowChar+0xf8>
    3f36:	0485                	addi	s1,s1,1
    3f38:	fd849ce3          	bne	s1,s8,3f10 <ST7789_ShowChar+0xf6>
    3f3c:	bf99                	j	3e92 <ST7789_ShowChar+0x78>
    3f3e:	001dc7b7          	lui	a5,0x1dc
    3f42:	e0078793          	addi	a5,a5,-512 # 1dbe00 <_data_lma+0x1d34a4>
    3f46:	06f41263          	bne	s0,a5,3faa <ST7789_ShowChar+0x190>
    3f4a:	8522                	mv	a0,s0
    3f4c:	4681                	li	a3,0
    3f4e:	860a                	mv	a2,sp
    3f50:	85da                	mv	a1,s6
    3f52:	c4aff0ef          	jal	ra,339c <GT30L32S4W_ReadData>
    3f56:	8552                	mv	a0,s4
    3f58:	46b1                	li	a3,12
    3f5a:	4619                	li	a2,6
    3f5c:	85d6                	mv	a1,s5
    3f5e:	aceff0ef          	jal	ra,322c <ST7789_SetWindows>
    3f62:	840a                	mv	s0,sp
    3f64:	00c10a13          	addi	s4,sp,12
    3f68:	4499                	li	s1,6
    3f6a:	00040783          	lb	a5,0(s0)
    3f6e:	854e                	mv	a0,s3
    3f70:	0007c363          	bltz	a5,3f76 <ST7789_ShowChar+0x15c>
    3f74:	854a                	mv	a0,s2
    3f76:	a96ff0ef          	jal	ra,320c <I8080_Write_Byte16>
    3f7a:	00044783          	lbu	a5,0(s0)
    3f7e:	14fd                	addi	s1,s1,-1
    3f80:	0ff4f493          	andi	s1,s1,255
    3f84:	0786                	slli	a5,a5,0x1
    3f86:	00f40023          	sb	a5,0(s0)
    3f8a:	f0e5                	bnez	s1,3f6a <ST7789_ShowChar+0x150>
    3f8c:	0405                	addi	s0,s0,1
    3f8e:	fd441de3          	bne	s0,s4,3f68 <ST7789_ShowChar+0x14e>
    3f92:	50b6                	lw	ra,108(sp)
    3f94:	5426                	lw	s0,104(sp)
    3f96:	5496                	lw	s1,100(sp)
    3f98:	5906                	lw	s2,96(sp)
    3f9a:	49f6                	lw	s3,92(sp)
    3f9c:	4a66                	lw	s4,88(sp)
    3f9e:	4ad6                	lw	s5,84(sp)
    3fa0:	4b46                	lw	s6,80(sp)
    3fa2:	4bb6                	lw	s7,76(sp)
    3fa4:	4c26                	lw	s8,72(sp)
    3fa6:	6165                	addi	sp,sp,112
    3fa8:	8082                	ret
    3faa:	001dd7b7          	lui	a5,0x1dd
    3fae:	78078793          	addi	a5,a5,1920 # 1dd780 <_data_lma+0x1d4e24>
    3fb2:	04f41763          	bne	s0,a5,4000 <ST7789_ShowChar+0x1e6>
    3fb6:	8522                	mv	a0,s0
    3fb8:	4681                	li	a3,0
    3fba:	860a                	mv	a2,sp
    3fbc:	85da                	mv	a1,s6
    3fbe:	bdeff0ef          	jal	ra,339c <GT30L32S4W_ReadData>
    3fc2:	8552                	mv	a0,s4
    3fc4:	46c1                	li	a3,16
    3fc6:	4621                	li	a2,8
    3fc8:	85d6                	mv	a1,s5
    3fca:	a62ff0ef          	jal	ra,322c <ST7789_SetWindows>
    3fce:	840a                	mv	s0,sp
    3fd0:	01010a13          	addi	s4,sp,16
    3fd4:	44a1                	li	s1,8
    3fd6:	00040783          	lb	a5,0(s0)
    3fda:	854e                	mv	a0,s3
    3fdc:	0007c363          	bltz	a5,3fe2 <ST7789_ShowChar+0x1c8>
    3fe0:	854a                	mv	a0,s2
    3fe2:	a2aff0ef          	jal	ra,320c <I8080_Write_Byte16>
    3fe6:	00044783          	lbu	a5,0(s0)
    3fea:	14fd                	addi	s1,s1,-1
    3fec:	0ff4f493          	andi	s1,s1,255
    3ff0:	0786                	slli	a5,a5,0x1
    3ff2:	00f40023          	sb	a5,0(s0)
    3ff6:	f0e5                	bnez	s1,3fd6 <ST7789_ShowChar+0x1bc>
    3ff8:	0405                	addi	s0,s0,1
    3ffa:	fc8a1de3          	bne	s4,s0,3fd4 <ST7789_ShowChar+0x1ba>
    3ffe:	bf51                	j	3f92 <ST7789_ShowChar+0x178>
    4000:	001e07b7          	lui	a5,0x1e0
    4004:	f0078793          	addi	a5,a5,-256 # 1dff00 <_data_lma+0x1d75a4>
    4008:	e8f415e3          	bne	s0,a5,3e92 <ST7789_ShowChar+0x78>
    400c:	8522                	mv	a0,s0
    400e:	4681                	li	a3,0
    4010:	860a                	mv	a2,sp
    4012:	85da                	mv	a1,s6
    4014:	b88ff0ef          	jal	ra,339c <GT30L32S4W_ReadData>
    4018:	8552                	mv	a0,s4
    401a:	46e1                	li	a3,24
    401c:	4631                	li	a2,12
    401e:	85d6                	mv	a1,s5
    4020:	a0cff0ef          	jal	ra,322c <ST7789_SetWindows>
    4024:	840a                	mv	s0,sp
    4026:	03010a13          	addi	s4,sp,48
    402a:	44a1                	li	s1,8
    402c:	00040783          	lb	a5,0(s0)
    4030:	854e                	mv	a0,s3
    4032:	0007c363          	bltz	a5,4038 <ST7789_ShowChar+0x21e>
    4036:	854a                	mv	a0,s2
    4038:	9d4ff0ef          	jal	ra,320c <I8080_Write_Byte16>
    403c:	00044783          	lbu	a5,0(s0)
    4040:	14fd                	addi	s1,s1,-1
    4042:	0ff4f493          	andi	s1,s1,255
    4046:	0786                	slli	a5,a5,0x1
    4048:	00f40023          	sb	a5,0(s0)
    404c:	f0e5                	bnez	s1,402c <ST7789_ShowChar+0x212>
    404e:	4491                	li	s1,4
    4050:	00140783          	lb	a5,1(s0)
    4054:	854e                	mv	a0,s3
    4056:	0007c363          	bltz	a5,405c <ST7789_ShowChar+0x242>
    405a:	854a                	mv	a0,s2
    405c:	9b0ff0ef          	jal	ra,320c <I8080_Write_Byte16>
    4060:	00144783          	lbu	a5,1(s0)
    4064:	14fd                	addi	s1,s1,-1
    4066:	0ff4f493          	andi	s1,s1,255
    406a:	0786                	slli	a5,a5,0x1
    406c:	00f400a3          	sb	a5,1(s0)
    4070:	f0e5                	bnez	s1,4050 <ST7789_ShowChar+0x236>
    4072:	0409                	addi	s0,s0,2
    4074:	fb441be3          	bne	s0,s4,402a <ST7789_ShowChar+0x210>
    4078:	bf29                	j	3f92 <ST7789_ShowChar+0x178>

0000407a <ST7789_ShowString>:
    407a:	7139                	addi	sp,sp,-64
    407c:	d84a                	sw	s2,48(sp)
    407e:	893e                	mv	s2,a5
    4080:	001de7b7          	lui	a5,0x1de
    4084:	dc22                	sw	s0,56(sp)
    4086:	da26                	sw	s1,52(sp)
    4088:	d64e                	sw	s3,44(sp)
    408a:	d452                	sw	s4,40(sp)
    408c:	ce5e                	sw	s7,28(sp)
    408e:	cc62                	sw	s8,24(sp)
    4090:	de06                	sw	ra,60(sp)
    4092:	d256                	sw	s5,36(sp)
    4094:	d05a                	sw	s6,32(sp)
    4096:	ca66                	sw	s9,20(sp)
    4098:	c86a                	sw	s10,16(sp)
    409a:	c66e                	sw	s11,12(sp)
    409c:	28078793          	addi	a5,a5,640 # 1de280 <_data_lma+0x1d5924>
    40a0:	8a2a                	mv	s4,a0
    40a2:	842e                	mv	s0,a1
    40a4:	89b2                	mv	s3,a2
    40a6:	8bb6                	mv	s7,a3
    40a8:	8c3a                	mv	s8,a4
    40aa:	449d                	li	s1,7
    40ac:	02f90f63          	beq	s2,a5,40ea <ST7789_ShowString+0x70>
    40b0:	001dc7b7          	lui	a5,0x1dc
    40b4:	e0078793          	addi	a5,a5,-512 # 1dbe00 <_data_lma+0x1d34a4>
    40b8:	4499                	li	s1,6
    40ba:	02f90863          	beq	s2,a5,40ea <ST7789_ShowString+0x70>
    40be:	001dd7b7          	lui	a5,0x1dd
    40c2:	78078793          	addi	a5,a5,1920 # 1dd780 <_data_lma+0x1d4e24>
    40c6:	44a1                	li	s1,8
    40c8:	02f90163          	beq	s2,a5,40ea <ST7789_ShowString+0x70>
    40cc:	001e07b7          	lui	a5,0x1e0
    40d0:	f0078793          	addi	a5,a5,-256 # 1dff00 <_data_lma+0x1d75a4>
    40d4:	44b1                	li	s1,12
    40d6:	00f90a63          	beq	s2,a5,40ea <ST7789_ShowString+0x70>
    40da:	001e67b7          	lui	a5,0x1e6
    40de:	a5078793          	addi	a5,a5,-1456 # 1e5a50 <_data_lma+0x1dd0f4>
    40e2:	44c1                	li	s1,16
    40e4:	00f90363          	beq	s2,a5,40ea <ST7789_ShowString+0x70>
    40e8:	4495                	li	s1,5
    40ea:	001e0ab7          	lui	s5,0x1e0
    40ee:	001e6b37          	lui	s6,0x1e6
    40f2:	00149c93          	slli	s9,s1,0x1
    40f6:	4d35                	li	s10,13
    40f8:	4da9                	li	s11,10
    40fa:	f00a8a93          	addi	s5,s5,-256 # 1dff00 <_data_lma+0x1d75a4>
    40fe:	a50b0b13          	addi	s6,s6,-1456 # 1e5a50 <_data_lma+0x1dd0f4>
    4102:	a099                	j	4148 <ST7789_ShowString+0xce>
    4104:	01a79b63          	bne	a5,s10,411a <ST7789_ShowString+0xa0>
    4108:	00198783          	lb	a5,1(s3)
    410c:	01b79763          	bne	a5,s11,411a <ST7789_ShowString+0xa0>
    4110:	07591263          	bne	s2,s5,4174 <ST7789_ShowString+0xfa>
    4114:	0461                	addi	s0,s0,24
    4116:	0989                	addi	s3,s3,2
    4118:	4a01                	li	s4,0
    411a:	009a07b3          	add	a5,s4,s1
    411e:	00f87463          	bgeu	a6,a5,4126 <ST7789_ShowString+0xac>
    4122:	9466                	add	s0,s0,s9
    4124:	4a01                	li	s4,0
    4126:	019407b3          	add	a5,s0,s9
    412a:	00f8f463          	bgeu	a7,a5,4132 <ST7789_ShowString+0xb8>
    412e:	4401                	li	s0,0
    4130:	4a01                	li	s4,0
    4132:	0009c603          	lbu	a2,0(s3)
    4136:	8552                	mv	a0,s4
    4138:	87ca                	mv	a5,s2
    413a:	8762                	mv	a4,s8
    413c:	86de                	mv	a3,s7
    413e:	85a2                	mv	a1,s0
    4140:	cdbff0ef          	jal	ra,3e1a <ST7789_ShowChar>
    4144:	0985                	addi	s3,s3,1
    4146:	9a26                	add	s4,s4,s1
    4148:	00098783          	lb	a5,0(s3)
    414c:	14000813          	li	a6,320
    4150:	0ac00893          	li	a7,172
    4154:	fbc5                	bnez	a5,4104 <ST7789_ShowString+0x8a>
    4156:	50f2                	lw	ra,60(sp)
    4158:	5462                	lw	s0,56(sp)
    415a:	54d2                	lw	s1,52(sp)
    415c:	5942                	lw	s2,48(sp)
    415e:	59b2                	lw	s3,44(sp)
    4160:	5a22                	lw	s4,40(sp)
    4162:	5a92                	lw	s5,36(sp)
    4164:	5b02                	lw	s6,32(sp)
    4166:	4bf2                	lw	s7,28(sp)
    4168:	4c62                	lw	s8,24(sp)
    416a:	4cd2                	lw	s9,20(sp)
    416c:	4d42                	lw	s10,16(sp)
    416e:	4db2                	lw	s11,12(sp)
    4170:	6121                	addi	sp,sp,64
    4172:	8082                	ret
    4174:	fb6911e3          	bne	s2,s6,4116 <ST7789_ShowString+0x9c>
    4178:	02040413          	addi	s0,s0,32
    417c:	bf69                	j	4116 <ST7789_ShowString+0x9c>

0000417e <System_Init>:
    417e:	1141                	addi	sp,sp,-16
    4180:	c606                	sw	ra,12(sp)
    4182:	c422                	sw	s0,8(sp)
    4184:	c226                	sw	s1,4(sp)
    4186:	e98ff0ef          	jal	ra,381e <ST7789_Init>
    418a:	64b1                	lui	s1,0xc
    418c:	6441                	lui	s0,0x10
    418e:	001e67b7          	lui	a5,0x1e6
    4192:	00008637          	lui	a2,0x8
    4196:	a5078793          	addi	a5,a5,-1456 # 1e5a50 <_data_lma+0x1dd0f4>
    419a:	c4048713          	addi	a4,s1,-960 # bc40 <_data_lma+0x32e4>
    419e:	fff40693          	addi	a3,s0,-1 # ffff <_data_lma+0x76a3>
    41a2:	6b060613          	addi	a2,a2,1712 # 86b0 <dmp_memory+0xc40>
    41a6:	45a9                	li	a1,10
    41a8:	4501                	li	a0,0
    41aa:	ed1ff0ef          	jal	ra,407a <ST7789_ShowString>
    41ae:	000ee7b7          	lui	a5,0xee
    41b2:	00008637          	lui	a2,0x8
    41b6:	f0078793          	addi	a5,a5,-256 # edf00 <_data_lma+0xe55a4>
    41ba:	c4048713          	addi	a4,s1,-960
    41be:	fff40693          	addi	a3,s0,-1
    41c2:	6d460613          	addi	a2,a2,1748 # 86d4 <dmp_memory+0xc64>
    41c6:	06a00593          	li	a1,106
    41ca:	0e800513          	li	a0,232
    41ce:	9edff0ef          	jal	ra,3bba <ST7789_ShowCHN>
    41d2:	cb7fe0ef          	jal	ra,2e88 <MPU6050_Init>
    41d6:	fd75                	bnez	a0,41d2 <System_Init+0x54>
    41d8:	4422                	lw	s0,8(sp)
    41da:	40b2                	lw	ra,12(sp)
    41dc:	4492                	lw	s1,4(sp)
    41de:	00008537          	lui	a0,0x8
    41e2:	6d850513          	addi	a0,a0,1752 # 86d8 <dmp_memory+0xc68>
    41e6:	0141                	addi	sp,sp,16
    41e8:	13c0106f          	j	5324 <puts>

000041ec <System_Loop>:
    41ec:	1141                	addi	sp,sp,-16
    41ee:	c606                	sw	ra,12(sp)
    41f0:	c422                	sw	s0,8(sp)
    41f2:	f55fe0ef          	jal	ra,3146 <MPU6050_MPU_DMP_GetData>
    41f6:	e949                	bnez	a0,4288 <System_Loop+0x9c>
    41f8:	8281a507          	flw	fa0,-2008(gp) # 200000d0 <MPU6050_para>
    41fc:	82818413          	addi	s0,gp,-2008 # 200000d0 <MPU6050_para>
    4200:	15a030ef          	jal	ra,735a <__extendsfdf2>
    4204:	862a                	mv	a2,a0
    4206:	00008537          	lui	a0,0x8
    420a:	86ae                	mv	a3,a1
    420c:	6ec50513          	addi	a0,a0,1772 # 86ec <dmp_memory+0xc7c>
    4210:	0f0010ef          	jal	ra,5300 <printf>
    4214:	6048                	flw	fa0,4(s0)
    4216:	144030ef          	jal	ra,735a <__extendsfdf2>
    421a:	862a                	mv	a2,a0
    421c:	00008537          	lui	a0,0x8
    4220:	86ae                	mv	a3,a1
    4222:	6f850513          	addi	a0,a0,1784 # 86f8 <dmp_memory+0xc88>
    4226:	0da010ef          	jal	ra,5300 <printf>
    422a:	6408                	flw	fa0,8(s0)
    422c:	12e030ef          	jal	ra,735a <__extendsfdf2>
    4230:	862a                	mv	a2,a0
    4232:	00008537          	lui	a0,0x8
    4236:	86ae                	mv	a3,a1
    4238:	70450513          	addi	a0,a0,1796 # 8704 <dmp_memory+0xc94>
    423c:	0c4010ef          	jal	ra,5300 <printf>
    4240:	00c45583          	lhu	a1,12(s0)
    4244:	00008537          	lui	a0,0x8
    4248:	71050513          	addi	a0,a0,1808 # 8710 <dmp_memory+0xca0>
    424c:	0b4010ef          	jal	ra,5300 <printf>
    4250:	00e45583          	lhu	a1,14(s0)
    4254:	00008537          	lui	a0,0x8
    4258:	71c50513          	addi	a0,a0,1820 # 871c <dmp_memory+0xcac>
    425c:	0a4010ef          	jal	ra,5300 <printf>
    4260:	01045583          	lhu	a1,16(s0)
    4264:	00008537          	lui	a0,0x8
    4268:	72c50513          	addi	a0,a0,1836 # 872c <dmp_memory+0xcbc>
    426c:	094010ef          	jal	ra,5300 <printf>
    4270:	ea7fe0ef          	jal	ra,3116 <MPU6050_Get_Temp>
    4274:	0e6030ef          	jal	ra,735a <__extendsfdf2>
    4278:	862a                	mv	a2,a0
    427a:	00008537          	lui	a0,0x8
    427e:	86ae                	mv	a3,a1
    4280:	73c50513          	addi	a0,a0,1852 # 873c <dmp_memory+0xccc>
    4284:	07c010ef          	jal	ra,5300 <printf>
    4288:	4422                	lw	s0,8(sp)
    428a:	40b2                	lw	ra,12(sp)
    428c:	03200513          	li	a0,50
    4290:	0141                	addi	sp,sp,16
    4292:	a035                	j	42be <Delay_Ms>

00004294 <Delay_Init>:
    4294:	200007b7          	lui	a5,0x20000
    4298:	0a87a783          	lw	a5,168(a5) # 200000a8 <SystemCoreClock>
    429c:	007a1737          	lui	a4,0x7a1
    42a0:	20070713          	addi	a4,a4,512 # 7a1200 <_data_lma+0x7988a4>
    42a4:	02e7d7b3          	divu	a5,a5,a4
    42a8:	0ff7f793          	andi	a5,a5,255
    42ac:	80f18b23          	sb	a5,-2026(gp) # 200000be <p_us>
    42b0:	3e800713          	li	a4,1000
    42b4:	02e787b3          	mul	a5,a5,a4
    42b8:	80f19a23          	sh	a5,-2028(gp) # 200000bc <p_ms>
    42bc:	8082                	ret

000042be <Delay_Ms>:
    42be:	e000f7b7          	lui	a5,0xe000f
    42c2:	43d8                	lw	a4,4(a5)
    42c4:	4681                	li	a3,0
    42c6:	9b79                	andi	a4,a4,-2
    42c8:	c3d8                	sw	a4,4(a5)
    42ca:	8141d703          	lhu	a4,-2028(gp) # 200000bc <p_ms>
    42ce:	02a70633          	mul	a2,a4,a0
    42d2:	cb90                	sw	a2,16(a5)
    42d4:	cbd4                	sw	a3,20(a5)
    42d6:	4398                	lw	a4,0(a5)
    42d8:	01076713          	ori	a4,a4,16
    42dc:	c398                	sw	a4,0(a5)
    42de:	4398                	lw	a4,0(a5)
    42e0:	02176713          	ori	a4,a4,33
    42e4:	c398                	sw	a4,0(a5)
    42e6:	43d8                	lw	a4,4(a5)
    42e8:	8b05                	andi	a4,a4,1
    42ea:	df75                	beqz	a4,42e6 <Delay_Ms+0x28>
    42ec:	4398                	lw	a4,0(a5)
    42ee:	9b79                	andi	a4,a4,-2
    42f0:	c398                	sw	a4,0(a5)
    42f2:	8082                	ret

000042f4 <USART_Printf_Init>:
    42f4:	7179                	addi	sp,sp,-48
    42f6:	d422                	sw	s0,40(sp)
    42f8:	842a                	mv	s0,a0
    42fa:	6511                	lui	a0,0x4
    42fc:	4585                	li	a1,1
    42fe:	0511                	addi	a0,a0,4
    4300:	d606                	sw	ra,44(sp)
    4302:	e12fc0ef          	jal	ra,914 <RCC_APB2PeriphClockCmd>
    4306:	20000793          	li	a5,512
    430a:	00f11223          	sh	a5,4(sp)
    430e:	40011537          	lui	a0,0x40011
    4312:	478d                	li	a5,3
    4314:	c43e                	sw	a5,8(sp)
    4316:	004c                	addi	a1,sp,4
    4318:	47e1                	li	a5,24
    431a:	80050513          	addi	a0,a0,-2048 # 40010800 <_eusrstack+0x20008800>
    431e:	c63e                	sw	a5,12(sp)
    4320:	a10fc0ef          	jal	ra,530 <GPIO_Init>
    4324:	c822                	sw	s0,16(sp)
    4326:	40014437          	lui	s0,0x40014
    432a:	000807b7          	lui	a5,0x80
    432e:	080c                	addi	a1,sp,16
    4330:	80040513          	addi	a0,s0,-2048 # 40013800 <_eusrstack+0x2000b800>
    4334:	cc3e                	sw	a5,24(sp)
    4336:	ca02                	sw	zero,20(sp)
    4338:	00011e23          	sh	zero,28(sp)
    433c:	ea4fc0ef          	jal	ra,9e0 <USART_Init>
    4340:	80040513          	addi	a0,s0,-2048
    4344:	4585                	li	a1,1
    4346:	f72fc0ef          	jal	ra,ab8 <USART_Cmd>
    434a:	50b2                	lw	ra,44(sp)
    434c:	5422                	lw	s0,40(sp)
    434e:	6145                	addi	sp,sp,48
    4350:	8082                	ret

00004352 <_write>:
    4352:	1101                	addi	sp,sp,-32
    4354:	ca26                	sw	s1,20(sp)
    4356:	400144b7          	lui	s1,0x40014
    435a:	cc22                	sw	s0,24(sp)
    435c:	c84a                	sw	s2,16(sp)
    435e:	c64e                	sw	s3,12(sp)
    4360:	ce06                	sw	ra,28(sp)
    4362:	89ae                	mv	s3,a1
    4364:	8932                	mv	s2,a2
    4366:	4401                	li	s0,0
    4368:	80048493          	addi	s1,s1,-2048 # 40013800 <_eusrstack+0x2000b800>
    436c:	01244a63          	blt	s0,s2,4380 <_write+0x2e>
    4370:	40f2                	lw	ra,28(sp)
    4372:	4462                	lw	s0,24(sp)
    4374:	854a                	mv	a0,s2
    4376:	44d2                	lw	s1,20(sp)
    4378:	4942                	lw	s2,16(sp)
    437a:	49b2                	lw	s3,12(sp)
    437c:	6105                	addi	sp,sp,32
    437e:	8082                	ret
    4380:	04000593          	li	a1,64
    4384:	8526                	mv	a0,s1
    4386:	f58fc0ef          	jal	ra,ade <USART_GetFlagStatus>
    438a:	d97d                	beqz	a0,4380 <_write+0x2e>
    438c:	008987b3          	add	a5,s3,s0
    4390:	00078583          	lb	a1,0(a5) # 80000 <_data_lma+0x776a4>
    4394:	8526                	mv	a0,s1
    4396:	0405                	addi	s0,s0,1
    4398:	05c2                	slli	a1,a1,0x10
    439a:	81c1                	srli	a1,a1,0x10
    439c:	f38fc0ef          	jal	ra,ad4 <USART_SendData>
    43a0:	b7f1                	j	436c <_write+0x1a>

000043a2 <asinf>:
    43a2:	715d                	addi	sp,sp,-80
    43a4:	c4a2                	sw	s0,72(sp)
    43a6:	fe22                	fsw	fs0,60(sp)
    43a8:	fc26                	fsw	fs1,56(sp)
    43aa:	c686                	sw	ra,76(sp)
    43ac:	80818413          	addi	s0,gp,-2040 # 200000b0 <__fdlib_version>
    43b0:	20a50453          	fmv.s	fs0,fa0
    43b4:	207d                	jal	4462 <__ieee754_asinf>
    43b6:	4018                	lw	a4,0(s0)
    43b8:	57fd                	li	a5,-1
    43ba:	20a504d3          	fmv.s	fs1,fa0
    43be:	00f70f63          	beq	a4,a5,43dc <asinf+0x3a>
    43c2:	a08427d3          	feq.s	a5,fs0,fs0
    43c6:	cb99                	beqz	a5,43dc <asinf+0x3a>
    43c8:	20840553          	fmv.s	fa0,fs0
    43cc:	2761                	jal	4b54 <fabsf>
    43ce:	00003797          	auipc	a5,0x3
    43d2:	63e7a787          	flw	fa5,1598(a5) # 7a0c <hw+0xe0>
    43d6:	a0a797d3          	flt.s	a5,fa5,fa0
    43da:	eb89                	bnez	a5,43ec <asinf+0x4a>
    43dc:	40b6                	lw	ra,76(sp)
    43de:	4426                	lw	s0,72(sp)
    43e0:	20948553          	fmv.s	fa0,fs1
    43e4:	7472                	flw	fs0,60(sp)
    43e6:	74e2                	flw	fs1,56(sp)
    43e8:	6161                	addi	sp,sp,80
    43ea:	8082                	ret
    43ec:	20840553          	fmv.s	fa0,fs0
    43f0:	4785                	li	a5,1
    43f2:	c43e                	sw	a5,8(sp)
    43f4:	00004797          	auipc	a5,0x4
    43f8:	35478793          	addi	a5,a5,852 # 8748 <dmp_memory+0xcd8>
    43fc:	c63e                	sw	a5,12(sp)
    43fe:	d402                	sw	zero,40(sp)
    4400:	75b020ef          	jal	ra,735a <__extendsfdf2>
    4404:	872a                	mv	a4,a0
    4406:	00004517          	auipc	a0,0x4
    440a:	33250513          	addi	a0,a0,818 # 8738 <dmp_memory+0xcc8>
    440e:	cc3a                	sw	a4,24(sp)
    4410:	c83a                	sw	a4,16(sp)
    4412:	ce2e                	sw	a1,28(sp)
    4414:	ca2e                	sw	a1,20(sp)
    4416:	2335                	jal	4942 <nan>
    4418:	4018                	lw	a4,0(s0)
    441a:	d02a                	sw	a0,32(sp)
    441c:	d22e                	sw	a1,36(sp)
    441e:	4789                	li	a5,2
    4420:	02f70563          	beq	a4,a5,444a <asinf+0xa8>
    4424:	0028                	addi	a0,sp,8
    4426:	2b21                	jal	493e <matherr>
    4428:	c10d                	beqz	a0,444a <asinf+0xa8>
    442a:	57a2                	lw	a5,40(sp)
    442c:	e78d                	bnez	a5,4456 <asinf+0xb4>
    442e:	5502                	lw	a0,32(sp)
    4430:	5592                	lw	a1,36(sp)
    4432:	010030ef          	jal	ra,7442 <__truncdfsf2>
    4436:	20a504d3          	fmv.s	fs1,fa0
    443a:	40b6                	lw	ra,76(sp)
    443c:	4426                	lw	s0,72(sp)
    443e:	20948553          	fmv.s	fa0,fs1
    4442:	7472                	flw	fs0,60(sp)
    4444:	74e2                	flw	fs1,56(sp)
    4446:	6161                	addi	sp,sp,80
    4448:	8082                	ret
    444a:	38c030ef          	jal	ra,77d6 <__errno>
    444e:	02100793          	li	a5,33
    4452:	c11c                	sw	a5,0(a0)
    4454:	bfd9                	j	442a <asinf+0x88>
    4456:	380030ef          	jal	ra,77d6 <__errno>
    445a:	57a2                	lw	a5,40(sp)
    445c:	c11c                	sw	a5,0(a0)
    445e:	bfc1                	j	442e <asinf+0x8c>

00004460 <atan2f>:
    4460:	ac91                	j	46b4 <__ieee754_atan2f>

00004462 <__ieee754_asinf>:
    4462:	e00507d3          	fmv.x.w	a5,fa0
    4466:	1101                	addi	sp,sp,-32
    4468:	cc22                	sw	s0,24(sp)
    446a:	00179413          	slli	s0,a5,0x1
    446e:	ce06                	sw	ra,28(sp)
    4470:	ca26                	sw	s1,20(sp)
    4472:	e622                	fsw	fs0,12(sp)
    4474:	e426                	fsw	fs1,8(sp)
    4476:	e24a                	fsw	fs2,4(sp)
    4478:	e04e                	fsw	fs3,0(sp)
    447a:	3f800737          	lui	a4,0x3f800
    447e:	8005                	srli	s0,s0,0x1
    4480:	12e40463          	beq	s0,a4,45a8 <__ieee754_asinf+0x146>
    4484:	10874d63          	blt	a4,s0,459e <__ieee754_asinf+0x13c>
    4488:	3f000737          	lui	a4,0x3f000
    448c:	84be                	mv	s1,a5
    448e:	12e45e63          	bge	s0,a4,45ca <__ieee754_asinf+0x168>
    4492:	32000737          	lui	a4,0x32000
    4496:	18e45663          	bge	s0,a4,4622 <__ieee754_asinf+0x1c0>
    449a:	00004717          	auipc	a4,0x4
    449e:	2be72787          	flw	fa5,702(a4) # 8758 <dmp_memory+0xce8>
    44a2:	00f577d3          	fadd.s	fa5,fa0,fa5
    44a6:	00003717          	auipc	a4,0x3
    44aa:	56672987          	flw	fs3,1382(a4) # 7a0c <hw+0xe0>
    44ae:	a0f99753          	flt.s	a4,fs3,fa5
    44b2:	ef69                	bnez	a4,458c <__ieee754_asinf+0x12a>
    44b4:	f0078553          	fmv.w.x	fa0,a5
    44b8:	2d71                	jal	4b54 <fabsf>
    44ba:	08a9f553          	fsub.s	fa0,fs3,fa0
    44be:	00004797          	auipc	a5,0x4
    44c2:	2c67a407          	flw	fs0,710(a5) # 8784 <dmp_memory+0xd14>
    44c6:	00004797          	auipc	a5,0x4
    44ca:	29a7a607          	flw	fa2,666(a5) # 8760 <dmp_memory+0xcf0>
    44ce:	00004797          	auipc	a5,0x4
    44d2:	28e7a787          	flw	fa5,654(a5) # 875c <dmp_memory+0xcec>
    44d6:	00004797          	auipc	a5,0x4
    44da:	28e7a487          	flw	fs1,654(a5) # 8764 <dmp_memory+0xcf4>
    44de:	10857453          	fmul.s	fs0,fa0,fs0
    44e2:	00004797          	auipc	a5,0x4
    44e6:	2967a707          	flw	fa4,662(a5) # 8778 <dmp_memory+0xd08>
    44ea:	00004797          	auipc	a5,0x4
    44ee:	27e7a587          	flw	fa1,638(a5) # 8768 <dmp_memory+0xcf8>
    44f2:	00004797          	auipc	a5,0x4
    44f6:	2827a907          	flw	fs2,642(a5) # 8774 <dmp_memory+0xd04>
    44fa:	00004797          	auipc	a5,0x4
    44fe:	2827a507          	flw	fa0,642(a5) # 877c <dmp_memory+0xd0c>
    4502:	60f477c3          	fmadd.s	fa5,fs0,fa5,fa2
    4506:	71247943          	fmadd.s	fs2,fs0,fs2,fa4
    450a:	00004797          	auipc	a5,0x4
    450e:	2627a687          	flw	fa3,610(a5) # 876c <dmp_memory+0xcfc>
    4512:	00004797          	auipc	a5,0x4
    4516:	25e7a707          	flw	fa4,606(a5) # 8770 <dmp_memory+0xd00>
    451a:	00004797          	auipc	a5,0x4
    451e:	2667a607          	flw	fa2,614(a5) # 8780 <dmp_memory+0xd10>
    4522:	4887f4c3          	fmadd.s	fs1,fa5,fs0,fs1
    4526:	50897943          	fmadd.s	fs2,fs2,fs0,fa0
    452a:	20840553          	fmv.s	fa0,fs0
    452e:	5884f4c3          	fmadd.s	fs1,fs1,fs0,fa1
    4532:	60897943          	fmadd.s	fs2,fs2,fs0,fa2
    4536:	6884f4c3          	fmadd.s	fs1,fs1,fs0,fa3
    453a:	98897943          	fmadd.s	fs2,fs2,fs0,fs3
    453e:	7084f4c3          	fmadd.s	fs1,fs1,fs0,fa4
    4542:	2e05                	jal	4872 <__ieee754_sqrtf>
    4544:	3f79a737          	lui	a4,0x3f79a
    4548:	99970713          	addi	a4,a4,-1639 # 3f799999 <_eusrstack+0x1f791999>
    454c:	e00507d3          	fmv.x.w	a5,fa0
    4550:	1084f4d3          	fmul.s	fs1,fs1,fs0
    4554:	08875063          	bge	a4,s0,45d4 <__ieee754_asinf+0x172>
    4558:	1924f4d3          	fdiv.s	fs1,fs1,fs2
    455c:	f00786d3          	fmv.w.x	fa3,a5
    4560:	00004717          	auipc	a4,0x4
    4564:	22872707          	flw	fa4,552(a4) # 8788 <dmp_memory+0xd18>
    4568:	00004717          	auipc	a4,0x4
    456c:	22472787          	flw	fa5,548(a4) # 878c <dmp_memory+0xd1c>
    4570:	00004717          	auipc	a4,0x4
    4574:	1e472507          	flw	fa0,484(a4) # 8754 <dmp_memory+0xce4>
    4578:	6896f4c3          	fmadd.s	fs1,fa3,fs1,fa3
    457c:	78e4f4c3          	fmadd.s	fs1,fs1,fa4,fa5
    4580:	08957553          	fsub.s	fa0,fa0,fs1
    4584:	00904463          	bgtz	s1,458c <__ieee754_asinf+0x12a>
    4588:	20a51553          	fneg.s	fa0,fa0
    458c:	40f2                	lw	ra,28(sp)
    458e:	4462                	lw	s0,24(sp)
    4590:	44d2                	lw	s1,20(sp)
    4592:	6432                	flw	fs0,12(sp)
    4594:	64a2                	flw	fs1,8(sp)
    4596:	6912                	flw	fs2,4(sp)
    4598:	6982                	flw	fs3,0(sp)
    459a:	6105                	addi	sp,sp,32
    459c:	8082                	ret
    459e:	08a57553          	fsub.s	fa0,fa0,fa0
    45a2:	18a57553          	fdiv.s	fa0,fa0,fa0
    45a6:	b7dd                	j	458c <__ieee754_asinf+0x12a>
    45a8:	f00787d3          	fmv.w.x	fa5,a5
    45ac:	00004717          	auipc	a4,0x4
    45b0:	1a472507          	flw	fa0,420(a4) # 8750 <dmp_memory+0xce0>
    45b4:	f0078753          	fmv.w.x	fa4,a5
    45b8:	10a7f553          	fmul.s	fa0,fa5,fa0
    45bc:	00004717          	auipc	a4,0x4
    45c0:	19872787          	flw	fa5,408(a4) # 8754 <dmp_memory+0xce4>
    45c4:	50f77543          	fmadd.s	fa0,fa4,fa5,fa0
    45c8:	b7d1                	j	458c <__ieee754_asinf+0x12a>
    45ca:	00003717          	auipc	a4,0x3
    45ce:	44272987          	flw	fs3,1090(a4) # 7a0c <hw+0xe0>
    45d2:	b5cd                	j	44b4 <__ieee754_asinf+0x52>
    45d4:	777d                	lui	a4,0xfffff
    45d6:	8f7d                	and	a4,a4,a5
    45d8:	f00707d3          	fmv.w.x	fa5,a4
    45dc:	f0070753          	fmv.w.x	fa4,a4
    45e0:	1924f4d3          	fdiv.s	fs1,fs1,fs2
    45e4:	40f7f44b          	fnmsub.s	fs0,fa5,fa5,fs0
    45e8:	00e575d3          	fadd.s	fa1,fa0,fa4
    45ec:	00004697          	auipc	a3,0x4
    45f0:	19c6a687          	flw	fa3,412(a3) # 8788 <dmp_memory+0xd18>
    45f4:	00004697          	auipc	a3,0x4
    45f8:	15c6a607          	flw	fa2,348(a3) # 8750 <dmp_memory+0xce0>
    45fc:	00a577d3          	fadd.s	fa5,fa0,fa0
    4600:	00004797          	auipc	a5,0x4
    4604:	1907a507          	flw	fa0,400(a5) # 8790 <dmp_memory+0xd20>
    4608:	50d7774b          	fnmsub.s	fa4,fa4,fa3,fa0
    460c:	18b47453          	fdiv.s	fs0,fs0,fa1
    4610:	60d4744b          	fnmsub.s	fs0,fs0,fa3,fa2
    4614:	4097f4c7          	fmsub.s	fs1,fa5,fs1,fs0
    4618:	08e4f4d3          	fsub.s	fs1,fs1,fa4
    461c:	08957553          	fsub.s	fa0,fa0,fs1
    4620:	b795                	j	4584 <__ieee754_asinf+0x122>
    4622:	10a57753          	fmul.s	fa4,fa0,fa0
    4626:	00004717          	auipc	a4,0x4
    462a:	13a72587          	flw	fa1,314(a4) # 8760 <dmp_memory+0xcf0>
    462e:	00004717          	auipc	a4,0x4
    4632:	12e72787          	flw	fa5,302(a4) # 875c <dmp_memory+0xcec>
    4636:	00004717          	auipc	a4,0x4
    463a:	12e72687          	flw	fa3,302(a4) # 8764 <dmp_memory+0xcf4>
    463e:	00004717          	auipc	a4,0x4
    4642:	12a72607          	flw	fa2,298(a4) # 8768 <dmp_memory+0xcf8>
    4646:	58f777c3          	fmadd.s	fa5,fa4,fa5,fa1
    464a:	00004717          	auipc	a4,0x4
    464e:	12a72507          	flw	fa0,298(a4) # 8774 <dmp_memory+0xd04>
    4652:	00004717          	auipc	a4,0x4
    4656:	12672587          	flw	fa1,294(a4) # 8778 <dmp_memory+0xd08>
    465a:	58a77543          	fmadd.s	fa0,fa4,fa0,fa1
    465e:	00004717          	auipc	a4,0x4
    4662:	11e72007          	flw	ft0,286(a4) # 877c <dmp_memory+0xd0c>
    4666:	68e7f7c3          	fmadd.s	fa5,fa5,fa4,fa3
    466a:	00004717          	auipc	a4,0x4
    466e:	10272587          	flw	fa1,258(a4) # 876c <dmp_memory+0xcfc>
    4672:	00004717          	auipc	a4,0x4
    4676:	0fe72687          	flw	fa3,254(a4) # 8770 <dmp_memory+0xd00>
    467a:	00e57543          	fmadd.s	fa0,fa0,fa4,ft0
    467e:	00004717          	auipc	a4,0x4
    4682:	10272007          	flw	ft0,258(a4) # 8780 <dmp_memory+0xd10>
    4686:	60e7f7c3          	fmadd.s	fa5,fa5,fa4,fa2
    468a:	00003717          	auipc	a4,0x3
    468e:	38272607          	flw	fa2,898(a4) # 7a0c <hw+0xe0>
    4692:	00e57543          	fmadd.s	fa0,fa0,fa4,ft0
    4696:	58e7f7c3          	fmadd.s	fa5,fa5,fa4,fa1
    469a:	60e57543          	fmadd.s	fa0,fa0,fa4,fa2
    469e:	68e7f7c3          	fmadd.s	fa5,fa5,fa4,fa3
    46a2:	10e7f7d3          	fmul.s	fa5,fa5,fa4
    46a6:	18a7f553          	fdiv.s	fa0,fa5,fa0
    46aa:	f00787d3          	fmv.w.x	fa5,a5
    46ae:	78a7f543          	fmadd.s	fa0,fa5,fa0,fa5
    46b2:	bde9                	j	458c <__ieee754_asinf+0x12a>

000046b4 <__ieee754_atan2f>:
    46b4:	e0058753          	fmv.x.w	a4,fa1
    46b8:	800007b7          	lui	a5,0x80000
    46bc:	fff7c793          	not	a5,a5
    46c0:	00e7f5b3          	and	a1,a5,a4
    46c4:	7f800637          	lui	a2,0x7f800
    46c8:	e00506d3          	fmv.x.w	a3,fa0
    46cc:	04b64963          	blt	a2,a1,471e <__ieee754_atan2f+0x6a>
    46d0:	8ff5                	and	a5,a5,a3
    46d2:	88b6                	mv	a7,a3
    46d4:	04f64563          	blt	a2,a5,471e <__ieee754_atan2f+0x6a>
    46d8:	3f800837          	lui	a6,0x3f800
    46dc:	11070963          	beq	a4,a6,47ee <__ieee754_atan2f+0x13a>
    46e0:	1141                	addi	sp,sp,-16
    46e2:	c422                	sw	s0,8(sp)
    46e4:	41e75413          	srai	s0,a4,0x1e
    46e8:	8809                	andi	s0,s0,2
    46ea:	01f6d813          	srli	a6,a3,0x1f
    46ee:	c606                	sw	ra,12(sp)
    46f0:	01046433          	or	s0,s0,a6
    46f4:	ef95                	bnez	a5,4730 <__ieee754_atan2f+0x7c>
    46f6:	4789                	li	a5,2
    46f8:	0cf40063          	beq	s0,a5,47b8 <__ieee754_atan2f+0x104>
    46fc:	478d                	li	a5,3
    46fe:	e0050653          	fmv.x.w	a2,fa0
    4702:	00f41863          	bne	s0,a5,4712 <__ieee754_atan2f+0x5e>
    4706:	00004797          	auipc	a5,0x4
    470a:	0927a787          	flw	fa5,146(a5) # 8798 <dmp_memory+0xd28>
    470e:	e0078653          	fmv.x.w	a2,fa5
    4712:	40b2                	lw	ra,12(sp)
    4714:	4422                	lw	s0,8(sp)
    4716:	f0060553          	fmv.w.x	fa0,a2
    471a:	0141                	addi	sp,sp,16
    471c:	8082                	ret
    471e:	f00707d3          	fmv.w.x	fa5,a4
    4722:	f0068753          	fmv.w.x	fa4,a3
    4726:	00e7f7d3          	fadd.s	fa5,fa5,fa4
    472a:	20f78553          	fmv.s	fa0,fa5
    472e:	8082                	ret
    4730:	c5ad                	beqz	a1,479a <__ieee754_atan2f+0xe6>
    4732:	08c58a63          	beq	a1,a2,47c6 <__ieee754_atan2f+0x112>
    4736:	06c78263          	beq	a5,a2,479a <__ieee754_atan2f+0xe6>
    473a:	8f8d                	sub	a5,a5,a1
    473c:	87dd                	srai	a5,a5,0x17
    473e:	03c00613          	li	a2,60
    4742:	0af64763          	blt	a2,a5,47f0 <__ieee754_atan2f+0x13c>
    4746:	00075863          	bgez	a4,4756 <__ieee754_atan2f+0xa2>
    474a:	fc400593          	li	a1,-60
    474e:	00000613          	li	a2,0
    4752:	00b7cc63          	blt	a5,a1,476a <__ieee754_atan2f+0xb6>
    4756:	f0068553          	fmv.w.x	fa0,a3
    475a:	f00707d3          	fmv.w.x	fa5,a4
    475e:	18f57553          	fdiv.s	fa0,fa0,fa5
    4762:	2ecd                	jal	4b54 <fabsf>
    4764:	22f5                	jal	4950 <atanf>
    4766:	e0050653          	fmv.x.w	a2,fa0
    476a:	4785                	li	a5,1
    476c:	0cf40a63          	beq	s0,a5,4840 <__ieee754_atan2f+0x18c>
    4770:	4789                	li	a5,2
    4772:	0af40663          	beq	s0,a5,481e <__ieee754_atan2f+0x16a>
    4776:	dc51                	beqz	s0,4712 <__ieee754_atan2f+0x5e>
    4778:	f0060753          	fmv.w.x	fa4,a2
    477c:	00004797          	auipc	a5,0x4
    4780:	0347a787          	flw	fa5,52(a5) # 87b0 <dmp_memory+0xd40>
    4784:	00f777d3          	fadd.s	fa5,fa4,fa5
    4788:	00004797          	auipc	a5,0x4
    478c:	00c7a707          	flw	fa4,12(a5) # 8794 <dmp_memory+0xd24>
    4790:	08e7f7d3          	fsub.s	fa5,fa5,fa4
    4794:	e0078653          	fmv.x.w	a2,fa5
    4798:	bfad                	j	4712 <__ieee754_atan2f+0x5e>
    479a:	00004797          	auipc	a5,0x4
    479e:	fba7a787          	flw	fa5,-70(a5) # 8754 <dmp_memory+0xce4>
    47a2:	e0078653          	fmv.x.w	a2,fa5
    47a6:	f608d6e3          	bgez	a7,4712 <__ieee754_atan2f+0x5e>
    47aa:	00004797          	auipc	a5,0x4
    47ae:	ff67a787          	flw	fa5,-10(a5) # 87a0 <dmp_memory+0xd30>
    47b2:	e0078653          	fmv.x.w	a2,fa5
    47b6:	bfb1                	j	4712 <__ieee754_atan2f+0x5e>
    47b8:	00004797          	auipc	a5,0x4
    47bc:	fdc7a787          	flw	fa5,-36(a5) # 8794 <dmp_memory+0xd24>
    47c0:	e0078653          	fmv.x.w	a2,fa5
    47c4:	b7b9                	j	4712 <__ieee754_atan2f+0x5e>
    47c6:	02b78c63          	beq	a5,a1,47fe <__ieee754_atan2f+0x14a>
    47ca:	4789                	li	a5,2
    47cc:	fef406e3          	beq	s0,a5,47b8 <__ieee754_atan2f+0x104>
    47d0:	478d                	li	a5,3
    47d2:	f2f40ae3          	beq	s0,a5,4706 <__ieee754_atan2f+0x52>
    47d6:	4785                	li	a5,1
    47d8:	00000613          	li	a2,0
    47dc:	f2f41be3          	bne	s0,a5,4712 <__ieee754_atan2f+0x5e>
    47e0:	00004797          	auipc	a5,0x4
    47e4:	fbc7a787          	flw	fa5,-68(a5) # 879c <dmp_memory+0xd2c>
    47e8:	e0078653          	fmv.x.w	a2,fa5
    47ec:	b71d                	j	4712 <__ieee754_atan2f+0x5e>
    47ee:	a28d                	j	4950 <atanf>
    47f0:	00004797          	auipc	a5,0x4
    47f4:	f647a787          	flw	fa5,-156(a5) # 8754 <dmp_memory+0xce4>
    47f8:	e0078653          	fmv.x.w	a2,fa5
    47fc:	b7bd                	j	476a <__ieee754_atan2f+0xb6>
    47fe:	4789                	li	a5,2
    4800:	06f40263          	beq	s0,a5,4864 <__ieee754_atan2f+0x1b0>
    4804:	478d                	li	a5,3
    4806:	04f40863          	beq	s0,a5,4856 <__ieee754_atan2f+0x1a2>
    480a:	4785                	li	a5,1
    480c:	02f40e63          	beq	s0,a5,4848 <__ieee754_atan2f+0x194>
    4810:	00004797          	auipc	a5,0x4
    4814:	f807a787          	flw	fa5,-128(a5) # 8790 <dmp_memory+0xd20>
    4818:	e0078653          	fmv.x.w	a2,fa5
    481c:	bddd                	j	4712 <__ieee754_atan2f+0x5e>
    481e:	f0060753          	fmv.w.x	fa4,a2
    4822:	00004797          	auipc	a5,0x4
    4826:	f8e7a787          	flw	fa5,-114(a5) # 87b0 <dmp_memory+0xd40>
    482a:	00f777d3          	fadd.s	fa5,fa4,fa5
    482e:	00004797          	auipc	a5,0x4
    4832:	f667a707          	flw	fa4,-154(a5) # 8794 <dmp_memory+0xd24>
    4836:	08f777d3          	fsub.s	fa5,fa4,fa5
    483a:	e0078653          	fmv.x.w	a2,fa5
    483e:	bdd1                	j	4712 <__ieee754_atan2f+0x5e>
    4840:	800007b7          	lui	a5,0x80000
    4844:	8e3d                	xor	a2,a2,a5
    4846:	b5f1                	j	4712 <__ieee754_atan2f+0x5e>
    4848:	00004797          	auipc	a5,0x4
    484c:	f647a787          	flw	fa5,-156(a5) # 87ac <dmp_memory+0xd3c>
    4850:	e0078653          	fmv.x.w	a2,fa5
    4854:	bd7d                	j	4712 <__ieee754_atan2f+0x5e>
    4856:	00004797          	auipc	a5,0x4
    485a:	f527a787          	flw	fa5,-174(a5) # 87a8 <dmp_memory+0xd38>
    485e:	e0078653          	fmv.x.w	a2,fa5
    4862:	bd45                	j	4712 <__ieee754_atan2f+0x5e>
    4864:	00004797          	auipc	a5,0x4
    4868:	f407a787          	flw	fa5,-192(a5) # 87a4 <dmp_memory+0xd34>
    486c:	e0078653          	fmv.x.w	a2,fa5
    4870:	b54d                	j	4712 <__ieee754_atan2f+0x5e>

00004872 <__ieee754_sqrtf>:
    4872:	e00506d3          	fmv.x.w	a3,fa0
    4876:	7f800737          	lui	a4,0x7f800
    487a:	00169793          	slli	a5,a3,0x1
    487e:	8385                	srli	a5,a5,0x1
    4880:	08e7f963          	bgeu	a5,a4,4912 <__ieee754_sqrtf+0xa0>
    4884:	e0050553          	fmv.x.w	a0,fa0
    4888:	c3d1                	beqz	a5,490c <__ieee754_sqrtf+0x9a>
    488a:	87b6                	mv	a5,a3
    488c:	0806cd63          	bltz	a3,4926 <__ieee754_sqrtf+0xb4>
    4890:	00d77633          	and	a2,a4,a3
    4894:	4176d713          	srai	a4,a3,0x17
    4898:	e205                	bnez	a2,48b8 <__ieee754_sqrtf+0x46>
    489a:	00869613          	slli	a2,a3,0x8
    489e:	08064d63          	bltz	a2,4938 <__ieee754_sqrtf+0xc6>
    48a2:	4681                	li	a3,0
    48a4:	a011                	j	48a8 <__ieee754_sqrtf+0x36>
    48a6:	86b2                	mv	a3,a2
    48a8:	0786                	slli	a5,a5,0x1
    48aa:	00879593          	slli	a1,a5,0x8
    48ae:	00168613          	addi	a2,a3,1
    48b2:	fe05dae3          	bgez	a1,48a6 <__ieee754_sqrtf+0x34>
    48b6:	8f15                	sub	a4,a4,a3
    48b8:	008006b7          	lui	a3,0x800
    48bc:	fff68613          	addi	a2,a3,-1 # 7fffff <_data_lma+0x7f76a3>
    48c0:	8ff1                	and	a5,a5,a2
    48c2:	f8170713          	addi	a4,a4,-127 # 7f7fff81 <_eusrstack+0x5f7f7f81>
    48c6:	8edd                	or	a3,a3,a5
    48c8:	00177613          	andi	a2,a4,1
    48cc:	00169793          	slli	a5,a3,0x1
    48d0:	ea21                	bnez	a2,4920 <__ieee754_sqrtf+0xae>
    48d2:	40175813          	srai	a6,a4,0x1
    48d6:	46e5                	li	a3,25
    48d8:	4501                	li	a0,0
    48da:	4581                	li	a1,0
    48dc:	01000737          	lui	a4,0x1000
    48e0:	00e58633          	add	a2,a1,a4
    48e4:	16fd                	addi	a3,a3,-1
    48e6:	00c7c663          	blt	a5,a2,48f2 <__ieee754_sqrtf+0x80>
    48ea:	00e605b3          	add	a1,a2,a4
    48ee:	8f91                	sub	a5,a5,a2
    48f0:	953a                	add	a0,a0,a4
    48f2:	0786                	slli	a5,a5,0x1
    48f4:	8305                	srli	a4,a4,0x1
    48f6:	f6ed                	bnez	a3,48e0 <__ieee754_sqrtf+0x6e>
    48f8:	c399                	beqz	a5,48fe <__ieee754_sqrtf+0x8c>
    48fa:	0505                	addi	a0,a0,1
    48fc:	9979                	andi	a0,a0,-2
    48fe:	8505                	srai	a0,a0,0x1
    4900:	3f0007b7          	lui	a5,0x3f000
    4904:	953e                	add	a0,a0,a5
    4906:	01781713          	slli	a4,a6,0x17
    490a:	953a                	add	a0,a0,a4
    490c:	f0050553          	fmv.w.x	fa0,a0
    4910:	8082                	ret
    4912:	50a577c3          	fmadd.s	fa5,fa0,fa0,fa0
    4916:	e0078553          	fmv.x.w	a0,fa5
    491a:	f0050553          	fmv.w.x	fa0,a0
    491e:	8082                	ret
    4920:	00269793          	slli	a5,a3,0x2
    4924:	b77d                	j	48d2 <__ieee754_sqrtf+0x60>
    4926:	08a577d3          	fsub.s	fa5,fa0,fa0
    492a:	18f7f7d3          	fdiv.s	fa5,fa5,fa5
    492e:	e0078553          	fmv.x.w	a0,fa5
    4932:	f0050553          	fmv.w.x	fa0,a0
    4936:	8082                	ret
    4938:	56fd                	li	a3,-1
    493a:	8f15                	sub	a4,a4,a3
    493c:	bfb5                	j	48b8 <__ieee754_sqrtf+0x46>

0000493e <matherr>:
    493e:	4501                	li	a0,0
    4940:	8082                	ret

00004942 <nan>:
    4942:	00004797          	auipc	a5,0x4
    4946:	e7678793          	addi	a5,a5,-394 # 87b8 <dmp_memory+0xd48>
    494a:	4388                	lw	a0,0(a5)
    494c:	43cc                	lw	a1,4(a5)
    494e:	8082                	ret

00004950 <atanf>:
    4950:	e00507d3          	fmv.x.w	a5,fa0
    4954:	1141                	addi	sp,sp,-16
    4956:	c422                	sw	s0,8(sp)
    4958:	00179413          	slli	s0,a5,0x1
    495c:	c226                	sw	s1,4(sp)
    495e:	c606                	sw	ra,12(sp)
    4960:	50800737          	lui	a4,0x50800
    4964:	8005                	srli	s0,s0,0x1
    4966:	84be                	mv	s1,a5
    4968:	02e44163          	blt	s0,a4,498a <atanf+0x3a>
    496c:	7f800737          	lui	a4,0x7f800
    4970:	10874363          	blt	a4,s0,4a76 <atanf+0x126>
    4974:	00004797          	auipc	a5,0x4
    4978:	de07a507          	flw	fa0,-544(a5) # 8754 <dmp_memory+0xce4>
    497c:	12905363          	blez	s1,4aa2 <atanf+0x152>
    4980:	40b2                	lw	ra,12(sp)
    4982:	4422                	lw	s0,8(sp)
    4984:	4492                	lw	s1,4(sp)
    4986:	0141                	addi	sp,sp,16
    4988:	8082                	ret
    498a:	3ee00737          	lui	a4,0x3ee00
    498e:	12e45a63          	bge	s0,a4,4ac2 <atanf+0x172>
    4992:	31000737          	lui	a4,0x31000
    4996:	0ee44763          	blt	s0,a4,4a84 <atanf+0x134>
    499a:	577d                	li	a4,-1
    499c:	f0078753          	fmv.w.x	fa4,a5
    49a0:	00004697          	auipc	a3,0x4
    49a4:	e2c6a587          	flw	fa1,-468(a3) # 87cc <dmp_memory+0xd5c>
    49a8:	00004697          	auipc	a3,0x4
    49ac:	e3c6a607          	flw	fa2,-452(a3) # 87e4 <dmp_memory+0xd74>
    49b0:	10e776d3          	fmul.s	fa3,fa4,fa4
    49b4:	00004697          	auipc	a3,0x4
    49b8:	e146a507          	flw	fa0,-492(a3) # 87c8 <dmp_memory+0xd58>
    49bc:	00004697          	auipc	a3,0x4
    49c0:	e246a787          	flw	fa5,-476(a3) # 87e0 <dmp_memory+0xd70>
    49c4:	00004697          	auipc	a3,0x4
    49c8:	e0c6a207          	flw	ft4,-500(a3) # 87d0 <dmp_memory+0xd60>
    49cc:	00004697          	auipc	a3,0x4
    49d0:	e1c6a187          	flw	ft3,-484(a3) # 87e8 <dmp_memory+0xd78>
    49d4:	10d6f753          	fmul.s	fa4,fa3,fa3
    49d8:	00004697          	auipc	a3,0x4
    49dc:	dfc6a107          	flw	ft2,-516(a3) # 87d4 <dmp_memory+0xd64>
    49e0:	00004697          	auipc	a3,0x4
    49e4:	e0c6a087          	flw	ft1,-500(a3) # 87ec <dmp_memory+0xd7c>
    49e8:	00004697          	auipc	a3,0x4
    49ec:	df06a007          	flw	ft0,-528(a3) # 87d8 <dmp_memory+0xd68>
    49f0:	58a77543          	fmadd.s	fa0,fa4,fa0,fa1
    49f4:	60f777c3          	fmadd.s	fa5,fa4,fa5,fa2
    49f8:	00004697          	auipc	a3,0x4
    49fc:	df86a587          	flw	fa1,-520(a3) # 87f0 <dmp_memory+0xd80>
    4a00:	00004697          	auipc	a3,0x4
    4a04:	ddc6a607          	flw	fa2,-548(a3) # 87dc <dmp_memory+0xd6c>
    4a08:	56fd                	li	a3,-1
    4a0a:	20e57543          	fmadd.s	fa0,fa0,fa4,ft4
    4a0e:	18e7f7c3          	fmadd.s	fa5,fa5,fa4,ft3
    4a12:	10e57543          	fmadd.s	fa0,fa0,fa4,ft2
    4a16:	08e7f7c3          	fmadd.s	fa5,fa5,fa4,ft1
    4a1a:	00e57543          	fmadd.s	fa0,fa0,fa4,ft0
    4a1e:	58e7f7c3          	fmadd.s	fa5,fa5,fa4,fa1
    4a22:	60e57543          	fmadd.s	fa0,fa0,fa4,fa2
    4a26:	10e7f7d3          	fmul.s	fa5,fa5,fa4
    4a2a:	78d57543          	fmadd.s	fa0,fa0,fa3,fa5
    4a2e:	f00787d3          	fmv.w.x	fa5,a5
    4a32:	10f57553          	fmul.s	fa0,fa0,fa5
    4a36:	06d70f63          	beq	a4,a3,4ab4 <atanf+0x164>
    4a3a:	070a                	slli	a4,a4,0x2
    4a3c:	00004697          	auipc	a3,0x4
    4a40:	dc868693          	addi	a3,a3,-568 # 8804 <atanlo>
    4a44:	96ba                	add	a3,a3,a4
    4a46:	629c                	flw	fa5,0(a3)
    4a48:	f0078753          	fmv.w.x	fa4,a5
    4a4c:	00004697          	auipc	a3,0x4
    4a50:	da868693          	addi	a3,a3,-600 # 87f4 <atanhi>
    4a54:	08f57553          	fsub.s	fa0,fa0,fa5
    4a58:	9736                	add	a4,a4,a3
    4a5a:	631c                	flw	fa5,0(a4)
    4a5c:	08e57553          	fsub.s	fa0,fa0,fa4
    4a60:	08a7f553          	fsub.s	fa0,fa5,fa0
    4a64:	f004dee3          	bgez	s1,4980 <atanf+0x30>
    4a68:	40b2                	lw	ra,12(sp)
    4a6a:	4422                	lw	s0,8(sp)
    4a6c:	4492                	lw	s1,4(sp)
    4a6e:	20a51553          	fneg.s	fa0,fa0
    4a72:	0141                	addi	sp,sp,16
    4a74:	8082                	ret
    4a76:	40b2                	lw	ra,12(sp)
    4a78:	4422                	lw	s0,8(sp)
    4a7a:	4492                	lw	s1,4(sp)
    4a7c:	00a57553          	fadd.s	fa0,fa0,fa0
    4a80:	0141                	addi	sp,sp,16
    4a82:	8082                	ret
    4a84:	00004717          	auipc	a4,0x4
    4a88:	cd472787          	flw	fa5,-812(a4) # 8758 <dmp_memory+0xce8>
    4a8c:	00f577d3          	fadd.s	fa5,fa0,fa5
    4a90:	00003717          	auipc	a4,0x3
    4a94:	f7c72707          	flw	fa4,-132(a4) # 7a0c <hw+0xe0>
    4a98:	a0f71753          	flt.s	a4,fa4,fa5
    4a9c:	ee070fe3          	beqz	a4,499a <atanf+0x4a>
    4aa0:	b5c5                	j	4980 <atanf+0x30>
    4aa2:	40b2                	lw	ra,12(sp)
    4aa4:	4422                	lw	s0,8(sp)
    4aa6:	00004797          	auipc	a5,0x4
    4aaa:	cfa7a507          	flw	fa0,-774(a5) # 87a0 <dmp_memory+0xd30>
    4aae:	4492                	lw	s1,4(sp)
    4ab0:	0141                	addi	sp,sp,16
    4ab2:	8082                	ret
    4ab4:	40b2                	lw	ra,12(sp)
    4ab6:	4422                	lw	s0,8(sp)
    4ab8:	4492                	lw	s1,4(sp)
    4aba:	08a7f553          	fsub.s	fa0,fa5,fa0
    4abe:	0141                	addi	sp,sp,16
    4ac0:	8082                	ret
    4ac2:	2849                	jal	4b54 <fabsf>
    4ac4:	3f9807b7          	lui	a5,0x3f980
    4ac8:	02f45863          	bge	s0,a5,4af8 <atanf+0x1a8>
    4acc:	3f3007b7          	lui	a5,0x3f300
    4ad0:	06f45463          	bge	s0,a5,4b38 <atanf+0x1e8>
    4ad4:	00004797          	auipc	a5,0x4
    4ad8:	cb47a707          	flw	fa4,-844(a5) # 8788 <dmp_memory+0xd18>
    4adc:	00004797          	auipc	a5,0x4
    4ae0:	ce47a787          	flw	fa5,-796(a5) # 87c0 <dmp_memory+0xd50>
    4ae4:	78e577c3          	fmadd.s	fa5,fa0,fa4,fa5
    4ae8:	00e57553          	fadd.s	fa0,fa0,fa4
    4aec:	4701                	li	a4,0
    4aee:	18a7f7d3          	fdiv.s	fa5,fa5,fa0
    4af2:	e00787d3          	fmv.x.w	a5,fa5
    4af6:	b55d                	j	499c <atanf+0x4c>
    4af8:	401c07b7          	lui	a5,0x401c0
    4afc:	02f45463          	bge	s0,a5,4b24 <atanf+0x1d4>
    4b00:	00004797          	auipc	a5,0x4
    4b04:	cc47a787          	flw	fa5,-828(a5) # 87c4 <dmp_memory+0xd54>
    4b08:	00003797          	auipc	a5,0x3
    4b0c:	f047a687          	flw	fa3,-252(a5) # 7a0c <hw+0xe0>
    4b10:	08f57753          	fsub.s	fa4,fa0,fa5
    4b14:	68f57543          	fmadd.s	fa0,fa0,fa5,fa3
    4b18:	4709                	li	a4,2
    4b1a:	18a777d3          	fdiv.s	fa5,fa4,fa0
    4b1e:	e00787d3          	fmv.x.w	a5,fa5
    4b22:	bdad                	j	499c <atanf+0x4c>
    4b24:	00004797          	auipc	a5,0x4
    4b28:	c9c7a787          	flw	fa5,-868(a5) # 87c0 <dmp_memory+0xd50>
    4b2c:	18a7f7d3          	fdiv.s	fa5,fa5,fa0
    4b30:	470d                	li	a4,3
    4b32:	e00787d3          	fmv.x.w	a5,fa5
    4b36:	b59d                	j	499c <atanf+0x4c>
    4b38:	00003797          	auipc	a5,0x3
    4b3c:	ed47a787          	flw	fa5,-300(a5) # 7a0c <hw+0xe0>
    4b40:	08f57753          	fsub.s	fa4,fa0,fa5
    4b44:	00f57553          	fadd.s	fa0,fa0,fa5
    4b48:	4705                	li	a4,1
    4b4a:	18a777d3          	fdiv.s	fa5,fa4,fa0
    4b4e:	e00787d3          	fmv.x.w	a5,fa5
    4b52:	b5a9                	j	499c <atanf+0x4c>

00004b54 <fabsf>:
    4b54:	e00507d3          	fmv.x.w	a5,fa0
    4b58:	0786                	slli	a5,a5,0x1
    4b5a:	8385                	srli	a5,a5,0x1
    4b5c:	f0078553          	fmv.w.x	fa0,a5
    4b60:	8082                	ret

00004b62 <printchar>:
    4b62:	1101                	addi	sp,sp,-32
    4b64:	ce06                	sw	ra,28(sp)
    4b66:	c62e                	sw	a1,12(sp)
    4b68:	cd15                	beqz	a0,4ba4 <printchar+0x42>
    4b6a:	4118                	lw	a4,0(a0)
    4b6c:	87aa                	mv	a5,a0
    4b6e:	c305                	beqz	a4,4b8e <printchar+0x2c>
    4b70:	4158                	lw	a4,4(a0)
    4b72:	557d                	li	a0,-1
    4b74:	cb11                	beqz	a4,4b88 <printchar+0x26>
    4b76:	4685                	li	a3,1
    4b78:	00d71b63          	bne	a4,a3,4b8e <printchar+0x2c>
    4b7c:	4798                	lw	a4,8(a5)
    4b7e:	00070023          	sb	zero,0(a4)
    4b82:	0007a223          	sw	zero,4(a5)
    4b86:	4505                	li	a0,1
    4b88:	40f2                	lw	ra,28(sp)
    4b8a:	6105                	addi	sp,sp,32
    4b8c:	8082                	ret
    4b8e:	4798                	lw	a4,8(a5)
    4b90:	46b2                	lw	a3,12(sp)
    4b92:	00d70023          	sb	a3,0(a4)
    4b96:	4798                	lw	a4,8(a5)
    4b98:	0705                	addi	a4,a4,1
    4b9a:	c798                	sw	a4,8(a5)
    4b9c:	43d8                	lw	a4,4(a5)
    4b9e:	177d                	addi	a4,a4,-1
    4ba0:	c3d8                	sw	a4,4(a5)
    4ba2:	b7d5                	j	4b86 <printchar+0x24>
    4ba4:	4605                	li	a2,1
    4ba6:	006c                	addi	a1,sp,12
    4ba8:	faaff0ef          	jal	ra,4352 <_write>
    4bac:	bfe9                	j	4b86 <printchar+0x24>

00004bae <prints>:
    4bae:	7179                	addi	sp,sp,-48
    4bb0:	d422                	sw	s0,40(sp)
    4bb2:	d226                	sw	s1,36(sp)
    4bb4:	ce4e                	sw	s3,28(sp)
    4bb6:	cc52                	sw	s4,24(sp)
    4bb8:	ca56                	sw	s5,20(sp)
    4bba:	d606                	sw	ra,44(sp)
    4bbc:	d04a                	sw	s2,32(sp)
    4bbe:	c85a                	sw	s6,16(sp)
    4bc0:	8a2a                	mv	s4,a0
    4bc2:	8aae                	mv	s5,a1
    4bc4:	8432                	mv	s0,a2
    4bc6:	4481                	li	s1,0
    4bc8:	02000993          	li	s3,32
    4bcc:	02064463          	bltz	a2,4bf4 <prints+0x46>
    4bd0:	009a87b3          	add	a5,s5,s1
    4bd4:	00078783          	lb	a5,0(a5)
    4bd8:	e39d                	bnez	a5,4bfe <prints+0x50>
    4bda:	0284d663          	bge	s1,s0,4c06 <prints+0x58>
    4bde:	02e4d263          	bge	s1,a4,4c02 <prints+0x54>
    4be2:	8c19                	sub	s0,s0,a4
    4be4:	0026f793          	andi	a5,a3,2
    4be8:	02000993          	li	s3,32
    4bec:	c781                	beqz	a5,4bf4 <prints+0x46>
    4bee:	e319                	bnez	a4,4bf4 <prints+0x46>
    4bf0:	03000993          	li	s3,48
    4bf4:	8a85                	andi	a3,a3,1
    4bf6:	4901                	li	s2,0
    4bf8:	ea85                	bnez	a3,4c28 <prints+0x7a>
    4bfa:	8922                	mv	s2,s0
    4bfc:	a831                	j	4c18 <prints+0x6a>
    4bfe:	0485                	addi	s1,s1,1
    4c00:	bfc1                	j	4bd0 <prints+0x22>
    4c02:	8c05                	sub	s0,s0,s1
    4c04:	b7c5                	j	4be4 <prints+0x36>
    4c06:	4401                	li	s0,0
    4c08:	bff1                	j	4be4 <prints+0x36>
    4c0a:	85ce                	mv	a1,s3
    4c0c:	8552                	mv	a0,s4
    4c0e:	c63a                	sw	a4,12(sp)
    4c10:	f53ff0ef          	jal	ra,4b62 <printchar>
    4c14:	4732                	lw	a4,12(sp)
    4c16:	197d                	addi	s2,s2,-1
    4c18:	ff2049e3          	bgtz	s2,4c0a <prints+0x5c>
    4c1c:	8922                	mv	s2,s0
    4c1e:	00045363          	bgez	s0,4c24 <prints+0x76>
    4c22:	4901                	li	s2,0
    4c24:	41240433          	sub	s0,s0,s2
    4c28:	02e4cb63          	blt	s1,a4,4c5e <prints+0xb0>
    4c2c:	84ca                	mv	s1,s2
    4c2e:	412487b3          	sub	a5,s1,s2
    4c32:	97d6                	add	a5,a5,s5
    4c34:	00078583          	lb	a1,0(a5)
    4c38:	e1a1                	bnez	a1,4c78 <prints+0xca>
    4c3a:	8922                	mv	s2,s0
    4c3c:	05204363          	bgtz	s2,4c82 <prints+0xd4>
    4c40:	00045363          	bgez	s0,4c46 <prints+0x98>
    4c44:	4401                	li	s0,0
    4c46:	00940533          	add	a0,s0,s1
    4c4a:	50b2                	lw	ra,44(sp)
    4c4c:	5422                	lw	s0,40(sp)
    4c4e:	5492                	lw	s1,36(sp)
    4c50:	5902                	lw	s2,32(sp)
    4c52:	49f2                	lw	s3,28(sp)
    4c54:	4a62                	lw	s4,24(sp)
    4c56:	4ad2                	lw	s5,20(sp)
    4c58:	4b42                	lw	s6,16(sp)
    4c5a:	6145                	addi	sp,sp,48
    4c5c:	8082                	ret
    4c5e:	409704b3          	sub	s1,a4,s1
    4c62:	8b26                	mv	s6,s1
    4c64:	03000593          	li	a1,48
    4c68:	8552                	mv	a0,s4
    4c6a:	1b7d                	addi	s6,s6,-1
    4c6c:	ef7ff0ef          	jal	ra,4b62 <printchar>
    4c70:	fe0b1ae3          	bnez	s6,4c64 <prints+0xb6>
    4c74:	9926                	add	s2,s2,s1
    4c76:	bf5d                	j	4c2c <prints+0x7e>
    4c78:	8552                	mv	a0,s4
    4c7a:	ee9ff0ef          	jal	ra,4b62 <printchar>
    4c7e:	0485                	addi	s1,s1,1
    4c80:	b77d                	j	4c2e <prints+0x80>
    4c82:	85ce                	mv	a1,s3
    4c84:	8552                	mv	a0,s4
    4c86:	eddff0ef          	jal	ra,4b62 <printchar>
    4c8a:	197d                	addi	s2,s2,-1
    4c8c:	bf45                	j	4c3c <prints+0x8e>

00004c8e <printInt>:
    4c8e:	715d                	addi	sp,sp,-80
    4c90:	c2a6                	sw	s1,68(sp)
    4c92:	dc52                	sw	s4,56(sp)
    4c94:	c686                	sw	ra,76(sp)
    4c96:	c4a2                	sw	s0,72(sp)
    4c98:	c0ca                	sw	s2,64(sp)
    4c9a:	de4e                	sw	s3,60(sp)
    4c9c:	da56                	sw	s5,52(sp)
    4c9e:	84ba                	mv	s1,a4
    4ca0:	8a3e                	mv	s4,a5
    4ca2:	e585                	bnez	a1,4cca <printInt+0x3c>
    4ca4:	03000793          	li	a5,48
    4ca8:	4701                	li	a4,0
    4caa:	86d2                	mv	a3,s4
    4cac:	8626                	mv	a2,s1
    4cae:	082c                	addi	a1,sp,24
    4cb0:	00f11c23          	sh	a5,24(sp)
    4cb4:	efbff0ef          	jal	ra,4bae <prints>
    4cb8:	40b6                	lw	ra,76(sp)
    4cba:	4426                	lw	s0,72(sp)
    4cbc:	4496                	lw	s1,68(sp)
    4cbe:	4906                	lw	s2,64(sp)
    4cc0:	59f2                	lw	s3,60(sp)
    4cc2:	5a62                	lw	s4,56(sp)
    4cc4:	5ad2                	lw	s5,52(sp)
    4cc6:	6161                	addi	sp,sp,80
    4cc8:	8082                	ret
    4cca:	892a                	mv	s2,a0
    4ccc:	8436                	mv	s0,a3
    4cce:	8ac6                	mv	s5,a7
    4cd0:	ca91                	beqz	a3,4ce4 <printInt+0x56>
    4cd2:	47a9                	li	a5,10
    4cd4:	4401                	li	s0,0
    4cd6:	00f61763          	bne	a2,a5,4ce4 <printInt+0x56>
    4cda:	0005d563          	bgez	a1,4ce4 <printInt+0x56>
    4cde:	40b005b3          	neg	a1,a1
    4ce2:	4405                	li	s0,1
    4ce4:	020107a3          	sb	zero,47(sp)
    4ce8:	02f10793          	addi	a5,sp,47
    4cec:	46a5                	li	a3,9
    4cee:	fc680513          	addi	a0,a6,-58 # 3f7fffc6 <_eusrstack+0x1f7f7fc6>
    4cf2:	02c5f733          	remu	a4,a1,a2
    4cf6:	00e6d363          	bge	a3,a4,4cfc <printInt+0x6e>
    4cfa:	972a                	add	a4,a4,a0
    4cfc:	03070713          	addi	a4,a4,48
    4d00:	fee78fa3          	sb	a4,-1(a5)
    4d04:	fff78993          	addi	s3,a5,-1
    4d08:	02c5d733          	divu	a4,a1,a2
    4d0c:	04c5fb63          	bgeu	a1,a2,4d62 <printInt+0xd4>
    4d10:	cc09                	beqz	s0,4d2a <printInt+0x9c>
    4d12:	c8b9                	beqz	s1,4d68 <printInt+0xda>
    4d14:	002a7713          	andi	a4,s4,2
    4d18:	cb21                	beqz	a4,4d68 <printInt+0xda>
    4d1a:	02d00593          	li	a1,45
    4d1e:	854a                	mv	a0,s2
    4d20:	c642                	sw	a6,12(sp)
    4d22:	e41ff0ef          	jal	ra,4b62 <printchar>
    4d26:	4832                	lw	a6,12(sp)
    4d28:	14fd                	addi	s1,s1,-1
    4d2a:	004a7793          	andi	a5,s4,4
    4d2e:	c38d                	beqz	a5,4d50 <printInt+0xc2>
    4d30:	06100793          	li	a5,97
    4d34:	03000593          	li	a1,48
    4d38:	854a                	mv	a0,s2
    4d3a:	02f81f63          	bne	a6,a5,4d78 <printInt+0xea>
    4d3e:	e25ff0ef          	jal	ra,4b62 <printchar>
    4d42:	07800593          	li	a1,120
    4d46:	854a                	mv	a0,s2
    4d48:	e1bff0ef          	jal	ra,4b62 <printchar>
    4d4c:	0409                	addi	s0,s0,2
    4d4e:	14f9                	addi	s1,s1,-2
    4d50:	8756                	mv	a4,s5
    4d52:	86d2                	mv	a3,s4
    4d54:	8626                	mv	a2,s1
    4d56:	85ce                	mv	a1,s3
    4d58:	854a                	mv	a0,s2
    4d5a:	e55ff0ef          	jal	ra,4bae <prints>
    4d5e:	9522                	add	a0,a0,s0
    4d60:	bfa1                	j	4cb8 <printInt+0x2a>
    4d62:	85ba                	mv	a1,a4
    4d64:	87ce                	mv	a5,s3
    4d66:	b771                	j	4cf2 <printInt+0x64>
    4d68:	02d00713          	li	a4,45
    4d6c:	fee98fa3          	sb	a4,-1(s3)
    4d70:	4401                	li	s0,0
    4d72:	ffe78993          	addi	s3,a5,-2
    4d76:	bf55                	j	4d2a <printInt+0x9c>
    4d78:	debff0ef          	jal	ra,4b62 <printchar>
    4d7c:	05800593          	li	a1,88
    4d80:	b7d9                	j	4d46 <printInt+0xb8>

00004d82 <printLongLongInt>:
    4d82:	711d                	addi	sp,sp,-96
    4d84:	c8ca                	sw	s2,80(sp)
    4d86:	c6ce                	sw	s3,76(sp)
    4d88:	c2d6                	sw	s5,68(sp)
    4d8a:	c0da                	sw	s6,64(sp)
    4d8c:	893a                	mv	s2,a4
    4d8e:	ce86                	sw	ra,92(sp)
    4d90:	cca2                	sw	s0,88(sp)
    4d92:	caa6                	sw	s1,84(sp)
    4d94:	c4d2                	sw	s4,72(sp)
    4d96:	de5e                	sw	s7,60(sp)
    4d98:	dc62                	sw	s8,56(sp)
    4d9a:	da66                	sw	s9,52(sp)
    4d9c:	d86a                	sw	s10,48(sp)
    4d9e:	d66e                	sw	s11,44(sp)
    4da0:	00c5e733          	or	a4,a1,a2
    4da4:	89be                	mv	s3,a5
    4da6:	8aaa                	mv	s5,a0
    4da8:	8b42                	mv	s6,a6
    4daa:	06014783          	lbu	a5,96(sp)
    4dae:	e721                	bnez	a4,4df6 <printLongLongInt+0x74>
    4db0:	cf95                	beqz	a5,4dec <printLongLongInt+0x6a>
    4db2:	678d                	lui	a5,0x3
    4db4:	02d78793          	addi	a5,a5,45 # 302d <MPU6050_I2C_Mem_Read+0x9f>
    4db8:	00f11423          	sh	a5,8(sp)
    4dbc:	00010523          	sb	zero,10(sp)
    4dc0:	4701                	li	a4,0
    4dc2:	86da                	mv	a3,s6
    4dc4:	864e                	mv	a2,s3
    4dc6:	002c                	addi	a1,sp,8
    4dc8:	8556                	mv	a0,s5
    4dca:	de5ff0ef          	jal	ra,4bae <prints>
    4dce:	40f6                	lw	ra,92(sp)
    4dd0:	4466                	lw	s0,88(sp)
    4dd2:	44d6                	lw	s1,84(sp)
    4dd4:	4946                	lw	s2,80(sp)
    4dd6:	49b6                	lw	s3,76(sp)
    4dd8:	4a26                	lw	s4,72(sp)
    4dda:	4a96                	lw	s5,68(sp)
    4ddc:	4b06                	lw	s6,64(sp)
    4dde:	5bf2                	lw	s7,60(sp)
    4de0:	5c62                	lw	s8,56(sp)
    4de2:	5cd2                	lw	s9,52(sp)
    4de4:	5d42                	lw	s10,48(sp)
    4de6:	5db2                	lw	s11,44(sp)
    4de8:	6125                	addi	sp,sp,96
    4dea:	8082                	ret
    4dec:	03000793          	li	a5,48
    4df0:	00f11423          	sh	a5,8(sp)
    4df4:	b7f1                	j	4dc0 <printLongLongInt+0x3e>
    4df6:	8a36                	mv	s4,a3
    4df8:	84ae                	mv	s1,a1
    4dfa:	8432                	mv	s0,a2
    4dfc:	02090063          	beqz	s2,4e1c <printLongLongInt+0x9a>
    4e00:	47a9                	li	a5,10
    4e02:	4901                	li	s2,0
    4e04:	00f69c63          	bne	a3,a5,4e1c <printLongLongInt+0x9a>
    4e08:	00065a63          	bgez	a2,4e1c <printLongLongInt+0x9a>
    4e0c:	40b004b3          	neg	s1,a1
    4e10:	009037b3          	snez	a5,s1
    4e14:	40c00433          	neg	s0,a2
    4e18:	8c1d                	sub	s0,s0,a5
    4e1a:	4905                	li	s2,1
    4e1c:	00010fa3          	sb	zero,31(sp)
    4e20:	01f10d13          	addi	s10,sp,31
    4e24:	41fa5d93          	srai	s11,s4,0x1f
    4e28:	4ca5                	li	s9,9
    4e2a:	fc688c13          	addi	s8,a7,-58
    4e2e:	8652                	mv	a2,s4
    4e30:	86ee                	mv	a3,s11
    4e32:	8526                	mv	a0,s1
    4e34:	85a2                	mv	a1,s0
    4e36:	4b3000ef          	jal	ra,5ae8 <__umoddi3>
    4e3a:	00acd363          	bge	s9,a0,4e40 <printLongLongInt+0xbe>
    4e3e:	9562                	add	a0,a0,s8
    4e40:	03050513          	addi	a0,a0,48
    4e44:	fead0fa3          	sb	a0,-1(s10)
    4e48:	8652                	mv	a2,s4
    4e4a:	86ee                	mv	a3,s11
    4e4c:	8526                	mv	a0,s1
    4e4e:	85a2                	mv	a1,s0
    4e50:	fffd0b93          	addi	s7,s10,-1
    4e54:	0fd000ef          	jal	ra,5750 <__udivdi3>
    4e58:	01b46663          	bltu	s0,s11,4e64 <printLongLongInt+0xe2>
    4e5c:	028d9a63          	bne	s11,s0,4e90 <printLongLongInt+0x10e>
    4e60:	0344f863          	bgeu	s1,s4,4e90 <printLongLongInt+0x10e>
    4e64:	00090d63          	beqz	s2,4e7e <printLongLongInt+0xfc>
    4e68:	02098863          	beqz	s3,4e98 <printLongLongInt+0x116>
    4e6c:	002b7793          	andi	a5,s6,2
    4e70:	c785                	beqz	a5,4e98 <printLongLongInt+0x116>
    4e72:	02d00593          	li	a1,45
    4e76:	8556                	mv	a0,s5
    4e78:	cebff0ef          	jal	ra,4b62 <printchar>
    4e7c:	19fd                	addi	s3,s3,-1
    4e7e:	4701                	li	a4,0
    4e80:	86da                	mv	a3,s6
    4e82:	864e                	mv	a2,s3
    4e84:	85de                	mv	a1,s7
    4e86:	8556                	mv	a0,s5
    4e88:	d27ff0ef          	jal	ra,4bae <prints>
    4e8c:	954a                	add	a0,a0,s2
    4e8e:	b781                	j	4dce <printLongLongInt+0x4c>
    4e90:	84aa                	mv	s1,a0
    4e92:	842e                	mv	s0,a1
    4e94:	8d5e                	mv	s10,s7
    4e96:	bf61                	j	4e2e <printLongLongInt+0xac>
    4e98:	02d00793          	li	a5,45
    4e9c:	fefb8fa3          	sb	a5,-1(s7)
    4ea0:	4901                	li	s2,0
    4ea2:	ffed0b93          	addi	s7,s10,-2
    4ea6:	bfe1                	j	4e7e <printLongLongInt+0xfc>

00004ea8 <printDouble>:
    4ea8:	715d                	addi	sp,sp,-80
    4eaa:	c2a6                	sw	s1,68(sp)
    4eac:	c0ca                	sw	s2,64(sp)
    4eae:	84aa                	mv	s1,a0
    4eb0:	892e                	mv	s2,a1
    4eb2:	852e                	mv	a0,a1
    4eb4:	85b2                	mv	a1,a2
    4eb6:	c686                	sw	ra,76(sp)
    4eb8:	ce3a                	sw	a4,28(sp)
    4eba:	cc42                	sw	a6,24(sp)
    4ebc:	c4a2                	sw	s0,72(sp)
    4ebe:	de4e                	sw	s3,60(sp)
    4ec0:	dc52                	sw	s4,56(sp)
    4ec2:	89b2                	mv	s3,a2
    4ec4:	8a36                	mv	s4,a3
    4ec6:	da56                	sw	s5,52(sp)
    4ec8:	d85a                	sw	s6,48(sp)
    4eca:	8abe                	mv	s5,a5
    4ecc:	d65e                	sw	s7,44(sp)
    4ece:	d462                	sw	s8,40(sp)
    4ed0:	d266                	sw	s9,36(sp)
    4ed2:	8c46                	mv	s8,a7
    4ed4:	d06a                	sw	s10,32(sp)
    4ed6:	138020ef          	jal	ra,700e <__fixdfdi>
    4eda:	8b2a                	mv	s6,a0
    4edc:	8bae                	mv	s7,a1
    4ede:	4601                	li	a2,0
    4ee0:	4681                	li	a3,0
    4ee2:	85ce                	mv	a1,s3
    4ee4:	854a                	mv	a0,s2
    4ee6:	791000ef          	jal	ra,5e76 <__ledf2>
    4eea:	4772                	lw	a4,28(sp)
    4eec:	4862                	lw	a6,24(sp)
    4eee:	817d                	srli	a0,a0,0x1f
    4ef0:	87ba                	mv	a5,a4
    4ef2:	c02a                	sw	a0,0(sp)
    4ef4:	4705                	li	a4,1
    4ef6:	88e2                	mv	a7,s8
    4ef8:	86d2                	mv	a3,s4
    4efa:	85da                	mv	a1,s6
    4efc:	865e                	mv	a2,s7
    4efe:	8526                	mv	a0,s1
    4f00:	e83ff0ef          	jal	ra,4d82 <printLongLongInt>
    4f04:	8d2a                	mv	s10,a0
    4f06:	02e00593          	li	a1,46
    4f0a:	8526                	mv	a0,s1
    4f0c:	c57ff0ef          	jal	ra,4b62 <printchar>
    4f10:	0d05                	addi	s10,s10,1
    4f12:	4781                	li	a5,0
    4f14:	4c85                	li	s9,1
    4f16:	4401                	li	s0,0
    4f18:	4729                	li	a4,10
    4f1a:	0757ce63          	blt	a5,s5,4f96 <printDouble+0xee>
    4f1e:	855a                	mv	a0,s6
    4f20:	85de                	mv	a1,s7
    4f22:	21c020ef          	jal	ra,713e <__floatdidf>
    4f26:	862a                	mv	a2,a0
    4f28:	86ae                	mv	a3,a1
    4f2a:	854a                	mv	a0,s2
    4f2c:	85ce                	mv	a1,s3
    4f2e:	654010ef          	jal	ra,6582 <__subdf3>
    4f32:	892a                	mv	s2,a0
    4f34:	89ae                	mv	s3,a1
    4f36:	8566                	mv	a0,s9
    4f38:	85a2                	mv	a1,s0
    4f3a:	204020ef          	jal	ra,713e <__floatdidf>
    4f3e:	862a                	mv	a2,a0
    4f40:	86ae                	mv	a3,a1
    4f42:	854a                	mv	a0,s2
    4f44:	85ce                	mv	a1,s3
    4f46:	7e7000ef          	jal	ra,5f2c <__muldf3>
    4f4a:	0c4020ef          	jal	ra,700e <__fixdfdi>
    4f4e:	41f5d613          	srai	a2,a1,0x1f
    4f52:	8d31                	xor	a0,a0,a2
    4f54:	00b647b3          	xor	a5,a2,a1
    4f58:	40c505b3          	sub	a1,a0,a2
    4f5c:	00b53533          	sltu	a0,a0,a1
    4f60:	40c78633          	sub	a2,a5,a2
    4f64:	c002                	sw	zero,0(sp)
    4f66:	88e2                	mv	a7,s8
    4f68:	87d6                	mv	a5,s5
    4f6a:	86d2                	mv	a3,s4
    4f6c:	8e09                	sub	a2,a2,a0
    4f6e:	4809                	li	a6,2
    4f70:	8526                	mv	a0,s1
    4f72:	4705                	li	a4,1
    4f74:	e0fff0ef          	jal	ra,4d82 <printLongLongInt>
    4f78:	40b6                	lw	ra,76(sp)
    4f7a:	4426                	lw	s0,72(sp)
    4f7c:	956a                	add	a0,a0,s10
    4f7e:	4496                	lw	s1,68(sp)
    4f80:	4906                	lw	s2,64(sp)
    4f82:	59f2                	lw	s3,60(sp)
    4f84:	5a62                	lw	s4,56(sp)
    4f86:	5ad2                	lw	s5,52(sp)
    4f88:	5b42                	lw	s6,48(sp)
    4f8a:	5bb2                	lw	s7,44(sp)
    4f8c:	5c22                	lw	s8,40(sp)
    4f8e:	5c92                	lw	s9,36(sp)
    4f90:	5d02                	lw	s10,32(sp)
    4f92:	6161                	addi	sp,sp,80
    4f94:	8082                	ret
    4f96:	028706b3          	mul	a3,a4,s0
    4f9a:	0785                	addi	a5,a5,1
    4f9c:	03973433          	mulhu	s0,a4,s9
    4fa0:	03970cb3          	mul	s9,a4,s9
    4fa4:	9436                	add	s0,s0,a3
    4fa6:	bf95                	j	4f1a <printDouble+0x72>

00004fa8 <print>:
    4fa8:	715d                	addi	sp,sp,-80
    4faa:	d85a                	sw	s6,48(sp)
    4fac:	00009b37          	lui	s6,0x9
    4fb0:	c4a2                	sw	s0,72(sp)
    4fb2:	c2a6                	sw	s1,68(sp)
    4fb4:	c0ca                	sw	s2,64(sp)
    4fb6:	de4e                	sw	s3,60(sp)
    4fb8:	dc52                	sw	s4,56(sp)
    4fba:	da56                	sw	s5,52(sp)
    4fbc:	d65e                	sw	s7,44(sp)
    4fbe:	d462                	sw	s8,40(sp)
    4fc0:	c686                	sw	ra,76(sp)
    4fc2:	d266                	sw	s9,36(sp)
    4fc4:	89aa                	mv	s3,a0
    4fc6:	892e                	mv	s2,a1
    4fc8:	8432                	mv	s0,a2
    4fca:	4a01                	li	s4,0
    4fcc:	4481                	li	s1,0
    4fce:	02500b93          	li	s7,37
    4fd2:	02b00a93          	li	s5,43
    4fd6:	4c29                	li	s8,10
    4fd8:	814b0b13          	addi	s6,s6,-2028 # 8814 <atanlo+0x10>
    4fdc:	00090583          	lb	a1,0(s2)
    4fe0:	e58d                	bnez	a1,500a <print+0x62>
    4fe2:	00098663          	beqz	s3,4fee <print+0x46>
    4fe6:	4581                	li	a1,0
    4fe8:	854e                	mv	a0,s3
    4fea:	b79ff0ef          	jal	ra,4b62 <printchar>
    4fee:	40b6                	lw	ra,76(sp)
    4ff0:	4426                	lw	s0,72(sp)
    4ff2:	8526                	mv	a0,s1
    4ff4:	4906                	lw	s2,64(sp)
    4ff6:	4496                	lw	s1,68(sp)
    4ff8:	59f2                	lw	s3,60(sp)
    4ffa:	5a62                	lw	s4,56(sp)
    4ffc:	5ad2                	lw	s5,52(sp)
    4ffe:	5b42                	lw	s6,48(sp)
    5000:	5bb2                	lw	s7,44(sp)
    5002:	5c22                	lw	s8,40(sp)
    5004:	5c92                	lw	s9,36(sp)
    5006:	6161                	addi	sp,sp,80
    5008:	8082                	ret
    500a:	01758863          	beq	a1,s7,501a <print+0x72>
    500e:	854e                	mv	a0,s3
    5010:	b53ff0ef          	jal	ra,4b62 <printchar>
    5014:	0485                	addi	s1,s1,1
    5016:	0905                	addi	s2,s2,1
    5018:	b7d1                	j	4fdc <print+0x34>
    501a:	00190783          	lb	a5,1(s2)
    501e:	00190c93          	addi	s9,s2,1
    5022:	01779a63          	bne	a5,s7,5036 <print+0x8e>
    5026:	02500593          	li	a1,37
    502a:	854e                	mv	a0,s3
    502c:	b37ff0ef          	jal	ra,4b62 <printchar>
    5030:	0485                	addi	s1,s1,1
    5032:	8966                	mv	s2,s9
    5034:	b7cd                	j	5016 <print+0x6e>
    5036:	d7d5                	beqz	a5,4fe2 <print+0x3a>
    5038:	05578763          	beq	a5,s5,5086 <print+0xde>
    503c:	00fac863          	blt	s5,a5,504c <print+0xa4>
    5040:	02300713          	li	a4,35
    5044:	04e78463          	beq	a5,a4,508c <print+0xe4>
    5048:	4781                	li	a5,0
    504a:	a005                	j	506a <print+0xc2>
    504c:	02d00713          	li	a4,45
    5050:	00e78a63          	beq	a5,a4,5064 <print+0xbc>
    5054:	03000713          	li	a4,48
    5058:	fee798e3          	bne	a5,a4,5048 <print+0xa0>
    505c:	00290c93          	addi	s9,s2,2
    5060:	4789                	li	a5,2
    5062:	a021                	j	506a <print+0xc2>
    5064:	00290c93          	addi	s9,s2,2
    5068:	4785                	li	a5,1
    506a:	000c8703          	lb	a4,0(s9)
    506e:	05570363          	beq	a4,s5,50b4 <print+0x10c>
    5072:	02eac163          	blt	s5,a4,5094 <print+0xec>
    5076:	02300693          	li	a3,35
    507a:	02d70b63          	beq	a4,a3,50b0 <print+0x108>
    507e:	8966                	mv	s2,s9
    5080:	4501                	li	a0,0
    5082:	45a5                	li	a1,9
    5084:	a835                	j	50c0 <print+0x118>
    5086:	00290c93          	addi	s9,s2,2
    508a:	bf7d                	j	5048 <print+0xa0>
    508c:	00290c93          	addi	s9,s2,2
    5090:	4791                	li	a5,4
    5092:	bfe1                	j	506a <print+0xc2>
    5094:	02d00693          	li	a3,45
    5098:	00d70963          	beq	a4,a3,50aa <print+0x102>
    509c:	03000693          	li	a3,48
    50a0:	fcd71fe3          	bne	a4,a3,507e <print+0xd6>
    50a4:	0027e793          	ori	a5,a5,2
    50a8:	a031                	j	50b4 <print+0x10c>
    50aa:	0c85                	addi	s9,s9,1
    50ac:	4785                	li	a5,1
    50ae:	bfc1                	j	507e <print+0xd6>
    50b0:	0047e793          	ori	a5,a5,4
    50b4:	0c85                	addi	s9,s9,1
    50b6:	b7e1                	j	507e <print+0xd6>
    50b8:	03850533          	mul	a0,a0,s8
    50bc:	0905                	addi	s2,s2,1
    50be:	9536                	add	a0,a0,a3
    50c0:	00090703          	lb	a4,0(s2)
    50c4:	fd070693          	addi	a3,a4,-48
    50c8:	0ff6f613          	andi	a2,a3,255
    50cc:	fec5f6e3          	bgeu	a1,a2,50b8 <print+0x110>
    50d0:	02e00613          	li	a2,46
    50d4:	4699                	li	a3,6
    50d6:	00c71e63          	bne	a4,a2,50f2 <print+0x14a>
    50da:	0905                	addi	s2,s2,1
    50dc:	4681                	li	a3,0
    50de:	4625                	li	a2,9
    50e0:	00090703          	lb	a4,0(s2)
    50e4:	fd070713          	addi	a4,a4,-48
    50e8:	0ff77593          	andi	a1,a4,255
    50ec:	02b67563          	bgeu	a2,a1,5116 <print+0x16e>
    50f0:	8a36                	mv	s4,a3
    50f2:	00090703          	lb	a4,0(s2)
    50f6:	06a00613          	li	a2,106
    50fa:	0ac70963          	beq	a4,a2,51ac <print+0x204>
    50fe:	02e64163          	blt	a2,a4,5120 <print+0x178>
    5102:	04c00613          	li	a2,76
    5106:	0ac70363          	beq	a4,a2,51ac <print+0x204>
    510a:	06800613          	li	a2,104
    510e:	08c70863          	beq	a4,a2,519e <print+0x1f6>
    5112:	4601                	li	a2,0
    5114:	a81d                	j	514a <print+0x1a2>
    5116:	038686b3          	mul	a3,a3,s8
    511a:	0905                	addi	s2,s2,1
    511c:	96ba                	add	a3,a3,a4
    511e:	b7c9                	j	50e0 <print+0x138>
    5120:	07400613          	li	a2,116
    5124:	08c70463          	beq	a4,a2,51ac <print+0x204>
    5128:	07a00613          	li	a2,122
    512c:	08c70063          	beq	a4,a2,51ac <print+0x204>
    5130:	06c00593          	li	a1,108
    5134:	4601                	li	a2,0
    5136:	00b71a63          	bne	a4,a1,514a <print+0x1a2>
    513a:	00190583          	lb	a1,1(s2)
    513e:	460d                	li	a2,3
    5140:	00e59463          	bne	a1,a4,5148 <print+0x1a0>
    5144:	0905                	addi	s2,s2,1
    5146:	4611                	li	a2,4
    5148:	0905                	addi	s2,s2,1
    514a:	00090703          	lb	a4,0(s2)
    514e:	06000593          	li	a1,96
    5152:	06100813          	li	a6,97
    5156:	00e5c463          	blt	a1,a4,515e <print+0x1b6>
    515a:	04100813          	li	a6,65
    515e:	06700593          	li	a1,103
    5162:	06e5c263          	blt	a1,a4,51c6 <print+0x21e>
    5166:	06500593          	li	a1,101
    516a:	16b75963          	bge	a4,a1,52dc <print+0x334>
    516e:	04700593          	li	a1,71
    5172:	02e5cf63          	blt	a1,a4,51b0 <print+0x208>
    5176:	04500613          	li	a2,69
    517a:	16c75163          	bge	a4,a2,52dc <print+0x334>
    517e:	04300693          	li	a3,67
    5182:	e8d71ae3          	bne	a4,a3,5016 <print+0x6e>
    5186:	4018                	lw	a4,0(s0)
    5188:	00440c93          	addi	s9,s0,4
    518c:	00010ea3          	sb	zero,29(sp)
    5190:	00e10e23          	sb	a4,28(sp)
    5194:	86be                	mv	a3,a5
    5196:	4701                	li	a4,0
    5198:	862a                	mv	a2,a0
    519a:	086c                	addi	a1,sp,28
    519c:	a071                	j	5228 <print+0x280>
    519e:	00190583          	lb	a1,1(s2)
    51a2:	4601                	li	a2,0
    51a4:	fae593e3          	bne	a1,a4,514a <print+0x1a2>
    51a8:	0909                	addi	s2,s2,2
    51aa:	b745                	j	514a <print+0x1a2>
    51ac:	0905                	addi	s2,s2,1
    51ae:	b795                	j	5112 <print+0x16a>
    51b0:	06300693          	li	a3,99
    51b4:	fcd709e3          	beq	a4,a3,5186 <print+0x1de>
    51b8:	06e6ce63          	blt	a3,a4,5234 <print+0x28c>
    51bc:	05800693          	li	a3,88
    51c0:	02d70363          	beq	a4,a3,51e6 <print+0x23e>
    51c4:	bd89                	j	5016 <print+0x6e>
    51c6:	07300693          	li	a3,115
    51ca:	04d70663          	beq	a4,a3,5216 <print+0x26e>
    51ce:	02e6cd63          	blt	a3,a4,5208 <print+0x260>
    51d2:	06f00693          	li	a3,111
    51d6:	0cd70b63          	beq	a4,a3,52ac <print+0x304>
    51da:	07000693          	li	a3,112
    51de:	0047e793          	ori	a5,a5,4
    51e2:	e2d71ae3          	bne	a4,a3,5016 <print+0x6e>
    51e6:	4711                	li	a4,4
    51e8:	0ae61b63          	bne	a2,a4,529e <print+0x2f6>
    51ec:	041d                	addi	s0,s0,7
    51ee:	ff847713          	andi	a4,s0,-8
    51f2:	430c                	lw	a1,0(a4)
    51f4:	4350                	lw	a2,4(a4)
    51f6:	00870413          	addi	s0,a4,8
    51fa:	88c2                	mv	a7,a6
    51fc:	c002                	sw	zero,0(sp)
    51fe:	883e                	mv	a6,a5
    5200:	4701                	li	a4,0
    5202:	87aa                	mv	a5,a0
    5204:	46c1                	li	a3,16
    5206:	a0b9                	j	5254 <print+0x2ac>
    5208:	07500693          	li	a3,117
    520c:	06d70363          	beq	a4,a3,5272 <print+0x2ca>
    5210:	07800693          	li	a3,120
    5214:	b775                	j	51c0 <print+0x218>
    5216:	4018                	lw	a4,0(s0)
    5218:	00440c93          	addi	s9,s0,4
    521c:	85da                	mv	a1,s6
    521e:	c311                	beqz	a4,5222 <print+0x27a>
    5220:	85ba                	mv	a1,a4
    5222:	8752                	mv	a4,s4
    5224:	86be                	mv	a3,a5
    5226:	862a                	mv	a2,a0
    5228:	854e                	mv	a0,s3
    522a:	985ff0ef          	jal	ra,4bae <prints>
    522e:	94aa                	add	s1,s1,a0
    5230:	8466                	mv	s0,s9
    5232:	b3d5                	j	5016 <print+0x6e>
    5234:	4711                	li	a4,4
    5236:	02e61463          	bne	a2,a4,525e <print+0x2b6>
    523a:	041d                	addi	s0,s0,7
    523c:	ff847713          	andi	a4,s0,-8
    5240:	430c                	lw	a1,0(a4)
    5242:	4350                	lw	a2,4(a4)
    5244:	00870413          	addi	s0,a4,8
    5248:	88c2                	mv	a7,a6
    524a:	c002                	sw	zero,0(sp)
    524c:	883e                	mv	a6,a5
    524e:	4705                	li	a4,1
    5250:	87aa                	mv	a5,a0
    5252:	46a9                	li	a3,10
    5254:	854e                	mv	a0,s3
    5256:	b2dff0ef          	jal	ra,4d82 <printLongLongInt>
    525a:	94aa                	add	s1,s1,a0
    525c:	bb6d                	j	5016 <print+0x6e>
    525e:	400c                	lw	a1,0(s0)
    5260:	88d2                	mv	a7,s4
    5262:	0411                	addi	s0,s0,4
    5264:	872a                	mv	a4,a0
    5266:	4685                	li	a3,1
    5268:	4629                	li	a2,10
    526a:	854e                	mv	a0,s3
    526c:	a23ff0ef          	jal	ra,4c8e <printInt>
    5270:	b7ed                	j	525a <print+0x2b2>
    5272:	4711                	li	a4,4
    5274:	00e61f63          	bne	a2,a4,5292 <print+0x2ea>
    5278:	041d                	addi	s0,s0,7
    527a:	ff847713          	andi	a4,s0,-8
    527e:	430c                	lw	a1,0(a4)
    5280:	4350                	lw	a2,4(a4)
    5282:	00870413          	addi	s0,a4,8
    5286:	88c2                	mv	a7,a6
    5288:	c002                	sw	zero,0(sp)
    528a:	883e                	mv	a6,a5
    528c:	4701                	li	a4,0
    528e:	87aa                	mv	a5,a0
    5290:	b7c9                	j	5252 <print+0x2aa>
    5292:	400c                	lw	a1,0(s0)
    5294:	88d2                	mv	a7,s4
    5296:	0411                	addi	s0,s0,4
    5298:	872a                	mv	a4,a0
    529a:	4681                	li	a3,0
    529c:	b7f1                	j	5268 <print+0x2c0>
    529e:	400c                	lw	a1,0(s0)
    52a0:	88d2                	mv	a7,s4
    52a2:	0411                	addi	s0,s0,4
    52a4:	872a                	mv	a4,a0
    52a6:	4681                	li	a3,0
    52a8:	4641                	li	a2,16
    52aa:	b7c1                	j	526a <print+0x2c2>
    52ac:	4711                	li	a4,4
    52ae:	02e61063          	bne	a2,a4,52ce <print+0x326>
    52b2:	041d                	addi	s0,s0,7
    52b4:	ff847713          	andi	a4,s0,-8
    52b8:	430c                	lw	a1,0(a4)
    52ba:	4350                	lw	a2,4(a4)
    52bc:	00870413          	addi	s0,a4,8
    52c0:	88c2                	mv	a7,a6
    52c2:	c002                	sw	zero,0(sp)
    52c4:	883e                	mv	a6,a5
    52c6:	4701                	li	a4,0
    52c8:	87aa                	mv	a5,a0
    52ca:	46a1                	li	a3,8
    52cc:	b761                	j	5254 <print+0x2ac>
    52ce:	400c                	lw	a1,0(s0)
    52d0:	88d2                	mv	a7,s4
    52d2:	0411                	addi	s0,s0,4
    52d4:	872a                	mv	a4,a0
    52d6:	4681                	li	a3,0
    52d8:	4621                	li	a2,8
    52da:	bf41                	j	526a <print+0x2c2>
    52dc:	041d                	addi	s0,s0,7
    52de:	ff847613          	andi	a2,s0,-8
    52e2:	00860413          	addi	s0,a2,8 # 7f800008 <_eusrstack+0x5f7f8008>
    52e6:	420c                	lw	a1,0(a2)
    52e8:	4250                	lw	a2,4(a2)
    52ea:	40d50733          	sub	a4,a0,a3
    52ee:	88c2                	mv	a7,a6
    52f0:	177d                	addi	a4,a4,-1
    52f2:	883e                	mv	a6,a5
    52f4:	854e                	mv	a0,s3
    52f6:	87b6                	mv	a5,a3
    52f8:	46a9                	li	a3,10
    52fa:	bafff0ef          	jal	ra,4ea8 <printDouble>
    52fe:	bfb1                	j	525a <print+0x2b2>

00005300 <printf>:
    5300:	7139                	addi	sp,sp,-64
    5302:	d22e                	sw	a1,36(sp)
    5304:	d432                	sw	a2,40(sp)
    5306:	85aa                	mv	a1,a0
    5308:	1050                	addi	a2,sp,36
    530a:	4501                	li	a0,0
    530c:	ce06                	sw	ra,28(sp)
    530e:	d636                	sw	a3,44(sp)
    5310:	d83a                	sw	a4,48(sp)
    5312:	da3e                	sw	a5,52(sp)
    5314:	dc42                	sw	a6,56(sp)
    5316:	de46                	sw	a7,60(sp)
    5318:	c632                	sw	a2,12(sp)
    531a:	c8fff0ef          	jal	ra,4fa8 <print>
    531e:	40f2                	lw	ra,28(sp)
    5320:	6121                	addi	sp,sp,64
    5322:	8082                	ret

00005324 <puts>:
    5324:	1101                	addi	sp,sp,-32
    5326:	cc22                	sw	s0,24(sp)
    5328:	ca26                	sw	s1,20(sp)
    532a:	ce06                	sw	ra,28(sp)
    532c:	00054783          	lbu	a5,0(a0)
    5330:	84aa                	mv	s1,a0
    5332:	4401                	li	s0,0
    5334:	00f107a3          	sb	a5,15(sp)
    5338:	00f10783          	lb	a5,15(sp)
    533c:	0405                	addi	s0,s0,1
    533e:	e385                	bnez	a5,535e <puts+0x3a>
    5340:	47a9                	li	a5,10
    5342:	00f10593          	addi	a1,sp,15
    5346:	4605                	li	a2,1
    5348:	4501                	li	a0,0
    534a:	00f107a3          	sb	a5,15(sp)
    534e:	804ff0ef          	jal	ra,4352 <_write>
    5352:	8522                	mv	a0,s0
    5354:	40f2                	lw	ra,28(sp)
    5356:	4462                	lw	s0,24(sp)
    5358:	44d2                	lw	s1,20(sp)
    535a:	6105                	addi	sp,sp,32
    535c:	8082                	ret
    535e:	4605                	li	a2,1
    5360:	00f10593          	addi	a1,sp,15
    5364:	4501                	li	a0,0
    5366:	fedfe0ef          	jal	ra,4352 <_write>
    536a:	008487b3          	add	a5,s1,s0
    536e:	0007c783          	lbu	a5,0(a5)
    5372:	00f107a3          	sb	a5,15(sp)
    5376:	b7c9                	j	5338 <puts+0x14>

00005378 <__divdi3>:
    5378:	4801                	li	a6,0
    537a:	0e05c663          	bltz	a1,5466 <__divdi3+0xee>
    537e:	0006db63          	bgez	a3,5394 <__divdi3+0x1c>
    5382:	40c00633          	neg	a2,a2
    5386:	00c037b3          	snez	a5,a2
    538a:	40d006b3          	neg	a3,a3
    538e:	fff84813          	not	a6,a6
    5392:	8e9d                	sub	a3,a3,a5
    5394:	87b6                	mv	a5,a3
    5396:	8332                	mv	t1,a2
    5398:	8eaa                	mv	t4,a0
    539a:	88ae                	mv	a7,a1
    539c:	18069163          	bnez	a3,551e <__divdi3+0x1a6>
    53a0:	0cc5fc63          	bgeu	a1,a2,5478 <__divdi3+0x100>
    53a4:	6741                	lui	a4,0x10
    53a6:	1ee66163          	bltu	a2,a4,5588 <__divdi3+0x210>
    53aa:	010007b7          	lui	a5,0x1000
    53ae:	36f66563          	bltu	a2,a5,5718 <__divdi3+0x3a0>
    53b2:	01865693          	srli	a3,a2,0x18
    53b6:	47e1                	li	a5,24
    53b8:	00003717          	auipc	a4,0x3
    53bc:	4a470713          	addi	a4,a4,1188 # 885c <__clz_tab>
    53c0:	9736                	add	a4,a4,a3
    53c2:	00074703          	lbu	a4,0(a4)
    53c6:	97ba                	add	a5,a5,a4
    53c8:	02000713          	li	a4,32
    53cc:	8f1d                	sub	a4,a4,a5
    53ce:	cb19                	beqz	a4,53e4 <__divdi3+0x6c>
    53d0:	00e595b3          	sll	a1,a1,a4
    53d4:	00f557b3          	srl	a5,a0,a5
    53d8:	00e61333          	sll	t1,a2,a4
    53dc:	00b7e8b3          	or	a7,a5,a1
    53e0:	00e51eb3          	sll	t4,a0,a4
    53e4:	01035613          	srli	a2,t1,0x10
    53e8:	02c8d7b3          	divu	a5,a7,a2
    53ec:	01031693          	slli	a3,t1,0x10
    53f0:	82c1                	srli	a3,a3,0x10
    53f2:	010ed713          	srli	a4,t4,0x10
    53f6:	02c8f5b3          	remu	a1,a7,a2
    53fa:	02f68533          	mul	a0,a3,a5
    53fe:	05c2                	slli	a1,a1,0x10
    5400:	00e5e8b3          	or	a7,a1,a4
    5404:	00a8fa63          	bgeu	a7,a0,5418 <__divdi3+0xa0>
    5408:	989a                	add	a7,a7,t1
    540a:	fff78713          	addi	a4,a5,-1 # ffffff <_data_lma+0xff76a3>
    540e:	0068e463          	bltu	a7,t1,5416 <__divdi3+0x9e>
    5412:	32a8e963          	bltu	a7,a0,5744 <__divdi3+0x3cc>
    5416:	87ba                	mv	a5,a4
    5418:	40a888b3          	sub	a7,a7,a0
    541c:	02c8d5b3          	divu	a1,a7,a2
    5420:	0ec2                	slli	t4,t4,0x10
    5422:	010ede93          	srli	t4,t4,0x10
    5426:	02c8f8b3          	remu	a7,a7,a2
    542a:	02b686b3          	mul	a3,a3,a1
    542e:	08c2                	slli	a7,a7,0x10
    5430:	01d8e8b3          	or	a7,a7,t4
    5434:	00d8fb63          	bgeu	a7,a3,544a <__divdi3+0xd2>
    5438:	989a                	add	a7,a7,t1
    543a:	fff58713          	addi	a4,a1,-1 # 7fff <dmp_memory+0x58f>
    543e:	0068e563          	bltu	a7,t1,5448 <__divdi3+0xd0>
    5442:	15f9                	addi	a1,a1,-2
    5444:	00d8e363          	bltu	a7,a3,544a <__divdi3+0xd2>
    5448:	85ba                	mv	a1,a4
    544a:	01079513          	slli	a0,a5,0x10
    544e:	8d4d                	or	a0,a0,a1
    5450:	4581                	li	a1,0
    5452:	00080963          	beqz	a6,5464 <__divdi3+0xec>
    5456:	40a00533          	neg	a0,a0
    545a:	00a037b3          	snez	a5,a0
    545e:	40b005b3          	neg	a1,a1
    5462:	8d9d                	sub	a1,a1,a5
    5464:	8082                	ret
    5466:	40a00533          	neg	a0,a0
    546a:	00a037b3          	snez	a5,a0
    546e:	40b005b3          	neg	a1,a1
    5472:	8d9d                	sub	a1,a1,a5
    5474:	587d                	li	a6,-1
    5476:	b721                	j	537e <__divdi3+0x6>
    5478:	e601                	bnez	a2,5480 <__divdi3+0x108>
    547a:	4305                	li	t1,1
    547c:	02d35333          	divu	t1,t1,a3
    5480:	6741                	lui	a4,0x10
    5482:	0ee36a63          	bltu	t1,a4,5576 <__divdi3+0x1fe>
    5486:	010007b7          	lui	a5,0x1000
    548a:	28f36b63          	bltu	t1,a5,5720 <__divdi3+0x3a8>
    548e:	01835693          	srli	a3,t1,0x18
    5492:	47e1                	li	a5,24
    5494:	00003717          	auipc	a4,0x3
    5498:	3c870713          	addi	a4,a4,968 # 885c <__clz_tab>
    549c:	9736                	add	a4,a4,a3
    549e:	00074703          	lbu	a4,0(a4)
    54a2:	97ba                	add	a5,a5,a4
    54a4:	02000713          	li	a4,32
    54a8:	8f1d                	sub	a4,a4,a5
    54aa:	eb65                	bnez	a4,559a <__divdi3+0x222>
    54ac:	01031893          	slli	a7,t1,0x10
    54b0:	406586b3          	sub	a3,a1,t1
    54b4:	01035f13          	srli	t5,t1,0x10
    54b8:	0108d893          	srli	a7,a7,0x10
    54bc:	4585                	li	a1,1
    54be:	010ed713          	srli	a4,t4,0x10
    54c2:	03e6d7b3          	divu	a5,a3,t5
    54c6:	03e6f6b3          	remu	a3,a3,t5
    54ca:	03178633          	mul	a2,a5,a7
    54ce:	06c2                	slli	a3,a3,0x10
    54d0:	8f55                	or	a4,a4,a3
    54d2:	00c77a63          	bgeu	a4,a2,54e6 <__divdi3+0x16e>
    54d6:	971a                	add	a4,a4,t1
    54d8:	fff78693          	addi	a3,a5,-1 # ffffff <_data_lma+0xff76a3>
    54dc:	00676463          	bltu	a4,t1,54e4 <__divdi3+0x16c>
    54e0:	26c76563          	bltu	a4,a2,574a <__divdi3+0x3d2>
    54e4:	87b6                	mv	a5,a3
    54e6:	8f11                	sub	a4,a4,a2
    54e8:	03e756b3          	divu	a3,a4,t5
    54ec:	0ec2                	slli	t4,t4,0x10
    54ee:	010ede93          	srli	t4,t4,0x10
    54f2:	03e77733          	remu	a4,a4,t5
    54f6:	031688b3          	mul	a7,a3,a7
    54fa:	0742                	slli	a4,a4,0x10
    54fc:	01d76733          	or	a4,a4,t4
    5500:	01177b63          	bgeu	a4,a7,5516 <__divdi3+0x19e>
    5504:	971a                	add	a4,a4,t1
    5506:	fff68613          	addi	a2,a3,-1
    550a:	00676563          	bltu	a4,t1,5514 <__divdi3+0x19c>
    550e:	16f9                	addi	a3,a3,-2
    5510:	01176363          	bltu	a4,a7,5516 <__divdi3+0x19e>
    5514:	86b2                	mv	a3,a2
    5516:	01079513          	slli	a0,a5,0x10
    551a:	8d55                	or	a0,a0,a3
    551c:	bf1d                	j	5452 <__divdi3+0xda>
    551e:	04d5e163          	bltu	a1,a3,5560 <__divdi3+0x1e8>
    5522:	67c1                	lui	a5,0x10
    5524:	04f6e163          	bltu	a3,a5,5566 <__divdi3+0x1ee>
    5528:	010007b7          	lui	a5,0x1000
    552c:	1ef6e263          	bltu	a3,a5,5710 <__divdi3+0x398>
    5530:	0186d893          	srli	a7,a3,0x18
    5534:	4761                	li	a4,24
    5536:	00003797          	auipc	a5,0x3
    553a:	32678793          	addi	a5,a5,806 # 885c <__clz_tab>
    553e:	97c6                	add	a5,a5,a7
    5540:	0007c303          	lbu	t1,0(a5)
    5544:	02000793          	li	a5,32
    5548:	933a                	add	t1,t1,a4
    554a:	406787b3          	sub	a5,a5,t1
    554e:	ebe9                	bnez	a5,5620 <__divdi3+0x2a8>
    5550:	1cb6ec63          	bltu	a3,a1,5728 <__divdi3+0x3b0>
    5554:	00c53533          	sltu	a0,a0,a2
    5558:	00154513          	xori	a0,a0,1
    555c:	4581                	li	a1,0
    555e:	bdd5                	j	5452 <__divdi3+0xda>
    5560:	4581                	li	a1,0
    5562:	4501                	li	a0,0
    5564:	b5fd                	j	5452 <__divdi3+0xda>
    5566:	0ff00793          	li	a5,255
    556a:	1cd7f263          	bgeu	a5,a3,572e <__divdi3+0x3b6>
    556e:	0086d893          	srli	a7,a3,0x8
    5572:	4721                	li	a4,8
    5574:	b7c9                	j	5536 <__divdi3+0x1be>
    5576:	0ff00713          	li	a4,255
    557a:	869a                	mv	a3,t1
    557c:	f0677ce3          	bgeu	a4,t1,5494 <__divdi3+0x11c>
    5580:	00835693          	srli	a3,t1,0x8
    5584:	47a1                	li	a5,8
    5586:	b739                	j	5494 <__divdi3+0x11c>
    5588:	0ff00713          	li	a4,255
    558c:	86b2                	mv	a3,a2
    558e:	e2c775e3          	bgeu	a4,a2,53b8 <__divdi3+0x40>
    5592:	00865693          	srli	a3,a2,0x8
    5596:	47a1                	li	a5,8
    5598:	b505                	j	53b8 <__divdi3+0x40>
    559a:	00e31333          	sll	t1,t1,a4
    559e:	00f5d633          	srl	a2,a1,a5
    55a2:	01035f13          	srli	t5,t1,0x10
    55a6:	03e65e33          	divu	t3,a2,t5
    55aa:	00e596b3          	sll	a3,a1,a4
    55ae:	00f557b3          	srl	a5,a0,a5
    55b2:	8edd                	or	a3,a3,a5
    55b4:	01031893          	slli	a7,t1,0x10
    55b8:	0108d893          	srli	a7,a7,0x10
    55bc:	00e51eb3          	sll	t4,a0,a4
    55c0:	0106d593          	srli	a1,a3,0x10
    55c4:	03e677b3          	remu	a5,a2,t5
    55c8:	03c88733          	mul	a4,a7,t3
    55cc:	07c2                	slli	a5,a5,0x10
    55ce:	8fcd                	or	a5,a5,a1
    55d0:	00e7fb63          	bgeu	a5,a4,55e6 <__divdi3+0x26e>
    55d4:	979a                	add	a5,a5,t1
    55d6:	fffe0613          	addi	a2,t3,-1
    55da:	1667e363          	bltu	a5,t1,5740 <__divdi3+0x3c8>
    55de:	16e7f163          	bgeu	a5,a4,5740 <__divdi3+0x3c8>
    55e2:	1e79                	addi	t3,t3,-2
    55e4:	979a                	add	a5,a5,t1
    55e6:	8f99                	sub	a5,a5,a4
    55e8:	03e7d633          	divu	a2,a5,t5
    55ec:	01069713          	slli	a4,a3,0x10
    55f0:	8341                	srli	a4,a4,0x10
    55f2:	03e7f7b3          	remu	a5,a5,t5
    55f6:	02c88533          	mul	a0,a7,a2
    55fa:	01079693          	slli	a3,a5,0x10
    55fe:	8ed9                	or	a3,a3,a4
    5600:	00a6fb63          	bgeu	a3,a0,5616 <__divdi3+0x29e>
    5604:	969a                	add	a3,a3,t1
    5606:	fff60793          	addi	a5,a2,-1
    560a:	1266e763          	bltu	a3,t1,5738 <__divdi3+0x3c0>
    560e:	12a6f563          	bgeu	a3,a0,5738 <__divdi3+0x3c0>
    5612:	1679                	addi	a2,a2,-2
    5614:	969a                	add	a3,a3,t1
    5616:	010e1593          	slli	a1,t3,0x10
    561a:	8e89                	sub	a3,a3,a0
    561c:	8dd1                	or	a1,a1,a2
    561e:	b545                	j	54be <__divdi3+0x146>
    5620:	00665733          	srl	a4,a2,t1
    5624:	00f696b3          	sll	a3,a3,a5
    5628:	8ed9                	or	a3,a3,a4
    562a:	0065d8b3          	srl	a7,a1,t1
    562e:	0106df13          	srli	t5,a3,0x10
    5632:	03e8deb3          	divu	t4,a7,t5
    5636:	01069e13          	slli	t3,a3,0x10
    563a:	00655333          	srl	t1,a0,t1
    563e:	010e5e13          	srli	t3,t3,0x10
    5642:	00f595b3          	sll	a1,a1,a5
    5646:	00b365b3          	or	a1,t1,a1
    564a:	0105d713          	srli	a4,a1,0x10
    564e:	00f61633          	sll	a2,a2,a5
    5652:	03e8f8b3          	remu	a7,a7,t5
    5656:	03de0333          	mul	t1,t3,t4
    565a:	08c2                	slli	a7,a7,0x10
    565c:	00e8e733          	or	a4,a7,a4
    5660:	00677b63          	bgeu	a4,t1,5676 <__divdi3+0x2fe>
    5664:	9736                	add	a4,a4,a3
    5666:	fffe8893          	addi	a7,t4,-1
    566a:	0cd76963          	bltu	a4,a3,573c <__divdi3+0x3c4>
    566e:	0c677763          	bgeu	a4,t1,573c <__divdi3+0x3c4>
    5672:	1ef9                	addi	t4,t4,-2
    5674:	9736                	add	a4,a4,a3
    5676:	40670733          	sub	a4,a4,t1
    567a:	03e75333          	divu	t1,a4,t5
    567e:	05c2                	slli	a1,a1,0x10
    5680:	81c1                	srli	a1,a1,0x10
    5682:	03e77733          	remu	a4,a4,t5
    5686:	026e08b3          	mul	a7,t3,t1
    568a:	0742                	slli	a4,a4,0x10
    568c:	8dd9                	or	a1,a1,a4
    568e:	0115fb63          	bgeu	a1,a7,56a4 <__divdi3+0x32c>
    5692:	95b6                	add	a1,a1,a3
    5694:	fff30713          	addi	a4,t1,-1
    5698:	08d5ee63          	bltu	a1,a3,5734 <__divdi3+0x3bc>
    569c:	0915fc63          	bgeu	a1,a7,5734 <__divdi3+0x3bc>
    56a0:	1379                	addi	t1,t1,-2
    56a2:	95b6                	add	a1,a1,a3
    56a4:	0ec2                	slli	t4,t4,0x10
    56a6:	6f41                	lui	t5,0x10
    56a8:	006eeeb3          	or	t4,t4,t1
    56ac:	ffff0713          	addi	a4,t5,-1 # ffff <_data_lma+0x76a3>
    56b0:	00eef6b3          	and	a3,t4,a4
    56b4:	010ed313          	srli	t1,t4,0x10
    56b8:	8f71                	and	a4,a4,a2
    56ba:	8241                	srli	a2,a2,0x10
    56bc:	02e68e33          	mul	t3,a3,a4
    56c0:	411585b3          	sub	a1,a1,a7
    56c4:	02c686b3          	mul	a3,a3,a2
    56c8:	010e5893          	srli	a7,t3,0x10
    56cc:	02e30733          	mul	a4,t1,a4
    56d0:	96ba                	add	a3,a3,a4
    56d2:	96c6                	add	a3,a3,a7
    56d4:	02c30633          	mul	a2,t1,a2
    56d8:	00e6f363          	bgeu	a3,a4,56de <__divdi3+0x366>
    56dc:	967a                	add	a2,a2,t5
    56de:	0106d313          	srli	t1,a3,0x10
    56e2:	961a                	add	a2,a2,t1
    56e4:	02c5e263          	bltu	a1,a2,5708 <__divdi3+0x390>
    56e8:	00c58563          	beq	a1,a2,56f2 <__divdi3+0x37a>
    56ec:	8576                	mv	a0,t4
    56ee:	4581                	li	a1,0
    56f0:	b38d                	j	5452 <__divdi3+0xda>
    56f2:	6741                	lui	a4,0x10
    56f4:	177d                	addi	a4,a4,-1
    56f6:	8ef9                	and	a3,a3,a4
    56f8:	06c2                	slli	a3,a3,0x10
    56fa:	00ee7e33          	and	t3,t3,a4
    56fe:	00f517b3          	sll	a5,a0,a5
    5702:	96f2                	add	a3,a3,t3
    5704:	fed7f4e3          	bgeu	a5,a3,56ec <__divdi3+0x374>
    5708:	fffe8513          	addi	a0,t4,-1
    570c:	4581                	li	a1,0
    570e:	b391                	j	5452 <__divdi3+0xda>
    5710:	0106d893          	srli	a7,a3,0x10
    5714:	4741                	li	a4,16
    5716:	b505                	j	5536 <__divdi3+0x1be>
    5718:	01065693          	srli	a3,a2,0x10
    571c:	47c1                	li	a5,16
    571e:	b969                	j	53b8 <__divdi3+0x40>
    5720:	01035693          	srli	a3,t1,0x10
    5724:	47c1                	li	a5,16
    5726:	b3bd                	j	5494 <__divdi3+0x11c>
    5728:	4581                	li	a1,0
    572a:	4505                	li	a0,1
    572c:	b31d                	j	5452 <__divdi3+0xda>
    572e:	88b6                	mv	a7,a3
    5730:	4701                	li	a4,0
    5732:	b511                	j	5536 <__divdi3+0x1be>
    5734:	833a                	mv	t1,a4
    5736:	b7bd                	j	56a4 <__divdi3+0x32c>
    5738:	863e                	mv	a2,a5
    573a:	bdf1                	j	5616 <__divdi3+0x29e>
    573c:	8ec6                	mv	t4,a7
    573e:	bf25                	j	5676 <__divdi3+0x2fe>
    5740:	8e32                	mv	t3,a2
    5742:	b555                	j	55e6 <__divdi3+0x26e>
    5744:	17f9                	addi	a5,a5,-2
    5746:	989a                	add	a7,a7,t1
    5748:	b9c1                	j	5418 <__divdi3+0xa0>
    574a:	17f9                	addi	a5,a5,-2
    574c:	971a                	add	a4,a4,t1
    574e:	bb61                	j	54e6 <__divdi3+0x16e>

00005750 <__udivdi3>:
    5750:	87b6                	mv	a5,a3
    5752:	88b2                	mv	a7,a2
    5754:	832a                	mv	t1,a0
    5756:	882e                	mv	a6,a1
    5758:	14069d63          	bnez	a3,58b2 <__udivdi3+0x162>
    575c:	0ac5f963          	bgeu	a1,a2,580e <__udivdi3+0xbe>
    5760:	6741                	lui	a4,0x10
    5762:	1ae66e63          	bltu	a2,a4,591e <__udivdi3+0x1ce>
    5766:	010007b7          	lui	a5,0x1000
    576a:	34f66363          	bltu	a2,a5,5ab0 <__udivdi3+0x360>
    576e:	01865693          	srli	a3,a2,0x18
    5772:	47e1                	li	a5,24
    5774:	00003717          	auipc	a4,0x3
    5778:	0e870713          	addi	a4,a4,232 # 885c <__clz_tab>
    577c:	9736                	add	a4,a4,a3
    577e:	00074703          	lbu	a4,0(a4)
    5782:	97ba                	add	a5,a5,a4
    5784:	02000713          	li	a4,32
    5788:	8f1d                	sub	a4,a4,a5
    578a:	cb19                	beqz	a4,57a0 <__udivdi3+0x50>
    578c:	00e59833          	sll	a6,a1,a4
    5790:	00f557b3          	srl	a5,a0,a5
    5794:	00e618b3          	sll	a7,a2,a4
    5798:	0107e833          	or	a6,a5,a6
    579c:	00e51333          	sll	t1,a0,a4
    57a0:	0108d613          	srli	a2,a7,0x10
    57a4:	02c85533          	divu	a0,a6,a2
    57a8:	01089693          	slli	a3,a7,0x10
    57ac:	82c1                	srli	a3,a3,0x10
    57ae:	01035793          	srli	a5,t1,0x10
    57b2:	02c87733          	remu	a4,a6,a2
    57b6:	02a685b3          	mul	a1,a3,a0
    57ba:	0742                	slli	a4,a4,0x10
    57bc:	00f76833          	or	a6,a4,a5
    57c0:	00b87a63          	bgeu	a6,a1,57d4 <__udivdi3+0x84>
    57c4:	9846                	add	a6,a6,a7
    57c6:	fff50793          	addi	a5,a0,-1
    57ca:	01186463          	bltu	a6,a7,57d2 <__udivdi3+0x82>
    57ce:	30b86763          	bltu	a6,a1,5adc <__udivdi3+0x38c>
    57d2:	853e                	mv	a0,a5
    57d4:	40b80833          	sub	a6,a6,a1
    57d8:	02c85733          	divu	a4,a6,a2
    57dc:	0342                	slli	t1,t1,0x10
    57de:	01035313          	srli	t1,t1,0x10
    57e2:	02c87833          	remu	a6,a6,a2
    57e6:	02e686b3          	mul	a3,a3,a4
    57ea:	0842                	slli	a6,a6,0x10
    57ec:	00686833          	or	a6,a6,t1
    57f0:	00d87b63          	bgeu	a6,a3,5806 <__udivdi3+0xb6>
    57f4:	9846                	add	a6,a6,a7
    57f6:	fff70793          	addi	a5,a4,-1
    57fa:	01186563          	bltu	a6,a7,5804 <__udivdi3+0xb4>
    57fe:	1779                	addi	a4,a4,-2
    5800:	00d86363          	bltu	a6,a3,5806 <__udivdi3+0xb6>
    5804:	873e                	mv	a4,a5
    5806:	0542                	slli	a0,a0,0x10
    5808:	8d59                	or	a0,a0,a4
    580a:	4581                	li	a1,0
    580c:	8082                	ret
    580e:	e601                	bnez	a2,5816 <__udivdi3+0xc6>
    5810:	4705                	li	a4,1
    5812:	02c758b3          	divu	a7,a4,a2
    5816:	6741                	lui	a4,0x10
    5818:	0ee8ea63          	bltu	a7,a4,590c <__udivdi3+0x1bc>
    581c:	010007b7          	lui	a5,0x1000
    5820:	28f8ec63          	bltu	a7,a5,5ab8 <__udivdi3+0x368>
    5824:	0188d693          	srli	a3,a7,0x18
    5828:	47e1                	li	a5,24
    582a:	00003717          	auipc	a4,0x3
    582e:	03270713          	addi	a4,a4,50 # 885c <__clz_tab>
    5832:	9736                	add	a4,a4,a3
    5834:	00074683          	lbu	a3,0(a4)
    5838:	96be                	add	a3,a3,a5
    583a:	02000793          	li	a5,32
    583e:	8f95                	sub	a5,a5,a3
    5840:	ebe5                	bnez	a5,5930 <__udivdi3+0x1e0>
    5842:	01089e93          	slli	t4,a7,0x10
    5846:	41158733          	sub	a4,a1,a7
    584a:	0108df13          	srli	t5,a7,0x10
    584e:	010ede93          	srli	t4,t4,0x10
    5852:	4585                	li	a1,1
    5854:	01035793          	srli	a5,t1,0x10
    5858:	03e75533          	divu	a0,a4,t5
    585c:	03e77733          	remu	a4,a4,t5
    5860:	03d506b3          	mul	a3,a0,t4
    5864:	0742                	slli	a4,a4,0x10
    5866:	8fd9                	or	a5,a5,a4
    5868:	00d7fa63          	bgeu	a5,a3,587c <__udivdi3+0x12c>
    586c:	97c6                	add	a5,a5,a7
    586e:	fff50713          	addi	a4,a0,-1
    5872:	0117e463          	bltu	a5,a7,587a <__udivdi3+0x12a>
    5876:	26d7e663          	bltu	a5,a3,5ae2 <__udivdi3+0x392>
    587a:	853a                	mv	a0,a4
    587c:	8f95                	sub	a5,a5,a3
    587e:	03e7d733          	divu	a4,a5,t5
    5882:	0342                	slli	t1,t1,0x10
    5884:	01035313          	srli	t1,t1,0x10
    5888:	03e7f7b3          	remu	a5,a5,t5
    588c:	03d70eb3          	mul	t4,a4,t4
    5890:	07c2                	slli	a5,a5,0x10
    5892:	0067e7b3          	or	a5,a5,t1
    5896:	01d7fb63          	bgeu	a5,t4,58ac <__udivdi3+0x15c>
    589a:	97c6                	add	a5,a5,a7
    589c:	fff70693          	addi	a3,a4,-1
    58a0:	0117e563          	bltu	a5,a7,58aa <__udivdi3+0x15a>
    58a4:	1779                	addi	a4,a4,-2
    58a6:	01d7e363          	bltu	a5,t4,58ac <__udivdi3+0x15c>
    58aa:	8736                	mv	a4,a3
    58ac:	0542                	slli	a0,a0,0x10
    58ae:	8d59                	or	a0,a0,a4
    58b0:	8082                	ret
    58b2:	04d5e263          	bltu	a1,a3,58f6 <__udivdi3+0x1a6>
    58b6:	67c1                	lui	a5,0x10
    58b8:	04f6e263          	bltu	a3,a5,58fc <__udivdi3+0x1ac>
    58bc:	010007b7          	lui	a5,0x1000
    58c0:	1ef6e463          	bltu	a3,a5,5aa8 <__udivdi3+0x358>
    58c4:	0186d713          	srli	a4,a3,0x18
    58c8:	4861                	li	a6,24
    58ca:	00003797          	auipc	a5,0x3
    58ce:	f9278793          	addi	a5,a5,-110 # 885c <__clz_tab>
    58d2:	97ba                	add	a5,a5,a4
    58d4:	0007c703          	lbu	a4,0(a5)
    58d8:	02000e13          	li	t3,32
    58dc:	9742                	add	a4,a4,a6
    58de:	40ee0e33          	sub	t3,t3,a4
    58e2:	0c0e1a63          	bnez	t3,59b6 <__udivdi3+0x266>
    58e6:	1cb6ed63          	bltu	a3,a1,5ac0 <__udivdi3+0x370>
    58ea:	00c53533          	sltu	a0,a0,a2
    58ee:	00154513          	xori	a0,a0,1
    58f2:	4581                	li	a1,0
    58f4:	8082                	ret
    58f6:	4581                	li	a1,0
    58f8:	4501                	li	a0,0
    58fa:	8082                	ret
    58fc:	0ff00793          	li	a5,255
    5900:	1cd7f363          	bgeu	a5,a3,5ac6 <__udivdi3+0x376>
    5904:	0086d713          	srli	a4,a3,0x8
    5908:	4821                	li	a6,8
    590a:	b7c1                	j	58ca <__udivdi3+0x17a>
    590c:	0ff00713          	li	a4,255
    5910:	86c6                	mv	a3,a7
    5912:	f1177ce3          	bgeu	a4,a7,582a <__udivdi3+0xda>
    5916:	0088d693          	srli	a3,a7,0x8
    591a:	47a1                	li	a5,8
    591c:	b739                	j	582a <__udivdi3+0xda>
    591e:	0ff00713          	li	a4,255
    5922:	86b2                	mv	a3,a2
    5924:	e4c778e3          	bgeu	a4,a2,5774 <__udivdi3+0x24>
    5928:	00865693          	srli	a3,a2,0x8
    592c:	47a1                	li	a5,8
    592e:	b599                	j	5774 <__udivdi3+0x24>
    5930:	00f898b3          	sll	a7,a7,a5
    5934:	00d5d633          	srl	a2,a1,a3
    5938:	0108df13          	srli	t5,a7,0x10
    593c:	03e65e33          	divu	t3,a2,t5
    5940:	00f59733          	sll	a4,a1,a5
    5944:	00d556b3          	srl	a3,a0,a3
    5948:	8f55                	or	a4,a4,a3
    594a:	01089e93          	slli	t4,a7,0x10
    594e:	010ede93          	srli	t4,t4,0x10
    5952:	00f51333          	sll	t1,a0,a5
    5956:	01075593          	srli	a1,a4,0x10
    595a:	03e676b3          	remu	a3,a2,t5
    595e:	03ce87b3          	mul	a5,t4,t3
    5962:	06c2                	slli	a3,a3,0x10
    5964:	8ecd                	or	a3,a3,a1
    5966:	00f6fb63          	bgeu	a3,a5,597c <__udivdi3+0x22c>
    596a:	96c6                	add	a3,a3,a7
    596c:	fffe0613          	addi	a2,t3,-1
    5970:	1716e463          	bltu	a3,a7,5ad8 <__udivdi3+0x388>
    5974:	16f6f263          	bgeu	a3,a5,5ad8 <__udivdi3+0x388>
    5978:	1e79                	addi	t3,t3,-2
    597a:	96c6                	add	a3,a3,a7
    597c:	8e9d                	sub	a3,a3,a5
    597e:	03e6d633          	divu	a2,a3,t5
    5982:	01071793          	slli	a5,a4,0x10
    5986:	83c1                	srli	a5,a5,0x10
    5988:	03e6f6b3          	remu	a3,a3,t5
    598c:	02ce8533          	mul	a0,t4,a2
    5990:	01069713          	slli	a4,a3,0x10
    5994:	8f5d                	or	a4,a4,a5
    5996:	00a77b63          	bgeu	a4,a0,59ac <__udivdi3+0x25c>
    599a:	9746                	add	a4,a4,a7
    599c:	fff60793          	addi	a5,a2,-1
    59a0:	13176863          	bltu	a4,a7,5ad0 <__udivdi3+0x380>
    59a4:	12a77663          	bgeu	a4,a0,5ad0 <__udivdi3+0x380>
    59a8:	1679                	addi	a2,a2,-2
    59aa:	9746                	add	a4,a4,a7
    59ac:	010e1593          	slli	a1,t3,0x10
    59b0:	8f09                	sub	a4,a4,a0
    59b2:	8dd1                	or	a1,a1,a2
    59b4:	b545                	j	5854 <__udivdi3+0x104>
    59b6:	00e657b3          	srl	a5,a2,a4
    59ba:	01c696b3          	sll	a3,a3,t3
    59be:	8edd                	or	a3,a3,a5
    59c0:	00e5d333          	srl	t1,a1,a4
    59c4:	0106df13          	srli	t5,a3,0x10
    59c8:	03e357b3          	divu	a5,t1,t5
    59cc:	01069e93          	slli	t4,a3,0x10
    59d0:	010ede93          	srli	t4,t4,0x10
    59d4:	01c59833          	sll	a6,a1,t3
    59d8:	00e55733          	srl	a4,a0,a4
    59dc:	01076833          	or	a6,a4,a6
    59e0:	01085893          	srli	a7,a6,0x10
    59e4:	01c61633          	sll	a2,a2,t3
    59e8:	03e37333          	remu	t1,t1,t5
    59ec:	02fe85b3          	mul	a1,t4,a5
    59f0:	0342                	slli	t1,t1,0x10
    59f2:	011368b3          	or	a7,t1,a7
    59f6:	00b8fb63          	bgeu	a7,a1,5a0c <__udivdi3+0x2bc>
    59fa:	98b6                	add	a7,a7,a3
    59fc:	fff78713          	addi	a4,a5,-1
    5a00:	0cd8ea63          	bltu	a7,a3,5ad4 <__udivdi3+0x384>
    5a04:	0cb8f863          	bgeu	a7,a1,5ad4 <__udivdi3+0x384>
    5a08:	17f9                	addi	a5,a5,-2
    5a0a:	98b6                	add	a7,a7,a3
    5a0c:	40b888b3          	sub	a7,a7,a1
    5a10:	03e8d733          	divu	a4,a7,t5
    5a14:	0842                	slli	a6,a6,0x10
    5a16:	01085813          	srli	a6,a6,0x10
    5a1a:	03e8f8b3          	remu	a7,a7,t5
    5a1e:	02ee8333          	mul	t1,t4,a4
    5a22:	08c2                	slli	a7,a7,0x10
    5a24:	0108e5b3          	or	a1,a7,a6
    5a28:	0065fb63          	bgeu	a1,t1,5a3e <__udivdi3+0x2ee>
    5a2c:	95b6                	add	a1,a1,a3
    5a2e:	fff70813          	addi	a6,a4,-1
    5a32:	08d5ed63          	bltu	a1,a3,5acc <__udivdi3+0x37c>
    5a36:	0865fb63          	bgeu	a1,t1,5acc <__udivdi3+0x37c>
    5a3a:	1779                	addi	a4,a4,-2
    5a3c:	95b6                	add	a1,a1,a3
    5a3e:	07c2                	slli	a5,a5,0x10
    5a40:	6f41                	lui	t5,0x10
    5a42:	8fd9                	or	a5,a5,a4
    5a44:	ffff0713          	addi	a4,t5,-1 # ffff <_data_lma+0x76a3>
    5a48:	00e7f6b3          	and	a3,a5,a4
    5a4c:	0107d893          	srli	a7,a5,0x10
    5a50:	8f71                	and	a4,a4,a2
    5a52:	8241                	srli	a2,a2,0x10
    5a54:	02e68eb3          	mul	t4,a3,a4
    5a58:	406585b3          	sub	a1,a1,t1
    5a5c:	02c686b3          	mul	a3,a3,a2
    5a60:	010ed813          	srli	a6,t4,0x10
    5a64:	02e88733          	mul	a4,a7,a4
    5a68:	96ba                	add	a3,a3,a4
    5a6a:	96c2                	add	a3,a3,a6
    5a6c:	02c88633          	mul	a2,a7,a2
    5a70:	00e6f363          	bgeu	a3,a4,5a76 <__udivdi3+0x326>
    5a74:	967a                	add	a2,a2,t5
    5a76:	0106d893          	srli	a7,a3,0x10
    5a7a:	9646                	add	a2,a2,a7
    5a7c:	02c5e263          	bltu	a1,a2,5aa0 <__udivdi3+0x350>
    5a80:	00c58563          	beq	a1,a2,5a8a <__udivdi3+0x33a>
    5a84:	853e                	mv	a0,a5
    5a86:	4581                	li	a1,0
    5a88:	8082                	ret
    5a8a:	6741                	lui	a4,0x10
    5a8c:	177d                	addi	a4,a4,-1
    5a8e:	8ef9                	and	a3,a3,a4
    5a90:	06c2                	slli	a3,a3,0x10
    5a92:	00eefeb3          	and	t4,t4,a4
    5a96:	01c51533          	sll	a0,a0,t3
    5a9a:	96f6                	add	a3,a3,t4
    5a9c:	fed574e3          	bgeu	a0,a3,5a84 <__udivdi3+0x334>
    5aa0:	fff78513          	addi	a0,a5,-1
    5aa4:	4581                	li	a1,0
    5aa6:	8082                	ret
    5aa8:	0106d713          	srli	a4,a3,0x10
    5aac:	4841                	li	a6,16
    5aae:	bd31                	j	58ca <__udivdi3+0x17a>
    5ab0:	01065693          	srli	a3,a2,0x10
    5ab4:	47c1                	li	a5,16
    5ab6:	b97d                	j	5774 <__udivdi3+0x24>
    5ab8:	0108d693          	srli	a3,a7,0x10
    5abc:	47c1                	li	a5,16
    5abe:	b3b5                	j	582a <__udivdi3+0xda>
    5ac0:	4581                	li	a1,0
    5ac2:	4505                	li	a0,1
    5ac4:	8082                	ret
    5ac6:	8736                	mv	a4,a3
    5ac8:	4801                	li	a6,0
    5aca:	b501                	j	58ca <__udivdi3+0x17a>
    5acc:	8742                	mv	a4,a6
    5ace:	bf85                	j	5a3e <__udivdi3+0x2ee>
    5ad0:	863e                	mv	a2,a5
    5ad2:	bde9                	j	59ac <__udivdi3+0x25c>
    5ad4:	87ba                	mv	a5,a4
    5ad6:	bf1d                	j	5a0c <__udivdi3+0x2bc>
    5ad8:	8e32                	mv	t3,a2
    5ada:	b54d                	j	597c <__udivdi3+0x22c>
    5adc:	1579                	addi	a0,a0,-2
    5ade:	9846                	add	a6,a6,a7
    5ae0:	b9d5                	j	57d4 <__udivdi3+0x84>
    5ae2:	1579                	addi	a0,a0,-2
    5ae4:	97c6                	add	a5,a5,a7
    5ae6:	bb59                	j	587c <__udivdi3+0x12c>

00005ae8 <__umoddi3>:
    5ae8:	87b6                	mv	a5,a3
    5aea:	8832                	mv	a6,a2
    5aec:	832a                	mv	t1,a0
    5aee:	872e                	mv	a4,a1
    5af0:	8e2e                	mv	t3,a1
    5af2:	14069363          	bnez	a3,5c38 <__umoddi3+0x150>
    5af6:	0ac5f163          	bgeu	a1,a2,5b98 <__umoddi3+0xb0>
    5afa:	6741                	lui	a4,0x10
    5afc:	1ae67863          	bgeu	a2,a4,5cac <__umoddi3+0x1c4>
    5b00:	0ff00713          	li	a4,255
    5b04:	86b2                	mv	a3,a2
    5b06:	00c77563          	bgeu	a4,a2,5b10 <__umoddi3+0x28>
    5b0a:	00865693          	srli	a3,a2,0x8
    5b0e:	47a1                	li	a5,8
    5b10:	00003717          	auipc	a4,0x3
    5b14:	d4c70713          	addi	a4,a4,-692 # 885c <__clz_tab>
    5b18:	9736                	add	a4,a4,a3
    5b1a:	00074703          	lbu	a4,0(a4)
    5b1e:	02000893          	li	a7,32
    5b22:	97ba                	add	a5,a5,a4
    5b24:	40f888b3          	sub	a7,a7,a5
    5b28:	00088c63          	beqz	a7,5b40 <__umoddi3+0x58>
    5b2c:	011595b3          	sll	a1,a1,a7
    5b30:	00f557b3          	srl	a5,a0,a5
    5b34:	01161833          	sll	a6,a2,a7
    5b38:	00b7ee33          	or	t3,a5,a1
    5b3c:	01151333          	sll	t1,a0,a7
    5b40:	01085613          	srli	a2,a6,0x10
    5b44:	02ce57b3          	divu	a5,t3,a2
    5b48:	01081513          	slli	a0,a6,0x10
    5b4c:	8141                	srli	a0,a0,0x10
    5b4e:	01035693          	srli	a3,t1,0x10
    5b52:	02ce7e33          	remu	t3,t3,a2
    5b56:	02f507b3          	mul	a5,a0,a5
    5b5a:	0e42                	slli	t3,t3,0x10
    5b5c:	00de6733          	or	a4,t3,a3
    5b60:	00f77863          	bgeu	a4,a5,5b70 <__umoddi3+0x88>
    5b64:	9742                	add	a4,a4,a6
    5b66:	01076563          	bltu	a4,a6,5b70 <__umoddi3+0x88>
    5b6a:	00f77363          	bgeu	a4,a5,5b70 <__umoddi3+0x88>
    5b6e:	9742                	add	a4,a4,a6
    5b70:	8f1d                	sub	a4,a4,a5
    5b72:	02c756b3          	divu	a3,a4,a2
    5b76:	01031793          	slli	a5,t1,0x10
    5b7a:	83c1                	srli	a5,a5,0x10
    5b7c:	02c77733          	remu	a4,a4,a2
    5b80:	02d50533          	mul	a0,a0,a3
    5b84:	0742                	slli	a4,a4,0x10
    5b86:	8fd9                	or	a5,a5,a4
    5b88:	08a7ec63          	bltu	a5,a0,5c20 <__umoddi3+0x138>
    5b8c:	40a78533          	sub	a0,a5,a0
    5b90:	01155533          	srl	a0,a0,a7
    5b94:	4581                	li	a1,0
    5b96:	8082                	ret
    5b98:	e601                	bnez	a2,5ba0 <__umoddi3+0xb8>
    5b9a:	4705                	li	a4,1
    5b9c:	02c75833          	divu	a6,a4,a2
    5ba0:	6741                	lui	a4,0x10
    5ba2:	0ee86c63          	bltu	a6,a4,5c9a <__umoddi3+0x1b2>
    5ba6:	010007b7          	lui	a5,0x1000
    5baa:	2af86563          	bltu	a6,a5,5e54 <__umoddi3+0x36c>
    5bae:	01885693          	srli	a3,a6,0x18
    5bb2:	47e1                	li	a5,24
    5bb4:	00003717          	auipc	a4,0x3
    5bb8:	ca870713          	addi	a4,a4,-856 # 885c <__clz_tab>
    5bbc:	9736                	add	a4,a4,a3
    5bbe:	00074703          	lbu	a4,0(a4)
    5bc2:	02000893          	li	a7,32
    5bc6:	97ba                	add	a5,a5,a4
    5bc8:	40f888b3          	sub	a7,a7,a5
    5bcc:	1e089a63          	bnez	a7,5dc0 <__umoddi3+0x2d8>
    5bd0:	01081e13          	slli	t3,a6,0x10
    5bd4:	410585b3          	sub	a1,a1,a6
    5bd8:	01085613          	srli	a2,a6,0x10
    5bdc:	010e5e13          	srli	t3,t3,0x10
    5be0:	01035713          	srli	a4,t1,0x10
    5be4:	02c5d6b3          	divu	a3,a1,a2
    5be8:	02c5f5b3          	remu	a1,a1,a2
    5bec:	03c686b3          	mul	a3,a3,t3
    5bf0:	05c2                	slli	a1,a1,0x10
    5bf2:	8f4d                	or	a4,a4,a1
    5bf4:	00d77763          	bgeu	a4,a3,5c02 <__umoddi3+0x11a>
    5bf8:	9742                	add	a4,a4,a6
    5bfa:	01076463          	bltu	a4,a6,5c02 <__umoddi3+0x11a>
    5bfe:	26d76a63          	bltu	a4,a3,5e72 <__umoddi3+0x38a>
    5c02:	8f15                	sub	a4,a4,a3
    5c04:	02c75533          	divu	a0,a4,a2
    5c08:	0342                	slli	t1,t1,0x10
    5c0a:	01035313          	srli	t1,t1,0x10
    5c0e:	02c77733          	remu	a4,a4,a2
    5c12:	03c50533          	mul	a0,a0,t3
    5c16:	0742                	slli	a4,a4,0x10
    5c18:	006767b3          	or	a5,a4,t1
    5c1c:	00a7f863          	bgeu	a5,a0,5c2c <__umoddi3+0x144>
    5c20:	97c2                	add	a5,a5,a6
    5c22:	0107e563          	bltu	a5,a6,5c2c <__umoddi3+0x144>
    5c26:	00a7f363          	bgeu	a5,a0,5c2c <__umoddi3+0x144>
    5c2a:	97c2                	add	a5,a5,a6
    5c2c:	40a78533          	sub	a0,a5,a0
    5c30:	01155533          	srl	a0,a0,a7
    5c34:	4581                	li	a1,0
    5c36:	8082                	ret
    5c38:	882a                	mv	a6,a0
    5c3a:	f4d5eee3          	bltu	a1,a3,5b96 <__umoddi3+0xae>
    5c3e:	67c1                	lui	a5,0x10
    5c40:	04f6e563          	bltu	a3,a5,5c8a <__umoddi3+0x1a2>
    5c44:	010007b7          	lui	a5,0x1000
    5c48:	20f6e263          	bltu	a3,a5,5e4c <__umoddi3+0x364>
    5c4c:	0186d313          	srli	t1,a3,0x18
    5c50:	48e1                	li	a7,24
    5c52:	00003797          	auipc	a5,0x3
    5c56:	c0a78793          	addi	a5,a5,-1014 # 885c <__clz_tab>
    5c5a:	979a                	add	a5,a5,t1
    5c5c:	0007ce03          	lbu	t3,0(a5)
    5c60:	02000313          	li	t1,32
    5c64:	9e46                	add	t3,t3,a7
    5c66:	41c30333          	sub	t1,t1,t3
    5c6a:	04031963          	bnez	t1,5cbc <__umoddi3+0x1d4>
    5c6e:	00b6e463          	bltu	a3,a1,5c76 <__umoddi3+0x18e>
    5c72:	00c56963          	bltu	a0,a2,5c84 <__umoddi3+0x19c>
    5c76:	40c50833          	sub	a6,a0,a2
    5c7a:	8d95                	sub	a1,a1,a3
    5c7c:	01053733          	sltu	a4,a0,a6
    5c80:	40e58733          	sub	a4,a1,a4
    5c84:	8542                	mv	a0,a6
    5c86:	85ba                	mv	a1,a4
    5c88:	8082                	ret
    5c8a:	0ff00793          	li	a5,255
    5c8e:	1cd7fb63          	bgeu	a5,a3,5e64 <__umoddi3+0x37c>
    5c92:	0086d313          	srli	t1,a3,0x8
    5c96:	48a1                	li	a7,8
    5c98:	bf6d                	j	5c52 <__umoddi3+0x16a>
    5c9a:	0ff00713          	li	a4,255
    5c9e:	86c2                	mv	a3,a6
    5ca0:	f1077ae3          	bgeu	a4,a6,5bb4 <__umoddi3+0xcc>
    5ca4:	00885693          	srli	a3,a6,0x8
    5ca8:	47a1                	li	a5,8
    5caa:	b729                	j	5bb4 <__umoddi3+0xcc>
    5cac:	010007b7          	lui	a5,0x1000
    5cb0:	1af66663          	bltu	a2,a5,5e5c <__umoddi3+0x374>
    5cb4:	01865693          	srli	a3,a2,0x18
    5cb8:	47e1                	li	a5,24
    5cba:	bd99                	j	5b10 <__umoddi3+0x28>
    5cbc:	01c657b3          	srl	a5,a2,t3
    5cc0:	006696b3          	sll	a3,a3,t1
    5cc4:	8edd                	or	a3,a3,a5
    5cc6:	01c5d8b3          	srl	a7,a1,t3
    5cca:	0106d713          	srli	a4,a3,0x10
    5cce:	02e8deb3          	divu	t4,a7,a4
    5cd2:	01069f13          	slli	t5,a3,0x10
    5cd6:	01c557b3          	srl	a5,a0,t3
    5cda:	010f5f13          	srli	t5,t5,0x10
    5cde:	006595b3          	sll	a1,a1,t1
    5ce2:	8ddd                	or	a1,a1,a5
    5ce4:	0105d813          	srli	a6,a1,0x10
    5ce8:	00661633          	sll	a2,a2,t1
    5cec:	00651533          	sll	a0,a0,t1
    5cf0:	02e8f8b3          	remu	a7,a7,a4
    5cf4:	03df07b3          	mul	a5,t5,t4
    5cf8:	08c2                	slli	a7,a7,0x10
    5cfa:	0108e833          	or	a6,a7,a6
    5cfe:	00f87b63          	bgeu	a6,a5,5d14 <__umoddi3+0x22c>
    5d02:	9836                	add	a6,a6,a3
    5d04:	fffe8893          	addi	a7,t4,-1
    5d08:	16d86363          	bltu	a6,a3,5e6e <__umoddi3+0x386>
    5d0c:	16f87163          	bgeu	a6,a5,5e6e <__umoddi3+0x386>
    5d10:	1ef9                	addi	t4,t4,-2
    5d12:	9836                	add	a6,a6,a3
    5d14:	40f80833          	sub	a6,a6,a5
    5d18:	02e857b3          	divu	a5,a6,a4
    5d1c:	05c2                	slli	a1,a1,0x10
    5d1e:	81c1                	srli	a1,a1,0x10
    5d20:	02e87833          	remu	a6,a6,a4
    5d24:	02ff0f33          	mul	t5,t5,a5
    5d28:	01081713          	slli	a4,a6,0x10
    5d2c:	8f4d                	or	a4,a4,a1
    5d2e:	01e77b63          	bgeu	a4,t5,5d44 <__umoddi3+0x25c>
    5d32:	9736                	add	a4,a4,a3
    5d34:	fff78593          	addi	a1,a5,-1 # ffffff <_data_lma+0xff76a3>
    5d38:	12d76963          	bltu	a4,a3,5e6a <__umoddi3+0x382>
    5d3c:	13e77763          	bgeu	a4,t5,5e6a <__umoddi3+0x382>
    5d40:	17f9                	addi	a5,a5,-2
    5d42:	9736                	add	a4,a4,a3
    5d44:	0ec2                	slli	t4,t4,0x10
    5d46:	62c1                	lui	t0,0x10
    5d48:	00feeeb3          	or	t4,t4,a5
    5d4c:	fff28813          	addi	a6,t0,-1 # ffff <_data_lma+0x76a3>
    5d50:	010ef8b3          	and	a7,t4,a6
    5d54:	01065593          	srli	a1,a2,0x10
    5d58:	010ede93          	srli	t4,t4,0x10
    5d5c:	01067833          	and	a6,a2,a6
    5d60:	03088fb3          	mul	t6,a7,a6
    5d64:	41e70733          	sub	a4,a4,t5
    5d68:	030e8833          	mul	a6,t4,a6
    5d6c:	010fd793          	srli	a5,t6,0x10
    5d70:	02b888b3          	mul	a7,a7,a1
    5d74:	98c2                	add	a7,a7,a6
    5d76:	97c6                	add	a5,a5,a7
    5d78:	02be8eb3          	mul	t4,t4,a1
    5d7c:	0107f363          	bgeu	a5,a6,5d82 <__umoddi3+0x29a>
    5d80:	9e96                	add	t4,t4,t0
    5d82:	6841                	lui	a6,0x10
    5d84:	187d                	addi	a6,a6,-1
    5d86:	0107d593          	srli	a1,a5,0x10
    5d8a:	0107f7b3          	and	a5,a5,a6
    5d8e:	07c2                	slli	a5,a5,0x10
    5d90:	010fffb3          	and	t6,t6,a6
    5d94:	95f6                	add	a1,a1,t4
    5d96:	97fe                	add	a5,a5,t6
    5d98:	0ab76263          	bltu	a4,a1,5e3c <__umoddi3+0x354>
    5d9c:	08b70e63          	beq	a4,a1,5e38 <__umoddi3+0x350>
    5da0:	40f507b3          	sub	a5,a0,a5
    5da4:	00f53533          	sltu	a0,a0,a5
    5da8:	40b705b3          	sub	a1,a4,a1
    5dac:	8d89                	sub	a1,a1,a0
    5dae:	01c59e33          	sll	t3,a1,t3
    5db2:	0067d533          	srl	a0,a5,t1
    5db6:	00ae6533          	or	a0,t3,a0
    5dba:	0065d5b3          	srl	a1,a1,t1
    5dbe:	8082                	ret
    5dc0:	01181833          	sll	a6,a6,a7
    5dc4:	00f5d733          	srl	a4,a1,a5
    5dc8:	01085613          	srli	a2,a6,0x10
    5dcc:	02c756b3          	divu	a3,a4,a2
    5dd0:	01081e13          	slli	t3,a6,0x10
    5dd4:	00f557b3          	srl	a5,a0,a5
    5dd8:	010e5e13          	srli	t3,t3,0x10
    5ddc:	011595b3          	sll	a1,a1,a7
    5de0:	8ddd                	or	a1,a1,a5
    5de2:	0105de93          	srli	t4,a1,0x10
    5de6:	01151333          	sll	t1,a0,a7
    5dea:	02c77733          	remu	a4,a4,a2
    5dee:	02de07b3          	mul	a5,t3,a3
    5df2:	01071693          	slli	a3,a4,0x10
    5df6:	01d6e6b3          	or	a3,a3,t4
    5dfa:	00f6f863          	bgeu	a3,a5,5e0a <__umoddi3+0x322>
    5dfe:	96c2                	add	a3,a3,a6
    5e00:	0106e563          	bltu	a3,a6,5e0a <__umoddi3+0x322>
    5e04:	00f6f363          	bgeu	a3,a5,5e0a <__umoddi3+0x322>
    5e08:	96c2                	add	a3,a3,a6
    5e0a:	8e9d                	sub	a3,a3,a5
    5e0c:	02c6d733          	divu	a4,a3,a2
    5e10:	01059793          	slli	a5,a1,0x10
    5e14:	83c1                	srli	a5,a5,0x10
    5e16:	02c6f6b3          	remu	a3,a3,a2
    5e1a:	02ee0733          	mul	a4,t3,a4
    5e1e:	01069593          	slli	a1,a3,0x10
    5e22:	8ddd                	or	a1,a1,a5
    5e24:	00e5f863          	bgeu	a1,a4,5e34 <__umoddi3+0x34c>
    5e28:	95c2                	add	a1,a1,a6
    5e2a:	0105e563          	bltu	a1,a6,5e34 <__umoddi3+0x34c>
    5e2e:	00e5f363          	bgeu	a1,a4,5e34 <__umoddi3+0x34c>
    5e32:	95c2                	add	a1,a1,a6
    5e34:	8d99                	sub	a1,a1,a4
    5e36:	b36d                	j	5be0 <__umoddi3+0xf8>
    5e38:	f6f574e3          	bgeu	a0,a5,5da0 <__umoddi3+0x2b8>
    5e3c:	40c78633          	sub	a2,a5,a2
    5e40:	00c7b7b3          	sltu	a5,a5,a2
    5e44:	97b6                	add	a5,a5,a3
    5e46:	8d9d                	sub	a1,a1,a5
    5e48:	87b2                	mv	a5,a2
    5e4a:	bf99                	j	5da0 <__umoddi3+0x2b8>
    5e4c:	0106d313          	srli	t1,a3,0x10
    5e50:	48c1                	li	a7,16
    5e52:	b501                	j	5c52 <__umoddi3+0x16a>
    5e54:	01085693          	srli	a3,a6,0x10
    5e58:	47c1                	li	a5,16
    5e5a:	bba9                	j	5bb4 <__umoddi3+0xcc>
    5e5c:	01065693          	srli	a3,a2,0x10
    5e60:	47c1                	li	a5,16
    5e62:	b17d                	j	5b10 <__umoddi3+0x28>
    5e64:	8336                	mv	t1,a3
    5e66:	4881                	li	a7,0
    5e68:	b3ed                	j	5c52 <__umoddi3+0x16a>
    5e6a:	87ae                	mv	a5,a1
    5e6c:	bde1                	j	5d44 <__umoddi3+0x25c>
    5e6e:	8ec6                	mv	t4,a7
    5e70:	b555                	j	5d14 <__umoddi3+0x22c>
    5e72:	9742                	add	a4,a4,a6
    5e74:	b379                	j	5c02 <__umoddi3+0x11a>

00005e76 <__ledf2>:
    5e76:	002027f3          	frrm	a5
    5e7a:	001007b7          	lui	a5,0x100
    5e7e:	0145d713          	srli	a4,a1,0x14
    5e82:	17fd                	addi	a5,a5,-1
    5e84:	0146d813          	srli	a6,a3,0x14
    5e88:	7ff77713          	andi	a4,a4,2047
    5e8c:	7ff00893          	li	a7,2047
    5e90:	00b7f333          	and	t1,a5,a1
    5e94:	8e2a                	mv	t3,a0
    5e96:	8ff5                	and	a5,a5,a3
    5e98:	81fd                	srli	a1,a1,0x1f
    5e9a:	8eb2                	mv	t4,a2
    5e9c:	7ff87813          	andi	a6,a6,2047
    5ea0:	82fd                	srli	a3,a3,0x1f
    5ea2:	03170f63          	beq	a4,a7,5ee0 <__ledf2+0x6a>
    5ea6:	01180d63          	beq	a6,a7,5ec0 <__ledf2+0x4a>
    5eaa:	e321                	bnez	a4,5eea <__ledf2+0x74>
    5eac:	00a368b3          	or	a7,t1,a0
    5eb0:	02081063          	bnez	a6,5ed0 <__ledf2+0x5a>
    5eb4:	8e5d                	or	a2,a2,a5
    5eb6:	ee09                	bnez	a2,5ed0 <__ledf2+0x5a>
    5eb8:	4501                	li	a0,0
    5eba:	00089f63          	bnez	a7,5ed8 <__ledf2+0x62>
    5ebe:	8082                	ret
    5ec0:	00c7e8b3          	or	a7,a5,a2
    5ec4:	fe0883e3          	beqz	a7,5eaa <__ledf2+0x34>
    5ec8:	00186073          	csrsi	fflags,16
    5ecc:	4509                	li	a0,2
    5ece:	8082                	ret
    5ed0:	02088f63          	beqz	a7,5f0e <__ledf2+0x98>
    5ed4:	02d58363          	beq	a1,a3,5efa <__ledf2+0x84>
    5ed8:	4505                	li	a0,1
    5eda:	d1f5                	beqz	a1,5ebe <__ledf2+0x48>
    5edc:	557d                	li	a0,-1
    5ede:	8082                	ret
    5ee0:	00a36533          	or	a0,t1,a0
    5ee4:	f175                	bnez	a0,5ec8 <__ledf2+0x52>
    5ee6:	02e80763          	beq	a6,a4,5f14 <__ledf2+0x9e>
    5eea:	00081463          	bnez	a6,5ef2 <__ledf2+0x7c>
    5eee:	8e5d                	or	a2,a2,a5
    5ef0:	d665                	beqz	a2,5ed8 <__ledf2+0x62>
    5ef2:	fed593e3          	bne	a1,a3,5ed8 <__ledf2+0x62>
    5ef6:	fee841e3          	blt	a6,a4,5ed8 <__ledf2+0x62>
    5efa:	01074863          	blt	a4,a6,5f0a <__ledf2+0x94>
    5efe:	fc67ede3          	bltu	a5,t1,5ed8 <__ledf2+0x62>
    5f02:	00f30e63          	beq	t1,a5,5f1e <__ledf2+0xa8>
    5f06:	00f37a63          	bgeu	t1,a5,5f1a <__ledf2+0xa4>
    5f0a:	e199                	bnez	a1,5f10 <__ledf2+0x9a>
    5f0c:	bfc1                	j	5edc <__ledf2+0x66>
    5f0e:	d6f9                	beqz	a3,5edc <__ledf2+0x66>
    5f10:	4505                	li	a0,1
    5f12:	8082                	ret
    5f14:	8e5d                	or	a2,a2,a5
    5f16:	de71                	beqz	a2,5ef2 <__ledf2+0x7c>
    5f18:	bf45                	j	5ec8 <__ledf2+0x52>
    5f1a:	4501                	li	a0,0
    5f1c:	8082                	ret
    5f1e:	fbceede3          	bltu	t4,t3,5ed8 <__ledf2+0x62>
    5f22:	4501                	li	a0,0
    5f24:	f9de7de3          	bgeu	t3,t4,5ebe <__ledf2+0x48>
    5f28:	f5e5                	bnez	a1,5f10 <__ledf2+0x9a>
    5f2a:	bf4d                	j	5edc <__ledf2+0x66>

00005f2c <__muldf3>:
    5f2c:	7139                	addi	sp,sp,-64
    5f2e:	d452                	sw	s4,40(sp)
    5f30:	de06                	sw	ra,60(sp)
    5f32:	dc22                	sw	s0,56(sp)
    5f34:	da26                	sw	s1,52(sp)
    5f36:	d84a                	sw	s2,48(sp)
    5f38:	d64e                	sw	s3,44(sp)
    5f3a:	d256                	sw	s5,36(sp)
    5f3c:	d05a                	sw	s6,32(sp)
    5f3e:	ce5e                	sw	s7,28(sp)
    5f40:	cc62                	sw	s8,24(sp)
    5f42:	ca66                	sw	s9,20(sp)
    5f44:	8a2a                	mv	s4,a0
    5f46:	00202b73          	frrm	s6
    5f4a:	0145d913          	srli	s2,a1,0x14
    5f4e:	00c59993          	slli	s3,a1,0xc
    5f52:	7ff97913          	andi	s2,s2,2047
    5f56:	00c9d993          	srli	s3,s3,0xc
    5f5a:	01f5db93          	srli	s7,a1,0x1f
    5f5e:	12090e63          	beqz	s2,609a <__muldf3+0x16e>
    5f62:	7ff00793          	li	a5,2047
    5f66:	16f90d63          	beq	s2,a5,60e0 <__muldf3+0x1b4>
    5f6a:	01d55413          	srli	s0,a0,0x1d
    5f6e:	098e                	slli	s3,s3,0x3
    5f70:	013469b3          	or	s3,s0,s3
    5f74:	00800437          	lui	s0,0x800
    5f78:	0089e433          	or	s0,s3,s0
    5f7c:	00351493          	slli	s1,a0,0x3
    5f80:	c0190913          	addi	s2,s2,-1023
    5f84:	4a01                	li	s4,0
    5f86:	4c81                	li	s9,0
    5f88:	4a81                	li	s5,0
    5f8a:	0146d793          	srli	a5,a3,0x14
    5f8e:	00c69993          	slli	s3,a3,0xc
    5f92:	7ff7f793          	andi	a5,a5,2047
    5f96:	85b2                	mv	a1,a2
    5f98:	00c9d993          	srli	s3,s3,0xc
    5f9c:	01f6dc13          	srli	s8,a3,0x1f
    5fa0:	cfd5                	beqz	a5,605c <__muldf3+0x130>
    5fa2:	7ff00713          	li	a4,2047
    5fa6:	04e78463          	beq	a5,a4,5fee <__muldf3+0xc2>
    5faa:	00399513          	slli	a0,s3,0x3
    5fae:	01d65993          	srli	s3,a2,0x1d
    5fb2:	00a9e9b3          	or	s3,s3,a0
    5fb6:	c0178793          	addi	a5,a5,-1023 # ffc01 <_data_lma+0xf72a5>
    5fba:	00800537          	lui	a0,0x800
    5fbe:	00a9e9b3          	or	s3,s3,a0
    5fc2:	00361593          	slli	a1,a2,0x3
    5fc6:	993e                	add	s2,s2,a5
    5fc8:	4801                	li	a6,0
    5fca:	018bc633          	xor	a2,s7,s8
    5fce:	47bd                	li	a5,15
    5fd0:	86b2                	mv	a3,a2
    5fd2:	00190713          	addi	a4,s2,1
    5fd6:	1747ef63          	bltu	a5,s4,6154 <__muldf3+0x228>
    5fda:	00003517          	auipc	a0,0x3
    5fde:	84250513          	addi	a0,a0,-1982 # 881c <atanlo+0x18>
    5fe2:	0a0a                	slli	s4,s4,0x2
    5fe4:	9a2a                	add	s4,s4,a0
    5fe6:	000a2783          	lw	a5,0(s4)
    5fea:	97aa                	add	a5,a5,a0
    5fec:	8782                	jr	a5
    5fee:	00c9e633          	or	a2,s3,a2
    5ff2:	7ff90913          	addi	s2,s2,2047
    5ff6:	12060863          	beqz	a2,6126 <__muldf3+0x1fa>
    5ffa:	00c99793          	slli	a5,s3,0xc
    5ffe:	003a6a13          	ori	s4,s4,3
    6002:	480d                	li	a6,3
    6004:	fc07c3e3          	bltz	a5,5fca <__muldf3+0x9e>
    6008:	4ac1                	li	s5,16
    600a:	b7c1                	j	5fca <__muldf3+0x9e>
    600c:	86e2                	mv	a3,s8
    600e:	844e                	mv	s0,s3
    6010:	84ae                	mv	s1,a1
    6012:	8cc2                	mv	s9,a6
    6014:	4789                	li	a5,2
    6016:	12fc8963          	beq	s9,a5,6148 <__muldf3+0x21c>
    601a:	478d                	li	a5,3
    601c:	10fc8b63          	beq	s9,a5,6132 <__muldf3+0x206>
    6020:	4785                	li	a5,1
    6022:	8636                	mv	a2,a3
    6024:	4cfc9263          	bne	s9,a5,64e8 <__muldf3+0x5bc>
    6028:	4701                	li	a4,0
    602a:	4781                	li	a5,0
    602c:	4401                	li	s0,0
    602e:	07b2                	slli	a5,a5,0xc
    6030:	0752                	slli	a4,a4,0x14
    6032:	83b1                	srli	a5,a5,0xc
    6034:	067e                	slli	a2,a2,0x1f
    6036:	8fd9                	or	a5,a5,a4
    6038:	8fd1                	or	a5,a5,a2
    603a:	8522                	mv	a0,s0
    603c:	85be                	mv	a1,a5
    603e:	340a9963          	bnez	s5,6390 <__muldf3+0x464>
    6042:	50f2                	lw	ra,60(sp)
    6044:	5462                	lw	s0,56(sp)
    6046:	54d2                	lw	s1,52(sp)
    6048:	5942                	lw	s2,48(sp)
    604a:	59b2                	lw	s3,44(sp)
    604c:	5a22                	lw	s4,40(sp)
    604e:	5a92                	lw	s5,36(sp)
    6050:	5b02                	lw	s6,32(sp)
    6052:	4bf2                	lw	s7,28(sp)
    6054:	4c62                	lw	s8,24(sp)
    6056:	4cd2                	lw	s9,20(sp)
    6058:	6121                	addi	sp,sp,64
    605a:	8082                	ret
    605c:	00c9e7b3          	or	a5,s3,a2
    6060:	cfcd                	beqz	a5,611a <__muldf3+0x1ee>
    6062:	34098a63          	beqz	s3,63b6 <__muldf3+0x48a>
    6066:	854e                	mv	a0,s3
    6068:	c432                	sw	a2,8(sp)
    606a:	6f6010ef          	jal	ra,7760 <__clzsi2>
    606e:	4622                	lw	a2,8(sp)
    6070:	87aa                	mv	a5,a0
    6072:	ff550693          	addi	a3,a0,-11
    6076:	4775                	li	a4,29
    6078:	ff878593          	addi	a1,a5,-8
    607c:	8f15                	sub	a4,a4,a3
    607e:	00b999b3          	sll	s3,s3,a1
    6082:	00e65733          	srl	a4,a2,a4
    6086:	013769b3          	or	s3,a4,s3
    608a:	00b615b3          	sll	a1,a2,a1
    608e:	40f90933          	sub	s2,s2,a5
    6092:	c0d90913          	addi	s2,s2,-1011
    6096:	4801                	li	a6,0
    6098:	bf0d                	j	5fca <__muldf3+0x9e>
    609a:	00a9e433          	or	s0,s3,a0
    609e:	c825                	beqz	s0,610e <__muldf3+0x1e2>
    60a0:	c636                	sw	a3,12(sp)
    60a2:	c432                	sw	a2,8(sp)
    60a4:	2e098963          	beqz	s3,6396 <__muldf3+0x46a>
    60a8:	854e                	mv	a0,s3
    60aa:	6b6010ef          	jal	ra,7760 <__clzsi2>
    60ae:	4622                	lw	a2,8(sp)
    60b0:	46b2                	lw	a3,12(sp)
    60b2:	87aa                	mv	a5,a0
    60b4:	ff550713          	addi	a4,a0,-11
    60b8:	4475                	li	s0,29
    60ba:	ff878493          	addi	s1,a5,-8
    60be:	8c19                	sub	s0,s0,a4
    60c0:	009999b3          	sll	s3,s3,s1
    60c4:	008a5433          	srl	s0,s4,s0
    60c8:	01346433          	or	s0,s0,s3
    60cc:	009a14b3          	sll	s1,s4,s1
    60d0:	c0d00913          	li	s2,-1011
    60d4:	40f90933          	sub	s2,s2,a5
    60d8:	4a01                	li	s4,0
    60da:	4c81                	li	s9,0
    60dc:	4a81                	li	s5,0
    60de:	b575                	j	5f8a <__muldf3+0x5e>
    60e0:	00a9e433          	or	s0,s3,a0
    60e4:	cc11                	beqz	s0,6100 <__muldf3+0x1d4>
    60e6:	00c99793          	slli	a5,s3,0xc
    60ea:	84aa                	mv	s1,a0
    60ec:	844e                	mv	s0,s3
    60ee:	4a31                	li	s4,12
    60f0:	7ff00913          	li	s2,2047
    60f4:	4c8d                	li	s9,3
    60f6:	4ac1                	li	s5,16
    60f8:	e807d9e3          	bgez	a5,5f8a <__muldf3+0x5e>
    60fc:	4a81                	li	s5,0
    60fe:	b571                	j	5f8a <__muldf3+0x5e>
    6100:	4a21                	li	s4,8
    6102:	4481                	li	s1,0
    6104:	7ff00913          	li	s2,2047
    6108:	4c89                	li	s9,2
    610a:	4a81                	li	s5,0
    610c:	bdbd                	j	5f8a <__muldf3+0x5e>
    610e:	4a11                	li	s4,4
    6110:	4481                	li	s1,0
    6112:	4901                	li	s2,0
    6114:	4c85                	li	s9,1
    6116:	4a81                	li	s5,0
    6118:	bd8d                	j	5f8a <__muldf3+0x5e>
    611a:	001a6a13          	ori	s4,s4,1
    611e:	4981                	li	s3,0
    6120:	4581                	li	a1,0
    6122:	4805                	li	a6,1
    6124:	b55d                	j	5fca <__muldf3+0x9e>
    6126:	002a6a13          	ori	s4,s4,2
    612a:	4981                	li	s3,0
    612c:	4581                	li	a1,0
    612e:	4809                	li	a6,2
    6130:	bd69                	j	5fca <__muldf3+0x9e>
    6132:	4601                	li	a2,0
    6134:	7ff00713          	li	a4,2047
    6138:	000807b7          	lui	a5,0x80
    613c:	4401                	li	s0,0
    613e:	bdc5                	j	602e <__muldf3+0x102>
    6140:	4789                	li	a5,2
    6142:	86de                	mv	a3,s7
    6144:	ecfc9be3          	bne	s9,a5,601a <__muldf3+0xee>
    6148:	8636                	mv	a2,a3
    614a:	7ff00713          	li	a4,2047
    614e:	4781                	li	a5,0
    6150:	4401                	li	s0,0
    6152:	bdf1                	j	602e <__muldf3+0x102>
    6154:	6341                	lui	t1,0x10
    6156:	fff30793          	addi	a5,t1,-1 # ffff <_data_lma+0x76a3>
    615a:	0104d513          	srli	a0,s1,0x10
    615e:	0105de13          	srli	t3,a1,0x10
    6162:	8cfd                	and	s1,s1,a5
    6164:	8dfd                	and	a1,a1,a5
    6166:	029587b3          	mul	a5,a1,s1
    616a:	02b508b3          	mul	a7,a0,a1
    616e:	0107d393          	srli	t2,a5,0x10
    6172:	029e0833          	mul	a6,t3,s1
    6176:	9846                	add	a6,a6,a7
    6178:	93c2                	add	t2,t2,a6
    617a:	03c50833          	mul	a6,a0,t3
    617e:	0113f363          	bgeu	t2,a7,6184 <__muldf3+0x258>
    6182:	981a                	add	a6,a6,t1
    6184:	6341                	lui	t1,0x10
    6186:	fff30e93          	addi	t4,t1,-1 # ffff <_data_lma+0x76a3>
    618a:	0109d293          	srli	t0,s3,0x10
    618e:	01d9f9b3          	and	s3,s3,t4
    6192:	01d3f8b3          	and	a7,t2,t4
    6196:	01d7f7b3          	and	a5,a5,t4
    619a:	08c2                	slli	a7,a7,0x10
    619c:	03348eb3          	mul	t4,s1,s3
    61a0:	98be                	add	a7,a7,a5
    61a2:	0103d393          	srli	t2,t2,0x10
    61a6:	03350fb3          	mul	t6,a0,s3
    61aa:	010edf13          	srli	t5,t4,0x10
    61ae:	029284b3          	mul	s1,t0,s1
    61b2:	94fe                	add	s1,s1,t6
    61b4:	94fa                	add	s1,s1,t5
    61b6:	025507b3          	mul	a5,a0,t0
    61ba:	01f4f363          	bgeu	s1,t6,61c0 <__muldf3+0x294>
    61be:	979a                	add	a5,a5,t1
    61c0:	6341                	lui	t1,0x10
    61c2:	fff30b93          	addi	s7,t1,-1 # ffff <_data_lma+0x76a3>
    61c6:	01045a13          	srli	s4,s0,0x10
    61ca:	01747533          	and	a0,s0,s7
    61ce:	0174ffb3          	and	t6,s1,s7
    61d2:	80c1                	srli	s1,s1,0x10
    61d4:	00f48f33          	add	t5,s1,a5
    61d8:	02a58433          	mul	s0,a1,a0
    61dc:	017efeb3          	and	t4,t4,s7
    61e0:	0fc2                	slli	t6,t6,0x10
    61e2:	9ff6                	add	t6,t6,t4
    61e4:	93fe                	add	t2,t2,t6
    61e6:	02ae07b3          	mul	a5,t3,a0
    61ea:	01045e93          	srli	t4,s0,0x10
    61ee:	02ba05b3          	mul	a1,s4,a1
    61f2:	97ae                	add	a5,a5,a1
    61f4:	9ebe                	add	t4,t4,a5
    61f6:	034e0e33          	mul	t3,t3,s4
    61fa:	00bef363          	bgeu	t4,a1,6200 <__muldf3+0x2d4>
    61fe:	9e1a                	add	t3,t3,t1
    6200:	67c1                	lui	a5,0x10
    6202:	fff78593          	addi	a1,a5,-1 # ffff <_data_lma+0x76a3>
    6206:	00bef333          	and	t1,t4,a1
    620a:	8c6d                	and	s0,s0,a1
    620c:	0342                	slli	t1,t1,0x10
    620e:	9322                	add	t1,t1,s0
    6210:	010ede93          	srli	t4,t4,0x10
    6214:	033505b3          	mul	a1,a0,s3
    6218:	9e76                	add	t3,t3,t4
    621a:	02a28533          	mul	a0,t0,a0
    621e:	0105d413          	srli	s0,a1,0x10
    6222:	033a09b3          	mul	s3,s4,s3
    6226:	954e                	add	a0,a0,s3
    6228:	9522                	add	a0,a0,s0
    622a:	034282b3          	mul	t0,t0,s4
    622e:	01357363          	bgeu	a0,s3,6234 <__muldf3+0x308>
    6232:	92be                	add	t0,t0,a5
    6234:	6ec1                	lui	t4,0x10
    6236:	1efd                	addi	t4,t4,-1
    6238:	01d577b3          	and	a5,a0,t4
    623c:	07c2                	slli	a5,a5,0x10
    623e:	01d5feb3          	and	t4,a1,t4
    6242:	97f6                	add	a5,a5,t4
    6244:	007805b3          	add	a1,a6,t2
    6248:	01f5bfb3          	sltu	t6,a1,t6
    624c:	97fa                	add	a5,a5,t5
    624e:	959a                	add	a1,a1,t1
    6250:	01f78433          	add	s0,a5,t6
    6254:	0065b833          	sltu	a6,a1,t1
    6258:	01c40eb3          	add	t4,s0,t3
    625c:	010e8333          	add	t1,t4,a6
    6260:	01f43433          	sltu	s0,s0,t6
    6264:	01e7b7b3          	sltu	a5,a5,t5
    6268:	8fc1                	or	a5,a5,s0
    626a:	01033833          	sltu	a6,t1,a6
    626e:	01055413          	srli	s0,a0,0x10
    6272:	01cebe33          	sltu	t3,t4,t3
    6276:	943e                	add	s0,s0,a5
    6278:	010e6833          	or	a6,t3,a6
    627c:	9442                	add	s0,s0,a6
    627e:	00959493          	slli	s1,a1,0x9
    6282:	9416                	add	s0,s0,t0
    6284:	01735513          	srli	a0,t1,0x17
    6288:	0114e4b3          	or	s1,s1,a7
    628c:	0426                	slli	s0,s0,0x9
    628e:	009034b3          	snez	s1,s1
    6292:	81dd                	srli	a1,a1,0x17
    6294:	8c49                	or	s0,s0,a0
    6296:	8ccd                	or	s1,s1,a1
    6298:	0326                	slli	t1,t1,0x9
    629a:	00741793          	slli	a5,s0,0x7
    629e:	0064e4b3          	or	s1,s1,t1
    62a2:	0007db63          	bgez	a5,62b8 <__muldf3+0x38c>
    62a6:	0014d793          	srli	a5,s1,0x1
    62aa:	8885                	andi	s1,s1,1
    62ac:	01f41593          	slli	a1,s0,0x1f
    62b0:	8cdd                	or	s1,s1,a5
    62b2:	8ccd                	or	s1,s1,a1
    62b4:	8005                	srli	s0,s0,0x1
    62b6:	893a                	mv	s2,a4
    62b8:	3ff90713          	addi	a4,s2,1023
    62bc:	04e05963          	blez	a4,630e <__muldf3+0x3e2>
    62c0:	0074f793          	andi	a5,s1,7
    62c4:	cb99                	beqz	a5,62da <__muldf3+0x3ae>
    62c6:	4789                	li	a5,2
    62c8:	001aea93          	ori	s5,s5,1
    62cc:	20fb0b63          	beq	s6,a5,64e2 <__muldf3+0x5b6>
    62d0:	478d                	li	a5,3
    62d2:	1efb0d63          	beq	s6,a5,64cc <__muldf3+0x5a0>
    62d6:	1c0b0f63          	beqz	s6,64b4 <__muldf3+0x588>
    62da:	00741793          	slli	a5,s0,0x7
    62de:	0007d863          	bgez	a5,62ee <__muldf3+0x3c2>
    62e2:	ff0007b7          	lui	a5,0xff000
    62e6:	17fd                	addi	a5,a5,-1
    62e8:	8c7d                	and	s0,s0,a5
    62ea:	40090713          	addi	a4,s2,1024
    62ee:	7fe00793          	li	a5,2046
    62f2:	10e7c963          	blt	a5,a4,6404 <__muldf3+0x4d8>
    62f6:	0034d693          	srli	a3,s1,0x3
    62fa:	00941793          	slli	a5,s0,0x9
    62fe:	01d41493          	slli	s1,s0,0x1d
    6302:	00d4e433          	or	s0,s1,a3
    6306:	83b1                	srli	a5,a5,0xc
    6308:	7ff77713          	andi	a4,a4,2047
    630c:	b30d                	j	602e <__muldf3+0x102>
    630e:	4785                	li	a5,1
    6310:	8f99                	sub	a5,a5,a4
    6312:	e379                	bnez	a4,63d8 <__muldf3+0x4ac>
    6314:	0074f593          	andi	a1,s1,7
    6318:	8722                	mv	a4,s0
    631a:	cd81                	beqz	a1,6332 <__muldf3+0x406>
    631c:	4709                	li	a4,2
    631e:	001aea93          	ori	s5,s5,1
    6322:	20eb0963          	beq	s6,a4,6534 <__muldf3+0x608>
    6326:	470d                	li	a4,3
    6328:	1eeb0d63          	beq	s6,a4,6522 <__muldf3+0x5f6>
    632c:	8722                	mv	a4,s0
    632e:	1c0b0f63          	beqz	s6,650c <__muldf3+0x5e0>
    6332:	8361                	srli	a4,a4,0x18
    6334:	00174713          	xori	a4,a4,1
    6338:	00177593          	andi	a1,a4,1
    633c:	41e90913          	addi	s2,s2,1054
    6340:	01249733          	sll	a4,s1,s2
    6344:	01241933          	sll	s2,s0,s2
    6348:	00f4d4b3          	srl	s1,s1,a5
    634c:	00e03733          	snez	a4,a4
    6350:	009964b3          	or	s1,s2,s1
    6354:	8cd9                	or	s1,s1,a4
    6356:	0074f513          	andi	a0,s1,7
    635a:	00f45733          	srl	a4,s0,a5
    635e:	c919                	beqz	a0,6374 <__muldf3+0x448>
    6360:	4789                	li	a5,2
    6362:	001aea93          	ori	s5,s5,1
    6366:	1efb0863          	beq	s6,a5,6556 <__muldf3+0x62a>
    636a:	478d                	li	a5,3
    636c:	1cfb0a63          	beq	s6,a5,6540 <__muldf3+0x614>
    6370:	1e0b0863          	beqz	s6,6560 <__muldf3+0x634>
    6374:	00871793          	slli	a5,a4,0x8
    6378:	1807d063          	bgez	a5,64f8 <__muldf3+0x5cc>
    637c:	001aea93          	ori	s5,s5,1
    6380:	16059663          	bnez	a1,64ec <__muldf3+0x5c0>
    6384:	067e                	slli	a2,a2,0x1f
    6386:	001007b7          	lui	a5,0x100
    638a:	8fd1                	or	a5,a5,a2
    638c:	4501                	li	a0,0
    638e:	85be                	mv	a1,a5
    6390:	001aa073          	csrs	fflags,s5
    6394:	b17d                	j	6042 <__muldf3+0x116>
    6396:	3ca010ef          	jal	ra,7760 <__clzsi2>
    639a:	01550713          	addi	a4,a0,21
    639e:	45f1                	li	a1,28
    63a0:	02050793          	addi	a5,a0,32
    63a4:	4622                	lw	a2,8(sp)
    63a6:	46b2                	lw	a3,12(sp)
    63a8:	d0e5d8e3          	bge	a1,a4,60b8 <__muldf3+0x18c>
    63ac:	1561                	addi	a0,a0,-8
    63ae:	00aa1433          	sll	s0,s4,a0
    63b2:	4481                	li	s1,0
    63b4:	bb31                	j	60d0 <__muldf3+0x1a4>
    63b6:	8532                	mv	a0,a2
    63b8:	c432                	sw	a2,8(sp)
    63ba:	3a6010ef          	jal	ra,7760 <__clzsi2>
    63be:	01550693          	addi	a3,a0,21
    63c2:	4771                	li	a4,28
    63c4:	02050793          	addi	a5,a0,32
    63c8:	4622                	lw	a2,8(sp)
    63ca:	cad756e3          	bge	a4,a3,6076 <__muldf3+0x14a>
    63ce:	1561                	addi	a0,a0,-8
    63d0:	4581                	li	a1,0
    63d2:	00a619b3          	sll	s3,a2,a0
    63d6:	b965                	j	608e <__muldf3+0x162>
    63d8:	03800593          	li	a1,56
    63dc:	06f5d963          	bge	a1,a5,644e <__muldf3+0x522>
    63e0:	8c45                	or	s0,s0,s1
    63e2:	cc01                	beqz	s0,63fa <__muldf3+0x4ce>
    63e4:	4789                	li	a5,2
    63e6:	001aea93          	ori	s5,s5,1
    63ea:	00d03433          	snez	s0,a3
    63ee:	00fb0663          	beq	s6,a5,63fa <__muldf3+0x4ce>
    63f2:	478d                	li	a5,3
    63f4:	4401                	li	s0,0
    63f6:	18fb0163          	beq	s6,a5,6578 <__muldf3+0x64c>
    63fa:	002aea93          	ori	s5,s5,2
    63fe:	4681                	li	a3,0
    6400:	4781                	li	a5,0
    6402:	a015                	j	6426 <__muldf3+0x4fa>
    6404:	4789                	li	a5,2
    6406:	0cfb0c63          	beq	s6,a5,64de <__muldf3+0x5b2>
    640a:	478d                	li	a5,3
    640c:	08fb0e63          	beq	s6,a5,64a8 <__muldf3+0x57c>
    6410:	080b0d63          	beqz	s6,64aa <__muldf3+0x57e>
    6414:	00100437          	lui	s0,0x100
    6418:	fff40793          	addi	a5,s0,-1 # fffff <_data_lma+0xf76a3>
    641c:	7fe00693          	li	a3,2046
    6420:	547d                	li	s0,-1
    6422:	005aea93          	ori	s5,s5,5
    6426:	00c79713          	slli	a4,a5,0xc
    642a:	8331                	srli	a4,a4,0xc
    642c:	01469793          	slli	a5,a3,0x14
    6430:	067e                	slli	a2,a2,0x1f
    6432:	8fd9                	or	a5,a5,a4
    6434:	8fd1                	or	a5,a5,a2
    6436:	8522                	mv	a0,s0
    6438:	85be                	mv	a1,a5
    643a:	001aa073          	csrs	fflags,s5
    643e:	b111                	j	6042 <__muldf3+0x116>
    6440:	4501                	li	a0,0
    6442:	7ff805b7          	lui	a1,0x7ff80
    6446:	4ac1                	li	s5,16
    6448:	001aa073          	csrs	fflags,s5
    644c:	bedd                	j	6042 <__muldf3+0x116>
    644e:	45fd                	li	a1,31
    6450:	12f5d763          	bge	a1,a5,657e <__muldf3+0x652>
    6454:	5585                	li	a1,-31
    6456:	40e58733          	sub	a4,a1,a4
    645a:	02000593          	li	a1,32
    645e:	00e45733          	srl	a4,s0,a4
    6462:	00b78763          	beq	a5,a1,6470 <__muldf3+0x544>
    6466:	43e90913          	addi	s2,s2,1086
    646a:	01241433          	sll	s0,s0,s2
    646e:	8cc1                	or	s1,s1,s0
    6470:	009034b3          	snez	s1,s1
    6474:	8cd9                	or	s1,s1,a4
    6476:	0074f793          	andi	a5,s1,7
    647a:	cb99                	beqz	a5,6490 <__muldf3+0x564>
    647c:	4789                	li	a5,2
    647e:	001aea93          	ori	s5,s5,1
    6482:	0cfb0863          	beq	s6,a5,6552 <__muldf3+0x626>
    6486:	478d                	li	a5,3
    6488:	0afb0a63          	beq	s6,a5,653c <__muldf3+0x610>
    648c:	0c0b0863          	beqz	s6,655c <__muldf3+0x630>
    6490:	0034d413          	srli	s0,s1,0x3
    6494:	4781                	li	a5,0
    6496:	001af693          	andi	a3,s5,1
    649a:	4701                	li	a4,0
    649c:	b80689e3          	beqz	a3,602e <__muldf3+0x102>
    64a0:	4681                	li	a3,0
    64a2:	002aea93          	ori	s5,s5,2
    64a6:	b741                	j	6426 <__muldf3+0x4fa>
    64a8:	f6b5                	bnez	a3,6414 <__muldf3+0x4e8>
    64aa:	7ff00693          	li	a3,2047
    64ae:	4781                	li	a5,0
    64b0:	4401                	li	s0,0
    64b2:	bf85                	j	6422 <__muldf3+0x4f6>
    64b4:	00f4f793          	andi	a5,s1,15
    64b8:	4591                	li	a1,4
    64ba:	e2b780e3          	beq	a5,a1,62da <__muldf3+0x3ae>
    64be:	00448793          	addi	a5,s1,4
    64c2:	0097b4b3          	sltu	s1,a5,s1
    64c6:	9426                	add	s0,s0,s1
    64c8:	84be                	mv	s1,a5
    64ca:	bd01                	j	62da <__muldf3+0x3ae>
    64cc:	e00697e3          	bnez	a3,62da <__muldf3+0x3ae>
    64d0:	00848793          	addi	a5,s1,8
    64d4:	0097b4b3          	sltu	s1,a5,s1
    64d8:	9426                	add	s0,s0,s1
    64da:	84be                	mv	s1,a5
    64dc:	bbfd                	j	62da <__muldf3+0x3ae>
    64de:	da9d                	beqz	a3,6414 <__muldf3+0x4e8>
    64e0:	b7e9                	j	64aa <__muldf3+0x57e>
    64e2:	de068ce3          	beqz	a3,62da <__muldf3+0x3ae>
    64e6:	b7ed                	j	64d0 <__muldf3+0x5a4>
    64e8:	893a                	mv	s2,a4
    64ea:	b3f9                	j	62b8 <__muldf3+0x38c>
    64ec:	4685                	li	a3,1
    64ee:	4781                	li	a5,0
    64f0:	4401                	li	s0,0
    64f2:	002aea93          	ori	s5,s5,2
    64f6:	bf05                	j	6426 <__muldf3+0x4fa>
    64f8:	00971793          	slli	a5,a4,0x9
    64fc:	0034d413          	srli	s0,s1,0x3
    6500:	0776                	slli	a4,a4,0x1d
    6502:	83b1                	srli	a5,a5,0xc
    6504:	8c59                	or	s0,s0,a4
    6506:	f9c1                	bnez	a1,6496 <__muldf3+0x56a>
    6508:	4701                	li	a4,0
    650a:	b615                	j	602e <__muldf3+0x102>
    650c:	00f4f593          	andi	a1,s1,15
    6510:	4511                	li	a0,4
    6512:	e2a580e3          	beq	a1,a0,6332 <__muldf3+0x406>
    6516:	ffc4b713          	sltiu	a4,s1,-4
    651a:	00174713          	xori	a4,a4,1
    651e:	9722                	add	a4,a4,s0
    6520:	bd09                	j	6332 <__muldf3+0x406>
    6522:	8722                	mv	a4,s0
    6524:	e00697e3          	bnez	a3,6332 <__muldf3+0x406>
    6528:	ff84b713          	sltiu	a4,s1,-8
    652c:	00174713          	xori	a4,a4,1
    6530:	9722                	add	a4,a4,s0
    6532:	b501                	j	6332 <__muldf3+0x406>
    6534:	8722                	mv	a4,s0
    6536:	de068ee3          	beqz	a3,6332 <__muldf3+0x406>
    653a:	b7fd                	j	6528 <__muldf3+0x5fc>
    653c:	4585                	li	a1,1
    653e:	4701                	li	a4,0
    6540:	e2069ae3          	bnez	a3,6374 <__muldf3+0x448>
    6544:	00848793          	addi	a5,s1,8
    6548:	0097b4b3          	sltu	s1,a5,s1
    654c:	9726                	add	a4,a4,s1
    654e:	84be                	mv	s1,a5
    6550:	b515                	j	6374 <__muldf3+0x448>
    6552:	4585                	li	a1,1
    6554:	4701                	li	a4,0
    6556:	e0068fe3          	beqz	a3,6374 <__muldf3+0x448>
    655a:	b7ed                	j	6544 <__muldf3+0x618>
    655c:	4585                	li	a1,1
    655e:	4701                	li	a4,0
    6560:	00f4f793          	andi	a5,s1,15
    6564:	4691                	li	a3,4
    6566:	e0d787e3          	beq	a5,a3,6374 <__muldf3+0x448>
    656a:	00448793          	addi	a5,s1,4
    656e:	0097b4b3          	sltu	s1,a5,s1
    6572:	9726                	add	a4,a4,s1
    6574:	84be                	mv	s1,a5
    6576:	bbfd                	j	6374 <__muldf3+0x448>
    6578:	0016b413          	seqz	s0,a3
    657c:	bdbd                	j	63fa <__muldf3+0x4ce>
    657e:	4585                	li	a1,1
    6580:	bb75                	j	633c <__muldf3+0x410>

00006582 <__subdf3>:
    6582:	1101                	addi	sp,sp,-32
    6584:	ce06                	sw	ra,28(sp)
    6586:	cc22                	sw	s0,24(sp)
    6588:	ca26                	sw	s1,20(sp)
    658a:	c84a                	sw	s2,16(sp)
    658c:	c64e                	sw	s3,12(sp)
    658e:	c452                	sw	s4,8(sp)
    6590:	002029f3          	frrm	s3
    6594:	00100837          	lui	a6,0x100
    6598:	187d                	addi	a6,a6,-1
    659a:	00b87733          	and	a4,a6,a1
    659e:	0146d893          	srli	a7,a3,0x14
    65a2:	00d87833          	and	a6,a6,a3
    65a6:	0145d413          	srli	s0,a1,0x14
    65aa:	00371e13          	slli	t3,a4,0x3
    65ae:	01d55793          	srli	a5,a0,0x1d
    65b2:	080e                	slli	a6,a6,0x3
    65b4:	01d65313          	srli	t1,a2,0x1d
    65b8:	7ff8f893          	andi	a7,a7,2047
    65bc:	7ff00e93          	li	t4,2047
    65c0:	01f5d493          	srli	s1,a1,0x1f
    65c4:	01c7e733          	or	a4,a5,t3
    65c8:	7ff47413          	andi	s0,s0,2047
    65cc:	00351e13          	slli	t3,a0,0x3
    65d0:	82fd                	srli	a3,a3,0x1f
    65d2:	01036833          	or	a6,t1,a6
    65d6:	00361593          	slli	a1,a2,0x3
    65da:	1dd88263          	beq	a7,t4,679e <__subdf3+0x21c>
    65de:	0016c693          	xori	a3,a3,1
    65e2:	41140333          	sub	t1,s0,a7
    65e6:	16d48763          	beq	s1,a3,6754 <__subdf3+0x1d2>
    65ea:	1c605363          	blez	t1,67b0 <__subdf3+0x22e>
    65ee:	22088463          	beqz	a7,6816 <__subdf3+0x294>
    65f2:	008007b7          	lui	a5,0x800
    65f6:	00f86833          	or	a6,a6,a5
    65fa:	6dd40263          	beq	s0,t4,6cbe <__subdf3+0x73c>
    65fe:	03800793          	li	a5,56
    6602:	3a67cd63          	blt	a5,t1,69bc <__subdf3+0x43a>
    6606:	47fd                	li	a5,31
    6608:	5267c263          	blt	a5,t1,6b2c <__subdf3+0x5aa>
    660c:	02000793          	li	a5,32
    6610:	406787b3          	sub	a5,a5,t1
    6614:	0065d933          	srl	s2,a1,t1
    6618:	00f81633          	sll	a2,a6,a5
    661c:	00f595b3          	sll	a1,a1,a5
    6620:	01266633          	or	a2,a2,s2
    6624:	00685333          	srl	t1,a6,t1
    6628:	00b03933          	snez	s2,a1
    662c:	01266633          	or	a2,a2,s2
    6630:	40670733          	sub	a4,a4,t1
    6634:	40ce0933          	sub	s2,t3,a2
    6638:	012e3633          	sltu	a2,t3,s2
    663c:	8f11                	sub	a4,a4,a2
    663e:	00871793          	slli	a5,a4,0x8
    6642:	2a07da63          	bgez	a5,68f6 <__subdf3+0x374>
    6646:	00971a13          	slli	s4,a4,0x9
    664a:	009a5a13          	srli	s4,s4,0x9
    664e:	340a0b63          	beqz	s4,69a4 <__subdf3+0x422>
    6652:	8552                	mv	a0,s4
    6654:	10c010ef          	jal	ra,7760 <__clzsi2>
    6658:	1561                	addi	a0,a0,-8
    665a:	02000793          	li	a5,32
    665e:	8f89                	sub	a5,a5,a0
    6660:	00aa1733          	sll	a4,s4,a0
    6664:	00f957b3          	srl	a5,s2,a5
    6668:	8fd9                	or	a5,a5,a4
    666a:	00a91a33          	sll	s4,s2,a0
    666e:	32854063          	blt	a0,s0,698e <__subdf3+0x40c>
    6672:	8d01                	sub	a0,a0,s0
    6674:	00150713          	addi	a4,a0,1
    6678:	46fd                	li	a3,31
    667a:	44e6c063          	blt	a3,a4,6aba <__subdf3+0x538>
    667e:	02000693          	li	a3,32
    6682:	8e99                	sub	a3,a3,a4
    6684:	00ea5933          	srl	s2,s4,a4
    6688:	00d79633          	sll	a2,a5,a3
    668c:	00da16b3          	sll	a3,s4,a3
    6690:	01266633          	or	a2,a2,s2
    6694:	00d036b3          	snez	a3,a3
    6698:	00d66933          	or	s2,a2,a3
    669c:	00e7d733          	srl	a4,a5,a4
    66a0:	00e967b3          	or	a5,s2,a4
    66a4:	16078063          	beqz	a5,6804 <__subdf3+0x282>
    66a8:	00797793          	andi	a5,s2,7
    66ac:	00191593          	slli	a1,s2,0x1
    66b0:	00171613          	slli	a2,a4,0x1
    66b4:	01f95693          	srli	a3,s2,0x1f
    66b8:	0075f513          	andi	a0,a1,7
    66bc:	96b2                	add	a3,a3,a2
    66be:	4301                	li	t1,0
    66c0:	c911                	beqz	a0,66d4 <__subdf3+0x152>
    66c2:	4609                	li	a2,2
    66c4:	66c98163          	beq	s3,a2,6d26 <__subdf3+0x7a4>
    66c8:	460d                	li	a2,3
    66ca:	4305                	li	t1,1
    66cc:	64c98563          	beq	s3,a2,6d16 <__subdf3+0x794>
    66d0:	62098863          	beqz	s3,6d00 <__subdf3+0x77e>
    66d4:	01000637          	lui	a2,0x1000
    66d8:	8ef1                	and	a3,a3,a2
    66da:	0016b513          	seqz	a0,a3
    66de:	10078ce3          	beqz	a5,6ff6 <__subdf3+0xa74>
    66e2:	4401                	li	s0,0
    66e4:	4789                	li	a5,2
    66e6:	26f98c63          	beq	s3,a5,695e <__subdf3+0x3dc>
    66ea:	478d                	li	a5,3
    66ec:	28f98863          	beq	s3,a5,697c <__subdf3+0x3fa>
    66f0:	24098263          	beqz	s3,6934 <__subdf3+0x3b2>
    66f4:	008005b7          	lui	a1,0x800
    66f8:	8df9                	and	a1,a1,a4
    66fa:	4305                	li	t1,1
    66fc:	c119                	beqz	a0,6702 <__subdf3+0x180>
    66fe:	00236313          	ori	t1,t1,2
    6702:	4a058363          	beqz	a1,6ba8 <__subdf3+0x626>
    6706:	0405                	addi	s0,s0,1
    6708:	7ff00793          	li	a5,2047
    670c:	20f40363          	beq	s0,a5,6912 <__subdf3+0x390>
    6710:	ff8007b7          	lui	a5,0xff800
    6714:	17fd                	addi	a5,a5,-1
    6716:	8ff9                	and	a5,a5,a4
    6718:	01d79613          	slli	a2,a5,0x1d
    671c:	00395913          	srli	s2,s2,0x3
    6720:	07a6                	slli	a5,a5,0x9
    6722:	01266633          	or	a2,a2,s2
    6726:	83b1                	srli	a5,a5,0xc
    6728:	7ff47413          	andi	s0,s0,2047
    672c:	8885                	andi	s1,s1,1
    672e:	00c79713          	slli	a4,a5,0xc
    6732:	0452                	slli	s0,s0,0x14
    6734:	8331                	srli	a4,a4,0xc
    6736:	04fe                	slli	s1,s1,0x1f
    6738:	8f41                	or	a4,a4,s0
    673a:	8f45                	or	a4,a4,s1
    673c:	8532                	mv	a0,a2
    673e:	85ba                	mv	a1,a4
    6740:	2a031463          	bnez	t1,69e8 <__subdf3+0x466>
    6744:	40f2                	lw	ra,28(sp)
    6746:	4462                	lw	s0,24(sp)
    6748:	44d2                	lw	s1,20(sp)
    674a:	4942                	lw	s2,16(sp)
    674c:	49b2                	lw	s3,12(sp)
    674e:	4a22                	lw	s4,8(sp)
    6750:	6105                	addi	sp,sp,32
    6752:	8082                	ret
    6754:	0c605d63          	blez	t1,682e <__subdf3+0x2ac>
    6758:	16088c63          	beqz	a7,68d0 <__subdf3+0x34e>
    675c:	008007b7          	lui	a5,0x800
    6760:	00f86833          	or	a6,a6,a5
    6764:	51d40a63          	beq	s0,t4,6c78 <__subdf3+0x6f6>
    6768:	03800793          	li	a5,56
    676c:	3667cc63          	blt	a5,t1,6ae4 <__subdf3+0x562>
    6770:	47fd                	li	a5,31
    6772:	4667d063          	bge	a5,t1,6bd2 <__subdf3+0x650>
    6776:	fe030613          	addi	a2,t1,-32
    677a:	02000793          	li	a5,32
    677e:	00c85633          	srl	a2,a6,a2
    6782:	00f30a63          	beq	t1,a5,6796 <__subdf3+0x214>
    6786:	04000793          	li	a5,64
    678a:	40678333          	sub	t1,a5,t1
    678e:	00681833          	sll	a6,a6,t1
    6792:	0105e5b3          	or	a1,a1,a6
    6796:	00b035b3          	snez	a1,a1
    679a:	8e4d                	or	a2,a2,a1
    679c:	ae81                	j	6aec <__subdf3+0x56a>
    679e:	00b867b3          	or	a5,a6,a1
    67a2:	80140313          	addi	t1,s0,-2047
    67a6:	e399                	bnez	a5,67ac <__subdf3+0x22a>
    67a8:	0016c693          	xori	a3,a3,1
    67ac:	08d48163          	beq	s1,a3,682e <__subdf3+0x2ac>
    67b0:	0c031563          	bnez	t1,687a <__subdf3+0x2f8>
    67b4:	00140793          	addi	a5,s0,1
    67b8:	7fe7f793          	andi	a5,a5,2046
    67bc:	24079263          	bnez	a5,6a00 <__subdf3+0x47e>
    67c0:	01c76eb3          	or	t4,a4,t3
    67c4:	00b867b3          	or	a5,a6,a1
    67c8:	5a041263          	bnez	s0,6d6c <__subdf3+0x7ea>
    67cc:	480e8e63          	beqz	t4,6c68 <__subdf3+0x6e6>
    67d0:	4a078263          	beqz	a5,6c74 <__subdf3+0x6f2>
    67d4:	40be0533          	sub	a0,t3,a1
    67d8:	00ae37b3          	sltu	a5,t3,a0
    67dc:	41070633          	sub	a2,a4,a6
    67e0:	8e1d                	sub	a2,a2,a5
    67e2:	00861793          	slli	a5,a2,0x8
    67e6:	6a07d463          	bgez	a5,6e8e <__subdf3+0x90c>
    67ea:	41c58933          	sub	s2,a1,t3
    67ee:	40e807b3          	sub	a5,a6,a4
    67f2:	0125b5b3          	sltu	a1,a1,s2
    67f6:	40b78733          	sub	a4,a5,a1
    67fa:	00e967b3          	or	a5,s2,a4
    67fe:	84b6                	mv	s1,a3
    6800:	ea0794e3          	bnez	a5,66a8 <__subdf3+0x126>
    6804:	4601                	li	a2,0
    6806:	4401                	li	s0,0
    6808:	4301                	li	t1,0
    680a:	07b2                	slli	a5,a5,0xc
    680c:	83b1                	srli	a5,a5,0xc
    680e:	7ff47413          	andi	s0,s0,2047
    6812:	8885                	andi	s1,s1,1
    6814:	bf29                	j	672e <__subdf3+0x1ac>
    6816:	00b867b3          	or	a5,a6,a1
    681a:	1a078663          	beqz	a5,69c6 <__subdf3+0x444>
    681e:	fff30793          	addi	a5,t1,-1
    6822:	48078063          	beqz	a5,6ca2 <__subdf3+0x720>
    6826:	45d30963          	beq	t1,t4,6c78 <__subdf3+0x6f6>
    682a:	833e                	mv	t1,a5
    682c:	bbc9                	j	65fe <__subdf3+0x7c>
    682e:	20031063          	bnez	t1,6a2e <__subdf3+0x4ac>
    6832:	00140693          	addi	a3,s0,1
    6836:	7fe6f793          	andi	a5,a3,2046
    683a:	4e079a63          	bnez	a5,6d2e <__subdf3+0x7ac>
    683e:	01c766b3          	or	a3,a4,t3
    6842:	3e041e63          	bnez	s0,6c3e <__subdf3+0x6bc>
    6846:	00b867b3          	or	a5,a6,a1
    684a:	5a068a63          	beqz	a3,6dfe <__subdf3+0x87c>
    684e:	42078363          	beqz	a5,6c74 <__subdf3+0x6f2>
    6852:	00be0933          	add	s2,t3,a1
    6856:	010707b3          	add	a5,a4,a6
    685a:	01c93633          	sltu	a2,s2,t3
    685e:	00c78733          	add	a4,a5,a2
    6862:	00871793          	slli	a5,a4,0x8
    6866:	e207dde3          	bgez	a5,66a0 <__subdf3+0x11e>
    686a:	ff8007b7          	lui	a5,0xff800
    686e:	17fd                	addi	a5,a5,-1
    6870:	8f7d                	and	a4,a4,a5
    6872:	4405                	li	s0,1
    6874:	00797793          	andi	a5,s2,7
    6878:	a069                	j	6902 <__subdf3+0x380>
    687a:	408887b3          	sub	a5,a7,s0
    687e:	20041363          	bnez	s0,6a84 <__subdf3+0x502>
    6882:	01c76533          	or	a0,a4,t3
    6886:	c125                	beqz	a0,68e6 <__subdf3+0x364>
    6888:	fff78513          	addi	a0,a5,-1 # ff7fffff <_eusrstack+0xdf7f7fff>
    688c:	54050f63          	beqz	a0,6dea <__subdf3+0x868>
    6890:	7ff00313          	li	t1,2047
    6894:	60678663          	beq	a5,t1,6ea0 <__subdf3+0x91e>
    6898:	87aa                	mv	a5,a0
    689a:	03800613          	li	a2,56
    689e:	2af64b63          	blt	a2,a5,6b54 <__subdf3+0x5d2>
    68a2:	467d                	li	a2,31
    68a4:	50f64863          	blt	a2,a5,6db4 <__subdf3+0x832>
    68a8:	02000513          	li	a0,32
    68ac:	8d1d                	sub	a0,a0,a5
    68ae:	00a71633          	sll	a2,a4,a0
    68b2:	00fe5333          	srl	t1,t3,a5
    68b6:	00ae1533          	sll	a0,t3,a0
    68ba:	00666633          	or	a2,a2,t1
    68be:	00a03933          	snez	s2,a0
    68c2:	00f757b3          	srl	a5,a4,a5
    68c6:	01266633          	or	a2,a2,s2
    68ca:	40f80833          	sub	a6,a6,a5
    68ce:	a479                	j	6b5c <__subdf3+0x5da>
    68d0:	00b867b3          	or	a5,a6,a1
    68d4:	cbed                	beqz	a5,69c6 <__subdf3+0x444>
    68d6:	fff30793          	addi	a5,t1,-1
    68da:	32078063          	beqz	a5,6bfa <__subdf3+0x678>
    68de:	4bd30b63          	beq	t1,t4,6d94 <__subdf3+0x812>
    68e2:	833e                	mv	t1,a5
    68e4:	b551                	j	6768 <__subdf3+0x1e6>
    68e6:	7ff00713          	li	a4,2047
    68ea:	5ee78a63          	beq	a5,a4,6ede <__subdf3+0x95c>
    68ee:	8742                	mv	a4,a6
    68f0:	892e                	mv	s2,a1
    68f2:	843e                	mv	s0,a5
    68f4:	84b6                	mv	s1,a3
    68f6:	00e967b3          	or	a5,s2,a4
    68fa:	da0405e3          	beqz	s0,66a4 <__subdf3+0x122>
    68fe:	00797793          	andi	a5,s2,7
    6902:	4501                	li	a0,0
    6904:	de0790e3          	bnez	a5,66e4 <__subdf3+0x162>
    6908:	008005b7          	lui	a1,0x800
    690c:	8df9                	and	a1,a1,a4
    690e:	4301                	li	t1,0
    6910:	bbcd                	j	6702 <__subdf3+0x180>
    6912:	0c098f63          	beqz	s3,69f0 <__subdf3+0x46e>
    6916:	478d                	li	a5,3
    6918:	0cf98b63          	beq	s3,a5,69ee <__subdf3+0x46c>
    691c:	4789                	li	a5,2
    691e:	30f98b63          	beq	s3,a5,6c34 <__subdf3+0x6b2>
    6922:	00536313          	ori	t1,t1,5
    6926:	200007b7          	lui	a5,0x20000
    692a:	567d                	li	a2,-1
    692c:	17fd                	addi	a5,a5,-1
    692e:	7fe00413          	li	s0,2046
    6932:	bde1                	j	680a <__subdf3+0x288>
    6934:	008005b7          	lui	a1,0x800
    6938:	00f97793          	andi	a5,s2,15
    693c:	4691                	li	a3,4
    693e:	4305                	li	t1,1
    6940:	8df9                	and	a1,a1,a4
    6942:	dad78de3          	beq	a5,a3,66fc <__subdf3+0x17a>
    6946:	ffc93793          	sltiu	a5,s2,-4
    694a:	0017c793          	xori	a5,a5,1
    694e:	973e                	add	a4,a4,a5
    6950:	008005b7          	lui	a1,0x800
    6954:	8df9                	and	a1,a1,a4
    6956:	0911                	addi	s2,s2,4
    6958:	da0513e3          	bnez	a0,66fe <__subdf3+0x17c>
    695c:	b35d                	j	6702 <__subdf3+0x180>
    695e:	d8048be3          	beqz	s1,66f4 <__subdf3+0x172>
    6962:	00890793          	addi	a5,s2,8
    6966:	0127b633          	sltu	a2,a5,s2
    696a:	9732                	add	a4,a4,a2
    696c:	008005b7          	lui	a1,0x800
    6970:	8df9                	and	a1,a1,a4
    6972:	893e                	mv	s2,a5
    6974:	4305                	li	t1,1
    6976:	d80514e3          	bnez	a0,66fe <__subdf3+0x17c>
    697a:	b361                	j	6702 <__subdf3+0x180>
    697c:	d0fd                	beqz	s1,6962 <__subdf3+0x3e0>
    697e:	4305                	li	t1,1
    6980:	008005b7          	lui	a1,0x800
    6984:	8df9                	and	a1,a1,a4
    6986:	4485                	li	s1,1
    6988:	d6051be3          	bnez	a0,66fe <__subdf3+0x17c>
    698c:	bb9d                	j	6702 <__subdf3+0x180>
    698e:	ff800737          	lui	a4,0xff800
    6992:	177d                	addi	a4,a4,-1
    6994:	8f7d                	and	a4,a4,a5
    6996:	8952                	mv	s2,s4
    6998:	8c09                	sub	s0,s0,a0
    699a:	00e967b3          	or	a5,s2,a4
    699e:	d00403e3          	beqz	s0,66a4 <__subdf3+0x122>
    69a2:	bfb1                	j	68fe <__subdf3+0x37c>
    69a4:	854a                	mv	a0,s2
    69a6:	5bb000ef          	jal	ra,7760 <__clzsi2>
    69aa:	ff850793          	addi	a5,a0,-8
    69ae:	477d                	li	a4,31
    69b0:	0561                	addi	a0,a0,24
    69b2:	00f917b3          	sll	a5,s2,a5
    69b6:	caa74ce3          	blt	a4,a0,666e <__subdf3+0xec>
    69ba:	b145                	j	665a <__subdf3+0xd8>
    69bc:	00b86833          	or	a6,a6,a1
    69c0:	01003633          	snez	a2,a6
    69c4:	b985                	j	6634 <__subdf3+0xb2>
    69c6:	31d30f63          	beq	t1,t4,6ce4 <__subdf3+0x762>
    69ca:	008005b7          	lui	a1,0x800
    69ce:	841a                	mv	s0,t1
    69d0:	8df9                	and	a1,a1,a4
    69d2:	8972                	mv	s2,t3
    69d4:	4301                	li	t1,0
    69d6:	b335                	j	6702 <__subdf3+0x180>
    69d8:	48888863          	beq	a7,s0,6e68 <__subdf3+0x8e6>
    69dc:	48079f63          	bnez	a5,6e7a <__subdf3+0x8f8>
    69e0:	4501                	li	a0,0
    69e2:	7ff805b7          	lui	a1,0x7ff80
    69e6:	4341                	li	t1,16
    69e8:	00132073          	csrs	fflags,t1
    69ec:	bba1                	j	6744 <__subdf3+0x1c2>
    69ee:	f895                	bnez	s1,6922 <__subdf3+0x3a0>
    69f0:	00536313          	ori	t1,t1,5
    69f4:	8885                	andi	s1,s1,1
    69f6:	7ff00413          	li	s0,2047
    69fa:	4781                	li	a5,0
    69fc:	4601                	li	a2,0
    69fe:	bb05                	j	672e <__subdf3+0x1ac>
    6a00:	40be0933          	sub	s2,t3,a1
    6a04:	012e37b3          	sltu	a5,t3,s2
    6a08:	41070a33          	sub	s4,a4,a6
    6a0c:	40fa0a33          	sub	s4,s4,a5
    6a10:	008a1793          	slli	a5,s4,0x8
    6a14:	3407c263          	bltz	a5,6d58 <__subdf3+0x7d6>
    6a18:	014967b3          	or	a5,s2,s4
    6a1c:	c20799e3          	bnez	a5,664e <__subdf3+0xcc>
    6a20:	ffe98493          	addi	s1,s3,-2
    6a24:	0014b493          	seqz	s1,s1
    6a28:	4601                	li	a2,0
    6a2a:	4401                	li	s0,0
    6a2c:	bbf9                	j	680a <__subdf3+0x288>
    6a2e:	408887b3          	sub	a5,a7,s0
    6a32:	12040e63          	beqz	s0,6b6e <__subdf3+0x5ec>
    6a36:	00800537          	lui	a0,0x800
    6a3a:	7ff00693          	li	a3,2047
    6a3e:	8f49                	or	a4,a4,a0
    6a40:	50d88763          	beq	a7,a3,6f4e <__subdf3+0x9cc>
    6a44:	03800693          	li	a3,56
    6a48:	36f6c163          	blt	a3,a5,6daa <__subdf3+0x828>
    6a4c:	46fd                	li	a3,31
    6a4e:	46f6c363          	blt	a3,a5,6eb4 <__subdf3+0x932>
    6a52:	02000693          	li	a3,32
    6a56:	8e9d                	sub	a3,a3,a5
    6a58:	00d71633          	sll	a2,a4,a3
    6a5c:	00fe5533          	srl	a0,t3,a5
    6a60:	00de16b3          	sll	a3,t3,a3
    6a64:	8e49                	or	a2,a2,a0
    6a66:	00d03933          	snez	s2,a3
    6a6a:	00f757b3          	srl	a5,a4,a5
    6a6e:	01266633          	or	a2,a2,s2
    6a72:	983e                	add	a6,a6,a5
    6a74:	00b60933          	add	s2,a2,a1
    6a78:	00b937b3          	sltu	a5,s2,a1
    6a7c:	01078733          	add	a4,a5,a6
    6a80:	8446                	mv	s0,a7
    6a82:	a895                	j	6af6 <__subdf3+0x574>
    6a84:	00800337          	lui	t1,0x800
    6a88:	7ff00513          	li	a0,2047
    6a8c:	00676733          	or	a4,a4,t1
    6a90:	e0a895e3          	bne	a7,a0,689a <__subdf3+0x318>
    6a94:	00b865b3          	or	a1,a6,a1
    6a98:	20058263          	beqz	a1,6c9c <__subdf3+0x71a>
    6a9c:	060e                	slli	a2,a2,0x3
    6a9e:	820d                	srli	a2,a2,0x3
    6aa0:	01d81793          	slli	a5,a6,0x1d
    6aa4:	00981713          	slli	a4,a6,0x9
    6aa8:	8e5d                	or	a2,a2,a5
    6aaa:	84b6                	mv	s1,a3
    6aac:	00385793          	srli	a5,a6,0x3
    6ab0:	4301                	li	t1,0
    6ab2:	10074663          	bltz	a4,6bbe <__subdf3+0x63c>
    6ab6:	4341                	li	t1,16
    6ab8:	a219                	j	6bbe <__subdf3+0x63c>
    6aba:	1505                	addi	a0,a0,-31
    6abc:	02000693          	li	a3,32
    6ac0:	00a7d533          	srl	a0,a5,a0
    6ac4:	00d70a63          	beq	a4,a3,6ad8 <__subdf3+0x556>
    6ac8:	04000693          	li	a3,64
    6acc:	40e68733          	sub	a4,a3,a4
    6ad0:	00e797b3          	sll	a5,a5,a4
    6ad4:	00fa6a33          	or	s4,s4,a5
    6ad8:	014037b3          	snez	a5,s4
    6adc:	8fc9                	or	a5,a5,a0
    6ade:	893e                	mv	s2,a5
    6ae0:	4701                	li	a4,0
    6ae2:	b6c9                	j	66a4 <__subdf3+0x122>
    6ae4:	00b86833          	or	a6,a6,a1
    6ae8:	01003633          	snez	a2,a6
    6aec:	01c60933          	add	s2,a2,t3
    6af0:	01c93633          	sltu	a2,s2,t3
    6af4:	9732                	add	a4,a4,a2
    6af6:	00871793          	slli	a5,a4,0x8
    6afa:	de07dee3          	bgez	a5,68f6 <__subdf3+0x374>
    6afe:	0405                	addi	s0,s0,1
    6b00:	7ff00793          	li	a5,2047
    6b04:	08f40363          	beq	s0,a5,6b8a <__subdf3+0x608>
    6b08:	ff8007b7          	lui	a5,0xff800
    6b0c:	17fd                	addi	a5,a5,-1
    6b0e:	8ff9                	and	a5,a5,a4
    6b10:	00197613          	andi	a2,s2,1
    6b14:	00195713          	srli	a4,s2,0x1
    6b18:	8e59                	or	a2,a2,a4
    6b1a:	01f79913          	slli	s2,a5,0x1f
    6b1e:	00c96933          	or	s2,s2,a2
    6b22:	0017d713          	srli	a4,a5,0x1
    6b26:	00797793          	andi	a5,s2,7
    6b2a:	bbe1                	j	6902 <__subdf3+0x380>
    6b2c:	fe030613          	addi	a2,t1,-32 # 7fffe0 <_data_lma+0x7f7684>
    6b30:	02000793          	li	a5,32
    6b34:	00c85633          	srl	a2,a6,a2
    6b38:	00f30a63          	beq	t1,a5,6b4c <__subdf3+0x5ca>
    6b3c:	04000793          	li	a5,64
    6b40:	40678333          	sub	t1,a5,t1
    6b44:	00681833          	sll	a6,a6,t1
    6b48:	0105e5b3          	or	a1,a1,a6
    6b4c:	00b035b3          	snez	a1,a1
    6b50:	8e4d                	or	a2,a2,a1
    6b52:	b4cd                	j	6634 <__subdf3+0xb2>
    6b54:	01c76633          	or	a2,a4,t3
    6b58:	00c03633          	snez	a2,a2
    6b5c:	40c58933          	sub	s2,a1,a2
    6b60:	0125b7b3          	sltu	a5,a1,s2
    6b64:	40f80733          	sub	a4,a6,a5
    6b68:	8446                	mv	s0,a7
    6b6a:	84b6                	mv	s1,a3
    6b6c:	bcc9                	j	663e <__subdf3+0xbc>
    6b6e:	01c766b3          	or	a3,a4,t3
    6b72:	28068963          	beqz	a3,6e04 <__subdf3+0x882>
    6b76:	fff78693          	addi	a3,a5,-1 # ff7fffff <_eusrstack+0xdf7f7fff>
    6b7a:	38068b63          	beqz	a3,6f10 <__subdf3+0x98e>
    6b7e:	7ff00513          	li	a0,2047
    6b82:	40a78e63          	beq	a5,a0,6f9e <__subdf3+0xa1c>
    6b86:	87b6                	mv	a5,a3
    6b88:	bd75                	j	6a44 <__subdf3+0x4c2>
    6b8a:	20098363          	beqz	s3,6d90 <__subdf3+0x80e>
    6b8e:	478d                	li	a5,3
    6b90:	3ef98b63          	beq	s3,a5,6f86 <__subdf3+0xa04>
    6b94:	4789                	li	a5,2
    6b96:	3cf98f63          	beq	s3,a5,6f74 <__subdf3+0x9f2>
    6b9a:	44099063          	bnez	s3,6fda <__subdf3+0xa58>
    6b9e:	7fe00413          	li	s0,2046
    6ba2:	4701                	li	a4,0
    6ba4:	490d                	li	s2,3
    6ba6:	4315                	li	t1,5
    6ba8:	01d71793          	slli	a5,a4,0x1d
    6bac:	00395613          	srli	a2,s2,0x3
    6bb0:	7ff00693          	li	a3,2047
    6bb4:	8e5d                	or	a2,a2,a5
    6bb6:	00375793          	srli	a5,a4,0x3
    6bba:	c4d418e3          	bne	s0,a3,680a <__subdf3+0x288>
    6bbe:	8fd1                	or	a5,a5,a2
    6bc0:	e2078ae3          	beqz	a5,69f4 <__subdf3+0x472>
    6bc4:	4481                	li	s1,0
    6bc6:	7ff00413          	li	s0,2047
    6bca:	000807b7          	lui	a5,0x80
    6bce:	4601                	li	a2,0
    6bd0:	beb9                	j	672e <__subdf3+0x1ac>
    6bd2:	02000793          	li	a5,32
    6bd6:	406787b3          	sub	a5,a5,t1
    6bda:	0065d933          	srl	s2,a1,t1
    6bde:	00f81633          	sll	a2,a6,a5
    6be2:	00f595b3          	sll	a1,a1,a5
    6be6:	01266633          	or	a2,a2,s2
    6bea:	00685333          	srl	t1,a6,t1
    6bee:	00b03933          	snez	s2,a1
    6bf2:	01266633          	or	a2,a2,s2
    6bf6:	971a                	add	a4,a4,t1
    6bf8:	bdd5                	j	6aec <__subdf3+0x56a>
    6bfa:	00be0933          	add	s2,t3,a1
    6bfe:	010707b3          	add	a5,a4,a6
    6c02:	01c93633          	sltu	a2,s2,t3
    6c06:	00c78733          	add	a4,a5,a2
    6c0a:	00871793          	slli	a5,a4,0x8
    6c0e:	4405                	li	s0,1
    6c10:	ce07d7e3          	bgez	a5,68fe <__subdf3+0x37c>
    6c14:	ff8007b7          	lui	a5,0xff800
    6c18:	17fd                	addi	a5,a5,-1
    6c1a:	8ff9                	and	a5,a5,a4
    6c1c:	00195613          	srli	a2,s2,0x1
    6c20:	01f79913          	slli	s2,a5,0x1f
    6c24:	00c96933          	or	s2,s2,a2
    6c28:	0017d713          	srli	a4,a5,0x1
    6c2c:	4409                	li	s0,2
    6c2e:	00797793          	andi	a5,s2,7
    6c32:	b9c1                	j	6902 <__subdf3+0x380>
    6c34:	00536313          	ori	t1,t1,5
    6c38:	ce0487e3          	beqz	s1,6926 <__subdf3+0x3a4>
    6c3c:	bb65                	j	69f4 <__subdf3+0x472>
    6c3e:	7ff00793          	li	a5,2047
    6c42:	2ef40063          	beq	s0,a5,6f22 <__subdf3+0x9a0>
    6c46:	1ef88863          	beq	a7,a5,6e36 <__subdf3+0x8b4>
    6c4a:	1e068c63          	beqz	a3,6e42 <__subdf3+0x8c0>
    6c4e:	00b86833          	or	a6,a6,a1
    6c52:	f60819e3          	bnez	a6,6bc4 <__subdf3+0x642>
    6c56:	00351613          	slli	a2,a0,0x3
    6c5a:	01d71793          	slli	a5,a4,0x1d
    6c5e:	820d                	srli	a2,a2,0x3
    6c60:	8e5d                	or	a2,a2,a5
    6c62:	00375793          	srli	a5,a4,0x3
    6c66:	bfa1                	j	6bbe <__subdf3+0x63c>
    6c68:	16078b63          	beqz	a5,6dde <__subdf3+0x85c>
    6c6c:	4781                	li	a5,0
    6c6e:	8742                	mv	a4,a6
    6c70:	8e2e                	mv	t3,a1
    6c72:	84b6                	mv	s1,a3
    6c74:	8972                	mv	s2,t3
    6c76:	bc1d                	j	66ac <__subdf3+0x12a>
    6c78:	01c76633          	or	a2,a4,t3
    6c7c:	c20d                	beqz	a2,6c9e <__subdf3+0x71c>
    6c7e:	00400337          	lui	t1,0x400
    6c82:	050e                	slli	a0,a0,0x3
    6c84:	00677333          	and	t1,a4,t1
    6c88:	01d71613          	slli	a2,a4,0x1d
    6c8c:	810d                	srli	a0,a0,0x3
    6c8e:	00133313          	seqz	t1,t1
    6c92:	8e49                	or	a2,a2,a0
    6c94:	00375793          	srli	a5,a4,0x3
    6c98:	0312                	slli	t1,t1,0x4
    6c9a:	b715                	j	6bbe <__subdf3+0x63c>
    6c9c:	84b6                	mv	s1,a3
    6c9e:	4301                	li	t1,0
    6ca0:	bb91                	j	69f4 <__subdf3+0x472>
    6ca2:	40be0933          	sub	s2,t3,a1
    6ca6:	410707b3          	sub	a5,a4,a6
    6caa:	012e3633          	sltu	a2,t3,s2
    6cae:	40c78733          	sub	a4,a5,a2
    6cb2:	00871793          	slli	a5,a4,0x8
    6cb6:	4405                	li	s0,1
    6cb8:	9807c7e3          	bltz	a5,6646 <__subdf3+0xc4>
    6cbc:	b189                	j	68fe <__subdf3+0x37c>
    6cbe:	01c76633          	or	a2,a4,t3
    6cc2:	de71                	beqz	a2,6c9e <__subdf3+0x71c>
    6cc4:	00400337          	lui	t1,0x400
    6cc8:	00351613          	slli	a2,a0,0x3
    6ccc:	00677333          	and	t1,a4,t1
    6cd0:	01d71793          	slli	a5,a4,0x1d
    6cd4:	820d                	srli	a2,a2,0x3
    6cd6:	00133313          	seqz	t1,t1
    6cda:	8e5d                	or	a2,a2,a5
    6cdc:	0312                	slli	t1,t1,0x4
    6cde:	00375793          	srli	a5,a4,0x3
    6ce2:	bdf1                	j	6bbe <__subdf3+0x63c>
    6ce4:	01c767b3          	or	a5,a4,t3
    6ce8:	ebcd                	bnez	a5,6d9a <__subdf3+0x818>
    6cea:	4701                	li	a4,0
    6cec:	4e01                	li	t3,0
    6cee:	4301                	li	t1,0
    6cf0:	01d71793          	slli	a5,a4,0x1d
    6cf4:	003e5613          	srli	a2,t3,0x3
    6cf8:	8e5d                	or	a2,a2,a5
    6cfa:	00375793          	srli	a5,a4,0x3
    6cfe:	b5c1                	j	6bbe <__subdf3+0x63c>
    6d00:	00f5f613          	andi	a2,a1,15
    6d04:	4511                	li	a0,4
    6d06:	9ca607e3          	beq	a2,a0,66d4 <__subdf3+0x152>
    6d0a:	ffc5b593          	sltiu	a1,a1,-4
    6d0e:	0015c593          	xori	a1,a1,1
    6d12:	96ae                	add	a3,a3,a1
    6d14:	b2c1                	j	66d4 <__subdf3+0x152>
    6d16:	9a049fe3          	bnez	s1,66d4 <__subdf3+0x152>
    6d1a:	ff85b613          	sltiu	a2,a1,-8
    6d1e:	00164613          	xori	a2,a2,1
    6d22:	96b2                	add	a3,a3,a2
    6d24:	ba45                	j	66d4 <__subdf3+0x152>
    6d26:	4305                	li	t1,1
    6d28:	9a0486e3          	beqz	s1,66d4 <__subdf3+0x152>
    6d2c:	b7fd                	j	6d1a <__subdf3+0x798>
    6d2e:	7ff00793          	li	a5,2047
    6d32:	0ef68163          	beq	a3,a5,6e14 <__subdf3+0x892>
    6d36:	95f2                	add	a1,a1,t3
    6d38:	010707b3          	add	a5,a4,a6
    6d3c:	01c5b733          	sltu	a4,a1,t3
    6d40:	97ba                	add	a5,a5,a4
    6d42:	01f79613          	slli	a2,a5,0x1f
    6d46:	8185                	srli	a1,a1,0x1
    6d48:	00b66933          	or	s2,a2,a1
    6d4c:	0017d713          	srli	a4,a5,0x1
    6d50:	8436                	mv	s0,a3
    6d52:	00797793          	andi	a5,s2,7
    6d56:	b675                	j	6902 <__subdf3+0x380>
    6d58:	41c58933          	sub	s2,a1,t3
    6d5c:	40e80833          	sub	a6,a6,a4
    6d60:	0125b5b3          	sltu	a1,a1,s2
    6d64:	40b80a33          	sub	s4,a6,a1
    6d68:	84b6                	mv	s1,a3
    6d6a:	b0d5                	j	664e <__subdf3+0xcc>
    6d6c:	7ff00593          	li	a1,2047
    6d70:	0eb40163          	beq	s0,a1,6e52 <__subdf3+0x8d0>
    6d74:	0eb88a63          	beq	a7,a1,6e68 <__subdf3+0x8e6>
    6d78:	c60e82e3          	beqz	t4,69dc <__subdf3+0x45a>
    6d7c:	e40794e3          	bnez	a5,6bc4 <__subdf3+0x642>
    6d80:	050e                	slli	a0,a0,0x3
    6d82:	01d71613          	slli	a2,a4,0x1d
    6d86:	810d                	srli	a0,a0,0x3
    6d88:	8e49                	or	a2,a2,a0
    6d8a:	00375793          	srli	a5,a4,0x3
    6d8e:	bd05                	j	6bbe <__subdf3+0x63c>
    6d90:	4315                	li	t1,5
    6d92:	b18d                	j	69f4 <__subdf3+0x472>
    6d94:	01c767b3          	or	a5,a4,t3
    6d98:	d399                	beqz	a5,6c9e <__subdf3+0x71c>
    6d9a:	00400337          	lui	t1,0x400
    6d9e:	00677333          	and	t1,a4,t1
    6da2:	00133313          	seqz	t1,t1
    6da6:	0312                	slli	t1,t1,0x4
    6da8:	b7a1                	j	6cf0 <__subdf3+0x76e>
    6daa:	01c76633          	or	a2,a4,t3
    6dae:	00c03633          	snez	a2,a2
    6db2:	b1c9                	j	6a74 <__subdf3+0x4f2>
    6db4:	fe078613          	addi	a2,a5,-32 # ff7fffe0 <_eusrstack+0xdf7f7fe0>
    6db8:	02000513          	li	a0,32
    6dbc:	00c75933          	srl	s2,a4,a2
    6dc0:	00a78a63          	beq	a5,a0,6dd4 <__subdf3+0x852>
    6dc4:	04000613          	li	a2,64
    6dc8:	40f607b3          	sub	a5,a2,a5
    6dcc:	00f717b3          	sll	a5,a4,a5
    6dd0:	00fe6e33          	or	t3,t3,a5
    6dd4:	01c03633          	snez	a2,t3
    6dd8:	01266633          	or	a2,a2,s2
    6ddc:	b341                	j	6b5c <__subdf3+0x5da>
    6dde:	ffe98493          	addi	s1,s3,-2
    6de2:	0014b493          	seqz	s1,s1
    6de6:	4601                	li	a2,0
    6de8:	b40d                	j	680a <__subdf3+0x288>
    6dea:	41c58933          	sub	s2,a1,t3
    6dee:	40e807b3          	sub	a5,a6,a4
    6df2:	0125b5b3          	sltu	a1,a1,s2
    6df6:	40b78733          	sub	a4,a5,a1
    6dfa:	84b6                	mv	s1,a3
    6dfc:	bd5d                	j	6cb2 <__subdf3+0x730>
    6dfe:	8742                	mv	a4,a6
    6e00:	892e                	mv	s2,a1
    6e02:	b04d                	j	66a4 <__subdf3+0x122>
    6e04:	7ff00713          	li	a4,2047
    6e08:	0ee78863          	beq	a5,a4,6ef8 <__subdf3+0x976>
    6e0c:	8742                	mv	a4,a6
    6e0e:	892e                	mv	s2,a1
    6e10:	843e                	mv	s0,a5
    6e12:	b4d5                	j	68f6 <__subdf3+0x374>
    6e14:	f6098ee3          	beqz	s3,6d90 <__subdf3+0x80e>
    6e18:	478d                	li	a5,3
    6e1a:	1cf98563          	beq	s3,a5,6fe4 <__subdf3+0xa62>
    6e1e:	4789                	li	a5,2
    6e20:	14f98a63          	beq	s3,a5,6f74 <__subdf3+0x9f2>
    6e24:	1a099b63          	bnez	s3,6fda <__subdf3+0xa58>
    6e28:	4501                	li	a0,0
    6e2a:	4315                	li	t1,5
    6e2c:	7fe00413          	li	s0,2046
    6e30:	577d                	li	a4,-1
    6e32:	597d                	li	s2,-1
    6e34:	be09                	j	6946 <__subdf3+0x3c4>
    6e36:	00b865b3          	or	a1,a6,a1
    6e3a:	10059263          	bnez	a1,6f3e <__subdf3+0x9bc>
    6e3e:	e0069ce3          	bnez	a3,6c56 <__subdf3+0x6d4>
    6e42:	060e                	slli	a2,a2,0x3
    6e44:	01d81793          	slli	a5,a6,0x1d
    6e48:	820d                	srli	a2,a2,0x3
    6e4a:	8e5d                	or	a2,a2,a5
    6e4c:	00385793          	srli	a5,a6,0x3
    6e50:	b3bd                	j	6bbe <__subdf3+0x63c>
    6e52:	b80e83e3          	beqz	t4,69d8 <__subdf3+0x456>
    6e56:	00971593          	slli	a1,a4,0x9
    6e5a:	0005c363          	bltz	a1,6e60 <__subdf3+0x8de>
    6e5e:	4341                	li	t1,16
    6e60:	7ff00593          	li	a1,2047
    6e64:	f0b89ce3          	bne	a7,a1,6d7c <__subdf3+0x7fa>
    6e68:	12078863          	beqz	a5,6f98 <__subdf3+0xa16>
    6e6c:	00981793          	slli	a5,a6,0x9
    6e70:	0007c363          	bltz	a5,6e76 <__subdf3+0x8f4>
    6e74:	4341                	li	t1,16
    6e76:	d40e97e3          	bnez	t4,6bc4 <__subdf3+0x642>
    6e7a:	00361793          	slli	a5,a2,0x3
    6e7e:	838d                	srli	a5,a5,0x3
    6e80:	01d81613          	slli	a2,a6,0x1d
    6e84:	8e5d                	or	a2,a2,a5
    6e86:	84b6                	mv	s1,a3
    6e88:	00385793          	srli	a5,a6,0x3
    6e8c:	bb0d                	j	6bbe <__subdf3+0x63c>
    6e8e:	00c567b3          	or	a5,a0,a2
    6e92:	d7b1                	beqz	a5,6dde <__subdf3+0x85c>
    6e94:	8e2a                	mv	t3,a0
    6e96:	00757793          	andi	a5,a0,7
    6e9a:	8732                	mv	a4,a2
    6e9c:	8972                	mv	s2,t3
    6e9e:	b039                	j	66ac <__subdf3+0x12a>
    6ea0:	00b865b3          	or	a1,a6,a1
    6ea4:	de058ce3          	beqz	a1,6c9c <__subdf3+0x71a>
    6ea8:	00361793          	slli	a5,a2,0x3
    6eac:	838d                	srli	a5,a5,0x3
    6eae:	01d81613          	slli	a2,a6,0x1d
    6eb2:	becd                	j	6aa4 <__subdf3+0x522>
    6eb4:	fe078613          	addi	a2,a5,-32
    6eb8:	02000693          	li	a3,32
    6ebc:	00c75933          	srl	s2,a4,a2
    6ec0:	00d78a63          	beq	a5,a3,6ed4 <__subdf3+0x952>
    6ec4:	04000693          	li	a3,64
    6ec8:	40f687b3          	sub	a5,a3,a5
    6ecc:	00f717b3          	sll	a5,a4,a5
    6ed0:	00fe6e33          	or	t3,t3,a5
    6ed4:	01c03633          	snez	a2,t3
    6ed8:	01266633          	or	a2,a2,s2
    6edc:	be61                	j	6a74 <__subdf3+0x4f2>
    6ede:	00b86e33          	or	t3,a6,a1
    6ee2:	0e0e0263          	beqz	t3,6fc6 <__subdf3+0xa44>
    6ee6:	00981793          	slli	a5,a6,0x9
    6eea:	8742                	mv	a4,a6
    6eec:	8e2e                	mv	t3,a1
    6eee:	84b6                	mv	s1,a3
    6ef0:	0007ce63          	bltz	a5,6f0c <__subdf3+0x98a>
    6ef4:	4341                	li	t1,16
    6ef6:	bbed                	j	6cf0 <__subdf3+0x76e>
    6ef8:	00b86e33          	or	t3,a6,a1
    6efc:	0e0e0163          	beqz	t3,6fde <__subdf3+0xa5c>
    6f00:	00981793          	slli	a5,a6,0x9
    6f04:	8742                	mv	a4,a6
    6f06:	8e2e                	mv	t3,a1
    6f08:	fe07d6e3          	bgez	a5,6ef4 <__subdf3+0x972>
    6f0c:	4301                	li	t1,0
    6f0e:	b3cd                	j	6cf0 <__subdf3+0x76e>
    6f10:	00be0933          	add	s2,t3,a1
    6f14:	010707b3          	add	a5,a4,a6
    6f18:	00b935b3          	sltu	a1,s2,a1
    6f1c:	00b78733          	add	a4,a5,a1
    6f20:	b1ed                	j	6c0a <__subdf3+0x688>
    6f22:	c6d5                	beqz	a3,6fce <__subdf3+0xa4c>
    6f24:	00971793          	slli	a5,a4,0x9
    6f28:	0007c363          	bltz	a5,6f2e <__subdf3+0x9ac>
    6f2c:	4341                	li	t1,16
    6f2e:	7ff00793          	li	a5,2047
    6f32:	d0f89ee3          	bne	a7,a5,6c4e <__subdf3+0x6cc>
    6f36:	00b865b3          	or	a1,a6,a1
    6f3a:	d0058ee3          	beqz	a1,6c56 <__subdf3+0x6d4>
    6f3e:	00981793          	slli	a5,a6,0x9
    6f42:	0007c363          	bltz	a5,6f48 <__subdf3+0x9c6>
    6f46:	4341                	li	t1,16
    6f48:	ee068de3          	beqz	a3,6e42 <__subdf3+0x8c0>
    6f4c:	b9a5                	j	6bc4 <__subdf3+0x642>
    6f4e:	00b865b3          	or	a1,a6,a1
    6f52:	d40586e3          	beqz	a1,6c9e <__subdf3+0x71c>
    6f56:	00400337          	lui	t1,0x400
    6f5a:	060e                	slli	a2,a2,0x3
    6f5c:	00687333          	and	t1,a6,t1
    6f60:	01d81793          	slli	a5,a6,0x1d
    6f64:	820d                	srli	a2,a2,0x3
    6f66:	00133313          	seqz	t1,t1
    6f6a:	8e5d                	or	a2,a2,a5
    6f6c:	0312                	slli	t1,t1,0x4
    6f6e:	00385793          	srli	a5,a6,0x3
    6f72:	b1b1                	j	6bbe <__subdf3+0x63c>
    6f74:	e0049ee3          	bnez	s1,6d90 <__subdf3+0x80e>
    6f78:	7fe00413          	li	s0,2046
    6f7c:	577d                	li	a4,-1
    6f7e:	597d                	li	s2,-1
    6f80:	4315                	li	t1,5
    6f82:	f84ff06f          	j	6706 <__subdf3+0x184>
    6f86:	e00485e3          	beqz	s1,6d90 <__subdf3+0x80e>
    6f8a:	7fe00413          	li	s0,2046
    6f8e:	4501                	li	a0,0
    6f90:	597d                	li	s2,-1
    6f92:	577d                	li	a4,-1
    6f94:	4315                	li	t1,5
    6f96:	b2ed                	j	6980 <__subdf3+0x3fe>
    6f98:	a40e84e3          	beqz	t4,69e0 <__subdf3+0x45e>
    6f9c:	b3d5                	j	6d80 <__subdf3+0x7fe>
    6f9e:	00b865b3          	or	a1,a6,a1
    6fa2:	ce058ee3          	beqz	a1,6c9e <__subdf3+0x71c>
    6fa6:	00400337          	lui	t1,0x400
    6faa:	00361793          	slli	a5,a2,0x3
    6fae:	00687333          	and	t1,a6,t1
    6fb2:	838d                	srli	a5,a5,0x3
    6fb4:	01d81613          	slli	a2,a6,0x1d
    6fb8:	00133313          	seqz	t1,t1
    6fbc:	8e5d                	or	a2,a2,a5
    6fbe:	0312                	slli	t1,t1,0x4
    6fc0:	00385793          	srli	a5,a6,0x3
    6fc4:	beed                	j	6bbe <__subdf3+0x63c>
    6fc6:	4701                	li	a4,0
    6fc8:	84b6                	mv	s1,a3
    6fca:	4301                	li	t1,0
    6fcc:	b315                	j	6cf0 <__subdf3+0x76e>
    6fce:	e6889ae3          	bne	a7,s0,6e42 <__subdf3+0x8c0>
    6fd2:	00b865b3          	or	a1,a6,a1
    6fd6:	f5a5                	bnez	a1,6f3e <__subdf3+0x9bc>
    6fd8:	b5ad                	j	6e42 <__subdf3+0x8c0>
    6fda:	4315                	li	t1,5
    6fdc:	ba2d                	j	6916 <__subdf3+0x394>
    6fde:	4701                	li	a4,0
    6fe0:	4301                	li	t1,0
    6fe2:	b339                	j	6cf0 <__subdf3+0x76e>
    6fe4:	da0486e3          	beqz	s1,6d90 <__subdf3+0x80e>
    6fe8:	4501                	li	a0,0
    6fea:	7fe00413          	li	s0,2046
    6fee:	597d                	li	s2,-1
    6ff0:	577d                	li	a4,-1
    6ff2:	4315                	li	t1,5
    6ff4:	b271                	j	6980 <__subdf3+0x3fe>
    6ff6:	008005b7          	lui	a1,0x800
    6ffa:	8df9                	and	a1,a1,a4
    6ffc:	4401                	li	s0,0
    6ffe:	f0069263          	bnez	a3,6702 <__subdf3+0x180>
    7002:	f0030063          	beqz	t1,6702 <__subdf3+0x180>
    7006:	00236313          	ori	t1,t1,2
    700a:	ef8ff06f          	j	6702 <__subdf3+0x180>

0000700e <__fixdfdi>:
    700e:	882a                	mv	a6,a0
    7010:	002027f3          	frrm	a5
    7014:	00100537          	lui	a0,0x100
    7018:	0145d793          	srli	a5,a1,0x14
    701c:	fff50713          	addi	a4,a0,-1 # fffff <_data_lma+0xf76a3>
    7020:	7ff7f793          	andi	a5,a5,2047
    7024:	3fe00893          	li	a7,1022
    7028:	86c2                	mv	a3,a6
    702a:	8f6d                	and	a4,a4,a1
    702c:	01f5d613          	srli	a2,a1,0x1f
    7030:	02f8c263          	blt	a7,a5,7054 <__fixdfdi+0x46>
    7034:	eb91                	bnez	a5,7048 <__fixdfdi+0x3a>
    7036:	01076733          	or	a4,a4,a6
    703a:	4501                	li	a0,0
    703c:	4581                	li	a1,0
    703e:	cf3d                	beqz	a4,70bc <__fixdfdi+0xae>
    7040:	4685                	li	a3,1
    7042:	0016a073          	csrs	fflags,a3
    7046:	8082                	ret
    7048:	4501                	li	a0,0
    704a:	4581                	li	a1,0
    704c:	4685                	li	a3,1
    704e:	0016a073          	csrs	fflags,a3
    7052:	bfd5                	j	7046 <__fixdfdi+0x38>
    7054:	43d00593          	li	a1,1085
    7058:	02f5da63          	bge	a1,a5,708c <__fixdfdi+0x7e>
    705c:	4585                	li	a1,1
    705e:	8d91                	sub	a1,a1,a2
    7060:	40b006b3          	neg	a3,a1
    7064:	41f5d513          	srai	a0,a1,0x1f
    7068:	800005b7          	lui	a1,0x80000
    706c:	8d89                	sub	a1,a1,a0
    706e:	00d038b3          	snez	a7,a3
    7072:	8536                	mv	a0,a3
    7074:	411585b3          	sub	a1,a1,a7
    7078:	c241                	beqz	a2,70f8 <__fixdfdi+0xea>
    707a:	43e00613          	li	a2,1086
    707e:	46c1                	li	a3,16
    7080:	fcc791e3          	bne	a5,a2,7042 <__fixdfdi+0x34>
    7084:	01076733          	or	a4,a4,a6
    7088:	ff4d                	bnez	a4,7042 <__fixdfdi+0x34>
    708a:	8082                	ret
    708c:	43200893          	li	a7,1074
    7090:	00a765b3          	or	a1,a4,a0
    7094:	02f8d563          	bge	a7,a5,70be <__fixdfdi+0xb0>
    7098:	bad78713          	addi	a4,a5,-1107
    709c:	bcd78793          	addi	a5,a5,-1075
    70a0:	08074363          	bltz	a4,7126 <__fixdfdi+0x118>
    70a4:	00e815b3          	sll	a1,a6,a4
    70a8:	4501                	li	a0,0
    70aa:	de51                	beqz	a2,7046 <__fixdfdi+0x38>
    70ac:	40a00533          	neg	a0,a0
    70b0:	00a037b3          	snez	a5,a0
    70b4:	40b005b3          	neg	a1,a1
    70b8:	8d9d                	sub	a1,a1,a5
    70ba:	8082                	ret
    70bc:	8082                	ret
    70be:	43300713          	li	a4,1075
    70c2:	8f1d                	sub	a4,a4,a5
    70c4:	457d                	li	a0,31
    70c6:	02e54d63          	blt	a0,a4,7100 <__fixdfdi+0xf2>
    70ca:	bed78793          	addi	a5,a5,-1043
    70ce:	00f816b3          	sll	a3,a6,a5
    70d2:	00e85533          	srl	a0,a6,a4
    70d6:	00f597b3          	sll	a5,a1,a5
    70da:	00d036b3          	snez	a3,a3
    70de:	8d5d                	or	a0,a0,a5
    70e0:	00e5d5b3          	srl	a1,a1,a4
    70e4:	ca01                	beqz	a2,70f4 <__fixdfdi+0xe6>
    70e6:	40a00533          	neg	a0,a0
    70ea:	00a037b3          	snez	a5,a0
    70ee:	40b005b3          	neg	a1,a1
    70f2:	8d9d                	sub	a1,a1,a5
    70f4:	f6b9                	bnez	a3,7042 <__fixdfdi+0x34>
    70f6:	8082                	ret
    70f8:	46c1                	li	a3,16
    70fa:	0016a073          	csrs	fflags,a3
    70fe:	b7a1                	j	7046 <__fixdfdi+0x38>
    7100:	02000513          	li	a0,32
    7104:	00a70863          	beq	a4,a0,7114 <__fixdfdi+0x106>
    7108:	c0d78693          	addi	a3,a5,-1011
    710c:	00d596b3          	sll	a3,a1,a3
    7110:	0106e6b3          	or	a3,a3,a6
    7114:	41300513          	li	a0,1043
    7118:	8d1d                	sub	a0,a0,a5
    711a:	00a5d533          	srl	a0,a1,a0
    711e:	00d036b3          	snez	a3,a3
    7122:	4581                	li	a1,0
    7124:	b7c1                	j	70e4 <__fixdfdi+0xd6>
    7126:	46fd                	li	a3,31
    7128:	00185713          	srli	a4,a6,0x1
    712c:	8e9d                	sub	a3,a3,a5
    712e:	00d75733          	srl	a4,a4,a3
    7132:	00f595b3          	sll	a1,a1,a5
    7136:	8dd9                	or	a1,a1,a4
    7138:	00f81533          	sll	a0,a6,a5
    713c:	b7bd                	j	70aa <__fixdfdi+0x9c>

0000713e <__floatdidf>:
    713e:	1101                	addi	sp,sp,-32
    7140:	ce06                	sw	ra,28(sp)
    7142:	cc22                	sw	s0,24(sp)
    7144:	ca26                	sw	s1,20(sp)
    7146:	c84a                	sw	s2,16(sp)
    7148:	c64e                	sw	s3,12(sp)
    714a:	c452                	sw	s4,8(sp)
    714c:	c256                	sw	s5,4(sp)
    714e:	00202af3          	frrm	s5
    7152:	00b567b3          	or	a5,a0,a1
    7156:	c3a1                	beqz	a5,7196 <__floatdidf+0x58>
    7158:	89aa                	mv	s3,a0
    715a:	8a2e                	mv	s4,a1
    715c:	01f5d913          	srli	s2,a1,0x1f
    7160:	0605c163          	bltz	a1,71c2 <__floatdidf+0x84>
    7164:	842e                	mv	s0,a1
    7166:	84d2                	mv	s1,s4
    7168:	060a0a63          	beqz	s4,71dc <__floatdidf+0x9e>
    716c:	8552                	mv	a0,s4
    716e:	2bcd                	jal	7760 <__clzsi2>
    7170:	43e00693          	li	a3,1086
    7174:	8e89                	sub	a3,a3,a0
    7176:	43300793          	li	a5,1075
    717a:	08d7ce63          	blt	a5,a3,7216 <__floatdidf+0xd8>
    717e:	00ca1793          	slli	a5,s4,0xc
    7182:	462d                	li	a2,11
    7184:	874e                	mv	a4,s3
    7186:	7ff6f693          	andi	a3,a3,2047
    718a:	83b1                	srli	a5,a5,0xc
    718c:	00a65963          	bge	a2,a0,719e <__floatdidf+0x60>
    7190:	ff550613          	addi	a2,a0,-11
    7194:	a09d                	j	71fa <__floatdidf+0xbc>
    7196:	4901                	li	s2,0
    7198:	4681                	li	a3,0
    719a:	4781                	li	a5,0
    719c:	4701                	li	a4,0
    719e:	07b2                	slli	a5,a5,0xc
    71a0:	06d2                	slli	a3,a3,0x14
    71a2:	83b1                	srli	a5,a5,0xc
    71a4:	01f91613          	slli	a2,s2,0x1f
    71a8:	8fd5                	or	a5,a5,a3
    71aa:	8fd1                	or	a5,a5,a2
    71ac:	853a                	mv	a0,a4
    71ae:	85be                	mv	a1,a5
    71b0:	40f2                	lw	ra,28(sp)
    71b2:	4462                	lw	s0,24(sp)
    71b4:	44d2                	lw	s1,20(sp)
    71b6:	4942                	lw	s2,16(sp)
    71b8:	49b2                	lw	s3,12(sp)
    71ba:	4a22                	lw	s4,8(sp)
    71bc:	4a92                	lw	s5,4(sp)
    71be:	6105                	addi	sp,sp,32
    71c0:	8082                	ret
    71c2:	40a00533          	neg	a0,a0
    71c6:	00a03733          	snez	a4,a0
    71ca:	40b00a33          	neg	s4,a1
    71ce:	40ea0a33          	sub	s4,s4,a4
    71d2:	89aa                	mv	s3,a0
    71d4:	842e                	mv	s0,a1
    71d6:	84d2                	mv	s1,s4
    71d8:	f80a1ae3          	bnez	s4,716c <__floatdidf+0x2e>
    71dc:	854e                	mv	a0,s3
    71de:	2349                	jal	7760 <__clzsi2>
    71e0:	862a                	mv	a2,a0
    71e2:	43e00693          	li	a3,1086
    71e6:	02050513          	addi	a0,a0,32
    71ea:	8e89                	sub	a3,a3,a0
    71ec:	02a00793          	li	a5,42
    71f0:	7ff6f693          	andi	a3,a3,2047
    71f4:	0ca7c263          	blt	a5,a0,72b8 <__floatdidf+0x17a>
    71f8:	0655                	addi	a2,a2,21
    71fa:	02b00713          	li	a4,43
    71fe:	8f09                	sub	a4,a4,a0
    7200:	00ca17b3          	sll	a5,s4,a2
    7204:	00e9d733          	srl	a4,s3,a4
    7208:	8f5d                	or	a4,a4,a5
    720a:	00c71793          	slli	a5,a4,0xc
    720e:	83b1                	srli	a5,a5,0xc
    7210:	00c99733          	sll	a4,s3,a2
    7214:	b769                	j	719e <__floatdidf+0x60>
    7216:	43600793          	li	a5,1078
    721a:	02d7da63          	bge	a5,a3,724e <__floatdidf+0x110>
    721e:	44a1                	li	s1,8
    7220:	8c89                	sub	s1,s1,a0
    7222:	fe048613          	addi	a2,s1,-32
    7226:	0c064f63          	bltz	a2,7304 <__floatdidf+0x1c6>
    722a:	00ca5633          	srl	a2,s4,a2
    722e:	4481                	li	s1,0
    7230:	01850713          	addi	a4,a0,24
    7234:	03850793          	addi	a5,a0,56
    7238:	0a074963          	bltz	a4,72ea <__floatdidf+0x1ac>
    723c:	00e99a33          	sll	s4,s3,a4
    7240:	4981                	li	s3,0
    7242:	0149e9b3          	or	s3,s3,s4
    7246:	013039b3          	snez	s3,s3
    724a:	013669b3          	or	s3,a2,s3
    724e:	47a1                	li	a5,8
    7250:	04a7c763          	blt	a5,a0,729e <__floatdidf+0x160>
    7254:	ff800737          	lui	a4,0xff800
    7258:	177d                	addi	a4,a4,-1
    725a:	0079f793          	andi	a5,s3,7
    725e:	8cf9                	and	s1,s1,a4
    7260:	c7a5                	beqz	a5,72c8 <__floatdidf+0x18a>
    7262:	4789                	li	a5,2
    7264:	0afa8c63          	beq	s5,a5,731c <__floatdidf+0x1de>
    7268:	478d                	li	a5,3
    726a:	0efa8563          	beq	s5,a5,7354 <__floatdidf+0x216>
    726e:	0c0a8b63          	beqz	s5,7344 <__floatdidf+0x206>
    7272:	00949713          	slli	a4,s1,0x9
    7276:	7ff6f693          	andi	a3,a3,2047
    727a:	01469593          	slli	a1,a3,0x14
    727e:	00c75693          	srli	a3,a4,0xc
    7282:	8ecd                	or	a3,a3,a1
    7284:	0039d993          	srli	s3,s3,0x3
    7288:	01f91613          	slli	a2,s2,0x1f
    728c:	04f6                	slli	s1,s1,0x1d
    728e:	0134e4b3          	or	s1,s1,s3
    7292:	8e55                	or	a2,a2,a3
    7294:	8526                	mv	a0,s1
    7296:	85b2                	mv	a1,a2
    7298:	0010e073          	csrsi	fflags,1
    729c:	bf11                	j	71b0 <__floatdidf+0x72>
    729e:	02800793          	li	a5,40
    72a2:	ff850713          	addi	a4,a0,-8
    72a6:	8f89                	sub	a5,a5,a0
    72a8:	00f9d7b3          	srl	a5,s3,a5
    72ac:	00e494b3          	sll	s1,s1,a4
    72b0:	8cdd                	or	s1,s1,a5
    72b2:	00e999b3          	sll	s3,s3,a4
    72b6:	bf79                	j	7254 <__floatdidf+0x116>
    72b8:	ff560713          	addi	a4,a2,-11 # fffff5 <_data_lma+0xff7699>
    72bc:	00e997b3          	sll	a5,s3,a4
    72c0:	07b2                	slli	a5,a5,0xc
    72c2:	83b1                	srli	a5,a5,0xc
    72c4:	4701                	li	a4,0
    72c6:	bde1                	j	719e <__floatdidf+0x60>
    72c8:	00949713          	slli	a4,s1,0x9
    72cc:	7ff6f693          	andi	a3,a3,2047
    72d0:	06d2                	slli	a3,a3,0x14
    72d2:	8331                	srli	a4,a4,0xc
    72d4:	0039d513          	srli	a0,s3,0x3
    72d8:	04f6                	slli	s1,s1,0x1d
    72da:	01f91793          	slli	a5,s2,0x1f
    72de:	8ed9                	or	a3,a3,a4
    72e0:	8cc9                	or	s1,s1,a0
    72e2:	8fd5                	or	a5,a5,a3
    72e4:	8526                	mv	a0,s1
    72e6:	85be                	mv	a1,a5
    72e8:	b5e1                	j	71b0 <__floatdidf+0x72>
    72ea:	45fd                	li	a1,31
    72ec:	0019d713          	srli	a4,s3,0x1
    72f0:	8d9d                	sub	a1,a1,a5
    72f2:	00b75733          	srl	a4,a4,a1
    72f6:	00fa1a33          	sll	s4,s4,a5
    72fa:	01476a33          	or	s4,a4,s4
    72fe:	00f999b3          	sll	s3,s3,a5
    7302:	b781                	j	7242 <__floatdidf+0x104>
    7304:	477d                	li	a4,31
    7306:	8f05                	sub	a4,a4,s1
    7308:	001a1793          	slli	a5,s4,0x1
    730c:	0099d633          	srl	a2,s3,s1
    7310:	00e797b3          	sll	a5,a5,a4
    7314:	8e5d                	or	a2,a2,a5
    7316:	009a54b3          	srl	s1,s4,s1
    731a:	bf19                	j	7230 <__floatdidf+0xf2>
    731c:	f4045be3          	bgez	s0,7272 <__floatdidf+0x134>
    7320:	00898713          	addi	a4,s3,8
    7324:	013739b3          	sltu	s3,a4,s3
    7328:	94ce                	add	s1,s1,s3
    732a:	008007b7          	lui	a5,0x800
    732e:	8fe5                	and	a5,a5,s1
    7330:	89ba                	mv	s3,a4
    7332:	d3a1                	beqz	a5,7272 <__floatdidf+0x134>
    7334:	ff8007b7          	lui	a5,0xff800
    7338:	17fd                	addi	a5,a5,-1
    733a:	43f00693          	li	a3,1087
    733e:	8cfd                	and	s1,s1,a5
    7340:	8e89                	sub	a3,a3,a0
    7342:	bf05                	j	7272 <__floatdidf+0x134>
    7344:	00f9f793          	andi	a5,s3,15
    7348:	4711                	li	a4,4
    734a:	f2e784e3          	beq	a5,a4,7272 <__floatdidf+0x134>
    734e:	00498713          	addi	a4,s3,4
    7352:	bfc9                	j	7324 <__floatdidf+0x1e6>
    7354:	fc0456e3          	bgez	s0,7320 <__floatdidf+0x1e2>
    7358:	bf29                	j	7272 <__floatdidf+0x134>

0000735a <__extendsfdf2>:
    735a:	1141                	addi	sp,sp,-16
    735c:	c606                	sw	ra,12(sp)
    735e:	c422                	sw	s0,8(sp)
    7360:	c226                	sw	s1,4(sp)
    7362:	e00507d3          	fmv.x.w	a5,fa0
    7366:	00202773          	frrm	a4
    736a:	0177d513          	srli	a0,a5,0x17
    736e:	0ff57513          	andi	a0,a0,255
    7372:	00150713          	addi	a4,a0,1
    7376:	00979413          	slli	s0,a5,0x9
    737a:	0fe77713          	andi	a4,a4,254
    737e:	8025                	srli	s0,s0,0x9
    7380:	01f7d493          	srli	s1,a5,0x1f
    7384:	c31d                	beqz	a4,73aa <__extendsfdf2+0x50>
    7386:	00345793          	srli	a5,s0,0x3
    738a:	38050513          	addi	a0,a0,896
    738e:	0476                	slli	s0,s0,0x1d
    7390:	07b2                	slli	a5,a5,0xc
    7392:	0552                	slli	a0,a0,0x14
    7394:	83b1                	srli	a5,a5,0xc
    7396:	8fc9                	or	a5,a5,a0
    7398:	04fe                	slli	s1,s1,0x1f
    739a:	8fc5                	or	a5,a5,s1
    739c:	8522                	mv	a0,s0
    739e:	85be                	mv	a1,a5
    73a0:	40b2                	lw	ra,12(sp)
    73a2:	4422                	lw	s0,8(sp)
    73a4:	4492                	lw	s1,4(sp)
    73a6:	0141                	addi	sp,sp,16
    73a8:	8082                	ret
    73aa:	e90d                	bnez	a0,73dc <__extendsfdf2+0x82>
    73ac:	c435                	beqz	s0,7418 <__extendsfdf2+0xbe>
    73ae:	8522                	mv	a0,s0
    73b0:	2e45                	jal	7760 <__clzsi2>
    73b2:	47a9                	li	a5,10
    73b4:	08a7c163          	blt	a5,a0,7436 <__extendsfdf2+0xdc>
    73b8:	472d                	li	a4,11
    73ba:	8f09                	sub	a4,a4,a0
    73bc:	01550793          	addi	a5,a0,21
    73c0:	00e45733          	srl	a4,s0,a4
    73c4:	00f41433          	sll	s0,s0,a5
    73c8:	00c71793          	slli	a5,a4,0xc
    73cc:	38900713          	li	a4,905
    73d0:	40a70533          	sub	a0,a4,a0
    73d4:	83b1                	srli	a5,a5,0xc
    73d6:	7ff57513          	andi	a0,a0,2047
    73da:	bf5d                	j	7390 <__extendsfdf2+0x36>
    73dc:	c815                	beqz	s0,7410 <__extendsfdf2+0xb6>
    73de:	00080737          	lui	a4,0x80
    73e2:	00345793          	srli	a5,s0,0x3
    73e6:	8fd9                	or	a5,a5,a4
    73e8:	00100737          	lui	a4,0x100
    73ec:	177d                	addi	a4,a4,-1
    73ee:	00941613          	slli	a2,s0,0x9
    73f2:	01d41693          	slli	a3,s0,0x1d
    73f6:	8ff9                	and	a5,a5,a4
    73f8:	02065363          	bgez	a2,741e <__extendsfdf2+0xc4>
    73fc:	8f7d                	and	a4,a4,a5
    73fe:	01f49793          	slli	a5,s1,0x1f
    7402:	7ff004b7          	lui	s1,0x7ff00
    7406:	8cd9                	or	s1,s1,a4
    7408:	8fc5                	or	a5,a5,s1
    740a:	8536                	mv	a0,a3
    740c:	85be                	mv	a1,a5
    740e:	bf49                	j	73a0 <__extendsfdf2+0x46>
    7410:	7ff00513          	li	a0,2047
    7414:	4781                	li	a5,0
    7416:	bfad                	j	7390 <__extendsfdf2+0x36>
    7418:	4501                	li	a0,0
    741a:	4781                	li	a5,0
    741c:	bf95                	j	7390 <__extendsfdf2+0x36>
    741e:	8f7d                	and	a4,a4,a5
    7420:	01f49793          	slli	a5,s1,0x1f
    7424:	7ff004b7          	lui	s1,0x7ff00
    7428:	8f45                	or	a4,a4,s1
    742a:	8fd9                	or	a5,a5,a4
    742c:	8536                	mv	a0,a3
    742e:	85be                	mv	a1,a5
    7430:	00186073          	csrsi	fflags,16
    7434:	b7b5                	j	73a0 <__extendsfdf2+0x46>
    7436:	ff550713          	addi	a4,a0,-11
    743a:	00e41733          	sll	a4,s0,a4
    743e:	4401                	li	s0,0
    7440:	b761                	j	73c8 <__extendsfdf2+0x6e>

00007442 <__truncdfsf2>:
    7442:	002028f3          	frrm	a7
    7446:	0145d693          	srli	a3,a1,0x14
    744a:	00c59713          	slli	a4,a1,0xc
    744e:	7ff6f693          	andi	a3,a3,2047
    7452:	8331                	srli	a4,a4,0xc
    7454:	00168813          	addi	a6,a3,1
    7458:	070e                	slli	a4,a4,0x3
    745a:	01d55613          	srli	a2,a0,0x1d
    745e:	7fe87813          	andi	a6,a6,2046
    7462:	81fd                	srli	a1,a1,0x1f
    7464:	8f51                	or	a4,a4,a2
    7466:	00351793          	slli	a5,a0,0x3
    746a:	0a080b63          	beqz	a6,7520 <__truncdfsf2+0xde>
    746e:	c8068613          	addi	a2,a3,-896
    7472:	0fe00813          	li	a6,254
    7476:	02c85f63          	bge	a6,a2,74b4 <__truncdfsf2+0x72>
    747a:	12088f63          	beqz	a7,75b8 <__truncdfsf2+0x176>
    747e:	478d                	li	a5,3
    7480:	26f88063          	beq	a7,a5,76e0 <__truncdfsf2+0x29e>
    7484:	4789                	li	a5,2
    7486:	26f88763          	beq	a7,a5,76f4 <__truncdfsf2+0x2b2>
    748a:	26089663          	bnez	a7,76f6 <__truncdfsf2+0x2b4>
    748e:	0fe00613          	li	a2,254
    7492:	470d                	li	a4,3
    7494:	4515                	li	a0,5
    7496:	071a                	slli	a4,a4,0x6
    7498:	8325                	srli	a4,a4,0x9
    749a:	0ff67613          	andi	a2,a2,255
    749e:	00971793          	slli	a5,a4,0x9
    74a2:	065e                	slli	a2,a2,0x17
    74a4:	83a5                	srli	a5,a5,0x9
    74a6:	05fe                	slli	a1,a1,0x1f
    74a8:	8fd1                	or	a5,a5,a2
    74aa:	8fcd                	or	a5,a5,a1
    74ac:	e53d                	bnez	a0,751a <__truncdfsf2+0xd8>
    74ae:	f0078553          	fmv.w.x	fa0,a5
    74b2:	8082                	ret
    74b4:	10c05a63          	blez	a2,75c8 <__truncdfsf2+0x186>
    74b8:	051a                	slli	a0,a0,0x6
    74ba:	00a03533          	snez	a0,a0
    74be:	070e                	slli	a4,a4,0x3
    74c0:	83f5                	srli	a5,a5,0x1d
    74c2:	8f49                	or	a4,a4,a0
    74c4:	8f5d                	or	a4,a4,a5
    74c6:	00777793          	andi	a5,a4,7
    74ca:	4501                	li	a0,0
    74cc:	d7e9                	beqz	a5,7496 <__truncdfsf2+0x54>
    74ce:	4789                	li	a5,2
    74d0:	1ef88e63          	beq	a7,a5,76cc <__truncdfsf2+0x28a>
    74d4:	478d                	li	a5,3
    74d6:	16f88863          	beq	a7,a5,7646 <__truncdfsf2+0x204>
    74da:	4781                	li	a5,0
    74dc:	4505                	li	a0,1
    74de:	fa089ce3          	bnez	a7,7496 <__truncdfsf2+0x54>
    74e2:	00f77693          	andi	a3,a4,15
    74e6:	4811                	li	a6,4
    74e8:	4505                	li	a0,1
    74ea:	01068463          	beq	a3,a6,74f2 <__truncdfsf2+0xb0>
    74ee:	0711                	addi	a4,a4,4
    74f0:	4505                	li	a0,1
    74f2:	c399                	beqz	a5,74f8 <__truncdfsf2+0xb6>
    74f4:	00256513          	ori	a0,a0,2
    74f8:	00571793          	slli	a5,a4,0x5
    74fc:	f807dde3          	bgez	a5,7496 <__truncdfsf2+0x54>
    7500:	0605                	addi	a2,a2,1
    7502:	0ff00793          	li	a5,255
    7506:	f8f618e3          	bne	a2,a5,7496 <__truncdfsf2+0x54>
    750a:	00556513          	ori	a0,a0,5
    750e:	10089c63          	bnez	a7,7626 <__truncdfsf2+0x1e4>
    7512:	05fe                	slli	a1,a1,0x1f
    7514:	7f8007b7          	lui	a5,0x7f800
    7518:	8fcd                	or	a5,a5,a1
    751a:	00152073          	csrs	fflags,a0
    751e:	bf41                	j	74ae <__truncdfsf2+0x6c>
    7520:	00f76633          	or	a2,a4,a5
    7524:	eaa9                	bnez	a3,7576 <__truncdfsf2+0x134>
    7526:	01f59793          	slli	a5,a1,0x1f
    752a:	d251                	beqz	a2,74ae <__truncdfsf2+0x6c>
    752c:	4789                	li	a5,2
    752e:	16f88d63          	beq	a7,a5,76a8 <__truncdfsf2+0x266>
    7532:	478d                	li	a5,3
    7534:	14f88563          	beq	a7,a5,767e <__truncdfsf2+0x23c>
    7538:	4705                	li	a4,1
    753a:	4789                	li	a5,2
    753c:	4685                	li	a3,1
    753e:	1e088963          	beqz	a7,7730 <__truncdfsf2+0x2ee>
    7542:	83ed                	srli	a5,a5,0x1b
    7544:	0017c793          	xori	a5,a5,1
    7548:	8b85                	andi	a5,a5,1
    754a:	4505                	li	a0,1
    754c:	20068163          	beqz	a3,774e <__truncdfsf2+0x30c>
    7550:	4689                	li	a3,2
    7552:	18d88563          	beq	a7,a3,76dc <__truncdfsf2+0x29a>
    7556:	468d                	li	a3,3
    7558:	16d88863          	beq	a7,a3,76c8 <__truncdfsf2+0x286>
    755c:	4601                	li	a2,0
    755e:	f80882e3          	beqz	a7,74e2 <__truncdfsf2+0xa0>
    7562:	4505                	li	a0,1
    7564:	10079a63          	bnez	a5,7678 <__truncdfsf2+0x236>
    7568:	00571793          	slli	a5,a4,0x5
    756c:	4605                	li	a2,1
    756e:	f207c4e3          	bltz	a5,7496 <__truncdfsf2+0x54>
    7572:	4601                	li	a2,0
    7574:	b70d                	j	7496 <__truncdfsf2+0x54>
    7576:	ca15                	beqz	a2,75aa <__truncdfsf2+0x168>
    7578:	7ff00793          	li	a5,2047
    757c:	4501                	li	a0,0
    757e:	00f69863          	bne	a3,a5,758e <__truncdfsf2+0x14c>
    7582:	00400637          	lui	a2,0x400
    7586:	8f71                	and	a4,a4,a2
    7588:	00173513          	seqz	a0,a4
    758c:	0512                	slli	a0,a0,0x4
    758e:	00400737          	lui	a4,0x400
    7592:	0ff00613          	li	a2,255
    7596:	00971793          	slli	a5,a4,0x9
    759a:	4581                	li	a1,0
    759c:	065e                	slli	a2,a2,0x17
    759e:	83a5                	srli	a5,a5,0x9
    75a0:	05fe                	slli	a1,a1,0x1f
    75a2:	8fd1                	or	a5,a5,a2
    75a4:	8fcd                	or	a5,a5,a1
    75a6:	d501                	beqz	a0,74ae <__truncdfsf2+0x6c>
    75a8:	bf8d                	j	751a <__truncdfsf2+0xd8>
    75aa:	05fe                	slli	a1,a1,0x1f
    75ac:	7f8007b7          	lui	a5,0x7f800
    75b0:	8fcd                	or	a5,a5,a1
    75b2:	f0078553          	fmv.w.x	fa0,a5
    75b6:	8082                	ret
    75b8:	05fe                	slli	a1,a1,0x1f
    75ba:	7f8007b7          	lui	a5,0x7f800
    75be:	8fcd                	or	a5,a5,a1
    75c0:	4515                	li	a0,5
    75c2:	00152073          	csrs	fflags,a0
    75c6:	b5e5                	j	74ae <__truncdfsf2+0x6c>
    75c8:	5525                	li	a0,-23
    75ca:	08a64763          	blt	a2,a0,7658 <__truncdfsf2+0x216>
    75ce:	4579                	li	a0,30
    75d0:	00800337          	lui	t1,0x800
    75d4:	8d11                	sub	a0,a0,a2
    75d6:	487d                	li	a6,31
    75d8:	00676733          	or	a4,a4,t1
    75dc:	0aa85863          	bge	a6,a0,768c <__truncdfsf2+0x24a>
    75e0:	5879                	li	a6,-2
    75e2:	40c80633          	sub	a2,a6,a2
    75e6:	02000813          	li	a6,32
    75ea:	00c75633          	srl	a2,a4,a2
    75ee:	01050763          	beq	a0,a6,75fc <__truncdfsf2+0x1ba>
    75f2:	ca268693          	addi	a3,a3,-862
    75f6:	00d716b3          	sll	a3,a4,a3
    75fa:	8fd5                	or	a5,a5,a3
    75fc:	00f03733          	snez	a4,a5
    7600:	8f51                	or	a4,a4,a2
    7602:	01f59793          	slli	a5,a1,0x1f
    7606:	ea0704e3          	beqz	a4,74ae <__truncdfsf2+0x6c>
    760a:	00171793          	slli	a5,a4,0x1
    760e:	0077f613          	andi	a2,a5,7
    7612:	00777693          	andi	a3,a4,7
    7616:	10061063          	bnez	a2,7716 <__truncdfsf2+0x2d4>
    761a:	83ed                	srli	a5,a5,0x1b
    761c:	0017c793          	xori	a5,a5,1
    7620:	8b85                	andi	a5,a5,1
    7622:	4501                	li	a0,0
    7624:	b725                	j	754c <__truncdfsf2+0x10a>
    7626:	478d                	li	a5,3
    7628:	0cf88363          	beq	a7,a5,76ee <__truncdfsf2+0x2ac>
    762c:	4789                	li	a5,2
    762e:	08f88463          	beq	a7,a5,76b6 <__truncdfsf2+0x274>
    7632:	ff000737          	lui	a4,0xff000
    7636:	1779                	addi	a4,a4,-2
    7638:	05fe                	slli	a1,a1,0x1f
    763a:	8305                	srli	a4,a4,0x1
    763c:	00b767b3          	or	a5,a4,a1
    7640:	00152073          	csrs	fflags,a0
    7644:	b5ad                	j	74ae <__truncdfsf2+0x6c>
    7646:	4781                	li	a5,0
    7648:	852e                	mv	a0,a1
    764a:	ea0594e3          	bnez	a1,74f2 <__truncdfsf2+0xb0>
    764e:	0721                	addi	a4,a4,8
    7650:	4505                	li	a0,1
    7652:	ea0791e3          	bnez	a5,74f4 <__truncdfsf2+0xb2>
    7656:	b54d                	j	74f8 <__truncdfsf2+0xb6>
    7658:	4709                	li	a4,2
    765a:	04e88763          	beq	a7,a4,76a8 <__truncdfsf2+0x266>
    765e:	478d                	li	a5,3
    7660:	00f88f63          	beq	a7,a5,767e <__truncdfsf2+0x23c>
    7664:	04088c63          	beqz	a7,76bc <__truncdfsf2+0x27a>
    7668:	0ce88f63          	beq	a7,a4,7746 <__truncdfsf2+0x304>
    766c:	0cf88963          	beq	a7,a5,773e <__truncdfsf2+0x2fc>
    7670:	4785                	li	a5,1
    7672:	4705                	li	a4,1
    7674:	04088863          	beqz	a7,76c4 <__truncdfsf2+0x282>
    7678:	853e                	mv	a0,a5
    767a:	4601                	li	a2,0
    767c:	bda5                	j	74f4 <__truncdfsf2+0xb2>
    767e:	4685                	li	a3,1
    7680:	4705                	li	a4,1
    7682:	4789                	li	a5,2
    7684:	ea059fe3          	bnez	a1,7542 <__truncdfsf2+0x100>
    7688:	07a1                	addi	a5,a5,8
    768a:	bd65                	j	7542 <__truncdfsf2+0x100>
    768c:	c8268693          	addi	a3,a3,-894
    7690:	00d79633          	sll	a2,a5,a3
    7694:	00c03633          	snez	a2,a2
    7698:	00d716b3          	sll	a3,a4,a3
    769c:	00a7d7b3          	srl	a5,a5,a0
    76a0:	00d66733          	or	a4,a2,a3
    76a4:	8f5d                	or	a4,a4,a5
    76a6:	bfb1                	j	7602 <__truncdfsf2+0x1c0>
    76a8:	4685                	li	a3,1
    76aa:	4705                	li	a4,1
    76ac:	4789                	li	a5,2
    76ae:	e8058ae3          	beqz	a1,7542 <__truncdfsf2+0x100>
    76b2:	07a1                	addi	a5,a5,8
    76b4:	b579                	j	7542 <__truncdfsf2+0x100>
    76b6:	ddb5                	beqz	a1,7632 <__truncdfsf2+0x1f0>
    76b8:	4585                	li	a1,1
    76ba:	bda1                	j	7512 <__truncdfsf2+0xd0>
    76bc:	4705                	li	a4,1
    76be:	4601                	li	a2,0
    76c0:	4785                	li	a5,1
    76c2:	b505                	j	74e2 <__truncdfsf2+0xa0>
    76c4:	4601                	li	a2,0
    76c6:	b525                	j	74ee <__truncdfsf2+0xac>
    76c8:	4601                	li	a2,0
    76ca:	bfbd                	j	7648 <__truncdfsf2+0x206>
    76cc:	4781                	li	a5,0
    76ce:	4505                	li	a0,1
    76d0:	e20581e3          	beqz	a1,74f2 <__truncdfsf2+0xb0>
    76d4:	0721                	addi	a4,a4,8
    76d6:	e0079fe3          	bnez	a5,74f4 <__truncdfsf2+0xb2>
    76da:	bd39                	j	74f8 <__truncdfsf2+0xb6>
    76dc:	4601                	li	a2,0
    76de:	bfc5                	j	76ce <__truncdfsf2+0x28c>
    76e0:	e185                	bnez	a1,7700 <__truncdfsf2+0x2be>
    76e2:	7f8007b7          	lui	a5,0x7f800
    76e6:	4515                	li	a0,5
    76e8:	00152073          	csrs	fflags,a0
    76ec:	b3c9                	j	74ae <__truncdfsf2+0x6c>
    76ee:	e20582e3          	beqz	a1,7512 <__truncdfsf2+0xd0>
    76f2:	b781                	j	7632 <__truncdfsf2+0x1f0>
    76f4:	e999                	bnez	a1,770a <__truncdfsf2+0x2c8>
    76f6:	577d                	li	a4,-1
    76f8:	0fe00613          	li	a2,254
    76fc:	4515                	li	a0,5
    76fe:	b509                	j	7500 <__truncdfsf2+0xbe>
    7700:	0fe00613          	li	a2,254
    7704:	577d                	li	a4,-1
    7706:	4515                	li	a0,5
    7708:	bbc5                	j	74f8 <__truncdfsf2+0xb6>
    770a:	ff8007b7          	lui	a5,0xff800
    770e:	4515                	li	a0,5
    7710:	00152073          	csrs	fflags,a0
    7714:	bb69                	j	74ae <__truncdfsf2+0x6c>
    7716:	4609                	li	a2,2
    7718:	f8c88be3          	beq	a7,a2,76ae <__truncdfsf2+0x26c>
    771c:	460d                	li	a2,3
    771e:	f6c883e3          	beq	a7,a2,7684 <__truncdfsf2+0x242>
    7722:	e20890e3          	bnez	a7,7542 <__truncdfsf2+0x100>
    7726:	00f7f613          	andi	a2,a5,15
    772a:	4511                	li	a0,4
    772c:	e0a60be3          	beq	a2,a0,7542 <__truncdfsf2+0x100>
    7730:	0791                	addi	a5,a5,4
    7732:	83ed                	srli	a5,a5,0x1b
    7734:	0017c793          	xori	a5,a5,1
    7738:	8b85                	andi	a5,a5,1
    773a:	4505                	li	a0,1
    773c:	bd01                	j	754c <__truncdfsf2+0x10a>
    773e:	4705                	li	a4,1
    7740:	4601                	li	a2,0
    7742:	4785                	li	a5,1
    7744:	b711                	j	7648 <__truncdfsf2+0x206>
    7746:	4705                	li	a4,1
    7748:	4601                	li	a2,0
    774a:	4785                	li	a5,1
    774c:	b749                	j	76ce <__truncdfsf2+0x28c>
    774e:	e0078de3          	beqz	a5,7568 <__truncdfsf2+0x126>
    7752:	f505                	bnez	a0,767a <__truncdfsf2+0x238>
    7754:	00571793          	slli	a5,a4,0x5
    7758:	4605                	li	a2,1
    775a:	d207cee3          	bltz	a5,7496 <__truncdfsf2+0x54>
    775e:	bd11                	j	7572 <__truncdfsf2+0x130>

00007760 <__clzsi2>:
    7760:	67c1                	lui	a5,0x10
    7762:	02f57e63          	bgeu	a0,a5,779e <__clzsi2+0x3e>
    7766:	0ff00793          	li	a5,255
    776a:	02000713          	li	a4,32
    776e:	00a7ec63          	bltu	a5,a0,7786 <__clzsi2+0x26>
    7772:	00001797          	auipc	a5,0x1
    7776:	0ea78793          	addi	a5,a5,234 # 885c <__clz_tab>
    777a:	97aa                	add	a5,a5,a0
    777c:	0007c503          	lbu	a0,0(a5)
    7780:	40a70533          	sub	a0,a4,a0
    7784:	8082                	ret
    7786:	8121                	srli	a0,a0,0x8
    7788:	00001797          	auipc	a5,0x1
    778c:	0d478793          	addi	a5,a5,212 # 885c <__clz_tab>
    7790:	97aa                	add	a5,a5,a0
    7792:	0007c503          	lbu	a0,0(a5)
    7796:	4761                	li	a4,24
    7798:	40a70533          	sub	a0,a4,a0
    779c:	8082                	ret
    779e:	010007b7          	lui	a5,0x1000
    77a2:	00f56e63          	bltu	a0,a5,77be <__clzsi2+0x5e>
    77a6:	8161                	srli	a0,a0,0x18
    77a8:	00001797          	auipc	a5,0x1
    77ac:	0b478793          	addi	a5,a5,180 # 885c <__clz_tab>
    77b0:	97aa                	add	a5,a5,a0
    77b2:	0007c503          	lbu	a0,0(a5)
    77b6:	4721                	li	a4,8
    77b8:	40a70533          	sub	a0,a4,a0
    77bc:	8082                	ret
    77be:	8141                	srli	a0,a0,0x10
    77c0:	00001797          	auipc	a5,0x1
    77c4:	09c78793          	addi	a5,a5,156 # 885c <__clz_tab>
    77c8:	97aa                	add	a5,a5,a0
    77ca:	0007c503          	lbu	a0,0(a5)
    77ce:	4741                	li	a4,16
    77d0:	40a70533          	sub	a0,a4,a0
    77d4:	8082                	ret

000077d6 <__errno>:
    77d6:	80c18793          	addi	a5,gp,-2036 # 200000b4 <_impure_ptr>
    77da:	4388                	lw	a0,0(a5)
    77dc:	8082                	ret

000077de <memcmp>:
    77de:	4701                	li	a4,0
    77e0:	00e61463          	bne	a2,a4,77e8 <memcmp+0xa>
    77e4:	4501                	li	a0,0
    77e6:	8082                	ret
    77e8:	00e507b3          	add	a5,a0,a4
    77ec:	0705                	addi	a4,a4,1
    77ee:	00e586b3          	add	a3,a1,a4
    77f2:	0007c783          	lbu	a5,0(a5)
    77f6:	fff6c683          	lbu	a3,-1(a3)
    77fa:	fed783e3          	beq	a5,a3,77e0 <memcmp+0x2>
    77fe:	40d78533          	sub	a0,a5,a3
    7802:	8082                	ret

00007804 <memcpy>:
    7804:	00a5c7b3          	xor	a5,a1,a0
    7808:	8b8d                	andi	a5,a5,3
    780a:	00c50733          	add	a4,a0,a2
    780e:	e781                	bnez	a5,7816 <memcpy+0x12>
    7810:	478d                	li	a5,3
    7812:	00c7ee63          	bltu	a5,a2,782e <memcpy+0x2a>
    7816:	87aa                	mv	a5,a0
    7818:	0ae57063          	bgeu	a0,a4,78b8 <memcpy+0xb4>
    781c:	0005c683          	lbu	a3,0(a1) # 80000000 <_eusrstack+0x5fff8000>
    7820:	0785                	addi	a5,a5,1
    7822:	0585                	addi	a1,a1,1
    7824:	fed78fa3          	sb	a3,-1(a5)
    7828:	fee7eae3          	bltu	a5,a4,781c <memcpy+0x18>
    782c:	8082                	ret
    782e:	00357693          	andi	a3,a0,3
    7832:	87aa                	mv	a5,a0
    7834:	ca91                	beqz	a3,7848 <memcpy+0x44>
    7836:	0005c683          	lbu	a3,0(a1)
    783a:	0785                	addi	a5,a5,1
    783c:	0585                	addi	a1,a1,1
    783e:	fed78fa3          	sb	a3,-1(a5)
    7842:	0037f693          	andi	a3,a5,3
    7846:	b7fd                	j	7834 <memcpy+0x30>
    7848:	ffc77693          	andi	a3,a4,-4
    784c:	fe068613          	addi	a2,a3,-32
    7850:	06c7f063          	bgeu	a5,a2,78b0 <memcpy+0xac>
    7854:	0005a383          	lw	t2,0(a1)
    7858:	0045a283          	lw	t0,4(a1)
    785c:	0085af83          	lw	t6,8(a1)
    7860:	00c5af03          	lw	t5,12(a1)
    7864:	0105ae83          	lw	t4,16(a1)
    7868:	0145ae03          	lw	t3,20(a1)
    786c:	0185a303          	lw	t1,24(a1)
    7870:	01c5a883          	lw	a7,28(a1)
    7874:	02458593          	addi	a1,a1,36
    7878:	0077a023          	sw	t2,0(a5)
    787c:	ffc5a803          	lw	a6,-4(a1)
    7880:	0057a223          	sw	t0,4(a5)
    7884:	01f7a423          	sw	t6,8(a5)
    7888:	01e7a623          	sw	t5,12(a5)
    788c:	01d7a823          	sw	t4,16(a5)
    7890:	01c7aa23          	sw	t3,20(a5)
    7894:	0067ac23          	sw	t1,24(a5)
    7898:	0117ae23          	sw	a7,28(a5)
    789c:	02478793          	addi	a5,a5,36
    78a0:	ff07ae23          	sw	a6,-4(a5)
    78a4:	b775                	j	7850 <memcpy+0x4c>
    78a6:	4190                	lw	a2,0(a1)
    78a8:	0791                	addi	a5,a5,4
    78aa:	0591                	addi	a1,a1,4
    78ac:	fec7ae23          	sw	a2,-4(a5)
    78b0:	fed7ebe3          	bltu	a5,a3,78a6 <memcpy+0xa2>
    78b4:	f6e7e4e3          	bltu	a5,a4,781c <memcpy+0x18>
    78b8:	8082                	ret
    78ba:	0000                	unimp
    78bc:	f2fe                	fsw	ft11,100(sp)
    78be:	f1aac4ab          	0xf1aac4ab
    78c2:	dfdf afbb dfdf      	0xdfdfafbbdfdf
    78c8:	aab8                	fsd	fa4,80(a3)
    78ca:	aaaa                	fsd	fa0,336(sp)
    78cc:	88b0                	0x88b0
    78ce:	00c7c5c3          	fmadd.s	fa1,fa5,fa2,ft0,rmm
    78d2:	0000                	unimp
    78d4:	b1d8                	fsd	fa4,160(a1)
    78d6:	f3b9                	bnez	a5,781c <memcpy+0x18>
    78d8:	b691a38b          	0xb691a38b
    78dc:	b409                	j	72de <__floatdidf+0x1a0>
    78de:	00d9                	addi	ra,ra,22
    78e0:	b1da                	fsd	fs6,224(sp)
    78e2:	f3b9                	bnez	a5,7828 <memcpy+0x24>
    78e4:	b691a38b          	0xb691a38b
    78e8:	b4da                	fsd	fs6,104(sp)
    78ea:	00da                	slli	ra,ra,0x16
    78ec:	74737953          	0x74737953
    78f0:	6d65                	lui	s10,0x19
    78f2:	3a6b6c43          	fmadd.d	fs8,fs6,ft6,ft7,unknown
    78f6:	6425                	lui	s0,0x9
    78f8:	0a0d                	addi	s4,s4,3
    78fa:	0000                	unimp
    78fc:	6854                	flw	fa3,20(s0)
    78fe:	7369                	lui	t1,0xffffa
    7900:	6920                	flw	fs0,80(a0)
    7902:	72702073          	csrr	zero,0x727
    7906:	6e69                	lui	t3,0x1a
    7908:	6674                	flw	fa3,76(a2)
    790a:	6520                	flw	fs0,72(a0)
    790c:	6178                	flw	fa4,68(a0)
    790e:	706d                	c.lui	zero,0xffffb
    7910:	656c                	flw	fa1,76(a0)
    7912:	000d                	c.nop	3
    7914:	129a                	slli	t0,t0,0x26
    7916:	0000                	unimp
    7918:	12a6                	slli	t0,t0,0x29
    791a:	0000                	unimp
    791c:	12ac                	addi	a1,sp,360
    791e:	0000                	unimp
    7920:	12b2                	slli	t0,t0,0x2c
    7922:	0000                	unimp
    7924:	12b6                	slli	t0,t0,0x2d
    7926:	0000                	unimp
    7928:	12ba                	slli	t0,t0,0x2e
	...

0000792c <hw>:
    792c:	00d0 0400 0076 0154 fdf7 0100 0000 3080     ....v.T........0
    793c:	0000 c000 3333 4265 706d 2075 6d64 2070     ....33eBmpu dmp 
    794c:	6e69 7469 4f20 214b 000d 0000 0000 4303     init OK!.......C
    795c:	0000 4283 3333 4203 3333 4183 6e55 7573     ...B33.B33.AUnsu
    796c:	7070 726f 6574 2064 6f73 7466 6177 6572     pported software
    797c:	7020 6f72 7564 7463 7220 7665 2520 2e64      product rev %d.
    798c:	000a 0000 7250 646f 6375 2074 4449 7220     ....Product ID r
    799c:	6165 2064 7361 3020 6920 646e 6369 7461     ead as 0 indicat
    79ac:	7365 6420 7665 6369 2065 7369 6520 7469     es device is eit
    79bc:	6568 2072 6e69 6f63 706d 7461 6269 656c     her incompatible
    79cc:	6f20 2072 6e61 4d20 5550 3033 3035 002e      or an MPU3050..
    79dc:	6148 666c 7320 6e65 6973 6974 6976 7974     Half sensitivity
    79ec:	7020 7261 2074 6f66 6e75 2e64 0000 0000      part found.....
    79fc:	0000 41c8 147b 3eae 5a1d 3f84 0000 3780     ...A{..>.Z.?...7
    7a0c:	0000 3f80 51ec 3e38 999a 3e99 3333 3f73     ...?.Q8>...>33s?
    7a1c:	e354 3f85 5c29 3e0f 0000 4120 0000 42d2     T..?)\.>.. A...B

00007a2c <reg>:
    7a2c:	1975 0c1a 236a 1c1b 201f 7472 3b43 3841     u...j#... rtC;A8
    7a3c:	3a39 6c6b 6f37 2406 6e6d 0070               9:kl7o.$mnp.

00007a48 <test>:
    7a48:	0083 0000 0800 0000 0100 1800 0032 0005     ............2...
    7a58:	0000 4120 0000 42d2 5c29 3e0f 999a 3e99     .. A...B)\.>...>
    7a68:	3333 3f73 51ec 3e38                         33s?.Q8>

00007a70 <dmp_memory>:
    7a70:	0000 0070 0000 2400 0000 0200 0300 0000     ..p....$........
    7a80:	6500 5400 efff 0000 80fa 0b00 8212 0100     .e.T............
    7a90:	0c03 c330 8c0e e98c d514 0240 7113 8e0f     ..0.......@..q..
    7aa0:	8338 83f8 0030 83f8 8e25 83f8 0030 83f8     8...0...%...0...
    7ab0:	ffff ffff fe0f d6a9 0024 0004 821a a179     ........$.....y.
    7ac0:	0000 3c00 ffff 0000 1000 0000 8338 a26f     ...<........8.o.
    7ad0:	3e00 3003 0040 0000 ca02 09e3 803e 0000     .>.0@.......>...
    7ae0:	0020 0000 0000 0000 0040 0000 0060 0000      .......@...`...
    7af0:	0c00 0000 0c00 6e18 0000 9206 160a dfc0     .......n........
    7b00:	ffff 5602 8cfd 77d3 e1ff 96c4 c5e0 aabe     ...V...w........
    7b10:	0000 0000 ffff 2b0b 0000 5716 0000 5903     .......+...W...Y
    7b20:	0040 0000 0000 fa1d 0200 1d6c 0000 0000     @.........l.....
    7b30:	ff3f ebdf 3e00 b6b3 0d00 7822 0000 3c2f     ?....>...."x../<
    7b40:	0000 0000 1900 b542 0000 a239 0000 65b3     ......B...9....e
    7b50:	0ed9 c99f cf1d 344c 0030 0000 0050 0000     ......L40...P...
    7b60:	b63b e87a 6400 0000 c800 0000 0000 0000     ;.z..d..........
    7b70:	0010 0000 0010 92fa 0010 5e22 0d00 9f22     .........."^..".
    7b80:	0100 0000 3200 0000 46ff 0000 d463 0000     .....2...F..c...
    7b90:	0010 0000 d604 0000 cc04 0000 cc04 0000     ................
    7ba0:	0000 7210 0000 4000 0000 0000 0000 0000     ...r...@........
    7bb0:	0600 0200 0500 0700 0000 0000 6400 0000     .............d..
    7bc0:	0000 0000 0000 0500 0500 6400 2000 0000     ...........d. ..
	...
    7bd8:	0000 0040 0000 0003 0000 3200 98f8 0000     ..@........2....
    7be8:	65ff 0000 0f83 0000 9bff 00fc 0000 0000     .e..............
	...
    7c1c:	0000 0010 0040 0000 0000 0600 0000 6ab2     ....@..........j
    7c2c:	0200 0000 0100 83fb 6800 0000 d900 00fc     .........h......
    7c3c:	f17c 83ff 0000 0000 6500 0000 6400 e803     |........e...d..
    7c4c:	6400 2800 0000 2500 0000 0000 a016 0000     .d.(...%........
    7c5c:	0000 0010 0000 0010 2f00 0000 0000 f401     ........./......
    7c6c:	0000 0010 2800 0000 ffff 8145 ffff 72fa     .....(....E....r
	...
    7c84:	4400 0500 0500 c6ba 4700 a278 0000 0100     .D.......Gx.....
    7c94:	0000 0000 0000 0006 0000 1400 0000 4d25     ..............%M
    7ca4:	2f00 6d70 0000 ae05 0c00 d002 0000 0000     ./pm............
	...
    7cc0:	1b00 0000 0000 0000 0000 0000 0000 0000     ................
    7cd0:	6400 0000 0800 0000 0000 0000 0000 0000     .d..............
	...
    7d30:	1b00 0000 0000 0000 0000 0000 0e00 0e00     ................
    7d40:	0000 c70a 0400 0000 0000 3200 ffff 9cff     ...........2....
    7d50:	0000 2b0b 0000 0200 0000 0100 0000 6400     ...+...........d
    7d60:	e5ff 0000 0000 0000 0000 0000 0000 0000     ................
    7d70:	0000 0100 0000 0000 0100 0000 0000 0000     ................
    7d80:	0100 0080 0100 0080 0100 0080 2400 d326     .............$&.
	...
    7d98:	0600 1000 9600 3c00 0000 0000 0000 0000     .......<........
	...
    7db0:	0a0c 684e cfcd 0977 1650 5967 19c6 82ce     ..Nh..w.P.gY....
	...
    7dd8:	d717 0084 0003 0000 0000 0000 0000 0000     ................
    7de8:	93c7 9d8f 1b1e 191c 0000 0000 0000 0000     ................
	...
    7e08:	0302 8518 0000 0040 0000 0300 0000 0300     ......@.........
	...
    7e20:	0040 0000 0000 0000 0000 0000 0000 0000     @...............
	...
    7e54:	7d67 7edf 9072 552e f64c 88e6 0000 0000     g}.~r..UL.......
	...
    7e70:	dcd8 b8b4 d8b0 abb9 f8f3 b3fa bbb7 9e8e     ................
    7e80:	f1ae f532 f11b b8b4 80b0 f197 dfa9 dfdf     ..2.............
    7e90:	dfaa dfdf aaf2 cdc5 a9c7 c90c 972c a9f1     ............,...
    7ea0:	2689 6646 89b2 a999 552d b07d 8ab0 96a8     .&Ff....-U}.....
    7eb0:	5636 f176 a3ba b2b4 c080 a8b8 1197 83b2     6Vv.............
    7ec0:	ba98 f0a3 0824 1044 1864 b9b2 98b4 f183     ....$.D.d.......
    7ed0:	29a3 7d55 b5ba a3b1 9383 00f0 5028 b2f5     .)U}........(P..
    7ee0:	aab6 9383 5428 f17c a3b9 9382 ba61 daa2     ....(T|.....a...
    7ef0:	dfde 81db b99a f5ae 6860 f170 bada dfa2     ........`hp.....
    7f00:	bad9 faa2 a3b9 9282 31db a2ba bad9 f8a2     .........1......
    7f10:	85df d0a4 bbc1 83ad c5c2 b8c7 dfa2 dfdf     ................
    7f20:	a0ba dfdf d8df f1d8 aab8 8db3 98b4 350d     ...............5
    7f30:	b25d bab6 8caf 1996 9f8f 0ea7 1e16 9ab4     ]...............
    7f40:	aab8 2c87 7c54 a4ba 8ab0 91b6 5632 b276     ...,T|......2Vv.
    7f50:	9484 c8a4 cd08 b8d8 b0b4 99f1 a882 552d     ..............-U
    7f60:	987d 0ea8 1e16 2ca2 7c54 a492 2cf0 7850     }......,T|...,Px
    7f70:	84f1 98a8 cdc4 d8fc db0d fca8 f32d bad9     ............-...
    7f80:	f8a6 bada dea6 bad8 b6b2 9686 d0a6 c8f3     ................
    7f90:	da41 c8a6 d8f8 b4b0 82b8 92a8 2cf5 8854     A............,T.
    7fa0:	f198 d935 18f4 f1d8 d0a2 f9f8 84a8 c7d9     ..5.............
    7fb0:	f8df 83f8 dac5 69df 83df d8c1 01f4 f114     .......i........
    7fc0:	82a8 a84e f384 d111 f582 92d9 9728 f188     ..N.........(...
    7fd0:	f409 1c1c 84d8 f3a8 f9c0 d9d1 8297 29f1     ...............)
    7fe0:	0df4 f3d8 f9f9 d9d1 f482 03c2 ded8 1adf     ................
    7ff0:	f1d8 faa2 a8f9 9884 c7d9 f8df f8f8 c783     ................
    8000:	dfda df69 83f8 d8c3 01f4 f114 a898 2e82     ..i.............
    8010:	84a8 11f3 82d1 d9f5 5092 8897 09f1 1cf4     .........P......
    8020:	84d8 f3a8 f8c0 d1f9 97d9 f182 f449 d80d     ............I...
    8030:	f9f3 d1f9 82d9 c4f4 d803 dfde f1d8 88ad     ................
    8040:	cc98 09a8 d9f9 9282 f5a8 f17c 3a88 94cf     ..........|..:..
    8050:	6e4a db98 3169 adda def2 d8f9 9587 f2a8     Jn..i1..........
    8060:	d121 a5da f4f9 d917 aef1 d08e c3c0 82ae     !...............
    8070:	84c6 a8c3 9585 a5c8 f288 f1c0 01f4 f10e     ................
    8080:	9e8e c6a8 563e 54f5 88f1 f472 1501 98f1     ....>V.T..r.....
    8090:	8545 f56e 9e8e 8804 42f1 5a98 9e8e 8806     E.n......B.Z....
    80a0:	f469 1c01 98f1 111e d008 04f5 1ef1 0297     i...............
    80b0:	9802 2536 f9db 85d9 f3a5 dac1 a585 dff3     ..6%............
    80c0:	85d8 a895 09f3 a5da d8fa 9282 f5a8 f178     ..............x.
    80d0:	1a88 9f84 8826 2198 f4da f31d 87d8 399f     ....&..!.......9
    80e0:	afd1 dfd9 fbdf f4f9 f30c fad8 f8d0 f9da     ................
    80f0:	d0f9 d9df d8f9 0bf4 f3d8 9f87 d139 d9af     ............9...
    8100:	dfdf 1df4 d8f3 fcfa 69a8 f9f9 d0af deda     .........i......
    8110:	d9fa 8ff8 a89f ccf1 98f3 45db afd9 d0df     ...........E....
    8120:	d8f8 8ff1 a89f f3ca 0988 afda cb8f d8f8     ................
    8130:	adf2 8d97 d90c dfa5 baf9 f3a6 f4fa f212     ................
    8140:	95d8 d10d bad9 f3a6 dafa f2a5 bac1 f3a6     ................
    8150:	d8df baf1 b6b2 9686 d0a6 f3ca da49 cba6     ............I...
    8160:	d8f8 b4b0 d8b8 84ad c0f2 f1df cb8f a8c3     ................
    8170:	b6b2 9686 c1c8 c3cb b0f3 88b4 a898 db21     ..............!.
    8180:	8d71 719d 9585 d921 f2ad d8fa 9785 28a8     q..q..!........(
    8190:	f4d9 d808 8df2 da29 05f4 f2d9 a485 f2c2     ......).........
    81a0:	a8d8 948d d101 f4d9 f211 87d8 d821 0af4     ............!...
    81b0:	f2d8 9884 c8a8 d101 f4d9 d811 a4f3 bbc8     ................
    81c0:	d0af def2 f8f8 f8f8 f8f8 f8f8 f1d8 f6b8     ................
    81d0:	b9b5 8ab0 a395 3cde d9a3 d8f8 a35c f8d9     .......<....\...
    81e0:	7cd8 d9a3 d8f8 f9f8 a5d1 dfd9 fada b1d8     .|..............
    81f0:	3085 d9f7 d8de 30f8 daad d8de b4f2 998c     .0.....0........
    8200:	2da3 7d55 83a0 dfdf b5df a091 29f6 fbd9     .-U}.........)..
    8210:	a0d8 29fc fad9 a0d8 51d0 f8d9 fcd8 d951     ...).....Q....Q.
    8220:	d8f9 d979 d8fb d0a0 79fc fad9 a1d8 f9f9     ..y......y......
    8230:	f9f9 a0f9 dfda dfdf a1d8 f8f8 f8f8 acf8     ................
    8240:	f8de dead 9383 2cac 7c54 a8f1 dfdf f6df     .......,T|......
    8250:	2c9d a0da d9df dbfa f82d a8d8 da50 d0a0     .,......-...P...
    8260:	d9de f8d0 f8f8 55db d8f8 78a8 a0da dfd0     .......U...x....
    8270:	d0d9 f8fa f8f8 dbf8 f87d 9cd8 8ca8 30f5     ........}......0
    8280:	38db d0d9 dfde d0a0 dfde a8d8 db48 d958     .8..........H.X.
    8290:	d0df a0de d0df d8de 68a8 70db dfd9 a0df     .........h.p....
    82a0:	dfdf f1d8 88a8 2c90 7c54 a898 5cd0 d138     .......,T|...\8.
    82b0:	f2da 8cae f9df b0d8 a887 c1c1 88b1 c6a8     ................
    82c0:	f9f9 36da a8d8 daf9 d836 f9a8 36da a8d8     ...6....6....6..
    82d0:	daf9 d836 f9a8 36da f7d8 9d8d f8ad da18     ..6....6........
    82e0:	aef2 d8df adf7 30fa a4d9 f9de f2d8 deae     .......0........
    82f0:	f9fa a783 c3d9 c7c5 88f1 a79b ad7a def7     ............z...
    8300:	a4df 84f8 0894 97a7 00f3 f2ae 1998 88a4     ................
    8310:	a3c6 8894 32f6 f2df 9383 09db f2d9 dfaa     .....2..........
    8320:	d8d8 f8ae d1f9 f3da dea4 f1a7 9b88 d87a     ..............z.
    8330:	84f3 ae94 f919 aada dff1 a8d8 c081 c5c3     ................
    8340:	a3c7 8392 28f6 dead f8d9 a3d8 ad50 f8d9     .....(......P...
    8350:	a3d8 ad78 f8d9 f8d8 d1f9 daa1 c3de c7c5     ..x.............
    8360:	a1d8 9481 18f8 b0f2 ac89 c5c3 f1c7 b8d8     ................
    8370:	b0b4 8697 31a8 069b 0799 97ab 8828 f09b     .....1......(...
    8380:	200c 4014 b4b0 f0b8 8aa8 289a 7850 9bb7     . .@.......(Px..
    8390:	29a8 7951 7024 4459 3869 4864 f131 abbb     .)Qy$pYDi8dH1...
    83a0:	0088 542c f07c 8bb3 a8b8 2804 7850 b0f1     ..,T|......(Px..
    83b0:	b488 2697 59a8 bb98 b3ab 028b 4626 b066     ...&.Y......&Ff.
    83c0:	f0b8 9c8a 29a8 7951 298b 7951 248a 5970     .....)Qy.)Qy.$pY
    83d0:	208b 7158 448a 3869 398b 6840 648a 3148     . Xq.Di8.9@h.dH1
    83e0:	308b 6049 f188 00ac 542c f07c a88c 2804     .0I`....,T|....(
    83f0:	7850 88f1 2697 59a8 ac98 028c 4626 f066     Px...&.Y....&Ff.
    8400:	9c89 29a8 7951 7024 4459 3869 4864 a931     ...)Qy$pYDi8dH1.
    8410:	0988 5920 ab70 3811 6940 19a8 4831 8c60     .. Yp..8@i..1H`.
    8420:	3ca8 5c41 7c20 f100 9887 8619 6ea8 7e76     .<A\ |.......nv~
    8430:	99a9 2d88 7d55 b1d8 b9b5 dfa3 dfdf d0ae     ...-U}..........
    8440:	aadf ded0 abf2 f9f8 b0d9 c487 f1aa dfdf     ................
    8450:	afbb dfdf d8b9 f1b1 97a3 608e b0df f284     ...........`....
    8460:	f8c8 d9f9 d8de 8593 4af1 83b1 08a3 83b5     .........J......
    8470:	089a b710 109f f1d8 bab0 b0ae c28a b6b2     ................
    8480:	9e8e fbf1 f4d9 d81d d9f9 f10c f8d8 adf8     ................
    8490:	d961 fbae f4d8 f10c f8d8 adf8 d919 fbae     a...............
    84a0:	d8df 16f4 d8f1 adf8 618d f4d9 acf4 9cf5     .........a......
    84b0:	8d9c 2bdf b6ba faae f4f8 d80b aef1 f8d0     ...+............
    84c0:	51ad aeda f8fa d8f1 b1b9 a3b6 9c83 b908     .Q..............
    84d0:	83b1 b59a c0aa 30fd b783 109f 8bb5 f293     .......0........
    84e0:	0202 abd1 deda f1d8 80b0 abba c3c0 84b2     ................
    84f0:	c3c1 b1d8 f3b9 a38b b691 b409 abd9 b0de     ................
    8500:	9c87 a3b9 f1dd 8bb3 8b8b 8b8b 87b0 a3a3     ................
    8510:	a3a3 8bb2 9bb6 a3f2 a3a3 a3a3 a3a3 a3a3     ................
    8520:	f1a3 87b0 9ab5 f3a3 a39b dca3 acba b9df     ................
    8530:	a3a3 a3a3 a3a3 a3a3 a3a3 a3a3 a3a3 a3a3     ................
    8540:	d8d8 bbd8 b7b3 aaf1 daf9 d9ff 9a80 28aa     ...............(
    8550:	80b4 a798 b720 8797 66a8 f088 5179 90f1     .... ....f..yQ..
    8560:	872c a70c 9781 9362 71f0 6071 9485 2901     ,.....b..qq`...)
    8570:	7951 a590 28f1 6c4c 0c87 1895 7885 83a3     Qy...(Ll.....x..
    8580:	2890 6c4c 6c88 f3d8 82a2 f200 a810 1992     .(Ll.l..........
    8590:	a280 d9f2 d826 88f1 4da8 48d9 96d8 39a8     ....&....M.H...9
    85a0:	d980 d83c 8095 39a8 86a6 d998 da2c a787     ..<....9....,...
    85b0:	d82c 89a8 1995 80a9 38d9 a8d8 3989 80a9     ,........8...9..
    85c0:	3cda a8d8 a82e 9039 0cd9 a8d8 3195 d998     .<....9......1..
    85d0:	d80c 09a8 ffd9 01d8 ffda 95d8 a939 26da     ............9..&
    85e0:	d8ff a890 890d a899 8010 2198 2eda 89d8     ...........!....
    85f0:	a899 8031 2eda a8d8 9686 8031 2eda a8d8     ..1.......1.....
    8600:	3187 da80 d82e 82a8 f392 8041 d9f1 d82e     .1........A.....
    8610:	82a8 19f3 f180 2ed9 82d8 f3ac a2c0 2280     ..............."
    8620:	a6f1 a72e a92e 9822 29a8 acda ffde a2d8     ......"..)......
    8630:	2af2 a9f1 822e a892 31f2 a680 f196 00d9     .*.......1......
    8640:	8cac 0c9c ac30 d0de ffde 8cd8 ac9c 10d0     ....0...........
    8650:	deac 9280 f2a2 824c f1a8 f2ca f135 8896     ......L.....5...
    8660:	d9a6 d800 fff1 0000 0000 4348 0000 4680     ..........HC...F
    8670:	0000 4640 0000 4600 0000 45c0 0000 4580     ..@F...F...E...E
    8680:	0000 4540 0000 4500 0000 44c0 0000 43aa     ..@E...E...D...C
    8690:	1eb8 4212 706d 5f75 6d64 5f70 6e69 7469     ...Bmpu_dmp_init
    86a0:	6520 7272 6320 646f 3a65 6425 0a0d 0000      err code:%d....
    86b0:	6179 2077 2020 0d3a 700a 7469 6863 3a20     yaw   :..pitch :
    86c0:	0a0d 6f72 2077 2020 0d3a 740a 6d65 6570     ..row   :..tempe
    86d0:	3a72 0000 e6a1 0000 7953 7473 6d65 495f     r:......System_I
    86e0:	696e 2074 4b4f 0d21 0000 0000 6179 3d77     nit OK!.....yaw=
    86f0:	6625 0a0d 0000 0000 6970 6374 3d68 6625     %f......pitch=%f
    8700:	0a0d 0000 6f72 6c6c 253d 0d66 000a 0000     ....roll=%f.....
    8710:	7661 795f 7761 253d 0d64 000a 7661 705f     av_yaw=%d...av_p
    8720:	7469 6863 253d 0d64 000a 0000 7661 725f     itch=%d.....av_r
    8730:	6c6f 3d6c 6425 0a0d 0000 0000 6574 706d     oll=%d......temp
    8740:	253d 0d66 0a0a 0000 7361 6e69 0066 0000     =%f.....asinf...
    8750:	bd2e b33b 0fdb 3fc9 f2ca 7149 ef08 3811     ..;....?..Iq...8
    8760:	7f04 3a4f 1146 bd24 0aa8 3e4e b090 bea6     ..O:F.$...N>....
    8770:	aaab 3e2a c62e 3d9d 3361 bf30 572d 4001     ..*>...=a30.-W.@
    8780:	d139 c019 0000 3f00 0000 4000 bd2e 333b     9......?...@..;3
    8790:	0fdb 3f49 0fdb 4049 0fdb c049 0000 8000     ..I?..I@..I.....
    87a0:	0fdb bfc9 cbe4 4016 cbe4 c016 0fdb bf49     .......@......I.
    87b0:	bd2e 33bb 0000 0000 0000 0000 0000 7ff8     ...3............
    87c0:	0000 bf80 0000 3fc0 69d7 3c85 da59 3d4b     .......?.i.<Y.K=
    87d0:	6b35 3d88 2e6e 3dba 4925 3e12 aaab 3eaa     5k.=n..=%I.>...>
    87e0:	a221 bd15 f16b bd6e 8795 bd9d 8e38 bde3     !...k.n.....8...
    87f0:	cccd be4c                                   ..L.

000087f4 <atanhi>:
    87f4:	6338 3eed 0fda 3f49 985e 3f7b 0fda 3fc9     8c.>..I?^.{?...?

00008804 <atanlo>:
    8804:	3769 31ac 2168 3322 0fb4 3314 2168 33a2     i7.1h!"3...3h!.3
    8814:	6e28 6c75 296c 0000 d938 ffff d7f2 ffff     (null)..8.......
    8824:	d7f2 ffff d7f0 ffff d7f8 ffff d7f8 ffff     ................
    8834:	dc24 ffff d7f0 ffff d7f8 ffff dc24 ffff     $...........$...
    8844:	d7f8 ffff d7f0 ffff d924 ffff d924 ffff     ........$...$...
    8854:	d924 ffff d916 ffff                         $.......

0000885c <__clz_tab>:
    885c:	0100 0202 0303 0303 0404 0404 0404 0404     ................
    886c:	0505 0505 0505 0505 0505 0505 0505 0505     ................
    887c:	0606 0606 0606 0606 0606 0606 0606 0606     ................
    888c:	0606 0606 0606 0606 0606 0606 0606 0606     ................
    889c:	0707 0707 0707 0707 0707 0707 0707 0707     ................
    88ac:	0707 0707 0707 0707 0707 0707 0707 0707     ................
    88bc:	0707 0707 0707 0707 0707 0707 0707 0707     ................
    88cc:	0707 0707 0707 0707 0707 0707 0707 0707     ................
    88dc:	0808 0808 0808 0808 0808 0808 0808 0808     ................
    88ec:	0808 0808 0808 0808 0808 0808 0808 0808     ................
    88fc:	0808 0808 0808 0808 0808 0808 0808 0808     ................
    890c:	0808 0808 0808 0808 0808 0808 0808 0808     ................
    891c:	0808 0808 0808 0808 0808 0808 0808 0808     ................
    892c:	0808 0808 0808 0808 0808 0808 0808 0808     ................
    893c:	0808 0808 0808 0808 0808 0808 0808 0808     ................
    894c:	0808 0808 0808 0808 0808 0808 0808 0808     ................
